
Nucleo-64 Test.elf:     file format elf32-littlearm

Sections:
Idx Name          Size      VMA       LMA       File off  Algn
  0 .isr_vector   00000194  08000000  08000000  00010000  2**0
                  CONTENTS, ALLOC, LOAD, READONLY, DATA
  1 .text         00002084  08000194  08000194  00010194  2**2
                  CONTENTS, ALLOC, LOAD, READONLY, CODE
  2 .rodata       00000040  08002218  08002218  00012218  2**2
                  CONTENTS, ALLOC, LOAD, READONLY, DATA
  3 .ARM.extab    00000000  08002258  08002258  0002000c  2**0
                  CONTENTS
  4 .ARM          00000000  08002258  08002258  0002000c  2**0
                  CONTENTS
  5 .preinit_array 00000000  08002258  08002258  0002000c  2**0
                  CONTENTS, ALLOC, LOAD, DATA
  6 .init_array   00000004  08002258  08002258  00012258  2**2
                  CONTENTS, ALLOC, LOAD, DATA
  7 .fini_array   00000004  0800225c  0800225c  0001225c  2**2
                  CONTENTS, ALLOC, LOAD, DATA
  8 .data         0000000c  20000000  08002260  00020000  2**2
                  CONTENTS, ALLOC, LOAD, DATA
  9 .bss          0000006c  2000000c  0800226c  0002000c  2**2
                  ALLOC
 10 ._user_heap_stack 00000600  20000078  0800226c  00020078  2**0
                  ALLOC
 11 .ARM.attributes 00000030  00000000  00000000  0002000c  2**0
                  CONTENTS, READONLY
 12 .debug_info   0000a50a  00000000  00000000  0002003c  2**0
                  CONTENTS, READONLY, DEBUGGING, OCTETS
 13 .debug_abbrev 0000171d  00000000  00000000  0002a546  2**0
                  CONTENTS, READONLY, DEBUGGING, OCTETS
 14 .debug_aranges 00000ae8  00000000  00000000  0002bc68  2**3
                  CONTENTS, READONLY, DEBUGGING, OCTETS
 15 .debug_ranges 00000a30  00000000  00000000  0002c750  2**3
                  CONTENTS, READONLY, DEBUGGING, OCTETS
 16 .debug_macro  0002155f  00000000  00000000  0002d180  2**0
                  CONTENTS, READONLY, DEBUGGING, OCTETS
 17 .debug_line   0000b639  00000000  00000000  0004e6df  2**0
                  CONTENTS, READONLY, DEBUGGING, OCTETS
 18 .debug_str    000d04a2  00000000  00000000  00059d18  2**0
                  CONTENTS, READONLY, DEBUGGING, OCTETS
 19 .comment      00000050  00000000  00000000  0012a1ba  2**0
                  CONTENTS, READONLY
 20 .debug_frame  00002d20  00000000  00000000  0012a20c  2**2
                  CONTENTS, READONLY, DEBUGGING, OCTETS

Disassembly of section .text:

08000194 <__do_global_dtors_aux>:
 8000194:	b510      	push	{r4, lr}
 8000196:	4c05      	ldr	r4, [pc, #20]	; (80001ac <__do_global_dtors_aux+0x18>)
 8000198:	7823      	ldrb	r3, [r4, #0]
 800019a:	b933      	cbnz	r3, 80001aa <__do_global_dtors_aux+0x16>
 800019c:	4b04      	ldr	r3, [pc, #16]	; (80001b0 <__do_global_dtors_aux+0x1c>)
 800019e:	b113      	cbz	r3, 80001a6 <__do_global_dtors_aux+0x12>
 80001a0:	4804      	ldr	r0, [pc, #16]	; (80001b4 <__do_global_dtors_aux+0x20>)
 80001a2:	f3af 8000 	nop.w
 80001a6:	2301      	movs	r3, #1
 80001a8:	7023      	strb	r3, [r4, #0]
 80001aa:	bd10      	pop	{r4, pc}
 80001ac:	2000000c 	.word	0x2000000c
 80001b0:	00000000 	.word	0x00000000
 80001b4:	08002200 	.word	0x08002200

080001b8 <frame_dummy>:
 80001b8:	b508      	push	{r3, lr}
 80001ba:	4b03      	ldr	r3, [pc, #12]	; (80001c8 <frame_dummy+0x10>)
 80001bc:	b11b      	cbz	r3, 80001c6 <frame_dummy+0xe>
 80001be:	4903      	ldr	r1, [pc, #12]	; (80001cc <frame_dummy+0x14>)
 80001c0:	4803      	ldr	r0, [pc, #12]	; (80001d0 <frame_dummy+0x18>)
 80001c2:	f3af 8000 	nop.w
 80001c6:	bd08      	pop	{r3, pc}
 80001c8:	00000000 	.word	0x00000000
 80001cc:	20000010 	.word	0x20000010
 80001d0:	08002200 	.word	0x08002200

080001d4 <HAL_TIM_PeriodElapsedCallback>:
/* USER CODE END PFP */

/* Private user code ---------------------------------------------------------*/
/* USER CODE BEGIN 0 */

void HAL_TIM_PeriodElapsedCallback(TIM_HandleTypeDef * htim) {
 80001d4:	b580      	push	{r7, lr}
 80001d6:	b082      	sub	sp, #8
 80001d8:	af00      	add	r7, sp, #0
 80001da:	6078      	str	r0, [r7, #4]
	HAL_GPIO_TogglePin(GPIOA, GPIO_PIN_5);
 80001dc:	2120      	movs	r1, #32
 80001de:	f04f 4090 	mov.w	r0, #1207959552	; 0x48000000
 80001e2:	f000 fd0b 	bl	8000bfc <HAL_GPIO_TogglePin>
}
 80001e6:	bf00      	nop
 80001e8:	3708      	adds	r7, #8
 80001ea:	46bd      	mov	sp, r7
 80001ec:	bd80      	pop	{r7, pc}
	...

080001f0 <main>:
/**
  * @brief  The application entry point.
  * @retval int
  */
int main(void)
{
 80001f0:	b580      	push	{r7, lr}
 80001f2:	af00      	add	r7, sp, #0
  /* USER CODE END 1 */

  /* MCU Configuration--------------------------------------------------------*/

  /* Reset of all peripherals, Initializes the Flash interface and the Systick. */
  HAL_Init();
 80001f4:	f000 f9e2 	bl	80005bc <HAL_Init>
  /* USER CODE BEGIN Init */

  /* USER CODE END Init */

  /* Configure the system clock */
  SystemClock_Config();
 80001f8:	f000 f80a 	bl	8000210 <SystemClock_Config>
  /* USER CODE BEGIN SysInit */

  /* USER CODE END SysInit */

  /* Initialize all configured peripherals */
  MX_GPIO_Init();
 80001fc:	f000 f8a8 	bl	8000350 <MX_GPIO_Init>
  MX_TIM2_Init();
 8000200:	f000 f858 	bl	80002b4 <MX_TIM2_Init>

  // Enable TIM2
  	HAL_TIM_Base_Start_IT(&htim2);
 8000204:	4801      	ldr	r0, [pc, #4]	; (800020c <main+0x1c>)
 8000206:	f001 fbcf 	bl	80019a8 <HAL_TIM_Base_Start_IT>

  /* USER CODE END 2 */

  /* Infinite loop */
  /* USER CODE BEGIN WHILE */
  while (1)
 800020a:	e7fe      	b.n	800020a <main+0x1a>
 800020c:	20000028 	.word	0x20000028

08000210 <SystemClock_Config>:
/**
  * @brief System Clock Configuration
  * @retval None
  */
void SystemClock_Config(void)
{
 8000210:	b580      	push	{r7, lr}
 8000212:	b096      	sub	sp, #88	; 0x58
 8000214:	af00      	add	r7, sp, #0
  RCC_OscInitTypeDef RCC_OscInitStruct = {0};
 8000216:	f107 0314 	add.w	r3, r7, #20
 800021a:	2244      	movs	r2, #68	; 0x44
 800021c:	2100      	movs	r1, #0
 800021e:	4618      	mov	r0, r3
 8000220:	f001 ffe6 	bl	80021f0 <memset>
  RCC_ClkInitTypeDef RCC_ClkInitStruct = {0};
 8000224:	463b      	mov	r3, r7
 8000226:	2200      	movs	r2, #0
 8000228:	601a      	str	r2, [r3, #0]
 800022a:	605a      	str	r2, [r3, #4]
 800022c:	609a      	str	r2, [r3, #8]
 800022e:	60da      	str	r2, [r3, #12]
 8000230:	611a      	str	r2, [r3, #16]

  /** Configure the main internal regulator output voltage
  */
  if (HAL_PWREx_ControlVoltageScaling(PWR_REGULATOR_VOLTAGE_SCALE1) != HAL_OK)
 8000232:	f44f 7000 	mov.w	r0, #512	; 0x200
 8000236:	f000 fd09 	bl	8000c4c <HAL_PWREx_ControlVoltageScaling>
 800023a:	4603      	mov	r3, r0
 800023c:	2b00      	cmp	r3, #0
 800023e:	d001      	beq.n	8000244 <SystemClock_Config+0x34>
  {
    Error_Handler();
 8000240:	f000 f8fe 	bl	8000440 <Error_Handler>
  }

  /** Initializes the RCC Oscillators according to the specified parameters
  * in the RCC_OscInitTypeDef structure.
  */
  RCC_OscInitStruct.OscillatorType = RCC_OSCILLATORTYPE_HSI;
 8000244:	2302      	movs	r3, #2
 8000246:	617b      	str	r3, [r7, #20]
  RCC_OscInitStruct.HSIState = RCC_HSI_ON;
 8000248:	f44f 7380 	mov.w	r3, #256	; 0x100
 800024c:	623b      	str	r3, [r7, #32]
  RCC_OscInitStruct.HSICalibrationValue = RCC_HSICALIBRATION_DEFAULT;
 800024e:	2340      	movs	r3, #64	; 0x40
 8000250:	627b      	str	r3, [r7, #36]	; 0x24
  RCC_OscInitStruct.PLL.PLLState = RCC_PLL_ON;
 8000252:	2302      	movs	r3, #2
 8000254:	63fb      	str	r3, [r7, #60]	; 0x3c
  RCC_OscInitStruct.PLL.PLLSource = RCC_PLLSOURCE_HSI;
 8000256:	2302      	movs	r3, #2
 8000258:	643b      	str	r3, [r7, #64]	; 0x40
  RCC_OscInitStruct.PLL.PLLM = 1;
 800025a:	2301      	movs	r3, #1
 800025c:	647b      	str	r3, [r7, #68]	; 0x44
  RCC_OscInitStruct.PLL.PLLN = 10;
 800025e:	230a      	movs	r3, #10
 8000260:	64bb      	str	r3, [r7, #72]	; 0x48
  RCC_OscInitStruct.PLL.PLLP = RCC_PLLP_DIV7;
 8000262:	2307      	movs	r3, #7
 8000264:	64fb      	str	r3, [r7, #76]	; 0x4c
  RCC_OscInitStruct.PLL.PLLQ = RCC_PLLQ_DIV2;
 8000266:	2302      	movs	r3, #2
 8000268:	653b      	str	r3, [r7, #80]	; 0x50
  RCC_OscInitStruct.PLL.PLLR = RCC_PLLR_DIV2;
 800026a:	2302      	movs	r3, #2
 800026c:	657b      	str	r3, [r7, #84]	; 0x54
  if (HAL_RCC_OscConfig(&RCC_OscInitStruct) != HAL_OK)
 800026e:	f107 0314 	add.w	r3, r7, #20
 8000272:	4618      	mov	r0, r3
 8000274:	f000 fd40 	bl	8000cf8 <HAL_RCC_OscConfig>
 8000278:	4603      	mov	r3, r0
 800027a:	2b00      	cmp	r3, #0
 800027c:	d001      	beq.n	8000282 <SystemClock_Config+0x72>
  {
    Error_Handler();
 800027e:	f000 f8df 	bl	8000440 <Error_Handler>
  }

  /** Initializes the CPU, AHB and APB buses clocks
  */
  RCC_ClkInitStruct.ClockType = RCC_CLOCKTYPE_HCLK|RCC_CLOCKTYPE_SYSCLK
 8000282:	230f      	movs	r3, #15
 8000284:	603b      	str	r3, [r7, #0]
                              |RCC_CLOCKTYPE_PCLK1|RCC_CLOCKTYPE_PCLK2;
  RCC_ClkInitStruct.SYSCLKSource = RCC_SYSCLKSOURCE_PLLCLK;
 8000286:	2303      	movs	r3, #3
 8000288:	607b      	str	r3, [r7, #4]
  RCC_ClkInitStruct.AHBCLKDivider = RCC_SYSCLK_DIV1;
 800028a:	2300      	movs	r3, #0
 800028c:	60bb      	str	r3, [r7, #8]
  RCC_ClkInitStruct.APB1CLKDivider = RCC_HCLK_DIV1;
 800028e:	2300      	movs	r3, #0
 8000290:	60fb      	str	r3, [r7, #12]
  RCC_ClkInitStruct.APB2CLKDivider = RCC_HCLK_DIV1;
 8000292:	2300      	movs	r3, #0
 8000294:	613b      	str	r3, [r7, #16]

  if (HAL_RCC_ClockConfig(&RCC_ClkInitStruct, FLASH_LATENCY_4) != HAL_OK)
 8000296:	463b      	mov	r3, r7
 8000298:	2104      	movs	r1, #4
 800029a:	4618      	mov	r0, r3
 800029c:	f001 f940 	bl	8001520 <HAL_RCC_ClockConfig>
 80002a0:	4603      	mov	r3, r0
 80002a2:	2b00      	cmp	r3, #0
 80002a4:	d001      	beq.n	80002aa <SystemClock_Config+0x9a>
  {
    Error_Handler();
 80002a6:	f000 f8cb 	bl	8000440 <Error_Handler>
  }
}
 80002aa:	bf00      	nop
 80002ac:	3758      	adds	r7, #88	; 0x58
 80002ae:	46bd      	mov	sp, r7
 80002b0:	bd80      	pop	{r7, pc}
	...

080002b4 <MX_TIM2_Init>:
  * @brief TIM2 Initialization Function
  * @param None
  * @retval None
  */
static void MX_TIM2_Init(void)
{
 80002b4:	b580      	push	{r7, lr}
 80002b6:	b088      	sub	sp, #32
 80002b8:	af00      	add	r7, sp, #0

  /* USER CODE BEGIN TIM2_Init 0 */

  /* USER CODE END TIM2_Init 0 */

  TIM_ClockConfigTypeDef sClockSourceConfig = {0};
 80002ba:	f107 0310 	add.w	r3, r7, #16
 80002be:	2200      	movs	r2, #0
 80002c0:	601a      	str	r2, [r3, #0]
 80002c2:	605a      	str	r2, [r3, #4]
 80002c4:	609a      	str	r2, [r3, #8]
 80002c6:	60da      	str	r2, [r3, #12]
  TIM_MasterConfigTypeDef sMasterConfig = {0};
 80002c8:	1d3b      	adds	r3, r7, #4
 80002ca:	2200      	movs	r2, #0
 80002cc:	601a      	str	r2, [r3, #0]
 80002ce:	605a      	str	r2, [r3, #4]
 80002d0:	609a      	str	r2, [r3, #8]

  /* USER CODE BEGIN TIM2_Init 1 */

  /* USER CODE END TIM2_Init 1 */
  htim2.Instance = TIM2;
 80002d2:	4b1d      	ldr	r3, [pc, #116]	; (8000348 <MX_TIM2_Init+0x94>)
 80002d4:	f04f 4280 	mov.w	r2, #1073741824	; 0x40000000
 80002d8:	601a      	str	r2, [r3, #0]
  htim2.Init.Prescaler = 0;
 80002da:	4b1b      	ldr	r3, [pc, #108]	; (8000348 <MX_TIM2_Init+0x94>)
 80002dc:	2200      	movs	r2, #0
 80002de:	605a      	str	r2, [r3, #4]
  htim2.Init.CounterMode = TIM_COUNTERMODE_UP;
 80002e0:	4b19      	ldr	r3, [pc, #100]	; (8000348 <MX_TIM2_Init+0x94>)
 80002e2:	2200      	movs	r2, #0
 80002e4:	609a      	str	r2, [r3, #8]
  htim2.Init.Period = 80000000;
 80002e6:	4b18      	ldr	r3, [pc, #96]	; (8000348 <MX_TIM2_Init+0x94>)
 80002e8:	4a18      	ldr	r2, [pc, #96]	; (800034c <MX_TIM2_Init+0x98>)
 80002ea:	60da      	str	r2, [r3, #12]
  htim2.Init.ClockDivision = TIM_CLOCKDIVISION_DIV1;
 80002ec:	4b16      	ldr	r3, [pc, #88]	; (8000348 <MX_TIM2_Init+0x94>)
 80002ee:	2200      	movs	r2, #0
 80002f0:	611a      	str	r2, [r3, #16]
  htim2.Init.AutoReloadPreload = TIM_AUTORELOAD_PRELOAD_DISABLE;
 80002f2:	4b15      	ldr	r3, [pc, #84]	; (8000348 <MX_TIM2_Init+0x94>)
 80002f4:	2200      	movs	r2, #0
 80002f6:	619a      	str	r2, [r3, #24]
  if (HAL_TIM_Base_Init(&htim2) != HAL_OK)
 80002f8:	4813      	ldr	r0, [pc, #76]	; (8000348 <MX_TIM2_Init+0x94>)
 80002fa:	f001 fafd 	bl	80018f8 <HAL_TIM_Base_Init>
 80002fe:	4603      	mov	r3, r0
 8000300:	2b00      	cmp	r3, #0
 8000302:	d001      	beq.n	8000308 <MX_TIM2_Init+0x54>
  {
    Error_Handler();
 8000304:	f000 f89c 	bl	8000440 <Error_Handler>
  }
  sClockSourceConfig.ClockSource = TIM_CLOCKSOURCE_INTERNAL;
 8000308:	f44f 5380 	mov.w	r3, #4096	; 0x1000
 800030c:	613b      	str	r3, [r7, #16]
  if (HAL_TIM_ConfigClockSource(&htim2, &sClockSourceConfig) != HAL_OK)
 800030e:	f107 0310 	add.w	r3, r7, #16
 8000312:	4619      	mov	r1, r3
 8000314:	480c      	ldr	r0, [pc, #48]	; (8000348 <MX_TIM2_Init+0x94>)
 8000316:	f001 fcc2 	bl	8001c9e <HAL_TIM_ConfigClockSource>
 800031a:	4603      	mov	r3, r0
 800031c:	2b00      	cmp	r3, #0
 800031e:	d001      	beq.n	8000324 <MX_TIM2_Init+0x70>
  {
    Error_Handler();
 8000320:	f000 f88e 	bl	8000440 <Error_Handler>
  }
  sMasterConfig.MasterOutputTrigger = TIM_TRGO_RESET;
 8000324:	2300      	movs	r3, #0
 8000326:	607b      	str	r3, [r7, #4]
  sMasterConfig.MasterSlaveMode = TIM_MASTERSLAVEMODE_DISABLE;
 8000328:	2300      	movs	r3, #0
 800032a:	60fb      	str	r3, [r7, #12]
  if (HAL_TIMEx_MasterConfigSynchronization(&htim2, &sMasterConfig) != HAL_OK)
 800032c:	1d3b      	adds	r3, r7, #4
 800032e:	4619      	mov	r1, r3
 8000330:	4805      	ldr	r0, [pc, #20]	; (8000348 <MX_TIM2_Init+0x94>)
 8000332:	f001 fead 	bl	8002090 <HAL_TIMEx_MasterConfigSynchronization>
 8000336:	4603      	mov	r3, r0
 8000338:	2b00      	cmp	r3, #0
 800033a:	d001      	beq.n	8000340 <MX_TIM2_Init+0x8c>
  {
    Error_Handler();
 800033c:	f000 f880 	bl	8000440 <Error_Handler>
  }
  /* USER CODE BEGIN TIM2_Init 2 */

  /* USER CODE END TIM2_Init 2 */

}
 8000340:	bf00      	nop
 8000342:	3720      	adds	r7, #32
 8000344:	46bd      	mov	sp, r7
 8000346:	bd80      	pop	{r7, pc}
 8000348:	20000028 	.word	0x20000028
 800034c:	04c4b400 	.word	0x04c4b400

08000350 <MX_GPIO_Init>:
  * @brief GPIO Initialization Function
  * @param None
  * @retval None
  */
static void MX_GPIO_Init(void)
{
 8000350:	b580      	push	{r7, lr}
 8000352:	b08a      	sub	sp, #40	; 0x28
 8000354:	af00      	add	r7, sp, #0
  GPIO_InitTypeDef GPIO_InitStruct = {0};
 8000356:	f107 0314 	add.w	r3, r7, #20
 800035a:	2200      	movs	r2, #0
 800035c:	601a      	str	r2, [r3, #0]
 800035e:	605a      	str	r2, [r3, #4]
 8000360:	609a      	str	r2, [r3, #8]
 8000362:	60da      	str	r2, [r3, #12]
 8000364:	611a      	str	r2, [r3, #16]

  /* GPIO Ports Clock Enable */
  __HAL_RCC_GPIOC_CLK_ENABLE();
 8000366:	4b34      	ldr	r3, [pc, #208]	; (8000438 <MX_GPIO_Init+0xe8>)
 8000368:	6cdb      	ldr	r3, [r3, #76]	; 0x4c
 800036a:	4a33      	ldr	r2, [pc, #204]	; (8000438 <MX_GPIO_Init+0xe8>)
 800036c:	f043 0304 	orr.w	r3, r3, #4
 8000370:	64d3      	str	r3, [r2, #76]	; 0x4c
 8000372:	4b31      	ldr	r3, [pc, #196]	; (8000438 <MX_GPIO_Init+0xe8>)
 8000374:	6cdb      	ldr	r3, [r3, #76]	; 0x4c
 8000376:	f003 0304 	and.w	r3, r3, #4
 800037a:	613b      	str	r3, [r7, #16]
 800037c:	693b      	ldr	r3, [r7, #16]
  __HAL_RCC_GPIOH_CLK_ENABLE();
 800037e:	4b2e      	ldr	r3, [pc, #184]	; (8000438 <MX_GPIO_Init+0xe8>)
 8000380:	6cdb      	ldr	r3, [r3, #76]	; 0x4c
 8000382:	4a2d      	ldr	r2, [pc, #180]	; (8000438 <MX_GPIO_Init+0xe8>)
 8000384:	f043 0380 	orr.w	r3, r3, #128	; 0x80
 8000388:	64d3      	str	r3, [r2, #76]	; 0x4c
 800038a:	4b2b      	ldr	r3, [pc, #172]	; (8000438 <MX_GPIO_Init+0xe8>)
 800038c:	6cdb      	ldr	r3, [r3, #76]	; 0x4c
 800038e:	f003 0380 	and.w	r3, r3, #128	; 0x80
 8000392:	60fb      	str	r3, [r7, #12]
 8000394:	68fb      	ldr	r3, [r7, #12]
  __HAL_RCC_GPIOA_CLK_ENABLE();
 8000396:	4b28      	ldr	r3, [pc, #160]	; (8000438 <MX_GPIO_Init+0xe8>)
 8000398:	6cdb      	ldr	r3, [r3, #76]	; 0x4c
 800039a:	4a27      	ldr	r2, [pc, #156]	; (8000438 <MX_GPIO_Init+0xe8>)
 800039c:	f043 0301 	orr.w	r3, r3, #1
 80003a0:	64d3      	str	r3, [r2, #76]	; 0x4c
 80003a2:	4b25      	ldr	r3, [pc, #148]	; (8000438 <MX_GPIO_Init+0xe8>)
 80003a4:	6cdb      	ldr	r3, [r3, #76]	; 0x4c
 80003a6:	f003 0301 	and.w	r3, r3, #1
 80003aa:	60bb      	str	r3, [r7, #8]
 80003ac:	68bb      	ldr	r3, [r7, #8]
  __HAL_RCC_GPIOB_CLK_ENABLE();
 80003ae:	4b22      	ldr	r3, [pc, #136]	; (8000438 <MX_GPIO_Init+0xe8>)
 80003b0:	6cdb      	ldr	r3, [r3, #76]	; 0x4c
 80003b2:	4a21      	ldr	r2, [pc, #132]	; (8000438 <MX_GPIO_Init+0xe8>)
 80003b4:	f043 0302 	orr.w	r3, r3, #2
 80003b8:	64d3      	str	r3, [r2, #76]	; 0x4c
 80003ba:	4b1f      	ldr	r3, [pc, #124]	; (8000438 <MX_GPIO_Init+0xe8>)
 80003bc:	6cdb      	ldr	r3, [r3, #76]	; 0x4c
 80003be:	f003 0302 	and.w	r3, r3, #2
 80003c2:	607b      	str	r3, [r7, #4]
 80003c4:	687b      	ldr	r3, [r7, #4]

  /*Configure GPIO pin Output Level */
  HAL_GPIO_WritePin(LEDPIN_GPIO_Port, LEDPIN_Pin, GPIO_PIN_SET);
 80003c6:	2201      	movs	r2, #1
 80003c8:	2120      	movs	r1, #32
 80003ca:	f04f 4090 	mov.w	r0, #1207959552	; 0x48000000
 80003ce:	f000 fbfd 	bl	8000bcc <HAL_GPIO_WritePin>

  /*Configure GPIO pin : B1_Pin */
  GPIO_InitStruct.Pin = B1_Pin;
 80003d2:	f44f 5300 	mov.w	r3, #8192	; 0x2000
 80003d6:	617b      	str	r3, [r7, #20]
  GPIO_InitStruct.Mode = GPIO_MODE_IT_FALLING;
 80003d8:	f44f 1304 	mov.w	r3, #2162688	; 0x210000
 80003dc:	61bb      	str	r3, [r7, #24]
  GPIO_InitStruct.Pull = GPIO_NOPULL;
 80003de:	2300      	movs	r3, #0
 80003e0:	61fb      	str	r3, [r7, #28]
  HAL_GPIO_Init(B1_GPIO_Port, &GPIO_InitStruct);
 80003e2:	f107 0314 	add.w	r3, r7, #20
 80003e6:	4619      	mov	r1, r3
 80003e8:	4814      	ldr	r0, [pc, #80]	; (800043c <MX_GPIO_Init+0xec>)
 80003ea:	f000 fa75 	bl	80008d8 <HAL_GPIO_Init>

  /*Configure GPIO pins : USART_TX_Pin USART_RX_Pin */
  GPIO_InitStruct.Pin = USART_TX_Pin|USART_RX_Pin;
 80003ee:	230c      	movs	r3, #12
 80003f0:	617b      	str	r3, [r7, #20]
  GPIO_InitStruct.Mode = GPIO_MODE_AF_PP;
 80003f2:	2302      	movs	r3, #2
 80003f4:	61bb      	str	r3, [r7, #24]
  GPIO_InitStruct.Pull = GPIO_NOPULL;
 80003f6:	2300      	movs	r3, #0
 80003f8:	61fb      	str	r3, [r7, #28]
  GPIO_InitStruct.Speed = GPIO_SPEED_FREQ_VERY_HIGH;
 80003fa:	2303      	movs	r3, #3
 80003fc:	623b      	str	r3, [r7, #32]
  GPIO_InitStruct.Alternate = GPIO_AF7_USART2;
 80003fe:	2307      	movs	r3, #7
 8000400:	627b      	str	r3, [r7, #36]	; 0x24
  HAL_GPIO_Init(GPIOA, &GPIO_InitStruct);
 8000402:	f107 0314 	add.w	r3, r7, #20
 8000406:	4619      	mov	r1, r3
 8000408:	f04f 4090 	mov.w	r0, #1207959552	; 0x48000000
 800040c:	f000 fa64 	bl	80008d8 <HAL_GPIO_Init>

  /*Configure GPIO pin : LEDPIN_Pin */
  GPIO_InitStruct.Pin = LEDPIN_Pin;
 8000410:	2320      	movs	r3, #32
 8000412:	617b      	str	r3, [r7, #20]
  GPIO_InitStruct.Mode = GPIO_MODE_OUTPUT_PP;
 8000414:	2301      	movs	r3, #1
 8000416:	61bb      	str	r3, [r7, #24]
  GPIO_InitStruct.Pull = GPIO_NOPULL;
 8000418:	2300      	movs	r3, #0
 800041a:	61fb      	str	r3, [r7, #28]
  GPIO_InitStruct.Speed = GPIO_SPEED_FREQ_LOW;
 800041c:	2300      	movs	r3, #0
 800041e:	623b      	str	r3, [r7, #32]
  HAL_GPIO_Init(LEDPIN_GPIO_Port, &GPIO_InitStruct);
 8000420:	f107 0314 	add.w	r3, r7, #20
 8000424:	4619      	mov	r1, r3
 8000426:	f04f 4090 	mov.w	r0, #1207959552	; 0x48000000
 800042a:	f000 fa55 	bl	80008d8 <HAL_GPIO_Init>

}
 800042e:	bf00      	nop
 8000430:	3728      	adds	r7, #40	; 0x28
 8000432:	46bd      	mov	sp, r7
 8000434:	bd80      	pop	{r7, pc}
 8000436:	bf00      	nop
 8000438:	40021000 	.word	0x40021000
 800043c:	48000800 	.word	0x48000800

08000440 <Error_Handler>:
/**
  * @brief  This function is executed in case of error occurrence.
  * @retval None
  */
void Error_Handler(void)
{
 8000440:	b480      	push	{r7}
 8000442:	af00      	add	r7, sp, #0
  \details Disables IRQ interrupts by setting the I-bit in the CPSR.
           Can only be executed in Privileged modes.
 */
__STATIC_FORCEINLINE void __disable_irq(void)
{
  __ASM volatile ("cpsid i" : : : "memory");
 8000444:	b672      	cpsid	i
}
 8000446:	bf00      	nop
  /* USER CODE BEGIN Error_Handler_Debug */
  /* User can add his own implementation to report the HAL error return state */
  __disable_irq();
  while (1)
 8000448:	e7fe      	b.n	8000448 <Error_Handler+0x8>
	...

0800044c <HAL_MspInit>:
/* USER CODE END 0 */
/**
  * Initializes the Global MSP.
  */
void HAL_MspInit(void)
{
 800044c:	b480      	push	{r7}
 800044e:	b083      	sub	sp, #12
 8000450:	af00      	add	r7, sp, #0
  /* USER CODE BEGIN MspInit 0 */

  /* USER CODE END MspInit 0 */

  __HAL_RCC_SYSCFG_CLK_ENABLE();
 8000452:	4b0f      	ldr	r3, [pc, #60]	; (8000490 <HAL_MspInit+0x44>)
 8000454:	6e1b      	ldr	r3, [r3, #96]	; 0x60
 8000456:	4a0e      	ldr	r2, [pc, #56]	; (8000490 <HAL_MspInit+0x44>)
 8000458:	f043 0301 	orr.w	r3, r3, #1
 800045c:	6613      	str	r3, [r2, #96]	; 0x60
 800045e:	4b0c      	ldr	r3, [pc, #48]	; (8000490 <HAL_MspInit+0x44>)
 8000460:	6e1b      	ldr	r3, [r3, #96]	; 0x60
 8000462:	f003 0301 	and.w	r3, r3, #1
 8000466:	607b      	str	r3, [r7, #4]
 8000468:	687b      	ldr	r3, [r7, #4]
  __HAL_RCC_PWR_CLK_ENABLE();
 800046a:	4b09      	ldr	r3, [pc, #36]	; (8000490 <HAL_MspInit+0x44>)
 800046c:	6d9b      	ldr	r3, [r3, #88]	; 0x58
 800046e:	4a08      	ldr	r2, [pc, #32]	; (8000490 <HAL_MspInit+0x44>)
 8000470:	f043 5380 	orr.w	r3, r3, #268435456	; 0x10000000
 8000474:	6593      	str	r3, [r2, #88]	; 0x58
 8000476:	4b06      	ldr	r3, [pc, #24]	; (8000490 <HAL_MspInit+0x44>)
 8000478:	6d9b      	ldr	r3, [r3, #88]	; 0x58
 800047a:	f003 5380 	and.w	r3, r3, #268435456	; 0x10000000
 800047e:	603b      	str	r3, [r7, #0]
 8000480:	683b      	ldr	r3, [r7, #0]
  /* System interrupt init*/

  /* USER CODE BEGIN MspInit 1 */

  /* USER CODE END MspInit 1 */
}
 8000482:	bf00      	nop
 8000484:	370c      	adds	r7, #12
 8000486:	46bd      	mov	sp, r7
 8000488:	f85d 7b04 	ldr.w	r7, [sp], #4
 800048c:	4770      	bx	lr
 800048e:	bf00      	nop
 8000490:	40021000 	.word	0x40021000

08000494 <HAL_TIM_Base_MspInit>:
* This function configures the hardware resources used in this example
* @param htim_base: TIM_Base handle pointer
* @retval None
*/
void HAL_TIM_Base_MspInit(TIM_HandleTypeDef* htim_base)
{
 8000494:	b580      	push	{r7, lr}
 8000496:	b084      	sub	sp, #16
 8000498:	af00      	add	r7, sp, #0
 800049a:	6078      	str	r0, [r7, #4]
  if(htim_base->Instance==TIM2)
 800049c:	687b      	ldr	r3, [r7, #4]
 800049e:	681b      	ldr	r3, [r3, #0]
 80004a0:	f1b3 4f80 	cmp.w	r3, #1073741824	; 0x40000000
 80004a4:	d113      	bne.n	80004ce <HAL_TIM_Base_MspInit+0x3a>
  {
  /* USER CODE BEGIN TIM2_MspInit 0 */

  /* USER CODE END TIM2_MspInit 0 */
    /* Peripheral clock enable */
    __HAL_RCC_TIM2_CLK_ENABLE();
 80004a6:	4b0c      	ldr	r3, [pc, #48]	; (80004d8 <HAL_TIM_Base_MspInit+0x44>)
 80004a8:	6d9b      	ldr	r3, [r3, #88]	; 0x58
 80004aa:	4a0b      	ldr	r2, [pc, #44]	; (80004d8 <HAL_TIM_Base_MspInit+0x44>)
 80004ac:	f043 0301 	orr.w	r3, r3, #1
 80004b0:	6593      	str	r3, [r2, #88]	; 0x58
 80004b2:	4b09      	ldr	r3, [pc, #36]	; (80004d8 <HAL_TIM_Base_MspInit+0x44>)
 80004b4:	6d9b      	ldr	r3, [r3, #88]	; 0x58
 80004b6:	f003 0301 	and.w	r3, r3, #1
 80004ba:	60fb      	str	r3, [r7, #12]
 80004bc:	68fb      	ldr	r3, [r7, #12]
    /* TIM2 interrupt Init */
    HAL_NVIC_SetPriority(TIM2_IRQn, 0, 0);
 80004be:	2200      	movs	r2, #0
 80004c0:	2100      	movs	r1, #0
 80004c2:	201c      	movs	r0, #28
 80004c4:	f000 f9d1 	bl	800086a <HAL_NVIC_SetPriority>
    HAL_NVIC_EnableIRQ(TIM2_IRQn);
 80004c8:	201c      	movs	r0, #28
 80004ca:	f000 f9ea 	bl	80008a2 <HAL_NVIC_EnableIRQ>
  /* USER CODE BEGIN TIM2_MspInit 1 */

  /* USER CODE END TIM2_MspInit 1 */
  }

}
 80004ce:	bf00      	nop
 80004d0:	3710      	adds	r7, #16
 80004d2:	46bd      	mov	sp, r7
 80004d4:	bd80      	pop	{r7, pc}
 80004d6:	bf00      	nop
 80004d8:	40021000 	.word	0x40021000

080004dc <NMI_Handler>:
/******************************************************************************/
/**
  * @brief This function handles Non maskable interrupt.
  */
void NMI_Handler(void)
{
 80004dc:	b480      	push	{r7}
 80004de:	af00      	add	r7, sp, #0
  /* USER CODE BEGIN NonMaskableInt_IRQn 0 */

  /* USER CODE END NonMaskableInt_IRQn 0 */
  /* USER CODE BEGIN NonMaskableInt_IRQn 1 */
  while (1)
 80004e0:	e7fe      	b.n	80004e0 <NMI_Handler+0x4>

080004e2 <HardFault_Handler>:

/**
  * @brief This function handles Hard fault interrupt.
  */
void HardFault_Handler(void)
{
 80004e2:	b480      	push	{r7}
 80004e4:	af00      	add	r7, sp, #0
  /* USER CODE BEGIN HardFault_IRQn 0 */

  /* USER CODE END HardFault_IRQn 0 */
  while (1)
 80004e6:	e7fe      	b.n	80004e6 <HardFault_Handler+0x4>

080004e8 <MemManage_Handler>:

/**
  * @brief This function handles Memory management fault.
  */
void MemManage_Handler(void)
{
 80004e8:	b480      	push	{r7}
 80004ea:	af00      	add	r7, sp, #0
  /* USER CODE BEGIN MemoryManagement_IRQn 0 */

  /* USER CODE END MemoryManagement_IRQn 0 */
  while (1)
 80004ec:	e7fe      	b.n	80004ec <MemManage_Handler+0x4>

080004ee <BusFault_Handler>:

/**
  * @brief This function handles Prefetch fault, memory access fault.
  */
void BusFault_Handler(void)
{
 80004ee:	b480      	push	{r7}
 80004f0:	af00      	add	r7, sp, #0
  /* USER CODE BEGIN BusFault_IRQn 0 */

  /* USER CODE END BusFault_IRQn 0 */
  while (1)
 80004f2:	e7fe      	b.n	80004f2 <BusFault_Handler+0x4>

080004f4 <UsageFault_Handler>:

/**
  * @brief This function handles Undefined instruction or illegal state.
  */
void UsageFault_Handler(void)
{
 80004f4:	b480      	push	{r7}
 80004f6:	af00      	add	r7, sp, #0
  /* USER CODE BEGIN UsageFault_IRQn 0 */

  /* USER CODE END UsageFault_IRQn 0 */
  while (1)
 80004f8:	e7fe      	b.n	80004f8 <UsageFault_Handler+0x4>

080004fa <SVC_Handler>:

/**
  * @brief This function handles System service call via SWI instruction.
  */
void SVC_Handler(void)
{
 80004fa:	b480      	push	{r7}
 80004fc:	af00      	add	r7, sp, #0

  /* USER CODE END SVCall_IRQn 0 */
  /* USER CODE BEGIN SVCall_IRQn 1 */

  /* USER CODE END SVCall_IRQn 1 */
}
 80004fe:	bf00      	nop
 8000500:	46bd      	mov	sp, r7
 8000502:	f85d 7b04 	ldr.w	r7, [sp], #4
 8000506:	4770      	bx	lr

08000508 <DebugMon_Handler>:

/**
  * @brief This function handles Debug monitor.
  */
void DebugMon_Handler(void)
{
 8000508:	b480      	push	{r7}
 800050a:	af00      	add	r7, sp, #0

  /* USER CODE END DebugMonitor_IRQn 0 */
  /* USER CODE BEGIN DebugMonitor_IRQn 1 */

  /* USER CODE END DebugMonitor_IRQn 1 */
}
 800050c:	bf00      	nop
 800050e:	46bd      	mov	sp, r7
 8000510:	f85d 7b04 	ldr.w	r7, [sp], #4
 8000514:	4770      	bx	lr

08000516 <PendSV_Handler>:

/**
  * @brief This function handles Pendable request for system service.
  */
void PendSV_Handler(void)
{
 8000516:	b480      	push	{r7}
 8000518:	af00      	add	r7, sp, #0

  /* USER CODE END PendSV_IRQn 0 */
  /* USER CODE BEGIN PendSV_IRQn 1 */

  /* USER CODE END PendSV_IRQn 1 */
}
 800051a:	bf00      	nop
 800051c:	46bd      	mov	sp, r7
 800051e:	f85d 7b04 	ldr.w	r7, [sp], #4
 8000522:	4770      	bx	lr

08000524 <SysTick_Handler>:

/**
  * @brief This function handles System tick timer.
  */
void SysTick_Handler(void)
{
 8000524:	b580      	push	{r7, lr}
 8000526:	af00      	add	r7, sp, #0
  /* USER CODE BEGIN SysTick_IRQn 0 */

  /* USER CODE END SysTick_IRQn 0 */
  HAL_IncTick();
 8000528:	f000 f8a4 	bl	8000674 <HAL_IncTick>
  /* USER CODE BEGIN SysTick_IRQn 1 */

  /* USER CODE END SysTick_IRQn 1 */
}
 800052c:	bf00      	nop
 800052e:	bd80      	pop	{r7, pc}

08000530 <TIM2_IRQHandler>:

/**
  * @brief This function handles TIM2 global interrupt.
  */
void TIM2_IRQHandler(void)
{
 8000530:	b580      	push	{r7, lr}
 8000532:	af00      	add	r7, sp, #0
  /* USER CODE BEGIN TIM2_IRQn 0 */

  /* USER CODE END TIM2_IRQn 0 */
  HAL_TIM_IRQHandler(&htim2);
 8000534:	4802      	ldr	r0, [pc, #8]	; (8000540 <TIM2_IRQHandler+0x10>)
 8000536:	f001 fa93 	bl	8001a60 <HAL_TIM_IRQHandler>
  /* USER CODE BEGIN TIM2_IRQn 1 */

  /* USER CODE END TIM2_IRQn 1 */
}
 800053a:	bf00      	nop
 800053c:	bd80      	pop	{r7, pc}
 800053e:	bf00      	nop
 8000540:	20000028 	.word	0x20000028

08000544 <SystemInit>:
  * @brief  Setup the microcontroller system.
  * @retval None
  */

void SystemInit(void)
{
 8000544:	b480      	push	{r7}
 8000546:	af00      	add	r7, sp, #0
  SCB->VTOR = VECT_TAB_BASE_ADDRESS | VECT_TAB_OFFSET;
#endif

  /* FPU settings ------------------------------------------------------------*/
#if (__FPU_PRESENT == 1) && (__FPU_USED == 1)
  SCB->CPACR |= ((3UL << 20U)|(3UL << 22U));  /* set CP10 and CP11 Full Access */
 8000548:	4b06      	ldr	r3, [pc, #24]	; (8000564 <SystemInit+0x20>)
 800054a:	f8d3 3088 	ldr.w	r3, [r3, #136]	; 0x88
 800054e:	4a05      	ldr	r2, [pc, #20]	; (8000564 <SystemInit+0x20>)
 8000550:	f443 0370 	orr.w	r3, r3, #15728640	; 0xf00000
 8000554:	f8c2 3088 	str.w	r3, [r2, #136]	; 0x88
#endif
}
 8000558:	bf00      	nop
 800055a:	46bd      	mov	sp, r7
 800055c:	f85d 7b04 	ldr.w	r7, [sp], #4
 8000560:	4770      	bx	lr
 8000562:	bf00      	nop
 8000564:	e000ed00 	.word	0xe000ed00

08000568 <Reset_Handler>:
 8000568:	f8df d034 	ldr.w	sp, [pc, #52]	; 80005a0 <LoopForever+0x2>
 800056c:	f7ff ffea 	bl	8000544 <SystemInit>
 8000570:	480c      	ldr	r0, [pc, #48]	; (80005a4 <LoopForever+0x6>)
 8000572:	490d      	ldr	r1, [pc, #52]	; (80005a8 <LoopForever+0xa>)
 8000574:	4a0d      	ldr	r2, [pc, #52]	; (80005ac <LoopForever+0xe>)
 8000576:	2300      	movs	r3, #0
 8000578:	e002      	b.n	8000580 <LoopCopyDataInit>

0800057a <CopyDataInit>:
 800057a:	58d4      	ldr	r4, [r2, r3]
 800057c:	50c4      	str	r4, [r0, r3]
 800057e:	3304      	adds	r3, #4

08000580 <LoopCopyDataInit>:
 8000580:	18c4      	adds	r4, r0, r3
 8000582:	428c      	cmp	r4, r1
 8000584:	d3f9      	bcc.n	800057a <CopyDataInit>
 8000586:	4a0a      	ldr	r2, [pc, #40]	; (80005b0 <LoopForever+0x12>)
 8000588:	4c0a      	ldr	r4, [pc, #40]	; (80005b4 <LoopForever+0x16>)
 800058a:	2300      	movs	r3, #0
 800058c:	e001      	b.n	8000592 <LoopFillZerobss>

0800058e <FillZerobss>:
 800058e:	6013      	str	r3, [r2, #0]
 8000590:	3204      	adds	r2, #4

08000592 <LoopFillZerobss>:
 8000592:	42a2      	cmp	r2, r4
 8000594:	d3fb      	bcc.n	800058e <FillZerobss>
 8000596:	f001 fe07 	bl	80021a8 <__libc_init_array>
 800059a:	f7ff fe29 	bl	80001f0 <main>

0800059e <LoopForever>:
 800059e:	e7fe      	b.n	800059e <LoopForever>
 80005a0:	20028000 	.word	0x20028000
 80005a4:	20000000 	.word	0x20000000
 80005a8:	2000000c 	.word	0x2000000c
 80005ac:	08002260 	.word	0x08002260
 80005b0:	2000000c 	.word	0x2000000c
 80005b4:	20000078 	.word	0x20000078

080005b8 <ADC1_IRQHandler>:
 80005b8:	e7fe      	b.n	80005b8 <ADC1_IRQHandler>
	...

080005bc <HAL_Init>:
  *         each 1ms in the SysTick_Handler() interrupt handler.
  *
  * @retval HAL status
  */
HAL_StatusTypeDef HAL_Init(void)
{
 80005bc:	b580      	push	{r7, lr}
 80005be:	b082      	sub	sp, #8
 80005c0:	af00      	add	r7, sp, #0
  HAL_StatusTypeDef  status = HAL_OK;
 80005c2:	2300      	movs	r3, #0
 80005c4:	71fb      	strb	r3, [r7, #7]
#if (DATA_CACHE_ENABLE == 0)
   __HAL_FLASH_DATA_CACHE_DISABLE();
#endif /* DATA_CACHE_ENABLE */

#if (PREFETCH_ENABLE != 0)
  __HAL_FLASH_PREFETCH_BUFFER_ENABLE();
 80005c6:	4b0c      	ldr	r3, [pc, #48]	; (80005f8 <HAL_Init+0x3c>)
 80005c8:	681b      	ldr	r3, [r3, #0]
 80005ca:	4a0b      	ldr	r2, [pc, #44]	; (80005f8 <HAL_Init+0x3c>)
 80005cc:	f443 7380 	orr.w	r3, r3, #256	; 0x100
 80005d0:	6013      	str	r3, [r2, #0]
#endif /* PREFETCH_ENABLE */

  /* Set Interrupt Group Priority */
  HAL_NVIC_SetPriorityGrouping(NVIC_PRIORITYGROUP_4);
 80005d2:	2003      	movs	r0, #3
 80005d4:	f000 f93e 	bl	8000854 <HAL_NVIC_SetPriorityGrouping>

  /* Use SysTick as time base source and configure 1ms tick (default clock after Reset is MSI) */
  if (HAL_InitTick(TICK_INT_PRIORITY) != HAL_OK)
 80005d8:	2000      	movs	r0, #0
 80005da:	f000 f80f 	bl	80005fc <HAL_InitTick>
 80005de:	4603      	mov	r3, r0
 80005e0:	2b00      	cmp	r3, #0
 80005e2:	d002      	beq.n	80005ea <HAL_Init+0x2e>
  {
    status = HAL_ERROR;
 80005e4:	2301      	movs	r3, #1
 80005e6:	71fb      	strb	r3, [r7, #7]
 80005e8:	e001      	b.n	80005ee <HAL_Init+0x32>
  }
  else
  {
    /* Init the low level hardware */
    HAL_MspInit();
 80005ea:	f7ff ff2f 	bl	800044c <HAL_MspInit>
  }

  /* Return function status */
  return status;
 80005ee:	79fb      	ldrb	r3, [r7, #7]
}
 80005f0:	4618      	mov	r0, r3
 80005f2:	3708      	adds	r7, #8
 80005f4:	46bd      	mov	sp, r7
 80005f6:	bd80      	pop	{r7, pc}
 80005f8:	40022000 	.word	0x40022000

080005fc <HAL_InitTick>:
  *       implementation  in user file.
  * @param TickPriority  Tick interrupt priority.
  * @retval HAL status
  */
__weak HAL_StatusTypeDef HAL_InitTick(uint32_t TickPriority)
{
 80005fc:	b580      	push	{r7, lr}
 80005fe:	b084      	sub	sp, #16
 8000600:	af00      	add	r7, sp, #0
 8000602:	6078      	str	r0, [r7, #4]
  HAL_StatusTypeDef  status = HAL_OK;
 8000604:	2300      	movs	r3, #0
 8000606:	73fb      	strb	r3, [r7, #15]

  /* Check uwTickFreq for MisraC 2012 (even if uwTickFreq is a enum type that doesn't take the value zero)*/
  if ((uint32_t)uwTickFreq != 0U)
 8000608:	4b17      	ldr	r3, [pc, #92]	; (8000668 <HAL_InitTick+0x6c>)
 800060a:	781b      	ldrb	r3, [r3, #0]
 800060c:	2b00      	cmp	r3, #0
 800060e:	d023      	beq.n	8000658 <HAL_InitTick+0x5c>
  {
    /*Configure the SysTick to have interrupt in 1ms time basis*/
    if (HAL_SYSTICK_Config(SystemCoreClock / (1000U / (uint32_t)uwTickFreq)) == 0U)
 8000610:	4b16      	ldr	r3, [pc, #88]	; (800066c <HAL_InitTick+0x70>)
 8000612:	681a      	ldr	r2, [r3, #0]
 8000614:	4b14      	ldr	r3, [pc, #80]	; (8000668 <HAL_InitTick+0x6c>)
 8000616:	781b      	ldrb	r3, [r3, #0]
 8000618:	4619      	mov	r1, r3
 800061a:	f44f 737a 	mov.w	r3, #1000	; 0x3e8
 800061e:	fbb3 f3f1 	udiv	r3, r3, r1
 8000622:	fbb2 f3f3 	udiv	r3, r2, r3
 8000626:	4618      	mov	r0, r3
 8000628:	f000 f949 	bl	80008be <HAL_SYSTICK_Config>
 800062c:	4603      	mov	r3, r0
 800062e:	2b00      	cmp	r3, #0
 8000630:	d10f      	bne.n	8000652 <HAL_InitTick+0x56>
    {
      /* Configure the SysTick IRQ priority */
      if (TickPriority < (1UL << __NVIC_PRIO_BITS))
 8000632:	687b      	ldr	r3, [r7, #4]
 8000634:	2b0f      	cmp	r3, #15
 8000636:	d809      	bhi.n	800064c <HAL_InitTick+0x50>
      {
        HAL_NVIC_SetPriority(SysTick_IRQn, TickPriority, 0U);
 8000638:	2200      	movs	r2, #0
 800063a:	6879      	ldr	r1, [r7, #4]
 800063c:	f04f 30ff 	mov.w	r0, #4294967295
 8000640:	f000 f913 	bl	800086a <HAL_NVIC_SetPriority>
        uwTickPrio = TickPriority;
 8000644:	4a0a      	ldr	r2, [pc, #40]	; (8000670 <HAL_InitTick+0x74>)
 8000646:	687b      	ldr	r3, [r7, #4]
 8000648:	6013      	str	r3, [r2, #0]
 800064a:	e007      	b.n	800065c <HAL_InitTick+0x60>
      }
      else
      {
        status = HAL_ERROR;
 800064c:	2301      	movs	r3, #1
 800064e:	73fb      	strb	r3, [r7, #15]
 8000650:	e004      	b.n	800065c <HAL_InitTick+0x60>
      }
    }
    else
    {
      status = HAL_ERROR;
 8000652:	2301      	movs	r3, #1
 8000654:	73fb      	strb	r3, [r7, #15]
 8000656:	e001      	b.n	800065c <HAL_InitTick+0x60>
    }
  }
  else
  {
    status = HAL_ERROR;
 8000658:	2301      	movs	r3, #1
 800065a:	73fb      	strb	r3, [r7, #15]
  }

  /* Return function status */
  return status;
 800065c:	7bfb      	ldrb	r3, [r7, #15]
}
 800065e:	4618      	mov	r0, r3
 8000660:	3710      	adds	r7, #16
 8000662:	46bd      	mov	sp, r7
 8000664:	bd80      	pop	{r7, pc}
 8000666:	bf00      	nop
 8000668:	20000008 	.word	0x20000008
 800066c:	20000000 	.word	0x20000000
 8000670:	20000004 	.word	0x20000004

08000674 <HAL_IncTick>:
 * @note This function is declared as __weak to be overwritten in case of other
  *      implementations in user file.
  * @retval None
  */
__weak void HAL_IncTick(void)
{
 8000674:	b480      	push	{r7}
 8000676:	af00      	add	r7, sp, #0
  uwTick += (uint32_t)uwTickFreq;
 8000678:	4b06      	ldr	r3, [pc, #24]	; (8000694 <HAL_IncTick+0x20>)
 800067a:	781b      	ldrb	r3, [r3, #0]
 800067c:	461a      	mov	r2, r3
 800067e:	4b06      	ldr	r3, [pc, #24]	; (8000698 <HAL_IncTick+0x24>)
 8000680:	681b      	ldr	r3, [r3, #0]
 8000682:	4413      	add	r3, r2
 8000684:	4a04      	ldr	r2, [pc, #16]	; (8000698 <HAL_IncTick+0x24>)
 8000686:	6013      	str	r3, [r2, #0]
}
 8000688:	bf00      	nop
 800068a:	46bd      	mov	sp, r7
 800068c:	f85d 7b04 	ldr.w	r7, [sp], #4
 8000690:	4770      	bx	lr
 8000692:	bf00      	nop
 8000694:	20000008 	.word	0x20000008
 8000698:	20000074 	.word	0x20000074

0800069c <HAL_GetTick>:
  * @note This function is declared as __weak to be overwritten in case of other
  *       implementations in user file.
  * @retval tick value
  */
__weak uint32_t HAL_GetTick(void)
{
 800069c:	b480      	push	{r7}
 800069e:	af00      	add	r7, sp, #0
  return uwTick;
 80006a0:	4b03      	ldr	r3, [pc, #12]	; (80006b0 <HAL_GetTick+0x14>)
 80006a2:	681b      	ldr	r3, [r3, #0]
}
 80006a4:	4618      	mov	r0, r3
 80006a6:	46bd      	mov	sp, r7
 80006a8:	f85d 7b04 	ldr.w	r7, [sp], #4
 80006ac:	4770      	bx	lr
 80006ae:	bf00      	nop
 80006b0:	20000074 	.word	0x20000074

080006b4 <__NVIC_SetPriorityGrouping>:
           In case of a conflict between priority grouping and available
           priority bits (__NVIC_PRIO_BITS), the smallest possible priority group is set.
  \param [in]      PriorityGroup  Priority grouping field.
 */
__STATIC_INLINE void __NVIC_SetPriorityGrouping(uint32_t PriorityGroup)
{
 80006b4:	b480      	push	{r7}
 80006b6:	b085      	sub	sp, #20
 80006b8:	af00      	add	r7, sp, #0
 80006ba:	6078      	str	r0, [r7, #4]
  uint32_t reg_value;
  uint32_t PriorityGroupTmp = (PriorityGroup & (uint32_t)0x07UL);             /* only values 0..7 are used          */
 80006bc:	687b      	ldr	r3, [r7, #4]
 80006be:	f003 0307 	and.w	r3, r3, #7
 80006c2:	60fb      	str	r3, [r7, #12]

  reg_value  =  SCB->AIRCR;                                                   /* read old register configuration    */
 80006c4:	4b0c      	ldr	r3, [pc, #48]	; (80006f8 <__NVIC_SetPriorityGrouping+0x44>)
 80006c6:	68db      	ldr	r3, [r3, #12]
 80006c8:	60bb      	str	r3, [r7, #8]
  reg_value &= ~((uint32_t)(SCB_AIRCR_VECTKEY_Msk | SCB_AIRCR_PRIGROUP_Msk)); /* clear bits to change               */
 80006ca:	68ba      	ldr	r2, [r7, #8]
 80006cc:	f64f 03ff 	movw	r3, #63743	; 0xf8ff
 80006d0:	4013      	ands	r3, r2
 80006d2:	60bb      	str	r3, [r7, #8]
  reg_value  =  (reg_value                                   |
                ((uint32_t)0x5FAUL << SCB_AIRCR_VECTKEY_Pos) |
                (PriorityGroupTmp << SCB_AIRCR_PRIGROUP_Pos)  );              /* Insert write key and priority group */
 80006d4:	68fb      	ldr	r3, [r7, #12]
 80006d6:	021a      	lsls	r2, r3, #8
                ((uint32_t)0x5FAUL << SCB_AIRCR_VECTKEY_Pos) |
 80006d8:	68bb      	ldr	r3, [r7, #8]
 80006da:	4313      	orrs	r3, r2
  reg_value  =  (reg_value                                   |
 80006dc:	f043 63bf 	orr.w	r3, r3, #100139008	; 0x5f80000
 80006e0:	f443 3300 	orr.w	r3, r3, #131072	; 0x20000
 80006e4:	60bb      	str	r3, [r7, #8]
  SCB->AIRCR =  reg_value;
 80006e6:	4a04      	ldr	r2, [pc, #16]	; (80006f8 <__NVIC_SetPriorityGrouping+0x44>)
 80006e8:	68bb      	ldr	r3, [r7, #8]
 80006ea:	60d3      	str	r3, [r2, #12]
}
 80006ec:	bf00      	nop
 80006ee:	3714      	adds	r7, #20
 80006f0:	46bd      	mov	sp, r7
 80006f2:	f85d 7b04 	ldr.w	r7, [sp], #4
 80006f6:	4770      	bx	lr
 80006f8:	e000ed00 	.word	0xe000ed00

080006fc <__NVIC_GetPriorityGrouping>:
  \brief   Get Priority Grouping
  \details Reads the priority grouping field from the NVIC Interrupt Controller.
  \return                Priority grouping field (SCB->AIRCR [10:8] PRIGROUP field).
 */
__STATIC_INLINE uint32_t __NVIC_GetPriorityGrouping(void)
{
 80006fc:	b480      	push	{r7}
 80006fe:	af00      	add	r7, sp, #0
  return ((uint32_t)((SCB->AIRCR & SCB_AIRCR_PRIGROUP_Msk) >> SCB_AIRCR_PRIGROUP_Pos));
 8000700:	4b04      	ldr	r3, [pc, #16]	; (8000714 <__NVIC_GetPriorityGrouping+0x18>)
 8000702:	68db      	ldr	r3, [r3, #12]
 8000704:	0a1b      	lsrs	r3, r3, #8
 8000706:	f003 0307 	and.w	r3, r3, #7
}
 800070a:	4618      	mov	r0, r3
 800070c:	46bd      	mov	sp, r7
 800070e:	f85d 7b04 	ldr.w	r7, [sp], #4
 8000712:	4770      	bx	lr
 8000714:	e000ed00 	.word	0xe000ed00

08000718 <__NVIC_EnableIRQ>:
  \details Enables a device specific interrupt in the NVIC interrupt controller.
  \param [in]      IRQn  Device specific interrupt number.
  \note    IRQn must not be negative.
 */
__STATIC_INLINE void __NVIC_EnableIRQ(IRQn_Type IRQn)
{
 8000718:	b480      	push	{r7}
 800071a:	b083      	sub	sp, #12
 800071c:	af00      	add	r7, sp, #0
 800071e:	4603      	mov	r3, r0
 8000720:	71fb      	strb	r3, [r7, #7]
  if ((int32_t)(IRQn) >= 0)
 8000722:	f997 3007 	ldrsb.w	r3, [r7, #7]
 8000726:	2b00      	cmp	r3, #0
 8000728:	db0b      	blt.n	8000742 <__NVIC_EnableIRQ+0x2a>
  {
    __COMPILER_BARRIER();
    NVIC->ISER[(((uint32_t)IRQn) >> 5UL)] = (uint32_t)(1UL << (((uint32_t)IRQn) & 0x1FUL));
 800072a:	79fb      	ldrb	r3, [r7, #7]
 800072c:	f003 021f 	and.w	r2, r3, #31
 8000730:	4907      	ldr	r1, [pc, #28]	; (8000750 <__NVIC_EnableIRQ+0x38>)
 8000732:	f997 3007 	ldrsb.w	r3, [r7, #7]
 8000736:	095b      	lsrs	r3, r3, #5
 8000738:	2001      	movs	r0, #1
 800073a:	fa00 f202 	lsl.w	r2, r0, r2
 800073e:	f841 2023 	str.w	r2, [r1, r3, lsl #2]
    __COMPILER_BARRIER();
  }
}
 8000742:	bf00      	nop
 8000744:	370c      	adds	r7, #12
 8000746:	46bd      	mov	sp, r7
 8000748:	f85d 7b04 	ldr.w	r7, [sp], #4
 800074c:	4770      	bx	lr
 800074e:	bf00      	nop
 8000750:	e000e100 	.word	0xe000e100

08000754 <__NVIC_SetPriority>:
  \param [in]      IRQn  Interrupt number.
  \param [in]  priority  Priority to set.
  \note    The priority cannot be set for every processor exception.
 */
__STATIC_INLINE void __NVIC_SetPriority(IRQn_Type IRQn, uint32_t priority)
{
 8000754:	b480      	push	{r7}
 8000756:	b083      	sub	sp, #12
 8000758:	af00      	add	r7, sp, #0
 800075a:	4603      	mov	r3, r0
 800075c:	6039      	str	r1, [r7, #0]
 800075e:	71fb      	strb	r3, [r7, #7]
  if ((int32_t)(IRQn) >= 0)
 8000760:	f997 3007 	ldrsb.w	r3, [r7, #7]
 8000764:	2b00      	cmp	r3, #0
 8000766:	db0a      	blt.n	800077e <__NVIC_SetPriority+0x2a>
  {
    NVIC->IP[((uint32_t)IRQn)]               = (uint8_t)((priority << (8U - __NVIC_PRIO_BITS)) & (uint32_t)0xFFUL);
 8000768:	683b      	ldr	r3, [r7, #0]
 800076a:	b2da      	uxtb	r2, r3
 800076c:	490c      	ldr	r1, [pc, #48]	; (80007a0 <__NVIC_SetPriority+0x4c>)
 800076e:	f997 3007 	ldrsb.w	r3, [r7, #7]
 8000772:	0112      	lsls	r2, r2, #4
 8000774:	b2d2      	uxtb	r2, r2
 8000776:	440b      	add	r3, r1
 8000778:	f883 2300 	strb.w	r2, [r3, #768]	; 0x300
  }
  else
  {
    SCB->SHP[(((uint32_t)IRQn) & 0xFUL)-4UL] = (uint8_t)((priority << (8U - __NVIC_PRIO_BITS)) & (uint32_t)0xFFUL);
  }
}
 800077c:	e00a      	b.n	8000794 <__NVIC_SetPriority+0x40>
    SCB->SHP[(((uint32_t)IRQn) & 0xFUL)-4UL] = (uint8_t)((priority << (8U - __NVIC_PRIO_BITS)) & (uint32_t)0xFFUL);
 800077e:	683b      	ldr	r3, [r7, #0]
 8000780:	b2da      	uxtb	r2, r3
 8000782:	4908      	ldr	r1, [pc, #32]	; (80007a4 <__NVIC_SetPriority+0x50>)
 8000784:	79fb      	ldrb	r3, [r7, #7]
 8000786:	f003 030f 	and.w	r3, r3, #15
 800078a:	3b04      	subs	r3, #4
 800078c:	0112      	lsls	r2, r2, #4
 800078e:	b2d2      	uxtb	r2, r2
 8000790:	440b      	add	r3, r1
 8000792:	761a      	strb	r2, [r3, #24]
}
 8000794:	bf00      	nop
 8000796:	370c      	adds	r7, #12
 8000798:	46bd      	mov	sp, r7
 800079a:	f85d 7b04 	ldr.w	r7, [sp], #4
 800079e:	4770      	bx	lr
 80007a0:	e000e100 	.word	0xe000e100
 80007a4:	e000ed00 	.word	0xe000ed00

080007a8 <NVIC_EncodePriority>:
  \param [in]   PreemptPriority  Preemptive priority value (starting from 0).
  \param [in]       SubPriority  Subpriority value (starting from 0).
  \return                        Encoded priority. Value can be used in the function \ref NVIC_SetPriority().
 */
__STATIC_INLINE uint32_t NVIC_EncodePriority (uint32_t PriorityGroup, uint32_t PreemptPriority, uint32_t SubPriority)
{
 80007a8:	b480      	push	{r7}
 80007aa:	b089      	sub	sp, #36	; 0x24
 80007ac:	af00      	add	r7, sp, #0
 80007ae:	60f8      	str	r0, [r7, #12]
 80007b0:	60b9      	str	r1, [r7, #8]
 80007b2:	607a      	str	r2, [r7, #4]
  uint32_t PriorityGroupTmp = (PriorityGroup & (uint32_t)0x07UL);   /* only values 0..7 are used          */
 80007b4:	68fb      	ldr	r3, [r7, #12]
 80007b6:	f003 0307 	and.w	r3, r3, #7
 80007ba:	61fb      	str	r3, [r7, #28]
  uint32_t PreemptPriorityBits;
  uint32_t SubPriorityBits;

  PreemptPriorityBits = ((7UL - PriorityGroupTmp) > (uint32_t)(__NVIC_PRIO_BITS)) ? (uint32_t)(__NVIC_PRIO_BITS) : (uint32_t)(7UL - PriorityGroupTmp);
 80007bc:	69fb      	ldr	r3, [r7, #28]
 80007be:	f1c3 0307 	rsb	r3, r3, #7
 80007c2:	2b04      	cmp	r3, #4
 80007c4:	bf28      	it	cs
 80007c6:	2304      	movcs	r3, #4
 80007c8:	61bb      	str	r3, [r7, #24]
  SubPriorityBits     = ((PriorityGroupTmp + (uint32_t)(__NVIC_PRIO_BITS)) < (uint32_t)7UL) ? (uint32_t)0UL : (uint32_t)((PriorityGroupTmp - 7UL) + (uint32_t)(__NVIC_PRIO_BITS));
 80007ca:	69fb      	ldr	r3, [r7, #28]
 80007cc:	3304      	adds	r3, #4
 80007ce:	2b06      	cmp	r3, #6
 80007d0:	d902      	bls.n	80007d8 <NVIC_EncodePriority+0x30>
 80007d2:	69fb      	ldr	r3, [r7, #28]
 80007d4:	3b03      	subs	r3, #3
 80007d6:	e000      	b.n	80007da <NVIC_EncodePriority+0x32>
 80007d8:	2300      	movs	r3, #0
 80007da:	617b      	str	r3, [r7, #20]

  return (
           ((PreemptPriority & (uint32_t)((1UL << (PreemptPriorityBits)) - 1UL)) << SubPriorityBits) |
 80007dc:	f04f 32ff 	mov.w	r2, #4294967295
 80007e0:	69bb      	ldr	r3, [r7, #24]
 80007e2:	fa02 f303 	lsl.w	r3, r2, r3
 80007e6:	43da      	mvns	r2, r3
 80007e8:	68bb      	ldr	r3, [r7, #8]
 80007ea:	401a      	ands	r2, r3
 80007ec:	697b      	ldr	r3, [r7, #20]
 80007ee:	409a      	lsls	r2, r3
           ((SubPriority     & (uint32_t)((1UL << (SubPriorityBits    )) - 1UL)))
 80007f0:	f04f 31ff 	mov.w	r1, #4294967295
 80007f4:	697b      	ldr	r3, [r7, #20]
 80007f6:	fa01 f303 	lsl.w	r3, r1, r3
 80007fa:	43d9      	mvns	r1, r3
 80007fc:	687b      	ldr	r3, [r7, #4]
 80007fe:	400b      	ands	r3, r1
           ((PreemptPriority & (uint32_t)((1UL << (PreemptPriorityBits)) - 1UL)) << SubPriorityBits) |
 8000800:	4313      	orrs	r3, r2
         );
}
 8000802:	4618      	mov	r0, r3
 8000804:	3724      	adds	r7, #36	; 0x24
 8000806:	46bd      	mov	sp, r7
 8000808:	f85d 7b04 	ldr.w	r7, [sp], #4
 800080c:	4770      	bx	lr
	...

08000810 <SysTick_Config>:
  \note    When the variable <b>__Vendor_SysTickConfig</b> is set to 1, then the
           function <b>SysTick_Config</b> is not included. In this case, the file <b><i>device</i>.h</b>
           must contain a vendor-specific implementation of this function.
 */
__STATIC_INLINE uint32_t SysTick_Config(uint32_t ticks)
{
 8000810:	b580      	push	{r7, lr}
 8000812:	b082      	sub	sp, #8
 8000814:	af00      	add	r7, sp, #0
 8000816:	6078      	str	r0, [r7, #4]
  if ((ticks - 1UL) > SysTick_LOAD_RELOAD_Msk)
 8000818:	687b      	ldr	r3, [r7, #4]
 800081a:	3b01      	subs	r3, #1
 800081c:	f1b3 7f80 	cmp.w	r3, #16777216	; 0x1000000
 8000820:	d301      	bcc.n	8000826 <SysTick_Config+0x16>
  {
    return (1UL);                                                   /* Reload value impossible */
 8000822:	2301      	movs	r3, #1
 8000824:	e00f      	b.n	8000846 <SysTick_Config+0x36>
  }

  SysTick->LOAD  = (uint32_t)(ticks - 1UL);                         /* set reload register */
 8000826:	4a0a      	ldr	r2, [pc, #40]	; (8000850 <SysTick_Config+0x40>)
 8000828:	687b      	ldr	r3, [r7, #4]
 800082a:	3b01      	subs	r3, #1
 800082c:	6053      	str	r3, [r2, #4]
  NVIC_SetPriority (SysTick_IRQn, (1UL << __NVIC_PRIO_BITS) - 1UL); /* set Priority for Systick Interrupt */
 800082e:	210f      	movs	r1, #15
 8000830:	f04f 30ff 	mov.w	r0, #4294967295
 8000834:	f7ff ff8e 	bl	8000754 <__NVIC_SetPriority>
  SysTick->VAL   = 0UL;                                             /* Load the SysTick Counter Value */
 8000838:	4b05      	ldr	r3, [pc, #20]	; (8000850 <SysTick_Config+0x40>)
 800083a:	2200      	movs	r2, #0
 800083c:	609a      	str	r2, [r3, #8]
  SysTick->CTRL  = SysTick_CTRL_CLKSOURCE_Msk |
 800083e:	4b04      	ldr	r3, [pc, #16]	; (8000850 <SysTick_Config+0x40>)
 8000840:	2207      	movs	r2, #7
 8000842:	601a      	str	r2, [r3, #0]
                   SysTick_CTRL_TICKINT_Msk   |
                   SysTick_CTRL_ENABLE_Msk;                         /* Enable SysTick IRQ and SysTick Timer */
  return (0UL);                                                     /* Function successful */
 8000844:	2300      	movs	r3, #0
}
 8000846:	4618      	mov	r0, r3
 8000848:	3708      	adds	r7, #8
 800084a:	46bd      	mov	sp, r7
 800084c:	bd80      	pop	{r7, pc}
 800084e:	bf00      	nop
 8000850:	e000e010 	.word	0xe000e010

08000854 <HAL_NVIC_SetPriorityGrouping>:
  * @note   When the NVIC_PriorityGroup_0 is selected, IRQ pre-emption is no more possible.
  *         The pending IRQ priority will be managed only by the subpriority.
  * @retval None
  */
void HAL_NVIC_SetPriorityGrouping(uint32_t PriorityGroup)
{
 8000854:	b580      	push	{r7, lr}
 8000856:	b082      	sub	sp, #8
 8000858:	af00      	add	r7, sp, #0
 800085a:	6078      	str	r0, [r7, #4]
  /* Check the parameters */
  assert_param(IS_NVIC_PRIORITY_GROUP(PriorityGroup));

  /* Set the PRIGROUP[10:8] bits according to the PriorityGroup parameter value */
  NVIC_SetPriorityGrouping(PriorityGroup);
 800085c:	6878      	ldr	r0, [r7, #4]
 800085e:	f7ff ff29 	bl	80006b4 <__NVIC_SetPriorityGrouping>
}
 8000862:	bf00      	nop
 8000864:	3708      	adds	r7, #8
 8000866:	46bd      	mov	sp, r7
 8000868:	bd80      	pop	{r7, pc}

0800086a <HAL_NVIC_SetPriority>:
  *         This parameter can be a value between 0 and 15
  *         A lower priority value indicates a higher priority.
  * @retval None
  */
void HAL_NVIC_SetPriority(IRQn_Type IRQn, uint32_t PreemptPriority, uint32_t SubPriority)
{
 800086a:	b580      	push	{r7, lr}
 800086c:	b086      	sub	sp, #24
 800086e:	af00      	add	r7, sp, #0
 8000870:	4603      	mov	r3, r0
 8000872:	60b9      	str	r1, [r7, #8]
 8000874:	607a      	str	r2, [r7, #4]
 8000876:	73fb      	strb	r3, [r7, #15]
  uint32_t prioritygroup = 0x00;
 8000878:	2300      	movs	r3, #0
 800087a:	617b      	str	r3, [r7, #20]

  /* Check the parameters */
  assert_param(IS_NVIC_SUB_PRIORITY(SubPriority));
  assert_param(IS_NVIC_PREEMPTION_PRIORITY(PreemptPriority));

  prioritygroup = NVIC_GetPriorityGrouping();
 800087c:	f7ff ff3e 	bl	80006fc <__NVIC_GetPriorityGrouping>
 8000880:	6178      	str	r0, [r7, #20]

  NVIC_SetPriority(IRQn, NVIC_EncodePriority(prioritygroup, PreemptPriority, SubPriority));
 8000882:	687a      	ldr	r2, [r7, #4]
 8000884:	68b9      	ldr	r1, [r7, #8]
 8000886:	6978      	ldr	r0, [r7, #20]
 8000888:	f7ff ff8e 	bl	80007a8 <NVIC_EncodePriority>
 800088c:	4602      	mov	r2, r0
 800088e:	f997 300f 	ldrsb.w	r3, [r7, #15]
 8000892:	4611      	mov	r1, r2
 8000894:	4618      	mov	r0, r3
 8000896:	f7ff ff5d 	bl	8000754 <__NVIC_SetPriority>
}
 800089a:	bf00      	nop
 800089c:	3718      	adds	r7, #24
 800089e:	46bd      	mov	sp, r7
 80008a0:	bd80      	pop	{r7, pc}

080008a2 <HAL_NVIC_EnableIRQ>:
  *         This parameter can be an enumerator of IRQn_Type enumeration
  *         (For the complete STM32 Devices IRQ Channels list, please refer to the appropriate CMSIS device file (stm32l4xxxx.h))
  * @retval None
  */
void HAL_NVIC_EnableIRQ(IRQn_Type IRQn)
{
 80008a2:	b580      	push	{r7, lr}
 80008a4:	b082      	sub	sp, #8
 80008a6:	af00      	add	r7, sp, #0
 80008a8:	4603      	mov	r3, r0
 80008aa:	71fb      	strb	r3, [r7, #7]
  /* Check the parameters */
  assert_param(IS_NVIC_DEVICE_IRQ(IRQn));
  
  /* Enable interrupt */
  NVIC_EnableIRQ(IRQn);
 80008ac:	f997 3007 	ldrsb.w	r3, [r7, #7]
 80008b0:	4618      	mov	r0, r3
 80008b2:	f7ff ff31 	bl	8000718 <__NVIC_EnableIRQ>
}
 80008b6:	bf00      	nop
 80008b8:	3708      	adds	r7, #8
 80008ba:	46bd      	mov	sp, r7
 80008bc:	bd80      	pop	{r7, pc}

080008be <HAL_SYSTICK_Config>:
  * @param  TicksNumb: Specifies the ticks Number of ticks between two interrupts.
  * @retval status:  - 0  Function succeeded.
  *                  - 1  Function failed.
  */
uint32_t HAL_SYSTICK_Config(uint32_t TicksNumb)
{
 80008be:	b580      	push	{r7, lr}
 80008c0:	b082      	sub	sp, #8
 80008c2:	af00      	add	r7, sp, #0
 80008c4:	6078      	str	r0, [r7, #4]
   return SysTick_Config(TicksNumb);
 80008c6:	6878      	ldr	r0, [r7, #4]
 80008c8:	f7ff ffa2 	bl	8000810 <SysTick_Config>
 80008cc:	4603      	mov	r3, r0
}
 80008ce:	4618      	mov	r0, r3
 80008d0:	3708      	adds	r7, #8
 80008d2:	46bd      	mov	sp, r7
 80008d4:	bd80      	pop	{r7, pc}
	...

080008d8 <HAL_GPIO_Init>:
  * @param  GPIO_Init pointer to a GPIO_InitTypeDef structure that contains
  *         the configuration information for the specified GPIO peripheral.
  * @retval None
  */
void HAL_GPIO_Init(GPIO_TypeDef  *GPIOx, GPIO_InitTypeDef *GPIO_Init)
{
 80008d8:	b480      	push	{r7}
 80008da:	b087      	sub	sp, #28
 80008dc:	af00      	add	r7, sp, #0
 80008de:	6078      	str	r0, [r7, #4]
 80008e0:	6039      	str	r1, [r7, #0]
  uint32_t position = 0x00u;
 80008e2:	2300      	movs	r3, #0
 80008e4:	617b      	str	r3, [r7, #20]
  assert_param(IS_GPIO_ALL_INSTANCE(GPIOx));
  assert_param(IS_GPIO_PIN(GPIO_Init->Pin));
  assert_param(IS_GPIO_MODE(GPIO_Init->Mode));

  /* Configure the port pins */
  while (((GPIO_Init->Pin) >> position) != 0x00u)
 80008e6:	e154      	b.n	8000b92 <HAL_GPIO_Init+0x2ba>
  {
    /* Get current io position */
    iocurrent = (GPIO_Init->Pin) & (1uL << position);
 80008e8:	683b      	ldr	r3, [r7, #0]
 80008ea:	681a      	ldr	r2, [r3, #0]
 80008ec:	2101      	movs	r1, #1
 80008ee:	697b      	ldr	r3, [r7, #20]
 80008f0:	fa01 f303 	lsl.w	r3, r1, r3
 80008f4:	4013      	ands	r3, r2
 80008f6:	60fb      	str	r3, [r7, #12]

    if (iocurrent != 0x00u)
 80008f8:	68fb      	ldr	r3, [r7, #12]
 80008fa:	2b00      	cmp	r3, #0
 80008fc:	f000 8146 	beq.w	8000b8c <HAL_GPIO_Init+0x2b4>
    {
      /*--------------------- GPIO Mode Configuration ------------------------*/
      /* In case of Output or Alternate function mode selection */
      if (((GPIO_Init->Mode & GPIO_MODE) == MODE_OUTPUT) || ((GPIO_Init->Mode & GPIO_MODE) == MODE_AF))
 8000900:	683b      	ldr	r3, [r7, #0]
 8000902:	685b      	ldr	r3, [r3, #4]
 8000904:	f003 0303 	and.w	r3, r3, #3
 8000908:	2b01      	cmp	r3, #1
 800090a:	d005      	beq.n	8000918 <HAL_GPIO_Init+0x40>
 800090c:	683b      	ldr	r3, [r7, #0]
 800090e:	685b      	ldr	r3, [r3, #4]
 8000910:	f003 0303 	and.w	r3, r3, #3
 8000914:	2b02      	cmp	r3, #2
 8000916:	d130      	bne.n	800097a <HAL_GPIO_Init+0xa2>
      {
        /* Check the Speed parameter */
        assert_param(IS_GPIO_SPEED(GPIO_Init->Speed));

        /* Configure the IO Speed */
        temp = GPIOx->OSPEEDR;
 8000918:	687b      	ldr	r3, [r7, #4]
 800091a:	689b      	ldr	r3, [r3, #8]
 800091c:	613b      	str	r3, [r7, #16]
        temp &= ~(GPIO_OSPEEDR_OSPEED0 << (position * 2u));
 800091e:	697b      	ldr	r3, [r7, #20]
 8000920:	005b      	lsls	r3, r3, #1
 8000922:	2203      	movs	r2, #3
 8000924:	fa02 f303 	lsl.w	r3, r2, r3
 8000928:	43db      	mvns	r3, r3
 800092a:	693a      	ldr	r2, [r7, #16]
 800092c:	4013      	ands	r3, r2
 800092e:	613b      	str	r3, [r7, #16]
        temp |= (GPIO_Init->Speed << (position * 2u));
 8000930:	683b      	ldr	r3, [r7, #0]
 8000932:	68da      	ldr	r2, [r3, #12]
 8000934:	697b      	ldr	r3, [r7, #20]
 8000936:	005b      	lsls	r3, r3, #1
 8000938:	fa02 f303 	lsl.w	r3, r2, r3
 800093c:	693a      	ldr	r2, [r7, #16]
 800093e:	4313      	orrs	r3, r2
 8000940:	613b      	str	r3, [r7, #16]
        GPIOx->OSPEEDR = temp;
 8000942:	687b      	ldr	r3, [r7, #4]
 8000944:	693a      	ldr	r2, [r7, #16]
 8000946:	609a      	str	r2, [r3, #8]

        /* Configure the IO Output Type */
        temp = GPIOx->OTYPER;
 8000948:	687b      	ldr	r3, [r7, #4]
 800094a:	685b      	ldr	r3, [r3, #4]
 800094c:	613b      	str	r3, [r7, #16]
        temp &= ~(GPIO_OTYPER_OT0 << position) ;
 800094e:	2201      	movs	r2, #1
 8000950:	697b      	ldr	r3, [r7, #20]
 8000952:	fa02 f303 	lsl.w	r3, r2, r3
 8000956:	43db      	mvns	r3, r3
 8000958:	693a      	ldr	r2, [r7, #16]
 800095a:	4013      	ands	r3, r2
 800095c:	613b      	str	r3, [r7, #16]
        temp |= (((GPIO_Init->Mode & OUTPUT_TYPE) >> OUTPUT_TYPE_Pos) << position);
 800095e:	683b      	ldr	r3, [r7, #0]
 8000960:	685b      	ldr	r3, [r3, #4]
 8000962:	091b      	lsrs	r3, r3, #4
 8000964:	f003 0201 	and.w	r2, r3, #1
 8000968:	697b      	ldr	r3, [r7, #20]
 800096a:	fa02 f303 	lsl.w	r3, r2, r3
 800096e:	693a      	ldr	r2, [r7, #16]
 8000970:	4313      	orrs	r3, r2
 8000972:	613b      	str	r3, [r7, #16]
        GPIOx->OTYPER = temp;
 8000974:	687b      	ldr	r3, [r7, #4]
 8000976:	693a      	ldr	r2, [r7, #16]
 8000978:	605a      	str	r2, [r3, #4]
      }

#endif /* STM32L471xx || STM32L475xx || STM32L476xx || STM32L485xx || STM32L486xx */

      /* Activate the Pull-up or Pull down resistor for the current IO */
      if ((GPIO_Init->Mode & GPIO_MODE) != MODE_ANALOG)
 800097a:	683b      	ldr	r3, [r7, #0]
 800097c:	685b      	ldr	r3, [r3, #4]
 800097e:	f003 0303 	and.w	r3, r3, #3
 8000982:	2b03      	cmp	r3, #3
 8000984:	d017      	beq.n	80009b6 <HAL_GPIO_Init+0xde>
      {
        /* Check the Pull parameter */
        assert_param(IS_GPIO_PULL(GPIO_Init->Pull));

        temp = GPIOx->PUPDR;
 8000986:	687b      	ldr	r3, [r7, #4]
 8000988:	68db      	ldr	r3, [r3, #12]
 800098a:	613b      	str	r3, [r7, #16]
        temp &= ~(GPIO_PUPDR_PUPD0 << (position * 2U));
 800098c:	697b      	ldr	r3, [r7, #20]
 800098e:	005b      	lsls	r3, r3, #1
 8000990:	2203      	movs	r2, #3
 8000992:	fa02 f303 	lsl.w	r3, r2, r3
 8000996:	43db      	mvns	r3, r3
 8000998:	693a      	ldr	r2, [r7, #16]
 800099a:	4013      	ands	r3, r2
 800099c:	613b      	str	r3, [r7, #16]
        temp |= ((GPIO_Init->Pull) << (position * 2U));
 800099e:	683b      	ldr	r3, [r7, #0]
 80009a0:	689a      	ldr	r2, [r3, #8]
 80009a2:	697b      	ldr	r3, [r7, #20]
 80009a4:	005b      	lsls	r3, r3, #1
 80009a6:	fa02 f303 	lsl.w	r3, r2, r3
 80009aa:	693a      	ldr	r2, [r7, #16]
 80009ac:	4313      	orrs	r3, r2
 80009ae:	613b      	str	r3, [r7, #16]
        GPIOx->PUPDR = temp;
 80009b0:	687b      	ldr	r3, [r7, #4]
 80009b2:	693a      	ldr	r2, [r7, #16]
 80009b4:	60da      	str	r2, [r3, #12]
      }

      /* In case of Alternate function mode selection */
      if ((GPIO_Init->Mode & GPIO_MODE) == MODE_AF)
 80009b6:	683b      	ldr	r3, [r7, #0]
 80009b8:	685b      	ldr	r3, [r3, #4]
 80009ba:	f003 0303 	and.w	r3, r3, #3
 80009be:	2b02      	cmp	r3, #2
 80009c0:	d123      	bne.n	8000a0a <HAL_GPIO_Init+0x132>
        /* Check the Alternate function parameters */
        assert_param(IS_GPIO_AF_INSTANCE(GPIOx));
        assert_param(IS_GPIO_AF(GPIO_Init->Alternate));

        /* Configure Alternate function mapped with the current IO */
        temp = GPIOx->AFR[position >> 3u];
 80009c2:	697b      	ldr	r3, [r7, #20]
 80009c4:	08da      	lsrs	r2, r3, #3
 80009c6:	687b      	ldr	r3, [r7, #4]
 80009c8:	3208      	adds	r2, #8
 80009ca:	f853 3022 	ldr.w	r3, [r3, r2, lsl #2]
 80009ce:	613b      	str	r3, [r7, #16]
        temp &= ~(0xFu << ((position & 0x07u) * 4u));
 80009d0:	697b      	ldr	r3, [r7, #20]
 80009d2:	f003 0307 	and.w	r3, r3, #7
 80009d6:	009b      	lsls	r3, r3, #2
 80009d8:	220f      	movs	r2, #15
 80009da:	fa02 f303 	lsl.w	r3, r2, r3
 80009de:	43db      	mvns	r3, r3
 80009e0:	693a      	ldr	r2, [r7, #16]
 80009e2:	4013      	ands	r3, r2
 80009e4:	613b      	str	r3, [r7, #16]
        temp |= ((GPIO_Init->Alternate) << ((position & 0x07u) * 4u));
 80009e6:	683b      	ldr	r3, [r7, #0]
 80009e8:	691a      	ldr	r2, [r3, #16]
 80009ea:	697b      	ldr	r3, [r7, #20]
 80009ec:	f003 0307 	and.w	r3, r3, #7
 80009f0:	009b      	lsls	r3, r3, #2
 80009f2:	fa02 f303 	lsl.w	r3, r2, r3
 80009f6:	693a      	ldr	r2, [r7, #16]
 80009f8:	4313      	orrs	r3, r2
 80009fa:	613b      	str	r3, [r7, #16]
        GPIOx->AFR[position >> 3u] = temp;
 80009fc:	697b      	ldr	r3, [r7, #20]
 80009fe:	08da      	lsrs	r2, r3, #3
 8000a00:	687b      	ldr	r3, [r7, #4]
 8000a02:	3208      	adds	r2, #8
 8000a04:	6939      	ldr	r1, [r7, #16]
 8000a06:	f843 1022 	str.w	r1, [r3, r2, lsl #2]
      }

      /* Configure IO Direction mode (Input, Output, Alternate or Analog) */
      temp = GPIOx->MODER;
 8000a0a:	687b      	ldr	r3, [r7, #4]
 8000a0c:	681b      	ldr	r3, [r3, #0]
 8000a0e:	613b      	str	r3, [r7, #16]
      temp &= ~(GPIO_MODER_MODE0 << (position * 2u));
 8000a10:	697b      	ldr	r3, [r7, #20]
 8000a12:	005b      	lsls	r3, r3, #1
 8000a14:	2203      	movs	r2, #3
 8000a16:	fa02 f303 	lsl.w	r3, r2, r3
 8000a1a:	43db      	mvns	r3, r3
 8000a1c:	693a      	ldr	r2, [r7, #16]
 8000a1e:	4013      	ands	r3, r2
 8000a20:	613b      	str	r3, [r7, #16]
      temp |= ((GPIO_Init->Mode & GPIO_MODE) << (position * 2u));
 8000a22:	683b      	ldr	r3, [r7, #0]
 8000a24:	685b      	ldr	r3, [r3, #4]
 8000a26:	f003 0203 	and.w	r2, r3, #3
 8000a2a:	697b      	ldr	r3, [r7, #20]
 8000a2c:	005b      	lsls	r3, r3, #1
 8000a2e:	fa02 f303 	lsl.w	r3, r2, r3
 8000a32:	693a      	ldr	r2, [r7, #16]
 8000a34:	4313      	orrs	r3, r2
 8000a36:	613b      	str	r3, [r7, #16]
      GPIOx->MODER = temp;
 8000a38:	687b      	ldr	r3, [r7, #4]
 8000a3a:	693a      	ldr	r2, [r7, #16]
 8000a3c:	601a      	str	r2, [r3, #0]

      /*--------------------- EXTI Mode Configuration ------------------------*/
      /* Configure the External Interrupt or event for the current IO */
      if ((GPIO_Init->Mode & EXTI_MODE) != 0x00u)
 8000a3e:	683b      	ldr	r3, [r7, #0]
 8000a40:	685b      	ldr	r3, [r3, #4]
 8000a42:	f403 3340 	and.w	r3, r3, #196608	; 0x30000
 8000a46:	2b00      	cmp	r3, #0
 8000a48:	f000 80a0 	beq.w	8000b8c <HAL_GPIO_Init+0x2b4>
      {
        /* Enable SYSCFG Clock */
        __HAL_RCC_SYSCFG_CLK_ENABLE();
 8000a4c:	4b58      	ldr	r3, [pc, #352]	; (8000bb0 <HAL_GPIO_Init+0x2d8>)
 8000a4e:	6e1b      	ldr	r3, [r3, #96]	; 0x60
 8000a50:	4a57      	ldr	r2, [pc, #348]	; (8000bb0 <HAL_GPIO_Init+0x2d8>)
 8000a52:	f043 0301 	orr.w	r3, r3, #1
 8000a56:	6613      	str	r3, [r2, #96]	; 0x60
 8000a58:	4b55      	ldr	r3, [pc, #340]	; (8000bb0 <HAL_GPIO_Init+0x2d8>)
 8000a5a:	6e1b      	ldr	r3, [r3, #96]	; 0x60
 8000a5c:	f003 0301 	and.w	r3, r3, #1
 8000a60:	60bb      	str	r3, [r7, #8]
 8000a62:	68bb      	ldr	r3, [r7, #8]

        temp = SYSCFG->EXTICR[position >> 2u];
 8000a64:	4a53      	ldr	r2, [pc, #332]	; (8000bb4 <HAL_GPIO_Init+0x2dc>)
 8000a66:	697b      	ldr	r3, [r7, #20]
 8000a68:	089b      	lsrs	r3, r3, #2
 8000a6a:	3302      	adds	r3, #2
 8000a6c:	f852 3023 	ldr.w	r3, [r2, r3, lsl #2]
 8000a70:	613b      	str	r3, [r7, #16]
        temp &= ~(0x0FuL << (4u * (position & 0x03u)));
 8000a72:	697b      	ldr	r3, [r7, #20]
 8000a74:	f003 0303 	and.w	r3, r3, #3
 8000a78:	009b      	lsls	r3, r3, #2
 8000a7a:	220f      	movs	r2, #15
 8000a7c:	fa02 f303 	lsl.w	r3, r2, r3
 8000a80:	43db      	mvns	r3, r3
 8000a82:	693a      	ldr	r2, [r7, #16]
 8000a84:	4013      	ands	r3, r2
 8000a86:	613b      	str	r3, [r7, #16]
        temp |= (GPIO_GET_INDEX(GPIOx) << (4u * (position & 0x03u)));
 8000a88:	687b      	ldr	r3, [r7, #4]
 8000a8a:	f1b3 4f90 	cmp.w	r3, #1207959552	; 0x48000000
 8000a8e:	d019      	beq.n	8000ac4 <HAL_GPIO_Init+0x1ec>
 8000a90:	687b      	ldr	r3, [r7, #4]
 8000a92:	4a49      	ldr	r2, [pc, #292]	; (8000bb8 <HAL_GPIO_Init+0x2e0>)
 8000a94:	4293      	cmp	r3, r2
 8000a96:	d013      	beq.n	8000ac0 <HAL_GPIO_Init+0x1e8>
 8000a98:	687b      	ldr	r3, [r7, #4]
 8000a9a:	4a48      	ldr	r2, [pc, #288]	; (8000bbc <HAL_GPIO_Init+0x2e4>)
 8000a9c:	4293      	cmp	r3, r2
 8000a9e:	d00d      	beq.n	8000abc <HAL_GPIO_Init+0x1e4>
 8000aa0:	687b      	ldr	r3, [r7, #4]
 8000aa2:	4a47      	ldr	r2, [pc, #284]	; (8000bc0 <HAL_GPIO_Init+0x2e8>)
 8000aa4:	4293      	cmp	r3, r2
 8000aa6:	d007      	beq.n	8000ab8 <HAL_GPIO_Init+0x1e0>
 8000aa8:	687b      	ldr	r3, [r7, #4]
 8000aaa:	4a46      	ldr	r2, [pc, #280]	; (8000bc4 <HAL_GPIO_Init+0x2ec>)
 8000aac:	4293      	cmp	r3, r2
 8000aae:	d101      	bne.n	8000ab4 <HAL_GPIO_Init+0x1dc>
 8000ab0:	2304      	movs	r3, #4
 8000ab2:	e008      	b.n	8000ac6 <HAL_GPIO_Init+0x1ee>
 8000ab4:	2307      	movs	r3, #7
 8000ab6:	e006      	b.n	8000ac6 <HAL_GPIO_Init+0x1ee>
 8000ab8:	2303      	movs	r3, #3
 8000aba:	e004      	b.n	8000ac6 <HAL_GPIO_Init+0x1ee>
 8000abc:	2302      	movs	r3, #2
 8000abe:	e002      	b.n	8000ac6 <HAL_GPIO_Init+0x1ee>
 8000ac0:	2301      	movs	r3, #1
 8000ac2:	e000      	b.n	8000ac6 <HAL_GPIO_Init+0x1ee>
 8000ac4:	2300      	movs	r3, #0
 8000ac6:	697a      	ldr	r2, [r7, #20]
 8000ac8:	f002 0203 	and.w	r2, r2, #3
 8000acc:	0092      	lsls	r2, r2, #2
 8000ace:	4093      	lsls	r3, r2
 8000ad0:	693a      	ldr	r2, [r7, #16]
 8000ad2:	4313      	orrs	r3, r2
 8000ad4:	613b      	str	r3, [r7, #16]
        SYSCFG->EXTICR[position >> 2u] = temp;
 8000ad6:	4937      	ldr	r1, [pc, #220]	; (8000bb4 <HAL_GPIO_Init+0x2dc>)
 8000ad8:	697b      	ldr	r3, [r7, #20]
 8000ada:	089b      	lsrs	r3, r3, #2
 8000adc:	3302      	adds	r3, #2
 8000ade:	693a      	ldr	r2, [r7, #16]
 8000ae0:	f841 2023 	str.w	r2, [r1, r3, lsl #2]

        /* Clear Rising Falling edge configuration */
        temp = EXTI->RTSR1;
 8000ae4:	4b38      	ldr	r3, [pc, #224]	; (8000bc8 <HAL_GPIO_Init+0x2f0>)
 8000ae6:	689b      	ldr	r3, [r3, #8]
 8000ae8:	613b      	str	r3, [r7, #16]
        temp &= ~(iocurrent);
 8000aea:	68fb      	ldr	r3, [r7, #12]
 8000aec:	43db      	mvns	r3, r3
 8000aee:	693a      	ldr	r2, [r7, #16]
 8000af0:	4013      	ands	r3, r2
 8000af2:	613b      	str	r3, [r7, #16]
        if ((GPIO_Init->Mode & TRIGGER_RISING) != 0x00u)
 8000af4:	683b      	ldr	r3, [r7, #0]
 8000af6:	685b      	ldr	r3, [r3, #4]
 8000af8:	f403 1380 	and.w	r3, r3, #1048576	; 0x100000
 8000afc:	2b00      	cmp	r3, #0
 8000afe:	d003      	beq.n	8000b08 <HAL_GPIO_Init+0x230>
        {
          temp |= iocurrent;
 8000b00:	693a      	ldr	r2, [r7, #16]
 8000b02:	68fb      	ldr	r3, [r7, #12]
 8000b04:	4313      	orrs	r3, r2
 8000b06:	613b      	str	r3, [r7, #16]
        }
        EXTI->RTSR1 = temp;
 8000b08:	4a2f      	ldr	r2, [pc, #188]	; (8000bc8 <HAL_GPIO_Init+0x2f0>)
 8000b0a:	693b      	ldr	r3, [r7, #16]
 8000b0c:	6093      	str	r3, [r2, #8]

        temp = EXTI->FTSR1;
 8000b0e:	4b2e      	ldr	r3, [pc, #184]	; (8000bc8 <HAL_GPIO_Init+0x2f0>)
 8000b10:	68db      	ldr	r3, [r3, #12]
 8000b12:	613b      	str	r3, [r7, #16]
        temp &= ~(iocurrent);
 8000b14:	68fb      	ldr	r3, [r7, #12]
 8000b16:	43db      	mvns	r3, r3
 8000b18:	693a      	ldr	r2, [r7, #16]
 8000b1a:	4013      	ands	r3, r2
 8000b1c:	613b      	str	r3, [r7, #16]
        if ((GPIO_Init->Mode & TRIGGER_FALLING) != 0x00u)
 8000b1e:	683b      	ldr	r3, [r7, #0]
 8000b20:	685b      	ldr	r3, [r3, #4]
 8000b22:	f403 1300 	and.w	r3, r3, #2097152	; 0x200000
 8000b26:	2b00      	cmp	r3, #0
 8000b28:	d003      	beq.n	8000b32 <HAL_GPIO_Init+0x25a>
        {
          temp |= iocurrent;
 8000b2a:	693a      	ldr	r2, [r7, #16]
 8000b2c:	68fb      	ldr	r3, [r7, #12]
 8000b2e:	4313      	orrs	r3, r2
 8000b30:	613b      	str	r3, [r7, #16]
        }
        EXTI->FTSR1 = temp;
 8000b32:	4a25      	ldr	r2, [pc, #148]	; (8000bc8 <HAL_GPIO_Init+0x2f0>)
 8000b34:	693b      	ldr	r3, [r7, #16]
 8000b36:	60d3      	str	r3, [r2, #12]

        /* Clear EXTI line configuration */
        temp = EXTI->EMR1;
 8000b38:	4b23      	ldr	r3, [pc, #140]	; (8000bc8 <HAL_GPIO_Init+0x2f0>)
 8000b3a:	685b      	ldr	r3, [r3, #4]
 8000b3c:	613b      	str	r3, [r7, #16]
        temp &= ~(iocurrent);
 8000b3e:	68fb      	ldr	r3, [r7, #12]
 8000b40:	43db      	mvns	r3, r3
 8000b42:	693a      	ldr	r2, [r7, #16]
 8000b44:	4013      	ands	r3, r2
 8000b46:	613b      	str	r3, [r7, #16]
        if ((GPIO_Init->Mode & EXTI_EVT) != 0x00u)
 8000b48:	683b      	ldr	r3, [r7, #0]
 8000b4a:	685b      	ldr	r3, [r3, #4]
 8000b4c:	f403 3300 	and.w	r3, r3, #131072	; 0x20000
 8000b50:	2b00      	cmp	r3, #0
 8000b52:	d003      	beq.n	8000b5c <HAL_GPIO_Init+0x284>
        {
          temp |= iocurrent;
 8000b54:	693a      	ldr	r2, [r7, #16]
 8000b56:	68fb      	ldr	r3, [r7, #12]
 8000b58:	4313      	orrs	r3, r2
 8000b5a:	613b      	str	r3, [r7, #16]
        }
        EXTI->EMR1 = temp;
 8000b5c:	4a1a      	ldr	r2, [pc, #104]	; (8000bc8 <HAL_GPIO_Init+0x2f0>)
 8000b5e:	693b      	ldr	r3, [r7, #16]
 8000b60:	6053      	str	r3, [r2, #4]

        temp = EXTI->IMR1;
 8000b62:	4b19      	ldr	r3, [pc, #100]	; (8000bc8 <HAL_GPIO_Init+0x2f0>)
 8000b64:	681b      	ldr	r3, [r3, #0]
 8000b66:	613b      	str	r3, [r7, #16]
        temp &= ~(iocurrent);
 8000b68:	68fb      	ldr	r3, [r7, #12]
 8000b6a:	43db      	mvns	r3, r3
 8000b6c:	693a      	ldr	r2, [r7, #16]
 8000b6e:	4013      	ands	r3, r2
 8000b70:	613b      	str	r3, [r7, #16]
        if ((GPIO_Init->Mode & EXTI_IT) != 0x00u)
 8000b72:	683b      	ldr	r3, [r7, #0]
 8000b74:	685b      	ldr	r3, [r3, #4]
 8000b76:	f403 3380 	and.w	r3, r3, #65536	; 0x10000
 8000b7a:	2b00      	cmp	r3, #0
 8000b7c:	d003      	beq.n	8000b86 <HAL_GPIO_Init+0x2ae>
        {
          temp |= iocurrent;
 8000b7e:	693a      	ldr	r2, [r7, #16]
 8000b80:	68fb      	ldr	r3, [r7, #12]
 8000b82:	4313      	orrs	r3, r2
 8000b84:	613b      	str	r3, [r7, #16]
        }
        EXTI->IMR1 = temp;
 8000b86:	4a10      	ldr	r2, [pc, #64]	; (8000bc8 <HAL_GPIO_Init+0x2f0>)
 8000b88:	693b      	ldr	r3, [r7, #16]
 8000b8a:	6013      	str	r3, [r2, #0]
      }
    }

    position++;
 8000b8c:	697b      	ldr	r3, [r7, #20]
 8000b8e:	3301      	adds	r3, #1
 8000b90:	617b      	str	r3, [r7, #20]
  while (((GPIO_Init->Pin) >> position) != 0x00u)
 8000b92:	683b      	ldr	r3, [r7, #0]
 8000b94:	681a      	ldr	r2, [r3, #0]
 8000b96:	697b      	ldr	r3, [r7, #20]
 8000b98:	fa22 f303 	lsr.w	r3, r2, r3
 8000b9c:	2b00      	cmp	r3, #0
 8000b9e:	f47f aea3 	bne.w	80008e8 <HAL_GPIO_Init+0x10>
  }
}
 8000ba2:	bf00      	nop
 8000ba4:	bf00      	nop
 8000ba6:	371c      	adds	r7, #28
 8000ba8:	46bd      	mov	sp, r7
 8000baa:	f85d 7b04 	ldr.w	r7, [sp], #4
 8000bae:	4770      	bx	lr
 8000bb0:	40021000 	.word	0x40021000
 8000bb4:	40010000 	.word	0x40010000
 8000bb8:	48000400 	.word	0x48000400
 8000bbc:	48000800 	.word	0x48000800
 8000bc0:	48000c00 	.word	0x48000c00
 8000bc4:	48001000 	.word	0x48001000
 8000bc8:	40010400 	.word	0x40010400

08000bcc <HAL_GPIO_WritePin>:
  *            @arg GPIO_PIN_RESET: to clear the port pin
  *            @arg GPIO_PIN_SET: to set the port pin
  * @retval None
  */
void HAL_GPIO_WritePin(GPIO_TypeDef* GPIOx, uint16_t GPIO_Pin, GPIO_PinState PinState)
{
 8000bcc:	b480      	push	{r7}
 8000bce:	b083      	sub	sp, #12
 8000bd0:	af00      	add	r7, sp, #0
 8000bd2:	6078      	str	r0, [r7, #4]
 8000bd4:	460b      	mov	r3, r1
 8000bd6:	807b      	strh	r3, [r7, #2]
 8000bd8:	4613      	mov	r3, r2
 8000bda:	707b      	strb	r3, [r7, #1]
  /* Check the parameters */
  assert_param(IS_GPIO_PIN(GPIO_Pin));
  assert_param(IS_GPIO_PIN_ACTION(PinState));

  if(PinState != GPIO_PIN_RESET)
 8000bdc:	787b      	ldrb	r3, [r7, #1]
 8000bde:	2b00      	cmp	r3, #0
 8000be0:	d003      	beq.n	8000bea <HAL_GPIO_WritePin+0x1e>
  {
    GPIOx->BSRR = (uint32_t)GPIO_Pin;
 8000be2:	887a      	ldrh	r2, [r7, #2]
 8000be4:	687b      	ldr	r3, [r7, #4]
 8000be6:	619a      	str	r2, [r3, #24]
  }
  else
  {
    GPIOx->BRR = (uint32_t)GPIO_Pin;
  }
}
 8000be8:	e002      	b.n	8000bf0 <HAL_GPIO_WritePin+0x24>
    GPIOx->BRR = (uint32_t)GPIO_Pin;
 8000bea:	887a      	ldrh	r2, [r7, #2]
 8000bec:	687b      	ldr	r3, [r7, #4]
 8000bee:	629a      	str	r2, [r3, #40]	; 0x28
}
 8000bf0:	bf00      	nop
 8000bf2:	370c      	adds	r7, #12
 8000bf4:	46bd      	mov	sp, r7
 8000bf6:	f85d 7b04 	ldr.w	r7, [sp], #4
 8000bfa:	4770      	bx	lr

08000bfc <HAL_GPIO_TogglePin>:
  * @param  GPIOx where x can be (A..H) to select the GPIO peripheral for STM32L4 family
  * @param  GPIO_Pin specifies the pin to be toggled.
  * @retval None
  */
void HAL_GPIO_TogglePin(GPIO_TypeDef* GPIOx, uint16_t GPIO_Pin)
{
 8000bfc:	b480      	push	{r7}
 8000bfe:	b085      	sub	sp, #20
 8000c00:	af00      	add	r7, sp, #0
 8000c02:	6078      	str	r0, [r7, #4]
 8000c04:	460b      	mov	r3, r1
 8000c06:	807b      	strh	r3, [r7, #2]

  /* Check the parameters */
  assert_param(IS_GPIO_PIN(GPIO_Pin));

  /* get current Output Data Register value */
  odr = GPIOx->ODR;
 8000c08:	687b      	ldr	r3, [r7, #4]
 8000c0a:	695b      	ldr	r3, [r3, #20]
 8000c0c:	60fb      	str	r3, [r7, #12]

  /* Set selected pins that were at low level, and reset ones that were high */
  GPIOx->BSRR = ((odr & GPIO_Pin) << GPIO_NUMBER) | (~odr & GPIO_Pin);
 8000c0e:	887a      	ldrh	r2, [r7, #2]
 8000c10:	68fb      	ldr	r3, [r7, #12]
 8000c12:	4013      	ands	r3, r2
 8000c14:	041a      	lsls	r2, r3, #16
 8000c16:	68fb      	ldr	r3, [r7, #12]
 8000c18:	43d9      	mvns	r1, r3
 8000c1a:	887b      	ldrh	r3, [r7, #2]
 8000c1c:	400b      	ands	r3, r1
 8000c1e:	431a      	orrs	r2, r3
 8000c20:	687b      	ldr	r3, [r7, #4]
 8000c22:	619a      	str	r2, [r3, #24]
}
 8000c24:	bf00      	nop
 8000c26:	3714      	adds	r7, #20
 8000c28:	46bd      	mov	sp, r7
 8000c2a:	f85d 7b04 	ldr.w	r7, [sp], #4
 8000c2e:	4770      	bx	lr

08000c30 <HAL_PWREx_GetVoltageRange>:
  * @brief Return Voltage Scaling Range.
  * @retval VOS bit field (PWR_REGULATOR_VOLTAGE_SCALE1 or PWR_REGULATOR_VOLTAGE_SCALE2
  *         or PWR_REGULATOR_VOLTAGE_SCALE1_BOOST when applicable)
  */
uint32_t HAL_PWREx_GetVoltageRange(void)
{
 8000c30:	b480      	push	{r7}
 8000c32:	af00      	add	r7, sp, #0
    else
    {
      return PWR_REGULATOR_VOLTAGE_SCALE1_BOOST;
    }
#else
  return  (PWR->CR1 & PWR_CR1_VOS);
 8000c34:	4b04      	ldr	r3, [pc, #16]	; (8000c48 <HAL_PWREx_GetVoltageRange+0x18>)
 8000c36:	681b      	ldr	r3, [r3, #0]
 8000c38:	f403 63c0 	and.w	r3, r3, #1536	; 0x600
#endif
}
 8000c3c:	4618      	mov	r0, r3
 8000c3e:	46bd      	mov	sp, r7
 8000c40:	f85d 7b04 	ldr.w	r7, [sp], #4
 8000c44:	4770      	bx	lr
 8000c46:	bf00      	nop
 8000c48:	40007000 	.word	0x40007000

08000c4c <HAL_PWREx_ControlVoltageScaling>:
  *        cleared before returning the status. If the flag is not cleared within
  *        50 microseconds, HAL_TIMEOUT status is reported.
  * @retval HAL Status
  */
HAL_StatusTypeDef HAL_PWREx_ControlVoltageScaling(uint32_t VoltageScaling)
{
 8000c4c:	b480      	push	{r7}
 8000c4e:	b085      	sub	sp, #20
 8000c50:	af00      	add	r7, sp, #0
 8000c52:	6078      	str	r0, [r7, #4]
  }

#else

  /* If Set Range 1 */
  if (VoltageScaling == PWR_REGULATOR_VOLTAGE_SCALE1)
 8000c54:	687b      	ldr	r3, [r7, #4]
 8000c56:	f5b3 7f00 	cmp.w	r3, #512	; 0x200
 8000c5a:	d130      	bne.n	8000cbe <HAL_PWREx_ControlVoltageScaling+0x72>
  {
    if (READ_BIT(PWR->CR1, PWR_CR1_VOS) != PWR_REGULATOR_VOLTAGE_SCALE1)
 8000c5c:	4b23      	ldr	r3, [pc, #140]	; (8000cec <HAL_PWREx_ControlVoltageScaling+0xa0>)
 8000c5e:	681b      	ldr	r3, [r3, #0]
 8000c60:	f403 63c0 	and.w	r3, r3, #1536	; 0x600
 8000c64:	f5b3 7f00 	cmp.w	r3, #512	; 0x200
 8000c68:	d038      	beq.n	8000cdc <HAL_PWREx_ControlVoltageScaling+0x90>
    {
      /* Set Range 1 */
      MODIFY_REG(PWR->CR1, PWR_CR1_VOS, PWR_REGULATOR_VOLTAGE_SCALE1);
 8000c6a:	4b20      	ldr	r3, [pc, #128]	; (8000cec <HAL_PWREx_ControlVoltageScaling+0xa0>)
 8000c6c:	681b      	ldr	r3, [r3, #0]
 8000c6e:	f423 63c0 	bic.w	r3, r3, #1536	; 0x600
 8000c72:	4a1e      	ldr	r2, [pc, #120]	; (8000cec <HAL_PWREx_ControlVoltageScaling+0xa0>)
 8000c74:	f443 7300 	orr.w	r3, r3, #512	; 0x200
 8000c78:	6013      	str	r3, [r2, #0]

      /* Wait until VOSF is cleared */
      wait_loop_index = ((PWR_FLAG_SETTING_DELAY_US * SystemCoreClock) / 1000000U) + 1U;
 8000c7a:	4b1d      	ldr	r3, [pc, #116]	; (8000cf0 <HAL_PWREx_ControlVoltageScaling+0xa4>)
 8000c7c:	681b      	ldr	r3, [r3, #0]
 8000c7e:	2232      	movs	r2, #50	; 0x32
 8000c80:	fb02 f303 	mul.w	r3, r2, r3
 8000c84:	4a1b      	ldr	r2, [pc, #108]	; (8000cf4 <HAL_PWREx_ControlVoltageScaling+0xa8>)
 8000c86:	fba2 2303 	umull	r2, r3, r2, r3
 8000c8a:	0c9b      	lsrs	r3, r3, #18
 8000c8c:	3301      	adds	r3, #1
 8000c8e:	60fb      	str	r3, [r7, #12]
      while ((HAL_IS_BIT_SET(PWR->SR2, PWR_SR2_VOSF)) && (wait_loop_index != 0U))
 8000c90:	e002      	b.n	8000c98 <HAL_PWREx_ControlVoltageScaling+0x4c>
      {
        wait_loop_index--;
 8000c92:	68fb      	ldr	r3, [r7, #12]
 8000c94:	3b01      	subs	r3, #1
 8000c96:	60fb      	str	r3, [r7, #12]
      while ((HAL_IS_BIT_SET(PWR->SR2, PWR_SR2_VOSF)) && (wait_loop_index != 0U))
 8000c98:	4b14      	ldr	r3, [pc, #80]	; (8000cec <HAL_PWREx_ControlVoltageScaling+0xa0>)
 8000c9a:	695b      	ldr	r3, [r3, #20]
 8000c9c:	f403 6380 	and.w	r3, r3, #1024	; 0x400
 8000ca0:	f5b3 6f80 	cmp.w	r3, #1024	; 0x400
 8000ca4:	d102      	bne.n	8000cac <HAL_PWREx_ControlVoltageScaling+0x60>
 8000ca6:	68fb      	ldr	r3, [r7, #12]
 8000ca8:	2b00      	cmp	r3, #0
 8000caa:	d1f2      	bne.n	8000c92 <HAL_PWREx_ControlVoltageScaling+0x46>
      }
      if (HAL_IS_BIT_SET(PWR->SR2, PWR_SR2_VOSF))
 8000cac:	4b0f      	ldr	r3, [pc, #60]	; (8000cec <HAL_PWREx_ControlVoltageScaling+0xa0>)
 8000cae:	695b      	ldr	r3, [r3, #20]
 8000cb0:	f403 6380 	and.w	r3, r3, #1024	; 0x400
 8000cb4:	f5b3 6f80 	cmp.w	r3, #1024	; 0x400
 8000cb8:	d110      	bne.n	8000cdc <HAL_PWREx_ControlVoltageScaling+0x90>
      {
        return HAL_TIMEOUT;
 8000cba:	2303      	movs	r3, #3
 8000cbc:	e00f      	b.n	8000cde <HAL_PWREx_ControlVoltageScaling+0x92>
      }
    }
  }
  else
  {
    if (READ_BIT(PWR->CR1, PWR_CR1_VOS) != PWR_REGULATOR_VOLTAGE_SCALE2)
 8000cbe:	4b0b      	ldr	r3, [pc, #44]	; (8000cec <HAL_PWREx_ControlVoltageScaling+0xa0>)
 8000cc0:	681b      	ldr	r3, [r3, #0]
 8000cc2:	f403 63c0 	and.w	r3, r3, #1536	; 0x600
 8000cc6:	f5b3 6f80 	cmp.w	r3, #1024	; 0x400
 8000cca:	d007      	beq.n	8000cdc <HAL_PWREx_ControlVoltageScaling+0x90>
    {
      /* Set Range 2 */
      MODIFY_REG(PWR->CR1, PWR_CR1_VOS, PWR_REGULATOR_VOLTAGE_SCALE2);
 8000ccc:	4b07      	ldr	r3, [pc, #28]	; (8000cec <HAL_PWREx_ControlVoltageScaling+0xa0>)
 8000cce:	681b      	ldr	r3, [r3, #0]
 8000cd0:	f423 63c0 	bic.w	r3, r3, #1536	; 0x600
 8000cd4:	4a05      	ldr	r2, [pc, #20]	; (8000cec <HAL_PWREx_ControlVoltageScaling+0xa0>)
 8000cd6:	f443 6380 	orr.w	r3, r3, #1024	; 0x400
 8000cda:	6013      	str	r3, [r2, #0]
      /* No need to wait for VOSF to be cleared for this transition */
    }
  }
#endif

  return HAL_OK;
 8000cdc:	2300      	movs	r3, #0
}
 8000cde:	4618      	mov	r0, r3
 8000ce0:	3714      	adds	r7, #20
 8000ce2:	46bd      	mov	sp, r7
 8000ce4:	f85d 7b04 	ldr.w	r7, [sp], #4
 8000ce8:	4770      	bx	lr
 8000cea:	bf00      	nop
 8000cec:	40007000 	.word	0x40007000
 8000cf0:	20000000 	.word	0x20000000
 8000cf4:	431bde83 	.word	0x431bde83

08000cf8 <HAL_RCC_OscConfig>:
  *         supported by this macro. User should request a transition to HSE Off
  *         first and then HSE On or HSE Bypass.
  * @retval HAL status
  */
HAL_StatusTypeDef HAL_RCC_OscConfig(RCC_OscInitTypeDef  *RCC_OscInitStruct)
{
 8000cf8:	b580      	push	{r7, lr}
 8000cfa:	b088      	sub	sp, #32
 8000cfc:	af00      	add	r7, sp, #0
 8000cfe:	6078      	str	r0, [r7, #4]
  uint32_t tickstart;
  HAL_StatusTypeDef status;
  uint32_t sysclk_source, pll_config;

  /* Check Null pointer */
  if(RCC_OscInitStruct == NULL)
 8000d00:	687b      	ldr	r3, [r7, #4]
 8000d02:	2b00      	cmp	r3, #0
 8000d04:	d102      	bne.n	8000d0c <HAL_RCC_OscConfig+0x14>
  {
    return HAL_ERROR;
 8000d06:	2301      	movs	r3, #1
 8000d08:	f000 bc02 	b.w	8001510 <HAL_RCC_OscConfig+0x818>
  }

  /* Check the parameters */
  assert_param(IS_RCC_OSCILLATORTYPE(RCC_OscInitStruct->OscillatorType));

  sysclk_source = __HAL_RCC_GET_SYSCLK_SOURCE();
 8000d0c:	4b96      	ldr	r3, [pc, #600]	; (8000f68 <HAL_RCC_OscConfig+0x270>)
 8000d0e:	689b      	ldr	r3, [r3, #8]
 8000d10:	f003 030c 	and.w	r3, r3, #12
 8000d14:	61bb      	str	r3, [r7, #24]
  pll_config = __HAL_RCC_GET_PLL_OSCSOURCE();
 8000d16:	4b94      	ldr	r3, [pc, #592]	; (8000f68 <HAL_RCC_OscConfig+0x270>)
 8000d18:	68db      	ldr	r3, [r3, #12]
 8000d1a:	f003 0303 	and.w	r3, r3, #3
 8000d1e:	617b      	str	r3, [r7, #20]

  /*----------------------------- MSI Configuration --------------------------*/
  if(((RCC_OscInitStruct->OscillatorType) & RCC_OSCILLATORTYPE_MSI) == RCC_OSCILLATORTYPE_MSI)
 8000d20:	687b      	ldr	r3, [r7, #4]
 8000d22:	681b      	ldr	r3, [r3, #0]
 8000d24:	f003 0310 	and.w	r3, r3, #16
 8000d28:	2b00      	cmp	r3, #0
 8000d2a:	f000 80e4 	beq.w	8000ef6 <HAL_RCC_OscConfig+0x1fe>
    assert_param(IS_RCC_MSI(RCC_OscInitStruct->MSIState));
    assert_param(IS_RCC_MSICALIBRATION_VALUE(RCC_OscInitStruct->MSICalibrationValue));
    assert_param(IS_RCC_MSI_CLOCK_RANGE(RCC_OscInitStruct->MSIClockRange));

    /* Check if MSI is used as system clock or as PLL source when PLL is selected as system clock */
    if((sysclk_source == RCC_CFGR_SWS_MSI) ||
 8000d2e:	69bb      	ldr	r3, [r7, #24]
 8000d30:	2b00      	cmp	r3, #0
 8000d32:	d007      	beq.n	8000d44 <HAL_RCC_OscConfig+0x4c>
 8000d34:	69bb      	ldr	r3, [r7, #24]
 8000d36:	2b0c      	cmp	r3, #12
 8000d38:	f040 808b 	bne.w	8000e52 <HAL_RCC_OscConfig+0x15a>
       ((sysclk_source == RCC_CFGR_SWS_PLL) && (pll_config == RCC_PLLSOURCE_MSI)))
 8000d3c:	697b      	ldr	r3, [r7, #20]
 8000d3e:	2b01      	cmp	r3, #1
 8000d40:	f040 8087 	bne.w	8000e52 <HAL_RCC_OscConfig+0x15a>
    {
      if((READ_BIT(RCC->CR, RCC_CR_MSIRDY) != 0U) && (RCC_OscInitStruct->MSIState == RCC_MSI_OFF))
 8000d44:	4b88      	ldr	r3, [pc, #544]	; (8000f68 <HAL_RCC_OscConfig+0x270>)
 8000d46:	681b      	ldr	r3, [r3, #0]
 8000d48:	f003 0302 	and.w	r3, r3, #2
 8000d4c:	2b00      	cmp	r3, #0
 8000d4e:	d005      	beq.n	8000d5c <HAL_RCC_OscConfig+0x64>
 8000d50:	687b      	ldr	r3, [r7, #4]
 8000d52:	699b      	ldr	r3, [r3, #24]
 8000d54:	2b00      	cmp	r3, #0
 8000d56:	d101      	bne.n	8000d5c <HAL_RCC_OscConfig+0x64>
      {
        return HAL_ERROR;
 8000d58:	2301      	movs	r3, #1
 8000d5a:	e3d9      	b.n	8001510 <HAL_RCC_OscConfig+0x818>
      else
      {
        /* To correctly read data from FLASH memory, the number of wait states (LATENCY)
           must be correctly programmed according to the frequency of the CPU clock
           (HCLK) and the supply voltage of the device. */
        if(RCC_OscInitStruct->MSIClockRange > __HAL_RCC_GET_MSI_RANGE())
 8000d5c:	687b      	ldr	r3, [r7, #4]
 8000d5e:	6a1a      	ldr	r2, [r3, #32]
 8000d60:	4b81      	ldr	r3, [pc, #516]	; (8000f68 <HAL_RCC_OscConfig+0x270>)
 8000d62:	681b      	ldr	r3, [r3, #0]
 8000d64:	f003 0308 	and.w	r3, r3, #8
 8000d68:	2b00      	cmp	r3, #0
 8000d6a:	d004      	beq.n	8000d76 <HAL_RCC_OscConfig+0x7e>
 8000d6c:	4b7e      	ldr	r3, [pc, #504]	; (8000f68 <HAL_RCC_OscConfig+0x270>)
 8000d6e:	681b      	ldr	r3, [r3, #0]
 8000d70:	f003 03f0 	and.w	r3, r3, #240	; 0xf0
 8000d74:	e005      	b.n	8000d82 <HAL_RCC_OscConfig+0x8a>
 8000d76:	4b7c      	ldr	r3, [pc, #496]	; (8000f68 <HAL_RCC_OscConfig+0x270>)
 8000d78:	f8d3 3094 	ldr.w	r3, [r3, #148]	; 0x94
 8000d7c:	091b      	lsrs	r3, r3, #4
 8000d7e:	f003 03f0 	and.w	r3, r3, #240	; 0xf0
 8000d82:	4293      	cmp	r3, r2
 8000d84:	d223      	bcs.n	8000dce <HAL_RCC_OscConfig+0xd6>
        {
          /* First increase number of wait states update if necessary */
          if(RCC_SetFlashLatencyFromMSIRange(RCC_OscInitStruct->MSIClockRange) != HAL_OK)
 8000d86:	687b      	ldr	r3, [r7, #4]
 8000d88:	6a1b      	ldr	r3, [r3, #32]
 8000d8a:	4618      	mov	r0, r3
 8000d8c:	f000 fd54 	bl	8001838 <RCC_SetFlashLatencyFromMSIRange>
 8000d90:	4603      	mov	r3, r0
 8000d92:	2b00      	cmp	r3, #0
 8000d94:	d001      	beq.n	8000d9a <HAL_RCC_OscConfig+0xa2>
          {
            return HAL_ERROR;
 8000d96:	2301      	movs	r3, #1
 8000d98:	e3ba      	b.n	8001510 <HAL_RCC_OscConfig+0x818>
          }

          /* Selects the Multiple Speed oscillator (MSI) clock range .*/
          __HAL_RCC_MSI_RANGE_CONFIG(RCC_OscInitStruct->MSIClockRange);
 8000d9a:	4b73      	ldr	r3, [pc, #460]	; (8000f68 <HAL_RCC_OscConfig+0x270>)
 8000d9c:	681b      	ldr	r3, [r3, #0]
 8000d9e:	4a72      	ldr	r2, [pc, #456]	; (8000f68 <HAL_RCC_OscConfig+0x270>)
 8000da0:	f043 0308 	orr.w	r3, r3, #8
 8000da4:	6013      	str	r3, [r2, #0]
 8000da6:	4b70      	ldr	r3, [pc, #448]	; (8000f68 <HAL_RCC_OscConfig+0x270>)
 8000da8:	681b      	ldr	r3, [r3, #0]
 8000daa:	f023 02f0 	bic.w	r2, r3, #240	; 0xf0
 8000dae:	687b      	ldr	r3, [r7, #4]
 8000db0:	6a1b      	ldr	r3, [r3, #32]
 8000db2:	496d      	ldr	r1, [pc, #436]	; (8000f68 <HAL_RCC_OscConfig+0x270>)
 8000db4:	4313      	orrs	r3, r2
 8000db6:	600b      	str	r3, [r1, #0]
          /* Adjusts the Multiple Speed oscillator (MSI) calibration value.*/
          __HAL_RCC_MSI_CALIBRATIONVALUE_ADJUST(RCC_OscInitStruct->MSICalibrationValue);
 8000db8:	4b6b      	ldr	r3, [pc, #428]	; (8000f68 <HAL_RCC_OscConfig+0x270>)
 8000dba:	685b      	ldr	r3, [r3, #4]
 8000dbc:	f423 427f 	bic.w	r2, r3, #65280	; 0xff00
 8000dc0:	687b      	ldr	r3, [r7, #4]
 8000dc2:	69db      	ldr	r3, [r3, #28]
 8000dc4:	021b      	lsls	r3, r3, #8
 8000dc6:	4968      	ldr	r1, [pc, #416]	; (8000f68 <HAL_RCC_OscConfig+0x270>)
 8000dc8:	4313      	orrs	r3, r2
 8000dca:	604b      	str	r3, [r1, #4]
 8000dcc:	e025      	b.n	8000e1a <HAL_RCC_OscConfig+0x122>
        }
        else
        {
          /* Else, keep current flash latency while decreasing applies */
          /* Selects the Multiple Speed oscillator (MSI) clock range .*/
          __HAL_RCC_MSI_RANGE_CONFIG(RCC_OscInitStruct->MSIClockRange);
 8000dce:	4b66      	ldr	r3, [pc, #408]	; (8000f68 <HAL_RCC_OscConfig+0x270>)
 8000dd0:	681b      	ldr	r3, [r3, #0]
 8000dd2:	4a65      	ldr	r2, [pc, #404]	; (8000f68 <HAL_RCC_OscConfig+0x270>)
 8000dd4:	f043 0308 	orr.w	r3, r3, #8
 8000dd8:	6013      	str	r3, [r2, #0]
 8000dda:	4b63      	ldr	r3, [pc, #396]	; (8000f68 <HAL_RCC_OscConfig+0x270>)
 8000ddc:	681b      	ldr	r3, [r3, #0]
 8000dde:	f023 02f0 	bic.w	r2, r3, #240	; 0xf0
 8000de2:	687b      	ldr	r3, [r7, #4]
 8000de4:	6a1b      	ldr	r3, [r3, #32]
 8000de6:	4960      	ldr	r1, [pc, #384]	; (8000f68 <HAL_RCC_OscConfig+0x270>)
 8000de8:	4313      	orrs	r3, r2
 8000dea:	600b      	str	r3, [r1, #0]
          /* Adjusts the Multiple Speed oscillator (MSI) calibration value.*/
          __HAL_RCC_MSI_CALIBRATIONVALUE_ADJUST(RCC_OscInitStruct->MSICalibrationValue);
 8000dec:	4b5e      	ldr	r3, [pc, #376]	; (8000f68 <HAL_RCC_OscConfig+0x270>)
 8000dee:	685b      	ldr	r3, [r3, #4]
 8000df0:	f423 427f 	bic.w	r2, r3, #65280	; 0xff00
 8000df4:	687b      	ldr	r3, [r7, #4]
 8000df6:	69db      	ldr	r3, [r3, #28]
 8000df8:	021b      	lsls	r3, r3, #8
 8000dfa:	495b      	ldr	r1, [pc, #364]	; (8000f68 <HAL_RCC_OscConfig+0x270>)
 8000dfc:	4313      	orrs	r3, r2
 8000dfe:	604b      	str	r3, [r1, #4]

          /* Decrease number of wait states update if necessary */
          /* Only possible when MSI is the System clock source  */
          if(sysclk_source == RCC_CFGR_SWS_MSI)
 8000e00:	69bb      	ldr	r3, [r7, #24]
 8000e02:	2b00      	cmp	r3, #0
 8000e04:	d109      	bne.n	8000e1a <HAL_RCC_OscConfig+0x122>
          {
            if(RCC_SetFlashLatencyFromMSIRange(RCC_OscInitStruct->MSIClockRange) != HAL_OK)
 8000e06:	687b      	ldr	r3, [r7, #4]
 8000e08:	6a1b      	ldr	r3, [r3, #32]
 8000e0a:	4618      	mov	r0, r3
 8000e0c:	f000 fd14 	bl	8001838 <RCC_SetFlashLatencyFromMSIRange>
 8000e10:	4603      	mov	r3, r0
 8000e12:	2b00      	cmp	r3, #0
 8000e14:	d001      	beq.n	8000e1a <HAL_RCC_OscConfig+0x122>
            {
              return HAL_ERROR;
 8000e16:	2301      	movs	r3, #1
 8000e18:	e37a      	b.n	8001510 <HAL_RCC_OscConfig+0x818>
            }
          }
        }

        /* Update the SystemCoreClock global variable */
        SystemCoreClock = HAL_RCC_GetSysClockFreq() >> (AHBPrescTable[READ_BIT(RCC->CFGR, RCC_CFGR_HPRE) >> RCC_CFGR_HPRE_Pos] & 0x1FU);
 8000e1a:	f000 fc81 	bl	8001720 <HAL_RCC_GetSysClockFreq>
 8000e1e:	4602      	mov	r2, r0
 8000e20:	4b51      	ldr	r3, [pc, #324]	; (8000f68 <HAL_RCC_OscConfig+0x270>)
 8000e22:	689b      	ldr	r3, [r3, #8]
 8000e24:	091b      	lsrs	r3, r3, #4
 8000e26:	f003 030f 	and.w	r3, r3, #15
 8000e2a:	4950      	ldr	r1, [pc, #320]	; (8000f6c <HAL_RCC_OscConfig+0x274>)
 8000e2c:	5ccb      	ldrb	r3, [r1, r3]
 8000e2e:	f003 031f 	and.w	r3, r3, #31
 8000e32:	fa22 f303 	lsr.w	r3, r2, r3
 8000e36:	4a4e      	ldr	r2, [pc, #312]	; (8000f70 <HAL_RCC_OscConfig+0x278>)
 8000e38:	6013      	str	r3, [r2, #0]

        /* Configure the source of time base considering new system clocks settings*/
        status = HAL_InitTick(uwTickPrio);
 8000e3a:	4b4e      	ldr	r3, [pc, #312]	; (8000f74 <HAL_RCC_OscConfig+0x27c>)
 8000e3c:	681b      	ldr	r3, [r3, #0]
 8000e3e:	4618      	mov	r0, r3
 8000e40:	f7ff fbdc 	bl	80005fc <HAL_InitTick>
 8000e44:	4603      	mov	r3, r0
 8000e46:	73fb      	strb	r3, [r7, #15]
        if(status != HAL_OK)
 8000e48:	7bfb      	ldrb	r3, [r7, #15]
 8000e4a:	2b00      	cmp	r3, #0
 8000e4c:	d052      	beq.n	8000ef4 <HAL_RCC_OscConfig+0x1fc>
        {
          return status;
 8000e4e:	7bfb      	ldrb	r3, [r7, #15]
 8000e50:	e35e      	b.n	8001510 <HAL_RCC_OscConfig+0x818>
      }
    }
    else
    {
      /* Check the MSI State */
      if(RCC_OscInitStruct->MSIState != RCC_MSI_OFF)
 8000e52:	687b      	ldr	r3, [r7, #4]
 8000e54:	699b      	ldr	r3, [r3, #24]
 8000e56:	2b00      	cmp	r3, #0
 8000e58:	d032      	beq.n	8000ec0 <HAL_RCC_OscConfig+0x1c8>
      {
        /* Enable the Internal High Speed oscillator (MSI). */
        __HAL_RCC_MSI_ENABLE();
 8000e5a:	4b43      	ldr	r3, [pc, #268]	; (8000f68 <HAL_RCC_OscConfig+0x270>)
 8000e5c:	681b      	ldr	r3, [r3, #0]
 8000e5e:	4a42      	ldr	r2, [pc, #264]	; (8000f68 <HAL_RCC_OscConfig+0x270>)
 8000e60:	f043 0301 	orr.w	r3, r3, #1
 8000e64:	6013      	str	r3, [r2, #0]

        /* Get timeout */
        tickstart = HAL_GetTick();
 8000e66:	f7ff fc19 	bl	800069c <HAL_GetTick>
 8000e6a:	6138      	str	r0, [r7, #16]

        /* Wait till MSI is ready */
        while(READ_BIT(RCC->CR, RCC_CR_MSIRDY) == 0U)
 8000e6c:	e008      	b.n	8000e80 <HAL_RCC_OscConfig+0x188>
        {
          if((HAL_GetTick() - tickstart) > MSI_TIMEOUT_VALUE)
 8000e6e:	f7ff fc15 	bl	800069c <HAL_GetTick>
 8000e72:	4602      	mov	r2, r0
 8000e74:	693b      	ldr	r3, [r7, #16]
 8000e76:	1ad3      	subs	r3, r2, r3
 8000e78:	2b02      	cmp	r3, #2
 8000e7a:	d901      	bls.n	8000e80 <HAL_RCC_OscConfig+0x188>
          {
            return HAL_TIMEOUT;
 8000e7c:	2303      	movs	r3, #3
 8000e7e:	e347      	b.n	8001510 <HAL_RCC_OscConfig+0x818>
        while(READ_BIT(RCC->CR, RCC_CR_MSIRDY) == 0U)
 8000e80:	4b39      	ldr	r3, [pc, #228]	; (8000f68 <HAL_RCC_OscConfig+0x270>)
 8000e82:	681b      	ldr	r3, [r3, #0]
 8000e84:	f003 0302 	and.w	r3, r3, #2
 8000e88:	2b00      	cmp	r3, #0
 8000e8a:	d0f0      	beq.n	8000e6e <HAL_RCC_OscConfig+0x176>
          }
        }
         /* Selects the Multiple Speed oscillator (MSI) clock range .*/
        __HAL_RCC_MSI_RANGE_CONFIG(RCC_OscInitStruct->MSIClockRange);
 8000e8c:	4b36      	ldr	r3, [pc, #216]	; (8000f68 <HAL_RCC_OscConfig+0x270>)
 8000e8e:	681b      	ldr	r3, [r3, #0]
 8000e90:	4a35      	ldr	r2, [pc, #212]	; (8000f68 <HAL_RCC_OscConfig+0x270>)
 8000e92:	f043 0308 	orr.w	r3, r3, #8
 8000e96:	6013      	str	r3, [r2, #0]
 8000e98:	4b33      	ldr	r3, [pc, #204]	; (8000f68 <HAL_RCC_OscConfig+0x270>)
 8000e9a:	681b      	ldr	r3, [r3, #0]
 8000e9c:	f023 02f0 	bic.w	r2, r3, #240	; 0xf0
 8000ea0:	687b      	ldr	r3, [r7, #4]
 8000ea2:	6a1b      	ldr	r3, [r3, #32]
 8000ea4:	4930      	ldr	r1, [pc, #192]	; (8000f68 <HAL_RCC_OscConfig+0x270>)
 8000ea6:	4313      	orrs	r3, r2
 8000ea8:	600b      	str	r3, [r1, #0]
         /* Adjusts the Multiple Speed oscillator (MSI) calibration value.*/
        __HAL_RCC_MSI_CALIBRATIONVALUE_ADJUST(RCC_OscInitStruct->MSICalibrationValue);
 8000eaa:	4b2f      	ldr	r3, [pc, #188]	; (8000f68 <HAL_RCC_OscConfig+0x270>)
 8000eac:	685b      	ldr	r3, [r3, #4]
 8000eae:	f423 427f 	bic.w	r2, r3, #65280	; 0xff00
 8000eb2:	687b      	ldr	r3, [r7, #4]
 8000eb4:	69db      	ldr	r3, [r3, #28]
 8000eb6:	021b      	lsls	r3, r3, #8
 8000eb8:	492b      	ldr	r1, [pc, #172]	; (8000f68 <HAL_RCC_OscConfig+0x270>)
 8000eba:	4313      	orrs	r3, r2
 8000ebc:	604b      	str	r3, [r1, #4]
 8000ebe:	e01a      	b.n	8000ef6 <HAL_RCC_OscConfig+0x1fe>

      }
      else
      {
        /* Disable the Internal High Speed oscillator (MSI). */
        __HAL_RCC_MSI_DISABLE();
 8000ec0:	4b29      	ldr	r3, [pc, #164]	; (8000f68 <HAL_RCC_OscConfig+0x270>)
 8000ec2:	681b      	ldr	r3, [r3, #0]
 8000ec4:	4a28      	ldr	r2, [pc, #160]	; (8000f68 <HAL_RCC_OscConfig+0x270>)
 8000ec6:	f023 0301 	bic.w	r3, r3, #1
 8000eca:	6013      	str	r3, [r2, #0]

        /* Get timeout */
        tickstart = HAL_GetTick();
 8000ecc:	f7ff fbe6 	bl	800069c <HAL_GetTick>
 8000ed0:	6138      	str	r0, [r7, #16]

        /* Wait till MSI is ready */
        while(READ_BIT(RCC->CR, RCC_CR_MSIRDY) != 0U)
 8000ed2:	e008      	b.n	8000ee6 <HAL_RCC_OscConfig+0x1ee>
        {
          if((HAL_GetTick() - tickstart) > MSI_TIMEOUT_VALUE)
 8000ed4:	f7ff fbe2 	bl	800069c <HAL_GetTick>
 8000ed8:	4602      	mov	r2, r0
 8000eda:	693b      	ldr	r3, [r7, #16]
 8000edc:	1ad3      	subs	r3, r2, r3
 8000ede:	2b02      	cmp	r3, #2
 8000ee0:	d901      	bls.n	8000ee6 <HAL_RCC_OscConfig+0x1ee>
          {
            return HAL_TIMEOUT;
 8000ee2:	2303      	movs	r3, #3
 8000ee4:	e314      	b.n	8001510 <HAL_RCC_OscConfig+0x818>
        while(READ_BIT(RCC->CR, RCC_CR_MSIRDY) != 0U)
 8000ee6:	4b20      	ldr	r3, [pc, #128]	; (8000f68 <HAL_RCC_OscConfig+0x270>)
 8000ee8:	681b      	ldr	r3, [r3, #0]
 8000eea:	f003 0302 	and.w	r3, r3, #2
 8000eee:	2b00      	cmp	r3, #0
 8000ef0:	d1f0      	bne.n	8000ed4 <HAL_RCC_OscConfig+0x1dc>
 8000ef2:	e000      	b.n	8000ef6 <HAL_RCC_OscConfig+0x1fe>
      if((READ_BIT(RCC->CR, RCC_CR_MSIRDY) != 0U) && (RCC_OscInitStruct->MSIState == RCC_MSI_OFF))
 8000ef4:	bf00      	nop
        }
      }
    }
  }
  /*------------------------------- HSE Configuration ------------------------*/
  if(((RCC_OscInitStruct->OscillatorType) & RCC_OSCILLATORTYPE_HSE) == RCC_OSCILLATORTYPE_HSE)
 8000ef6:	687b      	ldr	r3, [r7, #4]
 8000ef8:	681b      	ldr	r3, [r3, #0]
 8000efa:	f003 0301 	and.w	r3, r3, #1
 8000efe:	2b00      	cmp	r3, #0
 8000f00:	d073      	beq.n	8000fea <HAL_RCC_OscConfig+0x2f2>
  {
    /* Check the parameters */
    assert_param(IS_RCC_HSE(RCC_OscInitStruct->HSEState));

    /* When the HSE is used as system clock or clock source for PLL in these cases it is not allowed to be disabled */
    if((sysclk_source == RCC_CFGR_SWS_HSE) ||
 8000f02:	69bb      	ldr	r3, [r7, #24]
 8000f04:	2b08      	cmp	r3, #8
 8000f06:	d005      	beq.n	8000f14 <HAL_RCC_OscConfig+0x21c>
 8000f08:	69bb      	ldr	r3, [r7, #24]
 8000f0a:	2b0c      	cmp	r3, #12
 8000f0c:	d10e      	bne.n	8000f2c <HAL_RCC_OscConfig+0x234>
       ((sysclk_source == RCC_CFGR_SWS_PLL) && (pll_config == RCC_PLLSOURCE_HSE)))
 8000f0e:	697b      	ldr	r3, [r7, #20]
 8000f10:	2b03      	cmp	r3, #3
 8000f12:	d10b      	bne.n	8000f2c <HAL_RCC_OscConfig+0x234>
    {
      if((READ_BIT(RCC->CR, RCC_CR_HSERDY) != 0U) && (RCC_OscInitStruct->HSEState == RCC_HSE_OFF))
 8000f14:	4b14      	ldr	r3, [pc, #80]	; (8000f68 <HAL_RCC_OscConfig+0x270>)
 8000f16:	681b      	ldr	r3, [r3, #0]
 8000f18:	f403 3300 	and.w	r3, r3, #131072	; 0x20000
 8000f1c:	2b00      	cmp	r3, #0
 8000f1e:	d063      	beq.n	8000fe8 <HAL_RCC_OscConfig+0x2f0>
 8000f20:	687b      	ldr	r3, [r7, #4]
 8000f22:	685b      	ldr	r3, [r3, #4]
 8000f24:	2b00      	cmp	r3, #0
 8000f26:	d15f      	bne.n	8000fe8 <HAL_RCC_OscConfig+0x2f0>
      {
        return HAL_ERROR;
 8000f28:	2301      	movs	r3, #1
 8000f2a:	e2f1      	b.n	8001510 <HAL_RCC_OscConfig+0x818>
      }
    }
    else
    {
      /* Set the new HSE configuration ---------------------------------------*/
      __HAL_RCC_HSE_CONFIG(RCC_OscInitStruct->HSEState);
 8000f2c:	687b      	ldr	r3, [r7, #4]
 8000f2e:	685b      	ldr	r3, [r3, #4]
 8000f30:	f5b3 3f80 	cmp.w	r3, #65536	; 0x10000
 8000f34:	d106      	bne.n	8000f44 <HAL_RCC_OscConfig+0x24c>
 8000f36:	4b0c      	ldr	r3, [pc, #48]	; (8000f68 <HAL_RCC_OscConfig+0x270>)
 8000f38:	681b      	ldr	r3, [r3, #0]
 8000f3a:	4a0b      	ldr	r2, [pc, #44]	; (8000f68 <HAL_RCC_OscConfig+0x270>)
 8000f3c:	f443 3380 	orr.w	r3, r3, #65536	; 0x10000
 8000f40:	6013      	str	r3, [r2, #0]
 8000f42:	e025      	b.n	8000f90 <HAL_RCC_OscConfig+0x298>
 8000f44:	687b      	ldr	r3, [r7, #4]
 8000f46:	685b      	ldr	r3, [r3, #4]
 8000f48:	f5b3 2fa0 	cmp.w	r3, #327680	; 0x50000
 8000f4c:	d114      	bne.n	8000f78 <HAL_RCC_OscConfig+0x280>
 8000f4e:	4b06      	ldr	r3, [pc, #24]	; (8000f68 <HAL_RCC_OscConfig+0x270>)
 8000f50:	681b      	ldr	r3, [r3, #0]
 8000f52:	4a05      	ldr	r2, [pc, #20]	; (8000f68 <HAL_RCC_OscConfig+0x270>)
 8000f54:	f443 2380 	orr.w	r3, r3, #262144	; 0x40000
 8000f58:	6013      	str	r3, [r2, #0]
 8000f5a:	4b03      	ldr	r3, [pc, #12]	; (8000f68 <HAL_RCC_OscConfig+0x270>)
 8000f5c:	681b      	ldr	r3, [r3, #0]
 8000f5e:	4a02      	ldr	r2, [pc, #8]	; (8000f68 <HAL_RCC_OscConfig+0x270>)
 8000f60:	f443 3380 	orr.w	r3, r3, #65536	; 0x10000
 8000f64:	6013      	str	r3, [r2, #0]
 8000f66:	e013      	b.n	8000f90 <HAL_RCC_OscConfig+0x298>
 8000f68:	40021000 	.word	0x40021000
 8000f6c:	08002218 	.word	0x08002218
 8000f70:	20000000 	.word	0x20000000
 8000f74:	20000004 	.word	0x20000004
 8000f78:	4ba0      	ldr	r3, [pc, #640]	; (80011fc <HAL_RCC_OscConfig+0x504>)
 8000f7a:	681b      	ldr	r3, [r3, #0]
 8000f7c:	4a9f      	ldr	r2, [pc, #636]	; (80011fc <HAL_RCC_OscConfig+0x504>)
 8000f7e:	f423 3380 	bic.w	r3, r3, #65536	; 0x10000
 8000f82:	6013      	str	r3, [r2, #0]
 8000f84:	4b9d      	ldr	r3, [pc, #628]	; (80011fc <HAL_RCC_OscConfig+0x504>)
 8000f86:	681b      	ldr	r3, [r3, #0]
 8000f88:	4a9c      	ldr	r2, [pc, #624]	; (80011fc <HAL_RCC_OscConfig+0x504>)
 8000f8a:	f423 2380 	bic.w	r3, r3, #262144	; 0x40000
 8000f8e:	6013      	str	r3, [r2, #0]

      /* Check the HSE State */
      if(RCC_OscInitStruct->HSEState != RCC_HSE_OFF)
 8000f90:	687b      	ldr	r3, [r7, #4]
 8000f92:	685b      	ldr	r3, [r3, #4]
 8000f94:	2b00      	cmp	r3, #0
 8000f96:	d013      	beq.n	8000fc0 <HAL_RCC_OscConfig+0x2c8>
      {
        /* Get Start Tick*/
        tickstart = HAL_GetTick();
 8000f98:	f7ff fb80 	bl	800069c <HAL_GetTick>
 8000f9c:	6138      	str	r0, [r7, #16]

        /* Wait till HSE is ready */
        while(READ_BIT(RCC->CR, RCC_CR_HSERDY) == 0U)
 8000f9e:	e008      	b.n	8000fb2 <HAL_RCC_OscConfig+0x2ba>
        {
          if((HAL_GetTick() - tickstart) > HSE_TIMEOUT_VALUE)
 8000fa0:	f7ff fb7c 	bl	800069c <HAL_GetTick>
 8000fa4:	4602      	mov	r2, r0
 8000fa6:	693b      	ldr	r3, [r7, #16]
 8000fa8:	1ad3      	subs	r3, r2, r3
 8000faa:	2b64      	cmp	r3, #100	; 0x64
 8000fac:	d901      	bls.n	8000fb2 <HAL_RCC_OscConfig+0x2ba>
          {
            return HAL_TIMEOUT;
 8000fae:	2303      	movs	r3, #3
 8000fb0:	e2ae      	b.n	8001510 <HAL_RCC_OscConfig+0x818>
        while(READ_BIT(RCC->CR, RCC_CR_HSERDY) == 0U)
 8000fb2:	4b92      	ldr	r3, [pc, #584]	; (80011fc <HAL_RCC_OscConfig+0x504>)
 8000fb4:	681b      	ldr	r3, [r3, #0]
 8000fb6:	f403 3300 	and.w	r3, r3, #131072	; 0x20000
 8000fba:	2b00      	cmp	r3, #0
 8000fbc:	d0f0      	beq.n	8000fa0 <HAL_RCC_OscConfig+0x2a8>
 8000fbe:	e014      	b.n	8000fea <HAL_RCC_OscConfig+0x2f2>
        }
      }
      else
      {
        /* Get Start Tick*/
        tickstart = HAL_GetTick();
 8000fc0:	f7ff fb6c 	bl	800069c <HAL_GetTick>
 8000fc4:	6138      	str	r0, [r7, #16]

        /* Wait till HSE is disabled */
        while(READ_BIT(RCC->CR, RCC_CR_HSERDY) != 0U)
 8000fc6:	e008      	b.n	8000fda <HAL_RCC_OscConfig+0x2e2>
        {
          if((HAL_GetTick() - tickstart) > HSE_TIMEOUT_VALUE)
 8000fc8:	f7ff fb68 	bl	800069c <HAL_GetTick>
 8000fcc:	4602      	mov	r2, r0
 8000fce:	693b      	ldr	r3, [r7, #16]
 8000fd0:	1ad3      	subs	r3, r2, r3
 8000fd2:	2b64      	cmp	r3, #100	; 0x64
 8000fd4:	d901      	bls.n	8000fda <HAL_RCC_OscConfig+0x2e2>
          {
            return HAL_TIMEOUT;
 8000fd6:	2303      	movs	r3, #3
 8000fd8:	e29a      	b.n	8001510 <HAL_RCC_OscConfig+0x818>
        while(READ_BIT(RCC->CR, RCC_CR_HSERDY) != 0U)
 8000fda:	4b88      	ldr	r3, [pc, #544]	; (80011fc <HAL_RCC_OscConfig+0x504>)
 8000fdc:	681b      	ldr	r3, [r3, #0]
 8000fde:	f403 3300 	and.w	r3, r3, #131072	; 0x20000
 8000fe2:	2b00      	cmp	r3, #0
 8000fe4:	d1f0      	bne.n	8000fc8 <HAL_RCC_OscConfig+0x2d0>
 8000fe6:	e000      	b.n	8000fea <HAL_RCC_OscConfig+0x2f2>
      if((READ_BIT(RCC->CR, RCC_CR_HSERDY) != 0U) && (RCC_OscInitStruct->HSEState == RCC_HSE_OFF))
 8000fe8:	bf00      	nop
        }
      }
    }
  }
  /*----------------------------- HSI Configuration --------------------------*/
  if(((RCC_OscInitStruct->OscillatorType) & RCC_OSCILLATORTYPE_HSI) == RCC_OSCILLATORTYPE_HSI)
 8000fea:	687b      	ldr	r3, [r7, #4]
 8000fec:	681b      	ldr	r3, [r3, #0]
 8000fee:	f003 0302 	and.w	r3, r3, #2
 8000ff2:	2b00      	cmp	r3, #0
 8000ff4:	d060      	beq.n	80010b8 <HAL_RCC_OscConfig+0x3c0>
    /* Check the parameters */
    assert_param(IS_RCC_HSI(RCC_OscInitStruct->HSIState));
    assert_param(IS_RCC_HSI_CALIBRATION_VALUE(RCC_OscInitStruct->HSICalibrationValue));

    /* Check if HSI is used as system clock or as PLL source when PLL is selected as system clock */
    if((sysclk_source == RCC_CFGR_SWS_HSI) ||
 8000ff6:	69bb      	ldr	r3, [r7, #24]
 8000ff8:	2b04      	cmp	r3, #4
 8000ffa:	d005      	beq.n	8001008 <HAL_RCC_OscConfig+0x310>
 8000ffc:	69bb      	ldr	r3, [r7, #24]
 8000ffe:	2b0c      	cmp	r3, #12
 8001000:	d119      	bne.n	8001036 <HAL_RCC_OscConfig+0x33e>
       ((sysclk_source == RCC_CFGR_SWS_PLL) && (pll_config == RCC_PLLSOURCE_HSI)))
 8001002:	697b      	ldr	r3, [r7, #20]
 8001004:	2b02      	cmp	r3, #2
 8001006:	d116      	bne.n	8001036 <HAL_RCC_OscConfig+0x33e>
    {
      /* When HSI is used as system clock it will not be disabled */
      if((READ_BIT(RCC->CR, RCC_CR_HSIRDY) != 0U) && (RCC_OscInitStruct->HSIState == RCC_HSI_OFF))
 8001008:	4b7c      	ldr	r3, [pc, #496]	; (80011fc <HAL_RCC_OscConfig+0x504>)
 800100a:	681b      	ldr	r3, [r3, #0]
 800100c:	f403 6380 	and.w	r3, r3, #1024	; 0x400
 8001010:	2b00      	cmp	r3, #0
 8001012:	d005      	beq.n	8001020 <HAL_RCC_OscConfig+0x328>
 8001014:	687b      	ldr	r3, [r7, #4]
 8001016:	68db      	ldr	r3, [r3, #12]
 8001018:	2b00      	cmp	r3, #0
 800101a:	d101      	bne.n	8001020 <HAL_RCC_OscConfig+0x328>
      {
        return HAL_ERROR;
 800101c:	2301      	movs	r3, #1
 800101e:	e277      	b.n	8001510 <HAL_RCC_OscConfig+0x818>
      }
      /* Otherwise, just the calibration is allowed */
      else
      {
        /* Adjusts the Internal High Speed oscillator (HSI) calibration value.*/
        __HAL_RCC_HSI_CALIBRATIONVALUE_ADJUST(RCC_OscInitStruct->HSICalibrationValue);
 8001020:	4b76      	ldr	r3, [pc, #472]	; (80011fc <HAL_RCC_OscConfig+0x504>)
 8001022:	685b      	ldr	r3, [r3, #4]
 8001024:	f023 42fe 	bic.w	r2, r3, #2130706432	; 0x7f000000
 8001028:	687b      	ldr	r3, [r7, #4]
 800102a:	691b      	ldr	r3, [r3, #16]
 800102c:	061b      	lsls	r3, r3, #24
 800102e:	4973      	ldr	r1, [pc, #460]	; (80011fc <HAL_RCC_OscConfig+0x504>)
 8001030:	4313      	orrs	r3, r2
 8001032:	604b      	str	r3, [r1, #4]
      if((READ_BIT(RCC->CR, RCC_CR_HSIRDY) != 0U) && (RCC_OscInitStruct->HSIState == RCC_HSI_OFF))
 8001034:	e040      	b.n	80010b8 <HAL_RCC_OscConfig+0x3c0>
      }
    }
    else
    {
      /* Check the HSI State */
      if(RCC_OscInitStruct->HSIState != RCC_HSI_OFF)
 8001036:	687b      	ldr	r3, [r7, #4]
 8001038:	68db      	ldr	r3, [r3, #12]
 800103a:	2b00      	cmp	r3, #0
 800103c:	d023      	beq.n	8001086 <HAL_RCC_OscConfig+0x38e>
      {
        /* Enable the Internal High Speed oscillator (HSI). */
        __HAL_RCC_HSI_ENABLE();
 800103e:	4b6f      	ldr	r3, [pc, #444]	; (80011fc <HAL_RCC_OscConfig+0x504>)
 8001040:	681b      	ldr	r3, [r3, #0]
 8001042:	4a6e      	ldr	r2, [pc, #440]	; (80011fc <HAL_RCC_OscConfig+0x504>)
 8001044:	f443 7380 	orr.w	r3, r3, #256	; 0x100
 8001048:	6013      	str	r3, [r2, #0]

        /* Get Start Tick*/
        tickstart = HAL_GetTick();
 800104a:	f7ff fb27 	bl	800069c <HAL_GetTick>
 800104e:	6138      	str	r0, [r7, #16]

        /* Wait till HSI is ready */
        while(READ_BIT(RCC->CR, RCC_CR_HSIRDY) == 0U)
 8001050:	e008      	b.n	8001064 <HAL_RCC_OscConfig+0x36c>
        {
          if((HAL_GetTick() - tickstart) > HSI_TIMEOUT_VALUE)
 8001052:	f7ff fb23 	bl	800069c <HAL_GetTick>
 8001056:	4602      	mov	r2, r0
 8001058:	693b      	ldr	r3, [r7, #16]
 800105a:	1ad3      	subs	r3, r2, r3
 800105c:	2b02      	cmp	r3, #2
 800105e:	d901      	bls.n	8001064 <HAL_RCC_OscConfig+0x36c>
          {
            return HAL_TIMEOUT;
 8001060:	2303      	movs	r3, #3
 8001062:	e255      	b.n	8001510 <HAL_RCC_OscConfig+0x818>
        while(READ_BIT(RCC->CR, RCC_CR_HSIRDY) == 0U)
 8001064:	4b65      	ldr	r3, [pc, #404]	; (80011fc <HAL_RCC_OscConfig+0x504>)
 8001066:	681b      	ldr	r3, [r3, #0]
 8001068:	f403 6380 	and.w	r3, r3, #1024	; 0x400
 800106c:	2b00      	cmp	r3, #0
 800106e:	d0f0      	beq.n	8001052 <HAL_RCC_OscConfig+0x35a>
          }
        }

        /* Adjusts the Internal High Speed oscillator (HSI) calibration value.*/
        __HAL_RCC_HSI_CALIBRATIONVALUE_ADJUST(RCC_OscInitStruct->HSICalibrationValue);
 8001070:	4b62      	ldr	r3, [pc, #392]	; (80011fc <HAL_RCC_OscConfig+0x504>)
 8001072:	685b      	ldr	r3, [r3, #4]
 8001074:	f023 42fe 	bic.w	r2, r3, #2130706432	; 0x7f000000
 8001078:	687b      	ldr	r3, [r7, #4]
 800107a:	691b      	ldr	r3, [r3, #16]
 800107c:	061b      	lsls	r3, r3, #24
 800107e:	495f      	ldr	r1, [pc, #380]	; (80011fc <HAL_RCC_OscConfig+0x504>)
 8001080:	4313      	orrs	r3, r2
 8001082:	604b      	str	r3, [r1, #4]
 8001084:	e018      	b.n	80010b8 <HAL_RCC_OscConfig+0x3c0>
      }
      else
      {
        /* Disable the Internal High Speed oscillator (HSI). */
        __HAL_RCC_HSI_DISABLE();
 8001086:	4b5d      	ldr	r3, [pc, #372]	; (80011fc <HAL_RCC_OscConfig+0x504>)
 8001088:	681b      	ldr	r3, [r3, #0]
 800108a:	4a5c      	ldr	r2, [pc, #368]	; (80011fc <HAL_RCC_OscConfig+0x504>)
 800108c:	f423 7380 	bic.w	r3, r3, #256	; 0x100
 8001090:	6013      	str	r3, [r2, #0]

        /* Get Start Tick*/
        tickstart = HAL_GetTick();
 8001092:	f7ff fb03 	bl	800069c <HAL_GetTick>
 8001096:	6138      	str	r0, [r7, #16]

        /* Wait till HSI is disabled */
        while(READ_BIT(RCC->CR, RCC_CR_HSIRDY) != 0U)
 8001098:	e008      	b.n	80010ac <HAL_RCC_OscConfig+0x3b4>
        {
          if((HAL_GetTick() - tickstart) > HSI_TIMEOUT_VALUE)
 800109a:	f7ff faff 	bl	800069c <HAL_GetTick>
 800109e:	4602      	mov	r2, r0
 80010a0:	693b      	ldr	r3, [r7, #16]
 80010a2:	1ad3      	subs	r3, r2, r3
 80010a4:	2b02      	cmp	r3, #2
 80010a6:	d901      	bls.n	80010ac <HAL_RCC_OscConfig+0x3b4>
          {
            return HAL_TIMEOUT;
 80010a8:	2303      	movs	r3, #3
 80010aa:	e231      	b.n	8001510 <HAL_RCC_OscConfig+0x818>
        while(READ_BIT(RCC->CR, RCC_CR_HSIRDY) != 0U)
 80010ac:	4b53      	ldr	r3, [pc, #332]	; (80011fc <HAL_RCC_OscConfig+0x504>)
 80010ae:	681b      	ldr	r3, [r3, #0]
 80010b0:	f403 6380 	and.w	r3, r3, #1024	; 0x400
 80010b4:	2b00      	cmp	r3, #0
 80010b6:	d1f0      	bne.n	800109a <HAL_RCC_OscConfig+0x3a2>
        }
      }
    }
  }
  /*------------------------------ LSI Configuration -------------------------*/
  if(((RCC_OscInitStruct->OscillatorType) & RCC_OSCILLATORTYPE_LSI) == RCC_OSCILLATORTYPE_LSI)
 80010b8:	687b      	ldr	r3, [r7, #4]
 80010ba:	681b      	ldr	r3, [r3, #0]
 80010bc:	f003 0308 	and.w	r3, r3, #8
 80010c0:	2b00      	cmp	r3, #0
 80010c2:	d03c      	beq.n	800113e <HAL_RCC_OscConfig+0x446>
  {
    /* Check the parameters */
    assert_param(IS_RCC_LSI(RCC_OscInitStruct->LSIState));

    /* Check the LSI State */
    if(RCC_OscInitStruct->LSIState != RCC_LSI_OFF)
 80010c4:	687b      	ldr	r3, [r7, #4]
 80010c6:	695b      	ldr	r3, [r3, #20]
 80010c8:	2b00      	cmp	r3, #0
 80010ca:	d01c      	beq.n	8001106 <HAL_RCC_OscConfig+0x40e>
        MODIFY_REG(RCC->CSR, RCC_CSR_LSIPREDIV, RCC_OscInitStruct->LSIDiv);
      }
#endif /* RCC_CSR_LSIPREDIV */

      /* Enable the Internal Low Speed oscillator (LSI). */
      __HAL_RCC_LSI_ENABLE();
 80010cc:	4b4b      	ldr	r3, [pc, #300]	; (80011fc <HAL_RCC_OscConfig+0x504>)
 80010ce:	f8d3 3094 	ldr.w	r3, [r3, #148]	; 0x94
 80010d2:	4a4a      	ldr	r2, [pc, #296]	; (80011fc <HAL_RCC_OscConfig+0x504>)
 80010d4:	f043 0301 	orr.w	r3, r3, #1
 80010d8:	f8c2 3094 	str.w	r3, [r2, #148]	; 0x94

      /* Get Start Tick*/
      tickstart = HAL_GetTick();
 80010dc:	f7ff fade 	bl	800069c <HAL_GetTick>
 80010e0:	6138      	str	r0, [r7, #16]

      /* Wait till LSI is ready */
      while(READ_BIT(RCC->CSR, RCC_CSR_LSIRDY) == 0U)
 80010e2:	e008      	b.n	80010f6 <HAL_RCC_OscConfig+0x3fe>
      {
        if((HAL_GetTick() - tickstart) > LSI_TIMEOUT_VALUE)
 80010e4:	f7ff fada 	bl	800069c <HAL_GetTick>
 80010e8:	4602      	mov	r2, r0
 80010ea:	693b      	ldr	r3, [r7, #16]
 80010ec:	1ad3      	subs	r3, r2, r3
 80010ee:	2b02      	cmp	r3, #2
 80010f0:	d901      	bls.n	80010f6 <HAL_RCC_OscConfig+0x3fe>
        {
          return HAL_TIMEOUT;
 80010f2:	2303      	movs	r3, #3
 80010f4:	e20c      	b.n	8001510 <HAL_RCC_OscConfig+0x818>
      while(READ_BIT(RCC->CSR, RCC_CSR_LSIRDY) == 0U)
 80010f6:	4b41      	ldr	r3, [pc, #260]	; (80011fc <HAL_RCC_OscConfig+0x504>)
 80010f8:	f8d3 3094 	ldr.w	r3, [r3, #148]	; 0x94
 80010fc:	f003 0302 	and.w	r3, r3, #2
 8001100:	2b00      	cmp	r3, #0
 8001102:	d0ef      	beq.n	80010e4 <HAL_RCC_OscConfig+0x3ec>
 8001104:	e01b      	b.n	800113e <HAL_RCC_OscConfig+0x446>
      }
    }
    else
    {
      /* Disable the Internal Low Speed oscillator (LSI). */
      __HAL_RCC_LSI_DISABLE();
 8001106:	4b3d      	ldr	r3, [pc, #244]	; (80011fc <HAL_RCC_OscConfig+0x504>)
 8001108:	f8d3 3094 	ldr.w	r3, [r3, #148]	; 0x94
 800110c:	4a3b      	ldr	r2, [pc, #236]	; (80011fc <HAL_RCC_OscConfig+0x504>)
 800110e:	f023 0301 	bic.w	r3, r3, #1
 8001112:	f8c2 3094 	str.w	r3, [r2, #148]	; 0x94

      /* Get Start Tick*/
      tickstart = HAL_GetTick();
 8001116:	f7ff fac1 	bl	800069c <HAL_GetTick>
 800111a:	6138      	str	r0, [r7, #16]

      /* Wait till LSI is disabled */
      while(READ_BIT(RCC->CSR, RCC_CSR_LSIRDY) != 0U)
 800111c:	e008      	b.n	8001130 <HAL_RCC_OscConfig+0x438>
      {
        if((HAL_GetTick() - tickstart) > LSI_TIMEOUT_VALUE)
 800111e:	f7ff fabd 	bl	800069c <HAL_GetTick>
 8001122:	4602      	mov	r2, r0
 8001124:	693b      	ldr	r3, [r7, #16]
 8001126:	1ad3      	subs	r3, r2, r3
 8001128:	2b02      	cmp	r3, #2
 800112a:	d901      	bls.n	8001130 <HAL_RCC_OscConfig+0x438>
        {
          return HAL_TIMEOUT;
 800112c:	2303      	movs	r3, #3
 800112e:	e1ef      	b.n	8001510 <HAL_RCC_OscConfig+0x818>
      while(READ_BIT(RCC->CSR, RCC_CSR_LSIRDY) != 0U)
 8001130:	4b32      	ldr	r3, [pc, #200]	; (80011fc <HAL_RCC_OscConfig+0x504>)
 8001132:	f8d3 3094 	ldr.w	r3, [r3, #148]	; 0x94
 8001136:	f003 0302 	and.w	r3, r3, #2
 800113a:	2b00      	cmp	r3, #0
 800113c:	d1ef      	bne.n	800111e <HAL_RCC_OscConfig+0x426>
        }
      }
    }
  }
  /*------------------------------ LSE Configuration -------------------------*/
  if(((RCC_OscInitStruct->OscillatorType) & RCC_OSCILLATORTYPE_LSE) == RCC_OSCILLATORTYPE_LSE)
 800113e:	687b      	ldr	r3, [r7, #4]
 8001140:	681b      	ldr	r3, [r3, #0]
 8001142:	f003 0304 	and.w	r3, r3, #4
 8001146:	2b00      	cmp	r3, #0
 8001148:	f000 80a6 	beq.w	8001298 <HAL_RCC_OscConfig+0x5a0>
  {
    FlagStatus       pwrclkchanged = RESET;
 800114c:	2300      	movs	r3, #0
 800114e:	77fb      	strb	r3, [r7, #31]
    /* Check the parameters */
    assert_param(IS_RCC_LSE(RCC_OscInitStruct->LSEState));

    /* Update LSE configuration in Backup Domain control register    */
    /* Requires to enable write access to Backup Domain of necessary */
    if(HAL_IS_BIT_CLR(RCC->APB1ENR1, RCC_APB1ENR1_PWREN))
 8001150:	4b2a      	ldr	r3, [pc, #168]	; (80011fc <HAL_RCC_OscConfig+0x504>)
 8001152:	6d9b      	ldr	r3, [r3, #88]	; 0x58
 8001154:	f003 5380 	and.w	r3, r3, #268435456	; 0x10000000
 8001158:	2b00      	cmp	r3, #0
 800115a:	d10d      	bne.n	8001178 <HAL_RCC_OscConfig+0x480>
    {
      __HAL_RCC_PWR_CLK_ENABLE();
 800115c:	4b27      	ldr	r3, [pc, #156]	; (80011fc <HAL_RCC_OscConfig+0x504>)
 800115e:	6d9b      	ldr	r3, [r3, #88]	; 0x58
 8001160:	4a26      	ldr	r2, [pc, #152]	; (80011fc <HAL_RCC_OscConfig+0x504>)
 8001162:	f043 5380 	orr.w	r3, r3, #268435456	; 0x10000000
 8001166:	6593      	str	r3, [r2, #88]	; 0x58
 8001168:	4b24      	ldr	r3, [pc, #144]	; (80011fc <HAL_RCC_OscConfig+0x504>)
 800116a:	6d9b      	ldr	r3, [r3, #88]	; 0x58
 800116c:	f003 5380 	and.w	r3, r3, #268435456	; 0x10000000
 8001170:	60bb      	str	r3, [r7, #8]
 8001172:	68bb      	ldr	r3, [r7, #8]
      pwrclkchanged = SET;
 8001174:	2301      	movs	r3, #1
 8001176:	77fb      	strb	r3, [r7, #31]
    }

    if(HAL_IS_BIT_CLR(PWR->CR1, PWR_CR1_DBP))
 8001178:	4b21      	ldr	r3, [pc, #132]	; (8001200 <HAL_RCC_OscConfig+0x508>)
 800117a:	681b      	ldr	r3, [r3, #0]
 800117c:	f403 7380 	and.w	r3, r3, #256	; 0x100
 8001180:	2b00      	cmp	r3, #0
 8001182:	d118      	bne.n	80011b6 <HAL_RCC_OscConfig+0x4be>
    {
      /* Enable write access to Backup domain */
      SET_BIT(PWR->CR1, PWR_CR1_DBP);
 8001184:	4b1e      	ldr	r3, [pc, #120]	; (8001200 <HAL_RCC_OscConfig+0x508>)
 8001186:	681b      	ldr	r3, [r3, #0]
 8001188:	4a1d      	ldr	r2, [pc, #116]	; (8001200 <HAL_RCC_OscConfig+0x508>)
 800118a:	f443 7380 	orr.w	r3, r3, #256	; 0x100
 800118e:	6013      	str	r3, [r2, #0]

      /* Wait for Backup domain Write protection disable */
      tickstart = HAL_GetTick();
 8001190:	f7ff fa84 	bl	800069c <HAL_GetTick>
 8001194:	6138      	str	r0, [r7, #16]

      while(HAL_IS_BIT_CLR(PWR->CR1, PWR_CR1_DBP))
 8001196:	e008      	b.n	80011aa <HAL_RCC_OscConfig+0x4b2>
      {
        if((HAL_GetTick() - tickstart) > RCC_DBP_TIMEOUT_VALUE)
 8001198:	f7ff fa80 	bl	800069c <HAL_GetTick>
 800119c:	4602      	mov	r2, r0
 800119e:	693b      	ldr	r3, [r7, #16]
 80011a0:	1ad3      	subs	r3, r2, r3
 80011a2:	2b02      	cmp	r3, #2
 80011a4:	d901      	bls.n	80011aa <HAL_RCC_OscConfig+0x4b2>
        {
          return HAL_TIMEOUT;
 80011a6:	2303      	movs	r3, #3
 80011a8:	e1b2      	b.n	8001510 <HAL_RCC_OscConfig+0x818>
      while(HAL_IS_BIT_CLR(PWR->CR1, PWR_CR1_DBP))
 80011aa:	4b15      	ldr	r3, [pc, #84]	; (8001200 <HAL_RCC_OscConfig+0x508>)
 80011ac:	681b      	ldr	r3, [r3, #0]
 80011ae:	f403 7380 	and.w	r3, r3, #256	; 0x100
 80011b2:	2b00      	cmp	r3, #0
 80011b4:	d0f0      	beq.n	8001198 <HAL_RCC_OscConfig+0x4a0>
    {
      CLEAR_BIT(RCC->BDCR, RCC_BDCR_LSEON);
      CLEAR_BIT(RCC->BDCR, RCC_BDCR_LSEBYP);
    }
#else
    __HAL_RCC_LSE_CONFIG(RCC_OscInitStruct->LSEState);
 80011b6:	687b      	ldr	r3, [r7, #4]
 80011b8:	689b      	ldr	r3, [r3, #8]
 80011ba:	2b01      	cmp	r3, #1
 80011bc:	d108      	bne.n	80011d0 <HAL_RCC_OscConfig+0x4d8>
 80011be:	4b0f      	ldr	r3, [pc, #60]	; (80011fc <HAL_RCC_OscConfig+0x504>)
 80011c0:	f8d3 3090 	ldr.w	r3, [r3, #144]	; 0x90
 80011c4:	4a0d      	ldr	r2, [pc, #52]	; (80011fc <HAL_RCC_OscConfig+0x504>)
 80011c6:	f043 0301 	orr.w	r3, r3, #1
 80011ca:	f8c2 3090 	str.w	r3, [r2, #144]	; 0x90
 80011ce:	e029      	b.n	8001224 <HAL_RCC_OscConfig+0x52c>
 80011d0:	687b      	ldr	r3, [r7, #4]
 80011d2:	689b      	ldr	r3, [r3, #8]
 80011d4:	2b05      	cmp	r3, #5
 80011d6:	d115      	bne.n	8001204 <HAL_RCC_OscConfig+0x50c>
 80011d8:	4b08      	ldr	r3, [pc, #32]	; (80011fc <HAL_RCC_OscConfig+0x504>)
 80011da:	f8d3 3090 	ldr.w	r3, [r3, #144]	; 0x90
 80011de:	4a07      	ldr	r2, [pc, #28]	; (80011fc <HAL_RCC_OscConfig+0x504>)
 80011e0:	f043 0304 	orr.w	r3, r3, #4
 80011e4:	f8c2 3090 	str.w	r3, [r2, #144]	; 0x90
 80011e8:	4b04      	ldr	r3, [pc, #16]	; (80011fc <HAL_RCC_OscConfig+0x504>)
 80011ea:	f8d3 3090 	ldr.w	r3, [r3, #144]	; 0x90
 80011ee:	4a03      	ldr	r2, [pc, #12]	; (80011fc <HAL_RCC_OscConfig+0x504>)
 80011f0:	f043 0301 	orr.w	r3, r3, #1
 80011f4:	f8c2 3090 	str.w	r3, [r2, #144]	; 0x90
 80011f8:	e014      	b.n	8001224 <HAL_RCC_OscConfig+0x52c>
 80011fa:	bf00      	nop
 80011fc:	40021000 	.word	0x40021000
 8001200:	40007000 	.word	0x40007000
 8001204:	4b9a      	ldr	r3, [pc, #616]	; (8001470 <HAL_RCC_OscConfig+0x778>)
 8001206:	f8d3 3090 	ldr.w	r3, [r3, #144]	; 0x90
 800120a:	4a99      	ldr	r2, [pc, #612]	; (8001470 <HAL_RCC_OscConfig+0x778>)
 800120c:	f023 0301 	bic.w	r3, r3, #1
 8001210:	f8c2 3090 	str.w	r3, [r2, #144]	; 0x90
 8001214:	4b96      	ldr	r3, [pc, #600]	; (8001470 <HAL_RCC_OscConfig+0x778>)
 8001216:	f8d3 3090 	ldr.w	r3, [r3, #144]	; 0x90
 800121a:	4a95      	ldr	r2, [pc, #596]	; (8001470 <HAL_RCC_OscConfig+0x778>)
 800121c:	f023 0304 	bic.w	r3, r3, #4
 8001220:	f8c2 3090 	str.w	r3, [r2, #144]	; 0x90
#endif /* RCC_BDCR_LSESYSDIS */

    /* Check the LSE State */
    if(RCC_OscInitStruct->LSEState != RCC_LSE_OFF)
 8001224:	687b      	ldr	r3, [r7, #4]
 8001226:	689b      	ldr	r3, [r3, #8]
 8001228:	2b00      	cmp	r3, #0
 800122a:	d016      	beq.n	800125a <HAL_RCC_OscConfig+0x562>
    {
      /* Get Start Tick*/
      tickstart = HAL_GetTick();
 800122c:	f7ff fa36 	bl	800069c <HAL_GetTick>
 8001230:	6138      	str	r0, [r7, #16]

      /* Wait till LSE is ready */
      while(READ_BIT(RCC->BDCR, RCC_BDCR_LSERDY) == 0U)
 8001232:	e00a      	b.n	800124a <HAL_RCC_OscConfig+0x552>
      {
        if((HAL_GetTick() - tickstart) > RCC_LSE_TIMEOUT_VALUE)
 8001234:	f7ff fa32 	bl	800069c <HAL_GetTick>
 8001238:	4602      	mov	r2, r0
 800123a:	693b      	ldr	r3, [r7, #16]
 800123c:	1ad3      	subs	r3, r2, r3
 800123e:	f241 3288 	movw	r2, #5000	; 0x1388
 8001242:	4293      	cmp	r3, r2
 8001244:	d901      	bls.n	800124a <HAL_RCC_OscConfig+0x552>
        {
          return HAL_TIMEOUT;
 8001246:	2303      	movs	r3, #3
 8001248:	e162      	b.n	8001510 <HAL_RCC_OscConfig+0x818>
      while(READ_BIT(RCC->BDCR, RCC_BDCR_LSERDY) == 0U)
 800124a:	4b89      	ldr	r3, [pc, #548]	; (8001470 <HAL_RCC_OscConfig+0x778>)
 800124c:	f8d3 3090 	ldr.w	r3, [r3, #144]	; 0x90
 8001250:	f003 0302 	and.w	r3, r3, #2
 8001254:	2b00      	cmp	r3, #0
 8001256:	d0ed      	beq.n	8001234 <HAL_RCC_OscConfig+0x53c>
 8001258:	e015      	b.n	8001286 <HAL_RCC_OscConfig+0x58e>
      }
    }
    else
    {
      /* Get Start Tick*/
      tickstart = HAL_GetTick();
 800125a:	f7ff fa1f 	bl	800069c <HAL_GetTick>
 800125e:	6138      	str	r0, [r7, #16]

      /* Wait till LSE is disabled */
      while(READ_BIT(RCC->BDCR, RCC_BDCR_LSERDY) != 0U)
 8001260:	e00a      	b.n	8001278 <HAL_RCC_OscConfig+0x580>
      {
        if((HAL_GetTick() - tickstart) > RCC_LSE_TIMEOUT_VALUE)
 8001262:	f7ff fa1b 	bl	800069c <HAL_GetTick>
 8001266:	4602      	mov	r2, r0
 8001268:	693b      	ldr	r3, [r7, #16]
 800126a:	1ad3      	subs	r3, r2, r3
 800126c:	f241 3288 	movw	r2, #5000	; 0x1388
 8001270:	4293      	cmp	r3, r2
 8001272:	d901      	bls.n	8001278 <HAL_RCC_OscConfig+0x580>
        {
          return HAL_TIMEOUT;
 8001274:	2303      	movs	r3, #3
 8001276:	e14b      	b.n	8001510 <HAL_RCC_OscConfig+0x818>
      while(READ_BIT(RCC->BDCR, RCC_BDCR_LSERDY) != 0U)
 8001278:	4b7d      	ldr	r3, [pc, #500]	; (8001470 <HAL_RCC_OscConfig+0x778>)
 800127a:	f8d3 3090 	ldr.w	r3, [r3, #144]	; 0x90
 800127e:	f003 0302 	and.w	r3, r3, #2
 8001282:	2b00      	cmp	r3, #0
 8001284:	d1ed      	bne.n	8001262 <HAL_RCC_OscConfig+0x56a>
      CLEAR_BIT(RCC->BDCR, RCC_BDCR_LSESYSDIS);
#endif /* RCC_BDCR_LSESYSDIS */
    }

    /* Restore clock configuration if changed */
    if(pwrclkchanged == SET)
 8001286:	7ffb      	ldrb	r3, [r7, #31]
 8001288:	2b01      	cmp	r3, #1
 800128a:	d105      	bne.n	8001298 <HAL_RCC_OscConfig+0x5a0>
    {
      __HAL_RCC_PWR_CLK_DISABLE();
 800128c:	4b78      	ldr	r3, [pc, #480]	; (8001470 <HAL_RCC_OscConfig+0x778>)
 800128e:	6d9b      	ldr	r3, [r3, #88]	; 0x58
 8001290:	4a77      	ldr	r2, [pc, #476]	; (8001470 <HAL_RCC_OscConfig+0x778>)
 8001292:	f023 5380 	bic.w	r3, r3, #268435456	; 0x10000000
 8001296:	6593      	str	r3, [r2, #88]	; 0x58
    }
  }
#if defined(RCC_HSI48_SUPPORT)
  /*------------------------------ HSI48 Configuration -----------------------*/
  if(((RCC_OscInitStruct->OscillatorType) & RCC_OSCILLATORTYPE_HSI48) == RCC_OSCILLATORTYPE_HSI48)
 8001298:	687b      	ldr	r3, [r7, #4]
 800129a:	681b      	ldr	r3, [r3, #0]
 800129c:	f003 0320 	and.w	r3, r3, #32
 80012a0:	2b00      	cmp	r3, #0
 80012a2:	d03c      	beq.n	800131e <HAL_RCC_OscConfig+0x626>
  {
    /* Check the parameters */
    assert_param(IS_RCC_HSI48(RCC_OscInitStruct->HSI48State));

    /* Check the LSI State */
    if(RCC_OscInitStruct->HSI48State != RCC_HSI48_OFF)
 80012a4:	687b      	ldr	r3, [r7, #4]
 80012a6:	6a5b      	ldr	r3, [r3, #36]	; 0x24
 80012a8:	2b00      	cmp	r3, #0
 80012aa:	d01c      	beq.n	80012e6 <HAL_RCC_OscConfig+0x5ee>
    {
      /* Enable the Internal Low Speed oscillator (HSI48). */
      __HAL_RCC_HSI48_ENABLE();
 80012ac:	4b70      	ldr	r3, [pc, #448]	; (8001470 <HAL_RCC_OscConfig+0x778>)
 80012ae:	f8d3 3098 	ldr.w	r3, [r3, #152]	; 0x98
 80012b2:	4a6f      	ldr	r2, [pc, #444]	; (8001470 <HAL_RCC_OscConfig+0x778>)
 80012b4:	f043 0301 	orr.w	r3, r3, #1
 80012b8:	f8c2 3098 	str.w	r3, [r2, #152]	; 0x98

      /* Get Start Tick*/
      tickstart = HAL_GetTick();
 80012bc:	f7ff f9ee 	bl	800069c <HAL_GetTick>
 80012c0:	6138      	str	r0, [r7, #16]

      /* Wait till HSI48 is ready */
      while(READ_BIT(RCC->CRRCR, RCC_CRRCR_HSI48RDY) == 0U)
 80012c2:	e008      	b.n	80012d6 <HAL_RCC_OscConfig+0x5de>
      {
        if((HAL_GetTick() - tickstart) > HSI48_TIMEOUT_VALUE)
 80012c4:	f7ff f9ea 	bl	800069c <HAL_GetTick>
 80012c8:	4602      	mov	r2, r0
 80012ca:	693b      	ldr	r3, [r7, #16]
 80012cc:	1ad3      	subs	r3, r2, r3
 80012ce:	2b02      	cmp	r3, #2
 80012d0:	d901      	bls.n	80012d6 <HAL_RCC_OscConfig+0x5de>
        {
          return HAL_TIMEOUT;
 80012d2:	2303      	movs	r3, #3
 80012d4:	e11c      	b.n	8001510 <HAL_RCC_OscConfig+0x818>
      while(READ_BIT(RCC->CRRCR, RCC_CRRCR_HSI48RDY) == 0U)
 80012d6:	4b66      	ldr	r3, [pc, #408]	; (8001470 <HAL_RCC_OscConfig+0x778>)
 80012d8:	f8d3 3098 	ldr.w	r3, [r3, #152]	; 0x98
 80012dc:	f003 0302 	and.w	r3, r3, #2
 80012e0:	2b00      	cmp	r3, #0
 80012e2:	d0ef      	beq.n	80012c4 <HAL_RCC_OscConfig+0x5cc>
 80012e4:	e01b      	b.n	800131e <HAL_RCC_OscConfig+0x626>
      }
    }
    else
    {
      /* Disable the Internal Low Speed oscillator (HSI48). */
      __HAL_RCC_HSI48_DISABLE();
 80012e6:	4b62      	ldr	r3, [pc, #392]	; (8001470 <HAL_RCC_OscConfig+0x778>)
 80012e8:	f8d3 3098 	ldr.w	r3, [r3, #152]	; 0x98
 80012ec:	4a60      	ldr	r2, [pc, #384]	; (8001470 <HAL_RCC_OscConfig+0x778>)
 80012ee:	f023 0301 	bic.w	r3, r3, #1
 80012f2:	f8c2 3098 	str.w	r3, [r2, #152]	; 0x98

      /* Get Start Tick*/
      tickstart = HAL_GetTick();
 80012f6:	f7ff f9d1 	bl	800069c <HAL_GetTick>
 80012fa:	6138      	str	r0, [r7, #16]

      /* Wait till HSI48 is disabled */
      while(READ_BIT(RCC->CRRCR, RCC_CRRCR_HSI48RDY) != 0U)
 80012fc:	e008      	b.n	8001310 <HAL_RCC_OscConfig+0x618>
      {
        if((HAL_GetTick() - tickstart) > HSI48_TIMEOUT_VALUE)
 80012fe:	f7ff f9cd 	bl	800069c <HAL_GetTick>
 8001302:	4602      	mov	r2, r0
 8001304:	693b      	ldr	r3, [r7, #16]
 8001306:	1ad3      	subs	r3, r2, r3
 8001308:	2b02      	cmp	r3, #2
 800130a:	d901      	bls.n	8001310 <HAL_RCC_OscConfig+0x618>
        {
          return HAL_TIMEOUT;
 800130c:	2303      	movs	r3, #3
 800130e:	e0ff      	b.n	8001510 <HAL_RCC_OscConfig+0x818>
      while(READ_BIT(RCC->CRRCR, RCC_CRRCR_HSI48RDY) != 0U)
 8001310:	4b57      	ldr	r3, [pc, #348]	; (8001470 <HAL_RCC_OscConfig+0x778>)
 8001312:	f8d3 3098 	ldr.w	r3, [r3, #152]	; 0x98
 8001316:	f003 0302 	and.w	r3, r3, #2
 800131a:	2b00      	cmp	r3, #0
 800131c:	d1ef      	bne.n	80012fe <HAL_RCC_OscConfig+0x606>
#endif /* RCC_HSI48_SUPPORT */
  /*-------------------------------- PLL Configuration -----------------------*/
  /* Check the parameters */
  assert_param(IS_RCC_PLL(RCC_OscInitStruct->PLL.PLLState));

  if(RCC_OscInitStruct->PLL.PLLState != RCC_PLL_NONE)
 800131e:	687b      	ldr	r3, [r7, #4]
 8001320:	6a9b      	ldr	r3, [r3, #40]	; 0x28
 8001322:	2b00      	cmp	r3, #0
 8001324:	f000 80f3 	beq.w	800150e <HAL_RCC_OscConfig+0x816>
  {
    /* PLL On ? */
    if(RCC_OscInitStruct->PLL.PLLState == RCC_PLL_ON)
 8001328:	687b      	ldr	r3, [r7, #4]
 800132a:	6a9b      	ldr	r3, [r3, #40]	; 0x28
 800132c:	2b02      	cmp	r3, #2
 800132e:	f040 80c9 	bne.w	80014c4 <HAL_RCC_OscConfig+0x7cc>
#endif /* RCC_PLLP_SUPPORT */
      assert_param(IS_RCC_PLLQ_VALUE(RCC_OscInitStruct->PLL.PLLQ));
      assert_param(IS_RCC_PLLR_VALUE(RCC_OscInitStruct->PLL.PLLR));

      /* Do nothing if PLL configuration is the unchanged */
      pll_config = RCC->PLLCFGR;
 8001332:	4b4f      	ldr	r3, [pc, #316]	; (8001470 <HAL_RCC_OscConfig+0x778>)
 8001334:	68db      	ldr	r3, [r3, #12]
 8001336:	617b      	str	r3, [r7, #20]
      if((READ_BIT(pll_config, RCC_PLLCFGR_PLLSRC)  != RCC_OscInitStruct->PLL.PLLSource) ||
 8001338:	697b      	ldr	r3, [r7, #20]
 800133a:	f003 0203 	and.w	r2, r3, #3
 800133e:	687b      	ldr	r3, [r7, #4]
 8001340:	6adb      	ldr	r3, [r3, #44]	; 0x2c
 8001342:	429a      	cmp	r2, r3
 8001344:	d12c      	bne.n	80013a0 <HAL_RCC_OscConfig+0x6a8>
         (READ_BIT(pll_config, RCC_PLLCFGR_PLLM)    != ((RCC_OscInitStruct->PLL.PLLM - 1U) << RCC_PLLCFGR_PLLM_Pos)) ||
 8001346:	697b      	ldr	r3, [r7, #20]
 8001348:	f003 0270 	and.w	r2, r3, #112	; 0x70
 800134c:	687b      	ldr	r3, [r7, #4]
 800134e:	6b1b      	ldr	r3, [r3, #48]	; 0x30
 8001350:	3b01      	subs	r3, #1
 8001352:	011b      	lsls	r3, r3, #4
      if((READ_BIT(pll_config, RCC_PLLCFGR_PLLSRC)  != RCC_OscInitStruct->PLL.PLLSource) ||
 8001354:	429a      	cmp	r2, r3
 8001356:	d123      	bne.n	80013a0 <HAL_RCC_OscConfig+0x6a8>
         (READ_BIT(pll_config, RCC_PLLCFGR_PLLN)    != (RCC_OscInitStruct->PLL.PLLN << RCC_PLLCFGR_PLLN_Pos)) ||
 8001358:	697b      	ldr	r3, [r7, #20]
 800135a:	f403 42fe 	and.w	r2, r3, #32512	; 0x7f00
 800135e:	687b      	ldr	r3, [r7, #4]
 8001360:	6b5b      	ldr	r3, [r3, #52]	; 0x34
 8001362:	021b      	lsls	r3, r3, #8
         (READ_BIT(pll_config, RCC_PLLCFGR_PLLM)    != ((RCC_OscInitStruct->PLL.PLLM - 1U) << RCC_PLLCFGR_PLLM_Pos)) ||
 8001364:	429a      	cmp	r2, r3
 8001366:	d11b      	bne.n	80013a0 <HAL_RCC_OscConfig+0x6a8>
#if defined(RCC_PLLP_SUPPORT)
#if defined(RCC_PLLP_DIV_2_31_SUPPORT)
         (READ_BIT(pll_config, RCC_PLLCFGR_PLLPDIV) != (RCC_OscInitStruct->PLL.PLLP << RCC_PLLCFGR_PLLPDIV_Pos)) ||
 8001368:	697b      	ldr	r3, [r7, #20]
 800136a:	f003 4278 	and.w	r2, r3, #4160749568	; 0xf8000000
 800136e:	687b      	ldr	r3, [r7, #4]
 8001370:	6b9b      	ldr	r3, [r3, #56]	; 0x38
 8001372:	06db      	lsls	r3, r3, #27
         (READ_BIT(pll_config, RCC_PLLCFGR_PLLN)    != (RCC_OscInitStruct->PLL.PLLN << RCC_PLLCFGR_PLLN_Pos)) ||
 8001374:	429a      	cmp	r2, r3
 8001376:	d113      	bne.n	80013a0 <HAL_RCC_OscConfig+0x6a8>
#else
         (READ_BIT(pll_config, RCC_PLLCFGR_PLLP)    != ((RCC_OscInitStruct->PLL.PLLP == RCC_PLLP_DIV7) ? 0U : 1U)) ||
#endif
#endif
         (READ_BIT(pll_config, RCC_PLLCFGR_PLLQ)    != ((((RCC_OscInitStruct->PLL.PLLQ) >> 1U) - 1U) << RCC_PLLCFGR_PLLQ_Pos)) ||
 8001378:	697b      	ldr	r3, [r7, #20]
 800137a:	f403 02c0 	and.w	r2, r3, #6291456	; 0x600000
 800137e:	687b      	ldr	r3, [r7, #4]
 8001380:	6bdb      	ldr	r3, [r3, #60]	; 0x3c
 8001382:	085b      	lsrs	r3, r3, #1
 8001384:	3b01      	subs	r3, #1
 8001386:	055b      	lsls	r3, r3, #21
         (READ_BIT(pll_config, RCC_PLLCFGR_PLLPDIV) != (RCC_OscInitStruct->PLL.PLLP << RCC_PLLCFGR_PLLPDIV_Pos)) ||
 8001388:	429a      	cmp	r2, r3
 800138a:	d109      	bne.n	80013a0 <HAL_RCC_OscConfig+0x6a8>
         (READ_BIT(pll_config, RCC_PLLCFGR_PLLR)    != ((((RCC_OscInitStruct->PLL.PLLR) >> 1U) - 1U) << RCC_PLLCFGR_PLLR_Pos)))
 800138c:	697b      	ldr	r3, [r7, #20]
 800138e:	f003 62c0 	and.w	r2, r3, #100663296	; 0x6000000
 8001392:	687b      	ldr	r3, [r7, #4]
 8001394:	6c1b      	ldr	r3, [r3, #64]	; 0x40
 8001396:	085b      	lsrs	r3, r3, #1
 8001398:	3b01      	subs	r3, #1
 800139a:	065b      	lsls	r3, r3, #25
         (READ_BIT(pll_config, RCC_PLLCFGR_PLLQ)    != ((((RCC_OscInitStruct->PLL.PLLQ) >> 1U) - 1U) << RCC_PLLCFGR_PLLQ_Pos)) ||
 800139c:	429a      	cmp	r2, r3
 800139e:	d06b      	beq.n	8001478 <HAL_RCC_OscConfig+0x780>
      {
        /* Check if the PLL is used as system clock or not */
        if(sysclk_source != RCC_CFGR_SWS_PLL)
 80013a0:	69bb      	ldr	r3, [r7, #24]
 80013a2:	2b0c      	cmp	r3, #12
 80013a4:	d062      	beq.n	800146c <HAL_RCC_OscConfig+0x774>
        {
#if defined(RCC_PLLSAI1_SUPPORT) || defined(RCC_PLLSAI2_SUPPORT)
          /* Check if main PLL can be updated */
          /* Not possible if the source is shared by other enabled PLLSAIx */
          if((READ_BIT(RCC->CR, RCC_CR_PLLSAI1ON) != 0U)
 80013a6:	4b32      	ldr	r3, [pc, #200]	; (8001470 <HAL_RCC_OscConfig+0x778>)
 80013a8:	681b      	ldr	r3, [r3, #0]
 80013aa:	f003 6380 	and.w	r3, r3, #67108864	; 0x4000000
 80013ae:	2b00      	cmp	r3, #0
 80013b0:	d001      	beq.n	80013b6 <HAL_RCC_OscConfig+0x6be>
#if defined(RCC_PLLSAI2_SUPPORT)
             || (READ_BIT(RCC->CR, RCC_CR_PLLSAI2ON) != 0U)
#endif
            )
          {
            return HAL_ERROR;
 80013b2:	2301      	movs	r3, #1
 80013b4:	e0ac      	b.n	8001510 <HAL_RCC_OscConfig+0x818>
          }
          else
#endif /* RCC_PLLSAI1_SUPPORT || RCC_PLLSAI2_SUPPORT */
          {
            /* Disable the main PLL. */
            __HAL_RCC_PLL_DISABLE();
 80013b6:	4b2e      	ldr	r3, [pc, #184]	; (8001470 <HAL_RCC_OscConfig+0x778>)
 80013b8:	681b      	ldr	r3, [r3, #0]
 80013ba:	4a2d      	ldr	r2, [pc, #180]	; (8001470 <HAL_RCC_OscConfig+0x778>)
 80013bc:	f023 7380 	bic.w	r3, r3, #16777216	; 0x1000000
 80013c0:	6013      	str	r3, [r2, #0]

            /* Get Start Tick*/
            tickstart = HAL_GetTick();
 80013c2:	f7ff f96b 	bl	800069c <HAL_GetTick>
 80013c6:	6138      	str	r0, [r7, #16]

            /* Wait till PLL is ready */
            while(READ_BIT(RCC->CR, RCC_CR_PLLRDY) != 0U)
 80013c8:	e008      	b.n	80013dc <HAL_RCC_OscConfig+0x6e4>
            {
              if((HAL_GetTick() - tickstart) > PLL_TIMEOUT_VALUE)
 80013ca:	f7ff f967 	bl	800069c <HAL_GetTick>
 80013ce:	4602      	mov	r2, r0
 80013d0:	693b      	ldr	r3, [r7, #16]
 80013d2:	1ad3      	subs	r3, r2, r3
 80013d4:	2b02      	cmp	r3, #2
 80013d6:	d901      	bls.n	80013dc <HAL_RCC_OscConfig+0x6e4>
              {
                return HAL_TIMEOUT;
 80013d8:	2303      	movs	r3, #3
 80013da:	e099      	b.n	8001510 <HAL_RCC_OscConfig+0x818>
            while(READ_BIT(RCC->CR, RCC_CR_PLLRDY) != 0U)
 80013dc:	4b24      	ldr	r3, [pc, #144]	; (8001470 <HAL_RCC_OscConfig+0x778>)
 80013de:	681b      	ldr	r3, [r3, #0]
 80013e0:	f003 7300 	and.w	r3, r3, #33554432	; 0x2000000
 80013e4:	2b00      	cmp	r3, #0
 80013e6:	d1f0      	bne.n	80013ca <HAL_RCC_OscConfig+0x6d2>
              }
            }

            /* Configure the main PLL clock source, multiplication and division factors. */
#if defined(RCC_PLLP_SUPPORT)
            __HAL_RCC_PLL_CONFIG(RCC_OscInitStruct->PLL.PLLSource,
 80013e8:	4b21      	ldr	r3, [pc, #132]	; (8001470 <HAL_RCC_OscConfig+0x778>)
 80013ea:	68da      	ldr	r2, [r3, #12]
 80013ec:	4b21      	ldr	r3, [pc, #132]	; (8001474 <HAL_RCC_OscConfig+0x77c>)
 80013ee:	4013      	ands	r3, r2
 80013f0:	687a      	ldr	r2, [r7, #4]
 80013f2:	6ad1      	ldr	r1, [r2, #44]	; 0x2c
 80013f4:	687a      	ldr	r2, [r7, #4]
 80013f6:	6b12      	ldr	r2, [r2, #48]	; 0x30
 80013f8:	3a01      	subs	r2, #1
 80013fa:	0112      	lsls	r2, r2, #4
 80013fc:	4311      	orrs	r1, r2
 80013fe:	687a      	ldr	r2, [r7, #4]
 8001400:	6b52      	ldr	r2, [r2, #52]	; 0x34
 8001402:	0212      	lsls	r2, r2, #8
 8001404:	4311      	orrs	r1, r2
 8001406:	687a      	ldr	r2, [r7, #4]
 8001408:	6bd2      	ldr	r2, [r2, #60]	; 0x3c
 800140a:	0852      	lsrs	r2, r2, #1
 800140c:	3a01      	subs	r2, #1
 800140e:	0552      	lsls	r2, r2, #21
 8001410:	4311      	orrs	r1, r2
 8001412:	687a      	ldr	r2, [r7, #4]
 8001414:	6c12      	ldr	r2, [r2, #64]	; 0x40
 8001416:	0852      	lsrs	r2, r2, #1
 8001418:	3a01      	subs	r2, #1
 800141a:	0652      	lsls	r2, r2, #25
 800141c:	4311      	orrs	r1, r2
 800141e:	687a      	ldr	r2, [r7, #4]
 8001420:	6b92      	ldr	r2, [r2, #56]	; 0x38
 8001422:	06d2      	lsls	r2, r2, #27
 8001424:	430a      	orrs	r2, r1
 8001426:	4912      	ldr	r1, [pc, #72]	; (8001470 <HAL_RCC_OscConfig+0x778>)
 8001428:	4313      	orrs	r3, r2
 800142a:	60cb      	str	r3, [r1, #12]
                                 RCC_OscInitStruct->PLL.PLLQ,
                                 RCC_OscInitStruct->PLL.PLLR);
#endif

            /* Enable the main PLL. */
            __HAL_RCC_PLL_ENABLE();
 800142c:	4b10      	ldr	r3, [pc, #64]	; (8001470 <HAL_RCC_OscConfig+0x778>)
 800142e:	681b      	ldr	r3, [r3, #0]
 8001430:	4a0f      	ldr	r2, [pc, #60]	; (8001470 <HAL_RCC_OscConfig+0x778>)
 8001432:	f043 7380 	orr.w	r3, r3, #16777216	; 0x1000000
 8001436:	6013      	str	r3, [r2, #0]

            /* Enable PLL System Clock output. */
            __HAL_RCC_PLLCLKOUT_ENABLE(RCC_PLL_SYSCLK);
 8001438:	4b0d      	ldr	r3, [pc, #52]	; (8001470 <HAL_RCC_OscConfig+0x778>)
 800143a:	68db      	ldr	r3, [r3, #12]
 800143c:	4a0c      	ldr	r2, [pc, #48]	; (8001470 <HAL_RCC_OscConfig+0x778>)
 800143e:	f043 7380 	orr.w	r3, r3, #16777216	; 0x1000000
 8001442:	60d3      	str	r3, [r2, #12]

            /* Get Start Tick*/
            tickstart = HAL_GetTick();
 8001444:	f7ff f92a 	bl	800069c <HAL_GetTick>
 8001448:	6138      	str	r0, [r7, #16]

            /* Wait till PLL is ready */
            while(READ_BIT(RCC->CR, RCC_CR_PLLRDY) == 0U)
 800144a:	e008      	b.n	800145e <HAL_RCC_OscConfig+0x766>
            {
              if((HAL_GetTick() - tickstart) > PLL_TIMEOUT_VALUE)
 800144c:	f7ff f926 	bl	800069c <HAL_GetTick>
 8001450:	4602      	mov	r2, r0
 8001452:	693b      	ldr	r3, [r7, #16]
 8001454:	1ad3      	subs	r3, r2, r3
 8001456:	2b02      	cmp	r3, #2
 8001458:	d901      	bls.n	800145e <HAL_RCC_OscConfig+0x766>
              {
                return HAL_TIMEOUT;
 800145a:	2303      	movs	r3, #3
 800145c:	e058      	b.n	8001510 <HAL_RCC_OscConfig+0x818>
            while(READ_BIT(RCC->CR, RCC_CR_PLLRDY) == 0U)
 800145e:	4b04      	ldr	r3, [pc, #16]	; (8001470 <HAL_RCC_OscConfig+0x778>)
 8001460:	681b      	ldr	r3, [r3, #0]
 8001462:	f003 7300 	and.w	r3, r3, #33554432	; 0x2000000
 8001466:	2b00      	cmp	r3, #0
 8001468:	d0f0      	beq.n	800144c <HAL_RCC_OscConfig+0x754>
        if(sysclk_source != RCC_CFGR_SWS_PLL)
 800146a:	e050      	b.n	800150e <HAL_RCC_OscConfig+0x816>
          }
        }
        else
        {
          /* PLL is already used as System core clock */
          return HAL_ERROR;
 800146c:	2301      	movs	r3, #1
 800146e:	e04f      	b.n	8001510 <HAL_RCC_OscConfig+0x818>
 8001470:	40021000 	.word	0x40021000
 8001474:	019d808c 	.word	0x019d808c
      }
      else
      {
        /* PLL configuration is unchanged */
        /* Re-enable PLL if it was disabled (ie. low power mode) */
        if(READ_BIT(RCC->CR, RCC_CR_PLLRDY) == 0U)
 8001478:	4b27      	ldr	r3, [pc, #156]	; (8001518 <HAL_RCC_OscConfig+0x820>)
 800147a:	681b      	ldr	r3, [r3, #0]
 800147c:	f003 7300 	and.w	r3, r3, #33554432	; 0x2000000
 8001480:	2b00      	cmp	r3, #0
 8001482:	d144      	bne.n	800150e <HAL_RCC_OscConfig+0x816>
        {
          /* Enable the main PLL. */
          __HAL_RCC_PLL_ENABLE();
 8001484:	4b24      	ldr	r3, [pc, #144]	; (8001518 <HAL_RCC_OscConfig+0x820>)
 8001486:	681b      	ldr	r3, [r3, #0]
 8001488:	4a23      	ldr	r2, [pc, #140]	; (8001518 <HAL_RCC_OscConfig+0x820>)
 800148a:	f043 7380 	orr.w	r3, r3, #16777216	; 0x1000000
 800148e:	6013      	str	r3, [r2, #0]

          /* Enable PLL System Clock output. */
          __HAL_RCC_PLLCLKOUT_ENABLE(RCC_PLL_SYSCLK);
 8001490:	4b21      	ldr	r3, [pc, #132]	; (8001518 <HAL_RCC_OscConfig+0x820>)
 8001492:	68db      	ldr	r3, [r3, #12]
 8001494:	4a20      	ldr	r2, [pc, #128]	; (8001518 <HAL_RCC_OscConfig+0x820>)
 8001496:	f043 7380 	orr.w	r3, r3, #16777216	; 0x1000000
 800149a:	60d3      	str	r3, [r2, #12]

          /* Get Start Tick*/
          tickstart = HAL_GetTick();
 800149c:	f7ff f8fe 	bl	800069c <HAL_GetTick>
 80014a0:	6138      	str	r0, [r7, #16]

          /* Wait till PLL is ready */
          while(READ_BIT(RCC->CR, RCC_CR_PLLRDY) == 0U)
 80014a2:	e008      	b.n	80014b6 <HAL_RCC_OscConfig+0x7be>
          {
            if((HAL_GetTick() - tickstart) > PLL_TIMEOUT_VALUE)
 80014a4:	f7ff f8fa 	bl	800069c <HAL_GetTick>
 80014a8:	4602      	mov	r2, r0
 80014aa:	693b      	ldr	r3, [r7, #16]
 80014ac:	1ad3      	subs	r3, r2, r3
 80014ae:	2b02      	cmp	r3, #2
 80014b0:	d901      	bls.n	80014b6 <HAL_RCC_OscConfig+0x7be>
            {
              return HAL_TIMEOUT;
 80014b2:	2303      	movs	r3, #3
 80014b4:	e02c      	b.n	8001510 <HAL_RCC_OscConfig+0x818>
          while(READ_BIT(RCC->CR, RCC_CR_PLLRDY) == 0U)
 80014b6:	4b18      	ldr	r3, [pc, #96]	; (8001518 <HAL_RCC_OscConfig+0x820>)
 80014b8:	681b      	ldr	r3, [r3, #0]
 80014ba:	f003 7300 	and.w	r3, r3, #33554432	; 0x2000000
 80014be:	2b00      	cmp	r3, #0
 80014c0:	d0f0      	beq.n	80014a4 <HAL_RCC_OscConfig+0x7ac>
 80014c2:	e024      	b.n	800150e <HAL_RCC_OscConfig+0x816>
      }
    }
    else
    {
      /* Check that PLL is not used as system clock or not */
      if(sysclk_source != RCC_CFGR_SWS_PLL)
 80014c4:	69bb      	ldr	r3, [r7, #24]
 80014c6:	2b0c      	cmp	r3, #12
 80014c8:	d01f      	beq.n	800150a <HAL_RCC_OscConfig+0x812>
      {
        /* Disable the main PLL. */
        __HAL_RCC_PLL_DISABLE();
 80014ca:	4b13      	ldr	r3, [pc, #76]	; (8001518 <HAL_RCC_OscConfig+0x820>)
 80014cc:	681b      	ldr	r3, [r3, #0]
 80014ce:	4a12      	ldr	r2, [pc, #72]	; (8001518 <HAL_RCC_OscConfig+0x820>)
 80014d0:	f023 7380 	bic.w	r3, r3, #16777216	; 0x1000000
 80014d4:	6013      	str	r3, [r2, #0]

        /* Get Start Tick*/
        tickstart = HAL_GetTick();
 80014d6:	f7ff f8e1 	bl	800069c <HAL_GetTick>
 80014da:	6138      	str	r0, [r7, #16]

        /* Wait till PLL is disabled */
        while(READ_BIT(RCC->CR, RCC_CR_PLLRDY) != 0U)
 80014dc:	e008      	b.n	80014f0 <HAL_RCC_OscConfig+0x7f8>
        {
          if((HAL_GetTick() - tickstart) > PLL_TIMEOUT_VALUE)
 80014de:	f7ff f8dd 	bl	800069c <HAL_GetTick>
 80014e2:	4602      	mov	r2, r0
 80014e4:	693b      	ldr	r3, [r7, #16]
 80014e6:	1ad3      	subs	r3, r2, r3
 80014e8:	2b02      	cmp	r3, #2
 80014ea:	d901      	bls.n	80014f0 <HAL_RCC_OscConfig+0x7f8>
          {
            return HAL_TIMEOUT;
 80014ec:	2303      	movs	r3, #3
 80014ee:	e00f      	b.n	8001510 <HAL_RCC_OscConfig+0x818>
        while(READ_BIT(RCC->CR, RCC_CR_PLLRDY) != 0U)
 80014f0:	4b09      	ldr	r3, [pc, #36]	; (8001518 <HAL_RCC_OscConfig+0x820>)
 80014f2:	681b      	ldr	r3, [r3, #0]
 80014f4:	f003 7300 	and.w	r3, r3, #33554432	; 0x2000000
 80014f8:	2b00      	cmp	r3, #0
 80014fa:	d1f0      	bne.n	80014de <HAL_RCC_OscConfig+0x7e6>
        }
        /* Unselect main PLL clock source and disable main PLL outputs to save power */
#if defined(RCC_PLLSAI2_SUPPORT)
        RCC->PLLCFGR &= ~(RCC_PLLCFGR_PLLSRC | RCC_PLL_SYSCLK | RCC_PLL_48M1CLK | RCC_PLL_SAI3CLK);
#elif defined(RCC_PLLSAI1_SUPPORT)
        RCC->PLLCFGR &= ~(RCC_PLLCFGR_PLLSRC | RCC_PLL_SYSCLK | RCC_PLL_48M1CLK | RCC_PLL_SAI2CLK);
 80014fc:	4b06      	ldr	r3, [pc, #24]	; (8001518 <HAL_RCC_OscConfig+0x820>)
 80014fe:	68da      	ldr	r2, [r3, #12]
 8001500:	4905      	ldr	r1, [pc, #20]	; (8001518 <HAL_RCC_OscConfig+0x820>)
 8001502:	4b06      	ldr	r3, [pc, #24]	; (800151c <HAL_RCC_OscConfig+0x824>)
 8001504:	4013      	ands	r3, r2
 8001506:	60cb      	str	r3, [r1, #12]
 8001508:	e001      	b.n	800150e <HAL_RCC_OscConfig+0x816>
#endif /* RCC_PLLSAI2_SUPPORT */
      }
      else
      {
        /* PLL is already used as System core clock */
        return HAL_ERROR;
 800150a:	2301      	movs	r3, #1
 800150c:	e000      	b.n	8001510 <HAL_RCC_OscConfig+0x818>
      }
    }
  }
  return HAL_OK;
 800150e:	2300      	movs	r3, #0
}
 8001510:	4618      	mov	r0, r3
 8001512:	3720      	adds	r7, #32
 8001514:	46bd      	mov	sp, r7
 8001516:	bd80      	pop	{r7, pc}
 8001518:	40021000 	.word	0x40021000
 800151c:	feeefffc 	.word	0xfeeefffc

08001520 <HAL_RCC_ClockConfig>:
  *         HPRE[3:0] bits to ensure that HCLK not exceed the maximum allowed frequency
  *         (for more details refer to section above "Initialization/de-initialization functions")
  * @retval None
  */
HAL_StatusTypeDef HAL_RCC_ClockConfig(RCC_ClkInitTypeDef  *RCC_ClkInitStruct, uint32_t FLatency)
{
 8001520:	b580      	push	{r7, lr}
 8001522:	b084      	sub	sp, #16
 8001524:	af00      	add	r7, sp, #0
 8001526:	6078      	str	r0, [r7, #4]
 8001528:	6039      	str	r1, [r7, #0]
  uint32_t hpre = RCC_SYSCLK_DIV1;
#endif
  HAL_StatusTypeDef status;

  /* Check Null pointer */
  if(RCC_ClkInitStruct == NULL)
 800152a:	687b      	ldr	r3, [r7, #4]
 800152c:	2b00      	cmp	r3, #0
 800152e:	d101      	bne.n	8001534 <HAL_RCC_ClockConfig+0x14>
  {
    return HAL_ERROR;
 8001530:	2301      	movs	r3, #1
 8001532:	e0e7      	b.n	8001704 <HAL_RCC_ClockConfig+0x1e4>
  /* To correctly read data from FLASH memory, the number of wait states (LATENCY)
    must be correctly programmed according to the frequency of the CPU clock
    (HCLK) and the supply voltage of the device. */

  /* Increasing the number of wait states because of higher CPU frequency */
  if(FLatency > __HAL_FLASH_GET_LATENCY())
 8001534:	4b75      	ldr	r3, [pc, #468]	; (800170c <HAL_RCC_ClockConfig+0x1ec>)
 8001536:	681b      	ldr	r3, [r3, #0]
 8001538:	f003 0307 	and.w	r3, r3, #7
 800153c:	683a      	ldr	r2, [r7, #0]
 800153e:	429a      	cmp	r2, r3
 8001540:	d910      	bls.n	8001564 <HAL_RCC_ClockConfig+0x44>
  {
    /* Program the new number of wait states to the LATENCY bits in the FLASH_ACR register */
    __HAL_FLASH_SET_LATENCY(FLatency);
 8001542:	4b72      	ldr	r3, [pc, #456]	; (800170c <HAL_RCC_ClockConfig+0x1ec>)
 8001544:	681b      	ldr	r3, [r3, #0]
 8001546:	f023 0207 	bic.w	r2, r3, #7
 800154a:	4970      	ldr	r1, [pc, #448]	; (800170c <HAL_RCC_ClockConfig+0x1ec>)
 800154c:	683b      	ldr	r3, [r7, #0]
 800154e:	4313      	orrs	r3, r2
 8001550:	600b      	str	r3, [r1, #0]

    /* Check that the new number of wait states is taken into account to access the Flash
    memory by reading the FLASH_ACR register */
    if(__HAL_FLASH_GET_LATENCY() != FLatency)
 8001552:	4b6e      	ldr	r3, [pc, #440]	; (800170c <HAL_RCC_ClockConfig+0x1ec>)
 8001554:	681b      	ldr	r3, [r3, #0]
 8001556:	f003 0307 	and.w	r3, r3, #7
 800155a:	683a      	ldr	r2, [r7, #0]
 800155c:	429a      	cmp	r2, r3
 800155e:	d001      	beq.n	8001564 <HAL_RCC_ClockConfig+0x44>
    {
      return HAL_ERROR;
 8001560:	2301      	movs	r3, #1
 8001562:	e0cf      	b.n	8001704 <HAL_RCC_ClockConfig+0x1e4>
    }
  }

  /*----------------- HCLK Configuration prior to SYSCLK----------------------*/
  /* Apply higher HCLK prescaler request here to ensure CPU clock is not of of spec when SYSCLK is increased */
  if(((RCC_ClkInitStruct->ClockType) & RCC_CLOCKTYPE_HCLK) == RCC_CLOCKTYPE_HCLK)
 8001564:	687b      	ldr	r3, [r7, #4]
 8001566:	681b      	ldr	r3, [r3, #0]
 8001568:	f003 0302 	and.w	r3, r3, #2
 800156c:	2b00      	cmp	r3, #0
 800156e:	d010      	beq.n	8001592 <HAL_RCC_ClockConfig+0x72>
  {
    assert_param(IS_RCC_HCLK(RCC_ClkInitStruct->AHBCLKDivider));

    if(RCC_ClkInitStruct->AHBCLKDivider > READ_BIT(RCC->CFGR, RCC_CFGR_HPRE))
 8001570:	687b      	ldr	r3, [r7, #4]
 8001572:	689a      	ldr	r2, [r3, #8]
 8001574:	4b66      	ldr	r3, [pc, #408]	; (8001710 <HAL_RCC_ClockConfig+0x1f0>)
 8001576:	689b      	ldr	r3, [r3, #8]
 8001578:	f003 03f0 	and.w	r3, r3, #240	; 0xf0
 800157c:	429a      	cmp	r2, r3
 800157e:	d908      	bls.n	8001592 <HAL_RCC_ClockConfig+0x72>
    {
      MODIFY_REG(RCC->CFGR, RCC_CFGR_HPRE, RCC_ClkInitStruct->AHBCLKDivider);
 8001580:	4b63      	ldr	r3, [pc, #396]	; (8001710 <HAL_RCC_ClockConfig+0x1f0>)
 8001582:	689b      	ldr	r3, [r3, #8]
 8001584:	f023 02f0 	bic.w	r2, r3, #240	; 0xf0
 8001588:	687b      	ldr	r3, [r7, #4]
 800158a:	689b      	ldr	r3, [r3, #8]
 800158c:	4960      	ldr	r1, [pc, #384]	; (8001710 <HAL_RCC_ClockConfig+0x1f0>)
 800158e:	4313      	orrs	r3, r2
 8001590:	608b      	str	r3, [r1, #8]
    }
  }

  /*------------------------- SYSCLK Configuration ---------------------------*/
  if(((RCC_ClkInitStruct->ClockType) & RCC_CLOCKTYPE_SYSCLK) == RCC_CLOCKTYPE_SYSCLK)
 8001592:	687b      	ldr	r3, [r7, #4]
 8001594:	681b      	ldr	r3, [r3, #0]
 8001596:	f003 0301 	and.w	r3, r3, #1
 800159a:	2b00      	cmp	r3, #0
 800159c:	d04c      	beq.n	8001638 <HAL_RCC_ClockConfig+0x118>
  {
    assert_param(IS_RCC_SYSCLKSOURCE(RCC_ClkInitStruct->SYSCLKSource));

    /* PLL is selected as System Clock Source */
    if(RCC_ClkInitStruct->SYSCLKSource == RCC_SYSCLKSOURCE_PLLCLK)
 800159e:	687b      	ldr	r3, [r7, #4]
 80015a0:	685b      	ldr	r3, [r3, #4]
 80015a2:	2b03      	cmp	r3, #3
 80015a4:	d107      	bne.n	80015b6 <HAL_RCC_ClockConfig+0x96>
    {
      /* Check the PLL ready flag */
      if(READ_BIT(RCC->CR, RCC_CR_PLLRDY) == 0U)
 80015a6:	4b5a      	ldr	r3, [pc, #360]	; (8001710 <HAL_RCC_ClockConfig+0x1f0>)
 80015a8:	681b      	ldr	r3, [r3, #0]
 80015aa:	f003 7300 	and.w	r3, r3, #33554432	; 0x2000000
 80015ae:	2b00      	cmp	r3, #0
 80015b0:	d121      	bne.n	80015f6 <HAL_RCC_ClockConfig+0xd6>
      {
        return HAL_ERROR;
 80015b2:	2301      	movs	r3, #1
 80015b4:	e0a6      	b.n	8001704 <HAL_RCC_ClockConfig+0x1e4>
#endif
    }
    else
    {
      /* HSE is selected as System Clock Source */
      if(RCC_ClkInitStruct->SYSCLKSource == RCC_SYSCLKSOURCE_HSE)
 80015b6:	687b      	ldr	r3, [r7, #4]
 80015b8:	685b      	ldr	r3, [r3, #4]
 80015ba:	2b02      	cmp	r3, #2
 80015bc:	d107      	bne.n	80015ce <HAL_RCC_ClockConfig+0xae>
      {
        /* Check the HSE ready flag */
        if(READ_BIT(RCC->CR, RCC_CR_HSERDY) == 0U)
 80015be:	4b54      	ldr	r3, [pc, #336]	; (8001710 <HAL_RCC_ClockConfig+0x1f0>)
 80015c0:	681b      	ldr	r3, [r3, #0]
 80015c2:	f403 3300 	and.w	r3, r3, #131072	; 0x20000
 80015c6:	2b00      	cmp	r3, #0
 80015c8:	d115      	bne.n	80015f6 <HAL_RCC_ClockConfig+0xd6>
        {
          return HAL_ERROR;
 80015ca:	2301      	movs	r3, #1
 80015cc:	e09a      	b.n	8001704 <HAL_RCC_ClockConfig+0x1e4>
        }
      }
      /* MSI is selected as System Clock Source */
      else if(RCC_ClkInitStruct->SYSCLKSource == RCC_SYSCLKSOURCE_MSI)
 80015ce:	687b      	ldr	r3, [r7, #4]
 80015d0:	685b      	ldr	r3, [r3, #4]
 80015d2:	2b00      	cmp	r3, #0
 80015d4:	d107      	bne.n	80015e6 <HAL_RCC_ClockConfig+0xc6>
      {
        /* Check the MSI ready flag */
        if(READ_BIT(RCC->CR, RCC_CR_MSIRDY) == 0U)
 80015d6:	4b4e      	ldr	r3, [pc, #312]	; (8001710 <HAL_RCC_ClockConfig+0x1f0>)
 80015d8:	681b      	ldr	r3, [r3, #0]
 80015da:	f003 0302 	and.w	r3, r3, #2
 80015de:	2b00      	cmp	r3, #0
 80015e0:	d109      	bne.n	80015f6 <HAL_RCC_ClockConfig+0xd6>
        {
          return HAL_ERROR;
 80015e2:	2301      	movs	r3, #1
 80015e4:	e08e      	b.n	8001704 <HAL_RCC_ClockConfig+0x1e4>
      }
      /* HSI is selected as System Clock Source */
      else
      {
        /* Check the HSI ready flag */
        if(READ_BIT(RCC->CR, RCC_CR_HSIRDY) == 0U)
 80015e6:	4b4a      	ldr	r3, [pc, #296]	; (8001710 <HAL_RCC_ClockConfig+0x1f0>)
 80015e8:	681b      	ldr	r3, [r3, #0]
 80015ea:	f403 6380 	and.w	r3, r3, #1024	; 0x400
 80015ee:	2b00      	cmp	r3, #0
 80015f0:	d101      	bne.n	80015f6 <HAL_RCC_ClockConfig+0xd6>
        {
          return HAL_ERROR;
 80015f2:	2301      	movs	r3, #1
 80015f4:	e086      	b.n	8001704 <HAL_RCC_ClockConfig+0x1e4>
      }
#endif

    }

    MODIFY_REG(RCC->CFGR, RCC_CFGR_SW, RCC_ClkInitStruct->SYSCLKSource);
 80015f6:	4b46      	ldr	r3, [pc, #280]	; (8001710 <HAL_RCC_ClockConfig+0x1f0>)
 80015f8:	689b      	ldr	r3, [r3, #8]
 80015fa:	f023 0203 	bic.w	r2, r3, #3
 80015fe:	687b      	ldr	r3, [r7, #4]
 8001600:	685b      	ldr	r3, [r3, #4]
 8001602:	4943      	ldr	r1, [pc, #268]	; (8001710 <HAL_RCC_ClockConfig+0x1f0>)
 8001604:	4313      	orrs	r3, r2
 8001606:	608b      	str	r3, [r1, #8]

    /* Get Start Tick*/
    tickstart = HAL_GetTick();
 8001608:	f7ff f848 	bl	800069c <HAL_GetTick>
 800160c:	60f8      	str	r0, [r7, #12]

    while(__HAL_RCC_GET_SYSCLK_SOURCE() != (RCC_ClkInitStruct->SYSCLKSource << RCC_CFGR_SWS_Pos))
 800160e:	e00a      	b.n	8001626 <HAL_RCC_ClockConfig+0x106>
    {
      if((HAL_GetTick() - tickstart) > CLOCKSWITCH_TIMEOUT_VALUE)
 8001610:	f7ff f844 	bl	800069c <HAL_GetTick>
 8001614:	4602      	mov	r2, r0
 8001616:	68fb      	ldr	r3, [r7, #12]
 8001618:	1ad3      	subs	r3, r2, r3
 800161a:	f241 3288 	movw	r2, #5000	; 0x1388
 800161e:	4293      	cmp	r3, r2
 8001620:	d901      	bls.n	8001626 <HAL_RCC_ClockConfig+0x106>
      {
        return HAL_TIMEOUT;
 8001622:	2303      	movs	r3, #3
 8001624:	e06e      	b.n	8001704 <HAL_RCC_ClockConfig+0x1e4>
    while(__HAL_RCC_GET_SYSCLK_SOURCE() != (RCC_ClkInitStruct->SYSCLKSource << RCC_CFGR_SWS_Pos))
 8001626:	4b3a      	ldr	r3, [pc, #232]	; (8001710 <HAL_RCC_ClockConfig+0x1f0>)
 8001628:	689b      	ldr	r3, [r3, #8]
 800162a:	f003 020c 	and.w	r2, r3, #12
 800162e:	687b      	ldr	r3, [r7, #4]
 8001630:	685b      	ldr	r3, [r3, #4]
 8001632:	009b      	lsls	r3, r3, #2
 8001634:	429a      	cmp	r2, r3
 8001636:	d1eb      	bne.n	8001610 <HAL_RCC_ClockConfig+0xf0>
  }
#endif

  /*----------------- HCLK Configuration after SYSCLK-------------------------*/
  /* Apply lower HCLK prescaler request here to ensure CPU clock is not of of spec when SYSCLK is set */
  if(((RCC_ClkInitStruct->ClockType) & RCC_CLOCKTYPE_HCLK) == RCC_CLOCKTYPE_HCLK)
 8001638:	687b      	ldr	r3, [r7, #4]
 800163a:	681b      	ldr	r3, [r3, #0]
 800163c:	f003 0302 	and.w	r3, r3, #2
 8001640:	2b00      	cmp	r3, #0
 8001642:	d010      	beq.n	8001666 <HAL_RCC_ClockConfig+0x146>
  {
    if(RCC_ClkInitStruct->AHBCLKDivider < READ_BIT(RCC->CFGR, RCC_CFGR_HPRE))
 8001644:	687b      	ldr	r3, [r7, #4]
 8001646:	689a      	ldr	r2, [r3, #8]
 8001648:	4b31      	ldr	r3, [pc, #196]	; (8001710 <HAL_RCC_ClockConfig+0x1f0>)
 800164a:	689b      	ldr	r3, [r3, #8]
 800164c:	f003 03f0 	and.w	r3, r3, #240	; 0xf0
 8001650:	429a      	cmp	r2, r3
 8001652:	d208      	bcs.n	8001666 <HAL_RCC_ClockConfig+0x146>
    {
      MODIFY_REG(RCC->CFGR, RCC_CFGR_HPRE, RCC_ClkInitStruct->AHBCLKDivider);
 8001654:	4b2e      	ldr	r3, [pc, #184]	; (8001710 <HAL_RCC_ClockConfig+0x1f0>)
 8001656:	689b      	ldr	r3, [r3, #8]
 8001658:	f023 02f0 	bic.w	r2, r3, #240	; 0xf0
 800165c:	687b      	ldr	r3, [r7, #4]
 800165e:	689b      	ldr	r3, [r3, #8]
 8001660:	492b      	ldr	r1, [pc, #172]	; (8001710 <HAL_RCC_ClockConfig+0x1f0>)
 8001662:	4313      	orrs	r3, r2
 8001664:	608b      	str	r3, [r1, #8]
    }
  }

  /* Allow decreasing of the number of wait states (because of lower CPU frequency expected) */
  if(FLatency < __HAL_FLASH_GET_LATENCY())
 8001666:	4b29      	ldr	r3, [pc, #164]	; (800170c <HAL_RCC_ClockConfig+0x1ec>)
 8001668:	681b      	ldr	r3, [r3, #0]
 800166a:	f003 0307 	and.w	r3, r3, #7
 800166e:	683a      	ldr	r2, [r7, #0]
 8001670:	429a      	cmp	r2, r3
 8001672:	d210      	bcs.n	8001696 <HAL_RCC_ClockConfig+0x176>
  {
    /* Program the new number of wait states to the LATENCY bits in the FLASH_ACR register */
    __HAL_FLASH_SET_LATENCY(FLatency);
 8001674:	4b25      	ldr	r3, [pc, #148]	; (800170c <HAL_RCC_ClockConfig+0x1ec>)
 8001676:	681b      	ldr	r3, [r3, #0]
 8001678:	f023 0207 	bic.w	r2, r3, #7
 800167c:	4923      	ldr	r1, [pc, #140]	; (800170c <HAL_RCC_ClockConfig+0x1ec>)
 800167e:	683b      	ldr	r3, [r7, #0]
 8001680:	4313      	orrs	r3, r2
 8001682:	600b      	str	r3, [r1, #0]

    /* Check that the new number of wait states is taken into account to access the Flash
    memory by reading the FLASH_ACR register */
    if(__HAL_FLASH_GET_LATENCY() != FLatency)
 8001684:	4b21      	ldr	r3, [pc, #132]	; (800170c <HAL_RCC_ClockConfig+0x1ec>)
 8001686:	681b      	ldr	r3, [r3, #0]
 8001688:	f003 0307 	and.w	r3, r3, #7
 800168c:	683a      	ldr	r2, [r7, #0]
 800168e:	429a      	cmp	r2, r3
 8001690:	d001      	beq.n	8001696 <HAL_RCC_ClockConfig+0x176>
    {
      return HAL_ERROR;
 8001692:	2301      	movs	r3, #1
 8001694:	e036      	b.n	8001704 <HAL_RCC_ClockConfig+0x1e4>
    }
  }

  /*-------------------------- PCLK1 Configuration ---------------------------*/
  if(((RCC_ClkInitStruct->ClockType) & RCC_CLOCKTYPE_PCLK1) == RCC_CLOCKTYPE_PCLK1)
 8001696:	687b      	ldr	r3, [r7, #4]
 8001698:	681b      	ldr	r3, [r3, #0]
 800169a:	f003 0304 	and.w	r3, r3, #4
 800169e:	2b00      	cmp	r3, #0
 80016a0:	d008      	beq.n	80016b4 <HAL_RCC_ClockConfig+0x194>
  {
    assert_param(IS_RCC_PCLK(RCC_ClkInitStruct->APB1CLKDivider));
    MODIFY_REG(RCC->CFGR, RCC_CFGR_PPRE1, RCC_ClkInitStruct->APB1CLKDivider);
 80016a2:	4b1b      	ldr	r3, [pc, #108]	; (8001710 <HAL_RCC_ClockConfig+0x1f0>)
 80016a4:	689b      	ldr	r3, [r3, #8]
 80016a6:	f423 62e0 	bic.w	r2, r3, #1792	; 0x700
 80016aa:	687b      	ldr	r3, [r7, #4]
 80016ac:	68db      	ldr	r3, [r3, #12]
 80016ae:	4918      	ldr	r1, [pc, #96]	; (8001710 <HAL_RCC_ClockConfig+0x1f0>)
 80016b0:	4313      	orrs	r3, r2
 80016b2:	608b      	str	r3, [r1, #8]
  }

  /*-------------------------- PCLK2 Configuration ---------------------------*/
  if(((RCC_ClkInitStruct->ClockType) & RCC_CLOCKTYPE_PCLK2) == RCC_CLOCKTYPE_PCLK2)
 80016b4:	687b      	ldr	r3, [r7, #4]
 80016b6:	681b      	ldr	r3, [r3, #0]
 80016b8:	f003 0308 	and.w	r3, r3, #8
 80016bc:	2b00      	cmp	r3, #0
 80016be:	d009      	beq.n	80016d4 <HAL_RCC_ClockConfig+0x1b4>
  {
    assert_param(IS_RCC_PCLK(RCC_ClkInitStruct->APB2CLKDivider));
    MODIFY_REG(RCC->CFGR, RCC_CFGR_PPRE2, ((RCC_ClkInitStruct->APB2CLKDivider) << 3U));
 80016c0:	4b13      	ldr	r3, [pc, #76]	; (8001710 <HAL_RCC_ClockConfig+0x1f0>)
 80016c2:	689b      	ldr	r3, [r3, #8]
 80016c4:	f423 5260 	bic.w	r2, r3, #14336	; 0x3800
 80016c8:	687b      	ldr	r3, [r7, #4]
 80016ca:	691b      	ldr	r3, [r3, #16]
 80016cc:	00db      	lsls	r3, r3, #3
 80016ce:	4910      	ldr	r1, [pc, #64]	; (8001710 <HAL_RCC_ClockConfig+0x1f0>)
 80016d0:	4313      	orrs	r3, r2
 80016d2:	608b      	str	r3, [r1, #8]
  }

  /* Update the SystemCoreClock global variable */
  SystemCoreClock = HAL_RCC_GetSysClockFreq() >> (AHBPrescTable[READ_BIT(RCC->CFGR, RCC_CFGR_HPRE) >> RCC_CFGR_HPRE_Pos] & 0x1FU);
 80016d4:	f000 f824 	bl	8001720 <HAL_RCC_GetSysClockFreq>
 80016d8:	4602      	mov	r2, r0
 80016da:	4b0d      	ldr	r3, [pc, #52]	; (8001710 <HAL_RCC_ClockConfig+0x1f0>)
 80016dc:	689b      	ldr	r3, [r3, #8]
 80016de:	091b      	lsrs	r3, r3, #4
 80016e0:	f003 030f 	and.w	r3, r3, #15
 80016e4:	490b      	ldr	r1, [pc, #44]	; (8001714 <HAL_RCC_ClockConfig+0x1f4>)
 80016e6:	5ccb      	ldrb	r3, [r1, r3]
 80016e8:	f003 031f 	and.w	r3, r3, #31
 80016ec:	fa22 f303 	lsr.w	r3, r2, r3
 80016f0:	4a09      	ldr	r2, [pc, #36]	; (8001718 <HAL_RCC_ClockConfig+0x1f8>)
 80016f2:	6013      	str	r3, [r2, #0]

  /* Configure the source of time base considering new system clocks settings*/
  status = HAL_InitTick(uwTickPrio);
 80016f4:	4b09      	ldr	r3, [pc, #36]	; (800171c <HAL_RCC_ClockConfig+0x1fc>)
 80016f6:	681b      	ldr	r3, [r3, #0]
 80016f8:	4618      	mov	r0, r3
 80016fa:	f7fe ff7f 	bl	80005fc <HAL_InitTick>
 80016fe:	4603      	mov	r3, r0
 8001700:	72fb      	strb	r3, [r7, #11]

  return status;
 8001702:	7afb      	ldrb	r3, [r7, #11]
}
 8001704:	4618      	mov	r0, r3
 8001706:	3710      	adds	r7, #16
 8001708:	46bd      	mov	sp, r7
 800170a:	bd80      	pop	{r7, pc}
 800170c:	40022000 	.word	0x40022000
 8001710:	40021000 	.word	0x40021000
 8001714:	08002218 	.word	0x08002218
 8001718:	20000000 	.word	0x20000000
 800171c:	20000004 	.word	0x20000004

08001720 <HAL_RCC_GetSysClockFreq>:
  *
  *
  * @retval SYSCLK frequency
  */
uint32_t HAL_RCC_GetSysClockFreq(void)
{
 8001720:	b480      	push	{r7}
 8001722:	b089      	sub	sp, #36	; 0x24
 8001724:	af00      	add	r7, sp, #0
  uint32_t msirange = 0U, sysclockfreq = 0U;
 8001726:	2300      	movs	r3, #0
 8001728:	61fb      	str	r3, [r7, #28]
 800172a:	2300      	movs	r3, #0
 800172c:	61bb      	str	r3, [r7, #24]
  uint32_t pllvco, pllsource, pllr, pllm;    /* no init needed */
  uint32_t sysclk_source, pll_oscsource;

  sysclk_source = __HAL_RCC_GET_SYSCLK_SOURCE();
 800172e:	4b3e      	ldr	r3, [pc, #248]	; (8001828 <HAL_RCC_GetSysClockFreq+0x108>)
 8001730:	689b      	ldr	r3, [r3, #8]
 8001732:	f003 030c 	and.w	r3, r3, #12
 8001736:	613b      	str	r3, [r7, #16]
  pll_oscsource = __HAL_RCC_GET_PLL_OSCSOURCE();
 8001738:	4b3b      	ldr	r3, [pc, #236]	; (8001828 <HAL_RCC_GetSysClockFreq+0x108>)
 800173a:	68db      	ldr	r3, [r3, #12]
 800173c:	f003 0303 	and.w	r3, r3, #3
 8001740:	60fb      	str	r3, [r7, #12]

  if((sysclk_source == RCC_CFGR_SWS_MSI) ||
 8001742:	693b      	ldr	r3, [r7, #16]
 8001744:	2b00      	cmp	r3, #0
 8001746:	d005      	beq.n	8001754 <HAL_RCC_GetSysClockFreq+0x34>
 8001748:	693b      	ldr	r3, [r7, #16]
 800174a:	2b0c      	cmp	r3, #12
 800174c:	d121      	bne.n	8001792 <HAL_RCC_GetSysClockFreq+0x72>
     ((sysclk_source == RCC_CFGR_SWS_PLL) && (pll_oscsource == RCC_PLLSOURCE_MSI)))
 800174e:	68fb      	ldr	r3, [r7, #12]
 8001750:	2b01      	cmp	r3, #1
 8001752:	d11e      	bne.n	8001792 <HAL_RCC_GetSysClockFreq+0x72>
  {
    /* MSI or PLL with MSI source used as system clock source */

    /* Get SYSCLK source */
    if(READ_BIT(RCC->CR, RCC_CR_MSIRGSEL) == 0U)
 8001754:	4b34      	ldr	r3, [pc, #208]	; (8001828 <HAL_RCC_GetSysClockFreq+0x108>)
 8001756:	681b      	ldr	r3, [r3, #0]
 8001758:	f003 0308 	and.w	r3, r3, #8
 800175c:	2b00      	cmp	r3, #0
 800175e:	d107      	bne.n	8001770 <HAL_RCC_GetSysClockFreq+0x50>
    { /* MSISRANGE from RCC_CSR applies */
      msirange = READ_BIT(RCC->CSR, RCC_CSR_MSISRANGE) >> RCC_CSR_MSISRANGE_Pos;
 8001760:	4b31      	ldr	r3, [pc, #196]	; (8001828 <HAL_RCC_GetSysClockFreq+0x108>)
 8001762:	f8d3 3094 	ldr.w	r3, [r3, #148]	; 0x94
 8001766:	0a1b      	lsrs	r3, r3, #8
 8001768:	f003 030f 	and.w	r3, r3, #15
 800176c:	61fb      	str	r3, [r7, #28]
 800176e:	e005      	b.n	800177c <HAL_RCC_GetSysClockFreq+0x5c>
    }
    else
    { /* MSIRANGE from RCC_CR applies */
      msirange = READ_BIT(RCC->CR, RCC_CR_MSIRANGE) >> RCC_CR_MSIRANGE_Pos;
 8001770:	4b2d      	ldr	r3, [pc, #180]	; (8001828 <HAL_RCC_GetSysClockFreq+0x108>)
 8001772:	681b      	ldr	r3, [r3, #0]
 8001774:	091b      	lsrs	r3, r3, #4
 8001776:	f003 030f 	and.w	r3, r3, #15
 800177a:	61fb      	str	r3, [r7, #28]
    }
    /*MSI frequency range in HZ*/
    msirange = MSIRangeTable[msirange];
 800177c:	4a2b      	ldr	r2, [pc, #172]	; (800182c <HAL_RCC_GetSysClockFreq+0x10c>)
 800177e:	69fb      	ldr	r3, [r7, #28]
 8001780:	f852 3023 	ldr.w	r3, [r2, r3, lsl #2]
 8001784:	61fb      	str	r3, [r7, #28]

    if(sysclk_source == RCC_CFGR_SWS_MSI)
 8001786:	693b      	ldr	r3, [r7, #16]
 8001788:	2b00      	cmp	r3, #0
 800178a:	d10d      	bne.n	80017a8 <HAL_RCC_GetSysClockFreq+0x88>
    {
      /* MSI used as system clock source */
      sysclockfreq = msirange;
 800178c:	69fb      	ldr	r3, [r7, #28]
 800178e:	61bb      	str	r3, [r7, #24]
    if(sysclk_source == RCC_CFGR_SWS_MSI)
 8001790:	e00a      	b.n	80017a8 <HAL_RCC_GetSysClockFreq+0x88>
    }
  }
  else if(sysclk_source == RCC_CFGR_SWS_HSI)
 8001792:	693b      	ldr	r3, [r7, #16]
 8001794:	2b04      	cmp	r3, #4
 8001796:	d102      	bne.n	800179e <HAL_RCC_GetSysClockFreq+0x7e>
  {
    /* HSI used as system clock source */
    sysclockfreq = HSI_VALUE;
 8001798:	4b25      	ldr	r3, [pc, #148]	; (8001830 <HAL_RCC_GetSysClockFreq+0x110>)
 800179a:	61bb      	str	r3, [r7, #24]
 800179c:	e004      	b.n	80017a8 <HAL_RCC_GetSysClockFreq+0x88>
  }
  else if(sysclk_source == RCC_CFGR_SWS_HSE)
 800179e:	693b      	ldr	r3, [r7, #16]
 80017a0:	2b08      	cmp	r3, #8
 80017a2:	d101      	bne.n	80017a8 <HAL_RCC_GetSysClockFreq+0x88>
  {
    /* HSE used as system clock source */
    sysclockfreq = HSE_VALUE;
 80017a4:	4b23      	ldr	r3, [pc, #140]	; (8001834 <HAL_RCC_GetSysClockFreq+0x114>)
 80017a6:	61bb      	str	r3, [r7, #24]
  else
  {
    /* unexpected case: sysclockfreq at 0 */
  }

  if(sysclk_source == RCC_CFGR_SWS_PLL)
 80017a8:	693b      	ldr	r3, [r7, #16]
 80017aa:	2b0c      	cmp	r3, #12
 80017ac:	d134      	bne.n	8001818 <HAL_RCC_GetSysClockFreq+0xf8>
    /* PLL used as system clock  source */

    /* PLL_VCO = (HSE_VALUE or HSI_VALUE or MSI_VALUE) * PLLN / PLLM
    SYSCLK = PLL_VCO / PLLR
    */
    pllsource = READ_BIT(RCC->PLLCFGR, RCC_PLLCFGR_PLLSRC);
 80017ae:	4b1e      	ldr	r3, [pc, #120]	; (8001828 <HAL_RCC_GetSysClockFreq+0x108>)
 80017b0:	68db      	ldr	r3, [r3, #12]
 80017b2:	f003 0303 	and.w	r3, r3, #3
 80017b6:	60bb      	str	r3, [r7, #8]

    switch (pllsource)
 80017b8:	68bb      	ldr	r3, [r7, #8]
 80017ba:	2b02      	cmp	r3, #2
 80017bc:	d003      	beq.n	80017c6 <HAL_RCC_GetSysClockFreq+0xa6>
 80017be:	68bb      	ldr	r3, [r7, #8]
 80017c0:	2b03      	cmp	r3, #3
 80017c2:	d003      	beq.n	80017cc <HAL_RCC_GetSysClockFreq+0xac>
 80017c4:	e005      	b.n	80017d2 <HAL_RCC_GetSysClockFreq+0xb2>
    {
    case RCC_PLLSOURCE_HSI:  /* HSI used as PLL clock source */
      pllvco = HSI_VALUE;
 80017c6:	4b1a      	ldr	r3, [pc, #104]	; (8001830 <HAL_RCC_GetSysClockFreq+0x110>)
 80017c8:	617b      	str	r3, [r7, #20]
      break;
 80017ca:	e005      	b.n	80017d8 <HAL_RCC_GetSysClockFreq+0xb8>

    case RCC_PLLSOURCE_HSE:  /* HSE used as PLL clock source */
      pllvco = HSE_VALUE;
 80017cc:	4b19      	ldr	r3, [pc, #100]	; (8001834 <HAL_RCC_GetSysClockFreq+0x114>)
 80017ce:	617b      	str	r3, [r7, #20]
      break;
 80017d0:	e002      	b.n	80017d8 <HAL_RCC_GetSysClockFreq+0xb8>

    case RCC_PLLSOURCE_MSI:  /* MSI used as PLL clock source */
    default:
      pllvco = msirange;
 80017d2:	69fb      	ldr	r3, [r7, #28]
 80017d4:	617b      	str	r3, [r7, #20]
      break;
 80017d6:	bf00      	nop
    }
    pllm = (READ_BIT(RCC->PLLCFGR, RCC_PLLCFGR_PLLM) >> RCC_PLLCFGR_PLLM_Pos) + 1U ;
 80017d8:	4b13      	ldr	r3, [pc, #76]	; (8001828 <HAL_RCC_GetSysClockFreq+0x108>)
 80017da:	68db      	ldr	r3, [r3, #12]
 80017dc:	091b      	lsrs	r3, r3, #4
 80017de:	f003 0307 	and.w	r3, r3, #7
 80017e2:	3301      	adds	r3, #1
 80017e4:	607b      	str	r3, [r7, #4]
    pllvco = (pllvco * (READ_BIT(RCC->PLLCFGR, RCC_PLLCFGR_PLLN) >> RCC_PLLCFGR_PLLN_Pos)) / pllm;
 80017e6:	4b10      	ldr	r3, [pc, #64]	; (8001828 <HAL_RCC_GetSysClockFreq+0x108>)
 80017e8:	68db      	ldr	r3, [r3, #12]
 80017ea:	0a1b      	lsrs	r3, r3, #8
 80017ec:	f003 037f 	and.w	r3, r3, #127	; 0x7f
 80017f0:	697a      	ldr	r2, [r7, #20]
 80017f2:	fb03 f202 	mul.w	r2, r3, r2
 80017f6:	687b      	ldr	r3, [r7, #4]
 80017f8:	fbb2 f3f3 	udiv	r3, r2, r3
 80017fc:	617b      	str	r3, [r7, #20]
    pllr = ((READ_BIT(RCC->PLLCFGR, RCC_PLLCFGR_PLLR) >> RCC_PLLCFGR_PLLR_Pos) + 1U ) * 2U;
 80017fe:	4b0a      	ldr	r3, [pc, #40]	; (8001828 <HAL_RCC_GetSysClockFreq+0x108>)
 8001800:	68db      	ldr	r3, [r3, #12]
 8001802:	0e5b      	lsrs	r3, r3, #25
 8001804:	f003 0303 	and.w	r3, r3, #3
 8001808:	3301      	adds	r3, #1
 800180a:	005b      	lsls	r3, r3, #1
 800180c:	603b      	str	r3, [r7, #0]
    sysclockfreq = pllvco / pllr;
 800180e:	697a      	ldr	r2, [r7, #20]
 8001810:	683b      	ldr	r3, [r7, #0]
 8001812:	fbb2 f3f3 	udiv	r3, r2, r3
 8001816:	61bb      	str	r3, [r7, #24]
  }

  return sysclockfreq;
 8001818:	69bb      	ldr	r3, [r7, #24]
}
 800181a:	4618      	mov	r0, r3
 800181c:	3724      	adds	r7, #36	; 0x24
 800181e:	46bd      	mov	sp, r7
 8001820:	f85d 7b04 	ldr.w	r7, [sp], #4
 8001824:	4770      	bx	lr
 8001826:	bf00      	nop
 8001828:	40021000 	.word	0x40021000
 800182c:	08002228 	.word	0x08002228
 8001830:	00f42400 	.word	0x00f42400
 8001834:	007a1200 	.word	0x007a1200

08001838 <RCC_SetFlashLatencyFromMSIRange>:
            voltage range.
  * @param  msirange  MSI range value from RCC_MSIRANGE_0 to RCC_MSIRANGE_11
  * @retval HAL status
  */
static HAL_StatusTypeDef RCC_SetFlashLatencyFromMSIRange(uint32_t msirange)
{
 8001838:	b580      	push	{r7, lr}
 800183a:	b086      	sub	sp, #24
 800183c:	af00      	add	r7, sp, #0
 800183e:	6078      	str	r0, [r7, #4]
  uint32_t vos;
  uint32_t latency = FLASH_LATENCY_0;  /* default value 0WS */
 8001840:	2300      	movs	r3, #0
 8001842:	613b      	str	r3, [r7, #16]

  if(__HAL_RCC_PWR_IS_CLK_ENABLED())
 8001844:	4b2a      	ldr	r3, [pc, #168]	; (80018f0 <RCC_SetFlashLatencyFromMSIRange+0xb8>)
 8001846:	6d9b      	ldr	r3, [r3, #88]	; 0x58
 8001848:	f003 5380 	and.w	r3, r3, #268435456	; 0x10000000
 800184c:	2b00      	cmp	r3, #0
 800184e:	d003      	beq.n	8001858 <RCC_SetFlashLatencyFromMSIRange+0x20>
  {
    vos = HAL_PWREx_GetVoltageRange();
 8001850:	f7ff f9ee 	bl	8000c30 <HAL_PWREx_GetVoltageRange>
 8001854:	6178      	str	r0, [r7, #20]
 8001856:	e014      	b.n	8001882 <RCC_SetFlashLatencyFromMSIRange+0x4a>
  }
  else
  {
    __HAL_RCC_PWR_CLK_ENABLE();
 8001858:	4b25      	ldr	r3, [pc, #148]	; (80018f0 <RCC_SetFlashLatencyFromMSIRange+0xb8>)
 800185a:	6d9b      	ldr	r3, [r3, #88]	; 0x58
 800185c:	4a24      	ldr	r2, [pc, #144]	; (80018f0 <RCC_SetFlashLatencyFromMSIRange+0xb8>)
 800185e:	f043 5380 	orr.w	r3, r3, #268435456	; 0x10000000
 8001862:	6593      	str	r3, [r2, #88]	; 0x58
 8001864:	4b22      	ldr	r3, [pc, #136]	; (80018f0 <RCC_SetFlashLatencyFromMSIRange+0xb8>)
 8001866:	6d9b      	ldr	r3, [r3, #88]	; 0x58
 8001868:	f003 5380 	and.w	r3, r3, #268435456	; 0x10000000
 800186c:	60fb      	str	r3, [r7, #12]
 800186e:	68fb      	ldr	r3, [r7, #12]
    vos = HAL_PWREx_GetVoltageRange();
 8001870:	f7ff f9de 	bl	8000c30 <HAL_PWREx_GetVoltageRange>
 8001874:	6178      	str	r0, [r7, #20]
    __HAL_RCC_PWR_CLK_DISABLE();
 8001876:	4b1e      	ldr	r3, [pc, #120]	; (80018f0 <RCC_SetFlashLatencyFromMSIRange+0xb8>)
 8001878:	6d9b      	ldr	r3, [r3, #88]	; 0x58
 800187a:	4a1d      	ldr	r2, [pc, #116]	; (80018f0 <RCC_SetFlashLatencyFromMSIRange+0xb8>)
 800187c:	f023 5380 	bic.w	r3, r3, #268435456	; 0x10000000
 8001880:	6593      	str	r3, [r2, #88]	; 0x58
  }

  if(vos == PWR_REGULATOR_VOLTAGE_SCALE1)
 8001882:	697b      	ldr	r3, [r7, #20]
 8001884:	f5b3 7f00 	cmp.w	r3, #512	; 0x200
 8001888:	d10b      	bne.n	80018a2 <RCC_SetFlashLatencyFromMSIRange+0x6a>
  {
    if(msirange > RCC_MSIRANGE_8)
 800188a:	687b      	ldr	r3, [r7, #4]
 800188c:	2b80      	cmp	r3, #128	; 0x80
 800188e:	d919      	bls.n	80018c4 <RCC_SetFlashLatencyFromMSIRange+0x8c>
    {
      /* MSI > 16Mhz */
      if(msirange > RCC_MSIRANGE_10)
 8001890:	687b      	ldr	r3, [r7, #4]
 8001892:	2ba0      	cmp	r3, #160	; 0xa0
 8001894:	d902      	bls.n	800189c <RCC_SetFlashLatencyFromMSIRange+0x64>
      {
        /* MSI 48Mhz */
        latency = FLASH_LATENCY_2; /* 2WS */
 8001896:	2302      	movs	r3, #2
 8001898:	613b      	str	r3, [r7, #16]
 800189a:	e013      	b.n	80018c4 <RCC_SetFlashLatencyFromMSIRange+0x8c>
      }
      else
      {
        /* MSI 24Mhz or 32Mhz */
        latency = FLASH_LATENCY_1; /* 1WS */
 800189c:	2301      	movs	r3, #1
 800189e:	613b      	str	r3, [r7, #16]
 80018a0:	e010      	b.n	80018c4 <RCC_SetFlashLatencyFromMSIRange+0x8c>
        latency = FLASH_LATENCY_1; /* 1WS */
      }
      /* else MSI < 8Mhz default FLASH_LATENCY_0 0WS */
    }
#else
    if(msirange > RCC_MSIRANGE_8)
 80018a2:	687b      	ldr	r3, [r7, #4]
 80018a4:	2b80      	cmp	r3, #128	; 0x80
 80018a6:	d902      	bls.n	80018ae <RCC_SetFlashLatencyFromMSIRange+0x76>
    {
      /* MSI > 16Mhz */
      latency = FLASH_LATENCY_3; /* 3WS */
 80018a8:	2303      	movs	r3, #3
 80018aa:	613b      	str	r3, [r7, #16]
 80018ac:	e00a      	b.n	80018c4 <RCC_SetFlashLatencyFromMSIRange+0x8c>
    }
    else
    {
      if(msirange == RCC_MSIRANGE_8)
 80018ae:	687b      	ldr	r3, [r7, #4]
 80018b0:	2b80      	cmp	r3, #128	; 0x80
 80018b2:	d102      	bne.n	80018ba <RCC_SetFlashLatencyFromMSIRange+0x82>
      {
        /* MSI 16Mhz */
        latency = FLASH_LATENCY_2; /* 2WS */
 80018b4:	2302      	movs	r3, #2
 80018b6:	613b      	str	r3, [r7, #16]
 80018b8:	e004      	b.n	80018c4 <RCC_SetFlashLatencyFromMSIRange+0x8c>
      }
      else if(msirange == RCC_MSIRANGE_7)
 80018ba:	687b      	ldr	r3, [r7, #4]
 80018bc:	2b70      	cmp	r3, #112	; 0x70
 80018be:	d101      	bne.n	80018c4 <RCC_SetFlashLatencyFromMSIRange+0x8c>
      {
        /* MSI 8Mhz */
        latency = FLASH_LATENCY_1; /* 1WS */
 80018c0:	2301      	movs	r3, #1
 80018c2:	613b      	str	r3, [r7, #16]
      /* else MSI < 8Mhz default FLASH_LATENCY_0 0WS */
    }
#endif
  }

  __HAL_FLASH_SET_LATENCY(latency);
 80018c4:	4b0b      	ldr	r3, [pc, #44]	; (80018f4 <RCC_SetFlashLatencyFromMSIRange+0xbc>)
 80018c6:	681b      	ldr	r3, [r3, #0]
 80018c8:	f023 0207 	bic.w	r2, r3, #7
 80018cc:	4909      	ldr	r1, [pc, #36]	; (80018f4 <RCC_SetFlashLatencyFromMSIRange+0xbc>)
 80018ce:	693b      	ldr	r3, [r7, #16]
 80018d0:	4313      	orrs	r3, r2
 80018d2:	600b      	str	r3, [r1, #0]

  /* Check that the new number of wait states is taken into account to access the Flash
     memory by reading the FLASH_ACR register */
  if(__HAL_FLASH_GET_LATENCY() != latency)
 80018d4:	4b07      	ldr	r3, [pc, #28]	; (80018f4 <RCC_SetFlashLatencyFromMSIRange+0xbc>)
 80018d6:	681b      	ldr	r3, [r3, #0]
 80018d8:	f003 0307 	and.w	r3, r3, #7
 80018dc:	693a      	ldr	r2, [r7, #16]
 80018de:	429a      	cmp	r2, r3
 80018e0:	d001      	beq.n	80018e6 <RCC_SetFlashLatencyFromMSIRange+0xae>
  {
    return HAL_ERROR;
 80018e2:	2301      	movs	r3, #1
 80018e4:	e000      	b.n	80018e8 <RCC_SetFlashLatencyFromMSIRange+0xb0>
  }

  return HAL_OK;
 80018e6:	2300      	movs	r3, #0
}
 80018e8:	4618      	mov	r0, r3
 80018ea:	3718      	adds	r7, #24
 80018ec:	46bd      	mov	sp, r7
 80018ee:	bd80      	pop	{r7, pc}
 80018f0:	40021000 	.word	0x40021000
 80018f4:	40022000 	.word	0x40022000

080018f8 <HAL_TIM_Base_Init>:
  *         Ex: call @ref HAL_TIM_Base_DeInit() before HAL_TIM_Base_Init()
  * @param  htim TIM Base handle
  * @retval HAL status
  */
HAL_StatusTypeDef HAL_TIM_Base_Init(TIM_HandleTypeDef *htim)
{
 80018f8:	b580      	push	{r7, lr}
 80018fa:	b082      	sub	sp, #8
 80018fc:	af00      	add	r7, sp, #0
 80018fe:	6078      	str	r0, [r7, #4]
  /* Check the TIM handle allocation */
  if (htim == NULL)
 8001900:	687b      	ldr	r3, [r7, #4]
 8001902:	2b00      	cmp	r3, #0
 8001904:	d101      	bne.n	800190a <HAL_TIM_Base_Init+0x12>
  {
    return HAL_ERROR;
 8001906:	2301      	movs	r3, #1
 8001908:	e049      	b.n	800199e <HAL_TIM_Base_Init+0xa6>
  assert_param(IS_TIM_COUNTER_MODE(htim->Init.CounterMode));
  assert_param(IS_TIM_CLOCKDIVISION_DIV(htim->Init.ClockDivision));
  assert_param(IS_TIM_PERIOD(htim, htim->Init.Period));
  assert_param(IS_TIM_AUTORELOAD_PRELOAD(htim->Init.AutoReloadPreload));

  if (htim->State == HAL_TIM_STATE_RESET)
 800190a:	687b      	ldr	r3, [r7, #4]
 800190c:	f893 303d 	ldrb.w	r3, [r3, #61]	; 0x3d
 8001910:	b2db      	uxtb	r3, r3
 8001912:	2b00      	cmp	r3, #0
 8001914:	d106      	bne.n	8001924 <HAL_TIM_Base_Init+0x2c>
  {
    /* Allocate lock resource and initialize it */
    htim->Lock = HAL_UNLOCKED;
 8001916:	687b      	ldr	r3, [r7, #4]
 8001918:	2200      	movs	r2, #0
 800191a:	f883 203c 	strb.w	r2, [r3, #60]	; 0x3c
    }
    /* Init the low level hardware : GPIO, CLOCK, NVIC */
    htim->Base_MspInitCallback(htim);
#else
    /* Init the low level hardware : GPIO, CLOCK, NVIC */
    HAL_TIM_Base_MspInit(htim);
 800191e:	6878      	ldr	r0, [r7, #4]
 8001920:	f7fe fdb8 	bl	8000494 <HAL_TIM_Base_MspInit>
#endif /* USE_HAL_TIM_REGISTER_CALLBACKS */
  }

  /* Set the TIM state */
  htim->State = HAL_TIM_STATE_BUSY;
 8001924:	687b      	ldr	r3, [r7, #4]
 8001926:	2202      	movs	r2, #2
 8001928:	f883 203d 	strb.w	r2, [r3, #61]	; 0x3d

  /* Set the Time Base configuration */
  TIM_Base_SetConfig(htim->Instance, &htim->Init);
 800192c:	687b      	ldr	r3, [r7, #4]
 800192e:	681a      	ldr	r2, [r3, #0]
 8001930:	687b      	ldr	r3, [r7, #4]
 8001932:	3304      	adds	r3, #4
 8001934:	4619      	mov	r1, r3
 8001936:	4610      	mov	r0, r2
 8001938:	f000 faa2 	bl	8001e80 <TIM_Base_SetConfig>

  /* Initialize the DMA burst operation state */
  htim->DMABurstState = HAL_DMA_BURST_STATE_READY;
 800193c:	687b      	ldr	r3, [r7, #4]
 800193e:	2201      	movs	r2, #1
 8001940:	f883 2048 	strb.w	r2, [r3, #72]	; 0x48

  /* Initialize the TIM channels state */
  TIM_CHANNEL_STATE_SET_ALL(htim, HAL_TIM_CHANNEL_STATE_READY);
 8001944:	687b      	ldr	r3, [r7, #4]
 8001946:	2201      	movs	r2, #1
 8001948:	f883 203e 	strb.w	r2, [r3, #62]	; 0x3e
 800194c:	687b      	ldr	r3, [r7, #4]
 800194e:	2201      	movs	r2, #1
 8001950:	f883 203f 	strb.w	r2, [r3, #63]	; 0x3f
 8001954:	687b      	ldr	r3, [r7, #4]
 8001956:	2201      	movs	r2, #1
 8001958:	f883 2040 	strb.w	r2, [r3, #64]	; 0x40
 800195c:	687b      	ldr	r3, [r7, #4]
 800195e:	2201      	movs	r2, #1
 8001960:	f883 2041 	strb.w	r2, [r3, #65]	; 0x41
 8001964:	687b      	ldr	r3, [r7, #4]
 8001966:	2201      	movs	r2, #1
 8001968:	f883 2042 	strb.w	r2, [r3, #66]	; 0x42
 800196c:	687b      	ldr	r3, [r7, #4]
 800196e:	2201      	movs	r2, #1
 8001970:	f883 2043 	strb.w	r2, [r3, #67]	; 0x43
  TIM_CHANNEL_N_STATE_SET_ALL(htim, HAL_TIM_CHANNEL_STATE_READY);
 8001974:	687b      	ldr	r3, [r7, #4]
 8001976:	2201      	movs	r2, #1
 8001978:	f883 2044 	strb.w	r2, [r3, #68]	; 0x44
 800197c:	687b      	ldr	r3, [r7, #4]
 800197e:	2201      	movs	r2, #1
 8001980:	f883 2045 	strb.w	r2, [r3, #69]	; 0x45
 8001984:	687b      	ldr	r3, [r7, #4]
 8001986:	2201      	movs	r2, #1
 8001988:	f883 2046 	strb.w	r2, [r3, #70]	; 0x46
 800198c:	687b      	ldr	r3, [r7, #4]
 800198e:	2201      	movs	r2, #1
 8001990:	f883 2047 	strb.w	r2, [r3, #71]	; 0x47

  /* Initialize the TIM state*/
  htim->State = HAL_TIM_STATE_READY;
 8001994:	687b      	ldr	r3, [r7, #4]
 8001996:	2201      	movs	r2, #1
 8001998:	f883 203d 	strb.w	r2, [r3, #61]	; 0x3d

  return HAL_OK;
 800199c:	2300      	movs	r3, #0
}
 800199e:	4618      	mov	r0, r3
 80019a0:	3708      	adds	r7, #8
 80019a2:	46bd      	mov	sp, r7
 80019a4:	bd80      	pop	{r7, pc}
	...

080019a8 <HAL_TIM_Base_Start_IT>:
  * @brief  Starts the TIM Base generation in interrupt mode.
  * @param  htim TIM Base handle
  * @retval HAL status
  */
HAL_StatusTypeDef HAL_TIM_Base_Start_IT(TIM_HandleTypeDef *htim)
{
 80019a8:	b480      	push	{r7}
 80019aa:	b085      	sub	sp, #20
 80019ac:	af00      	add	r7, sp, #0
 80019ae:	6078      	str	r0, [r7, #4]

  /* Check the parameters */
  assert_param(IS_TIM_INSTANCE(htim->Instance));

  /* Check the TIM state */
  if (htim->State != HAL_TIM_STATE_READY)
 80019b0:	687b      	ldr	r3, [r7, #4]
 80019b2:	f893 303d 	ldrb.w	r3, [r3, #61]	; 0x3d
 80019b6:	b2db      	uxtb	r3, r3
 80019b8:	2b01      	cmp	r3, #1
 80019ba:	d001      	beq.n	80019c0 <HAL_TIM_Base_Start_IT+0x18>
  {
    return HAL_ERROR;
 80019bc:	2301      	movs	r3, #1
 80019be:	e040      	b.n	8001a42 <HAL_TIM_Base_Start_IT+0x9a>
  }

  /* Set the TIM state */
  htim->State = HAL_TIM_STATE_BUSY;
 80019c0:	687b      	ldr	r3, [r7, #4]
 80019c2:	2202      	movs	r2, #2
 80019c4:	f883 203d 	strb.w	r2, [r3, #61]	; 0x3d

  /* Enable the TIM Update interrupt */
  __HAL_TIM_ENABLE_IT(htim, TIM_IT_UPDATE);
 80019c8:	687b      	ldr	r3, [r7, #4]
 80019ca:	681b      	ldr	r3, [r3, #0]
 80019cc:	68da      	ldr	r2, [r3, #12]
 80019ce:	687b      	ldr	r3, [r7, #4]
 80019d0:	681b      	ldr	r3, [r3, #0]
 80019d2:	f042 0201 	orr.w	r2, r2, #1
 80019d6:	60da      	str	r2, [r3, #12]

  /* Enable the Peripheral, except in trigger mode where enable is automatically done with trigger */
  if (IS_TIM_SLAVE_INSTANCE(htim->Instance))
 80019d8:	687b      	ldr	r3, [r7, #4]
 80019da:	681b      	ldr	r3, [r3, #0]
 80019dc:	4a1c      	ldr	r2, [pc, #112]	; (8001a50 <HAL_TIM_Base_Start_IT+0xa8>)
 80019de:	4293      	cmp	r3, r2
 80019e0:	d00e      	beq.n	8001a00 <HAL_TIM_Base_Start_IT+0x58>
 80019e2:	687b      	ldr	r3, [r7, #4]
 80019e4:	681b      	ldr	r3, [r3, #0]
 80019e6:	f1b3 4f80 	cmp.w	r3, #1073741824	; 0x40000000
 80019ea:	d009      	beq.n	8001a00 <HAL_TIM_Base_Start_IT+0x58>
 80019ec:	687b      	ldr	r3, [r7, #4]
 80019ee:	681b      	ldr	r3, [r3, #0]
 80019f0:	4a18      	ldr	r2, [pc, #96]	; (8001a54 <HAL_TIM_Base_Start_IT+0xac>)
 80019f2:	4293      	cmp	r3, r2
 80019f4:	d004      	beq.n	8001a00 <HAL_TIM_Base_Start_IT+0x58>
 80019f6:	687b      	ldr	r3, [r7, #4]
 80019f8:	681b      	ldr	r3, [r3, #0]
 80019fa:	4a17      	ldr	r2, [pc, #92]	; (8001a58 <HAL_TIM_Base_Start_IT+0xb0>)
 80019fc:	4293      	cmp	r3, r2
 80019fe:	d115      	bne.n	8001a2c <HAL_TIM_Base_Start_IT+0x84>
  {
    tmpsmcr = htim->Instance->SMCR & TIM_SMCR_SMS;
 8001a00:	687b      	ldr	r3, [r7, #4]
 8001a02:	681b      	ldr	r3, [r3, #0]
 8001a04:	689a      	ldr	r2, [r3, #8]
 8001a06:	4b15      	ldr	r3, [pc, #84]	; (8001a5c <HAL_TIM_Base_Start_IT+0xb4>)
 8001a08:	4013      	ands	r3, r2
 8001a0a:	60fb      	str	r3, [r7, #12]
    if (!IS_TIM_SLAVEMODE_TRIGGER_ENABLED(tmpsmcr))
 8001a0c:	68fb      	ldr	r3, [r7, #12]
 8001a0e:	2b06      	cmp	r3, #6
 8001a10:	d015      	beq.n	8001a3e <HAL_TIM_Base_Start_IT+0x96>
 8001a12:	68fb      	ldr	r3, [r7, #12]
 8001a14:	f5b3 3f80 	cmp.w	r3, #65536	; 0x10000
 8001a18:	d011      	beq.n	8001a3e <HAL_TIM_Base_Start_IT+0x96>
    {
      __HAL_TIM_ENABLE(htim);
 8001a1a:	687b      	ldr	r3, [r7, #4]
 8001a1c:	681b      	ldr	r3, [r3, #0]
 8001a1e:	681a      	ldr	r2, [r3, #0]
 8001a20:	687b      	ldr	r3, [r7, #4]
 8001a22:	681b      	ldr	r3, [r3, #0]
 8001a24:	f042 0201 	orr.w	r2, r2, #1
 8001a28:	601a      	str	r2, [r3, #0]
    if (!IS_TIM_SLAVEMODE_TRIGGER_ENABLED(tmpsmcr))
 8001a2a:	e008      	b.n	8001a3e <HAL_TIM_Base_Start_IT+0x96>
    }
  }
  else
  {
    __HAL_TIM_ENABLE(htim);
 8001a2c:	687b      	ldr	r3, [r7, #4]
 8001a2e:	681b      	ldr	r3, [r3, #0]
 8001a30:	681a      	ldr	r2, [r3, #0]
 8001a32:	687b      	ldr	r3, [r7, #4]
 8001a34:	681b      	ldr	r3, [r3, #0]
 8001a36:	f042 0201 	orr.w	r2, r2, #1
 8001a3a:	601a      	str	r2, [r3, #0]
 8001a3c:	e000      	b.n	8001a40 <HAL_TIM_Base_Start_IT+0x98>
    if (!IS_TIM_SLAVEMODE_TRIGGER_ENABLED(tmpsmcr))
 8001a3e:	bf00      	nop
  }

  /* Return function status */
  return HAL_OK;
 8001a40:	2300      	movs	r3, #0
}
 8001a42:	4618      	mov	r0, r3
 8001a44:	3714      	adds	r7, #20
 8001a46:	46bd      	mov	sp, r7
 8001a48:	f85d 7b04 	ldr.w	r7, [sp], #4
 8001a4c:	4770      	bx	lr
 8001a4e:	bf00      	nop
 8001a50:	40012c00 	.word	0x40012c00
 8001a54:	40000400 	.word	0x40000400
 8001a58:	40014000 	.word	0x40014000
 8001a5c:	00010007 	.word	0x00010007

08001a60 <HAL_TIM_IRQHandler>:
  * @brief  This function handles TIM interrupts requests.
  * @param  htim TIM  handle
  * @retval None
  */
void HAL_TIM_IRQHandler(TIM_HandleTypeDef *htim)
{
 8001a60:	b580      	push	{r7, lr}
 8001a62:	b082      	sub	sp, #8
 8001a64:	af00      	add	r7, sp, #0
 8001a66:	6078      	str	r0, [r7, #4]
  /* Capture compare 1 event */
  if (__HAL_TIM_GET_FLAG(htim, TIM_FLAG_CC1) != RESET)
 8001a68:	687b      	ldr	r3, [r7, #4]
 8001a6a:	681b      	ldr	r3, [r3, #0]
 8001a6c:	691b      	ldr	r3, [r3, #16]
 8001a6e:	f003 0302 	and.w	r3, r3, #2
 8001a72:	2b02      	cmp	r3, #2
 8001a74:	d122      	bne.n	8001abc <HAL_TIM_IRQHandler+0x5c>
  {
    if (__HAL_TIM_GET_IT_SOURCE(htim, TIM_IT_CC1) != RESET)
 8001a76:	687b      	ldr	r3, [r7, #4]
 8001a78:	681b      	ldr	r3, [r3, #0]
 8001a7a:	68db      	ldr	r3, [r3, #12]
 8001a7c:	f003 0302 	and.w	r3, r3, #2
 8001a80:	2b02      	cmp	r3, #2
 8001a82:	d11b      	bne.n	8001abc <HAL_TIM_IRQHandler+0x5c>
    {
      {
        __HAL_TIM_CLEAR_IT(htim, TIM_IT_CC1);
 8001a84:	687b      	ldr	r3, [r7, #4]
 8001a86:	681b      	ldr	r3, [r3, #0]
 8001a88:	f06f 0202 	mvn.w	r2, #2
 8001a8c:	611a      	str	r2, [r3, #16]
        htim->Channel = HAL_TIM_ACTIVE_CHANNEL_1;
 8001a8e:	687b      	ldr	r3, [r7, #4]
 8001a90:	2201      	movs	r2, #1
 8001a92:	771a      	strb	r2, [r3, #28]

        /* Input capture event */
        if ((htim->Instance->CCMR1 & TIM_CCMR1_CC1S) != 0x00U)
 8001a94:	687b      	ldr	r3, [r7, #4]
 8001a96:	681b      	ldr	r3, [r3, #0]
 8001a98:	699b      	ldr	r3, [r3, #24]
 8001a9a:	f003 0303 	and.w	r3, r3, #3
 8001a9e:	2b00      	cmp	r3, #0
 8001aa0:	d003      	beq.n	8001aaa <HAL_TIM_IRQHandler+0x4a>
        {
#if (USE_HAL_TIM_REGISTER_CALLBACKS == 1)
          htim->IC_CaptureCallback(htim);
#else
          HAL_TIM_IC_CaptureCallback(htim);
 8001aa2:	6878      	ldr	r0, [r7, #4]
 8001aa4:	f000 f9ce 	bl	8001e44 <HAL_TIM_IC_CaptureCallback>
 8001aa8:	e005      	b.n	8001ab6 <HAL_TIM_IRQHandler+0x56>
        {
#if (USE_HAL_TIM_REGISTER_CALLBACKS == 1)
          htim->OC_DelayElapsedCallback(htim);
          htim->PWM_PulseFinishedCallback(htim);
#else
          HAL_TIM_OC_DelayElapsedCallback(htim);
 8001aaa:	6878      	ldr	r0, [r7, #4]
 8001aac:	f000 f9c0 	bl	8001e30 <HAL_TIM_OC_DelayElapsedCallback>
          HAL_TIM_PWM_PulseFinishedCallback(htim);
 8001ab0:	6878      	ldr	r0, [r7, #4]
 8001ab2:	f000 f9d1 	bl	8001e58 <HAL_TIM_PWM_PulseFinishedCallback>
#endif /* USE_HAL_TIM_REGISTER_CALLBACKS */
        }
        htim->Channel = HAL_TIM_ACTIVE_CHANNEL_CLEARED;
 8001ab6:	687b      	ldr	r3, [r7, #4]
 8001ab8:	2200      	movs	r2, #0
 8001aba:	771a      	strb	r2, [r3, #28]
      }
    }
  }
  /* Capture compare 2 event */
  if (__HAL_TIM_GET_FLAG(htim, TIM_FLAG_CC2) != RESET)
 8001abc:	687b      	ldr	r3, [r7, #4]
 8001abe:	681b      	ldr	r3, [r3, #0]
 8001ac0:	691b      	ldr	r3, [r3, #16]
 8001ac2:	f003 0304 	and.w	r3, r3, #4
 8001ac6:	2b04      	cmp	r3, #4
 8001ac8:	d122      	bne.n	8001b10 <HAL_TIM_IRQHandler+0xb0>
  {
    if (__HAL_TIM_GET_IT_SOURCE(htim, TIM_IT_CC2) != RESET)
 8001aca:	687b      	ldr	r3, [r7, #4]
 8001acc:	681b      	ldr	r3, [r3, #0]
 8001ace:	68db      	ldr	r3, [r3, #12]
 8001ad0:	f003 0304 	and.w	r3, r3, #4
 8001ad4:	2b04      	cmp	r3, #4
 8001ad6:	d11b      	bne.n	8001b10 <HAL_TIM_IRQHandler+0xb0>
    {
      __HAL_TIM_CLEAR_IT(htim, TIM_IT_CC2);
 8001ad8:	687b      	ldr	r3, [r7, #4]
 8001ada:	681b      	ldr	r3, [r3, #0]
 8001adc:	f06f 0204 	mvn.w	r2, #4
 8001ae0:	611a      	str	r2, [r3, #16]
      htim->Channel = HAL_TIM_ACTIVE_CHANNEL_2;
 8001ae2:	687b      	ldr	r3, [r7, #4]
 8001ae4:	2202      	movs	r2, #2
 8001ae6:	771a      	strb	r2, [r3, #28]
      /* Input capture event */
      if ((htim->Instance->CCMR1 & TIM_CCMR1_CC2S) != 0x00U)
 8001ae8:	687b      	ldr	r3, [r7, #4]
 8001aea:	681b      	ldr	r3, [r3, #0]
 8001aec:	699b      	ldr	r3, [r3, #24]
 8001aee:	f403 7340 	and.w	r3, r3, #768	; 0x300
 8001af2:	2b00      	cmp	r3, #0
 8001af4:	d003      	beq.n	8001afe <HAL_TIM_IRQHandler+0x9e>
      {
#if (USE_HAL_TIM_REGISTER_CALLBACKS == 1)
        htim->IC_CaptureCallback(htim);
#else
        HAL_TIM_IC_CaptureCallback(htim);
 8001af6:	6878      	ldr	r0, [r7, #4]
 8001af8:	f000 f9a4 	bl	8001e44 <HAL_TIM_IC_CaptureCallback>
 8001afc:	e005      	b.n	8001b0a <HAL_TIM_IRQHandler+0xaa>
      {
#if (USE_HAL_TIM_REGISTER_CALLBACKS == 1)
        htim->OC_DelayElapsedCallback(htim);
        htim->PWM_PulseFinishedCallback(htim);
#else
        HAL_TIM_OC_DelayElapsedCallback(htim);
 8001afe:	6878      	ldr	r0, [r7, #4]
 8001b00:	f000 f996 	bl	8001e30 <HAL_TIM_OC_DelayElapsedCallback>
        HAL_TIM_PWM_PulseFinishedCallback(htim);
 8001b04:	6878      	ldr	r0, [r7, #4]
 8001b06:	f000 f9a7 	bl	8001e58 <HAL_TIM_PWM_PulseFinishedCallback>
#endif /* USE_HAL_TIM_REGISTER_CALLBACKS */
      }
      htim->Channel = HAL_TIM_ACTIVE_CHANNEL_CLEARED;
 8001b0a:	687b      	ldr	r3, [r7, #4]
 8001b0c:	2200      	movs	r2, #0
 8001b0e:	771a      	strb	r2, [r3, #28]
    }
  }
  /* Capture compare 3 event */
  if (__HAL_TIM_GET_FLAG(htim, TIM_FLAG_CC3) != RESET)
 8001b10:	687b      	ldr	r3, [r7, #4]
 8001b12:	681b      	ldr	r3, [r3, #0]
 8001b14:	691b      	ldr	r3, [r3, #16]
 8001b16:	f003 0308 	and.w	r3, r3, #8
 8001b1a:	2b08      	cmp	r3, #8
 8001b1c:	d122      	bne.n	8001b64 <HAL_TIM_IRQHandler+0x104>
  {
    if (__HAL_TIM_GET_IT_SOURCE(htim, TIM_IT_CC3) != RESET)
 8001b1e:	687b      	ldr	r3, [r7, #4]
 8001b20:	681b      	ldr	r3, [r3, #0]
 8001b22:	68db      	ldr	r3, [r3, #12]
 8001b24:	f003 0308 	and.w	r3, r3, #8
 8001b28:	2b08      	cmp	r3, #8
 8001b2a:	d11b      	bne.n	8001b64 <HAL_TIM_IRQHandler+0x104>
    {
      __HAL_TIM_CLEAR_IT(htim, TIM_IT_CC3);
 8001b2c:	687b      	ldr	r3, [r7, #4]
 8001b2e:	681b      	ldr	r3, [r3, #0]
 8001b30:	f06f 0208 	mvn.w	r2, #8
 8001b34:	611a      	str	r2, [r3, #16]
      htim->Channel = HAL_TIM_ACTIVE_CHANNEL_3;
 8001b36:	687b      	ldr	r3, [r7, #4]
 8001b38:	2204      	movs	r2, #4
 8001b3a:	771a      	strb	r2, [r3, #28]
      /* Input capture event */
      if ((htim->Instance->CCMR2 & TIM_CCMR2_CC3S) != 0x00U)
 8001b3c:	687b      	ldr	r3, [r7, #4]
 8001b3e:	681b      	ldr	r3, [r3, #0]
 8001b40:	69db      	ldr	r3, [r3, #28]
 8001b42:	f003 0303 	and.w	r3, r3, #3
 8001b46:	2b00      	cmp	r3, #0
 8001b48:	d003      	beq.n	8001b52 <HAL_TIM_IRQHandler+0xf2>
      {
#if (USE_HAL_TIM_REGISTER_CALLBACKS == 1)
        htim->IC_CaptureCallback(htim);
#else
        HAL_TIM_IC_CaptureCallback(htim);
 8001b4a:	6878      	ldr	r0, [r7, #4]
 8001b4c:	f000 f97a 	bl	8001e44 <HAL_TIM_IC_CaptureCallback>
 8001b50:	e005      	b.n	8001b5e <HAL_TIM_IRQHandler+0xfe>
      {
#if (USE_HAL_TIM_REGISTER_CALLBACKS == 1)
        htim->OC_DelayElapsedCallback(htim);
        htim->PWM_PulseFinishedCallback(htim);
#else
        HAL_TIM_OC_DelayElapsedCallback(htim);
 8001b52:	6878      	ldr	r0, [r7, #4]
 8001b54:	f000 f96c 	bl	8001e30 <HAL_TIM_OC_DelayElapsedCallback>
        HAL_TIM_PWM_PulseFinishedCallback(htim);
 8001b58:	6878      	ldr	r0, [r7, #4]
 8001b5a:	f000 f97d 	bl	8001e58 <HAL_TIM_PWM_PulseFinishedCallback>
#endif /* USE_HAL_TIM_REGISTER_CALLBACKS */
      }
      htim->Channel = HAL_TIM_ACTIVE_CHANNEL_CLEARED;
 8001b5e:	687b      	ldr	r3, [r7, #4]
 8001b60:	2200      	movs	r2, #0
 8001b62:	771a      	strb	r2, [r3, #28]
    }
  }
  /* Capture compare 4 event */
  if (__HAL_TIM_GET_FLAG(htim, TIM_FLAG_CC4) != RESET)
 8001b64:	687b      	ldr	r3, [r7, #4]
 8001b66:	681b      	ldr	r3, [r3, #0]
 8001b68:	691b      	ldr	r3, [r3, #16]
 8001b6a:	f003 0310 	and.w	r3, r3, #16
 8001b6e:	2b10      	cmp	r3, #16
 8001b70:	d122      	bne.n	8001bb8 <HAL_TIM_IRQHandler+0x158>
  {
    if (__HAL_TIM_GET_IT_SOURCE(htim, TIM_IT_CC4) != RESET)
 8001b72:	687b      	ldr	r3, [r7, #4]
 8001b74:	681b      	ldr	r3, [r3, #0]
 8001b76:	68db      	ldr	r3, [r3, #12]
 8001b78:	f003 0310 	and.w	r3, r3, #16
 8001b7c:	2b10      	cmp	r3, #16
 8001b7e:	d11b      	bne.n	8001bb8 <HAL_TIM_IRQHandler+0x158>
    {
      __HAL_TIM_CLEAR_IT(htim, TIM_IT_CC4);
 8001b80:	687b      	ldr	r3, [r7, #4]
 8001b82:	681b      	ldr	r3, [r3, #0]
 8001b84:	f06f 0210 	mvn.w	r2, #16
 8001b88:	611a      	str	r2, [r3, #16]
      htim->Channel = HAL_TIM_ACTIVE_CHANNEL_4;
 8001b8a:	687b      	ldr	r3, [r7, #4]
 8001b8c:	2208      	movs	r2, #8
 8001b8e:	771a      	strb	r2, [r3, #28]
      /* Input capture event */
      if ((htim->Instance->CCMR2 & TIM_CCMR2_CC4S) != 0x00U)
 8001b90:	687b      	ldr	r3, [r7, #4]
 8001b92:	681b      	ldr	r3, [r3, #0]
 8001b94:	69db      	ldr	r3, [r3, #28]
 8001b96:	f403 7340 	and.w	r3, r3, #768	; 0x300
 8001b9a:	2b00      	cmp	r3, #0
 8001b9c:	d003      	beq.n	8001ba6 <HAL_TIM_IRQHandler+0x146>
      {
#if (USE_HAL_TIM_REGISTER_CALLBACKS == 1)
        htim->IC_CaptureCallback(htim);
#else
        HAL_TIM_IC_CaptureCallback(htim);
 8001b9e:	6878      	ldr	r0, [r7, #4]
 8001ba0:	f000 f950 	bl	8001e44 <HAL_TIM_IC_CaptureCallback>
 8001ba4:	e005      	b.n	8001bb2 <HAL_TIM_IRQHandler+0x152>
      {
#if (USE_HAL_TIM_REGISTER_CALLBACKS == 1)
        htim->OC_DelayElapsedCallback(htim);
        htim->PWM_PulseFinishedCallback(htim);
#else
        HAL_TIM_OC_DelayElapsedCallback(htim);
 8001ba6:	6878      	ldr	r0, [r7, #4]
 8001ba8:	f000 f942 	bl	8001e30 <HAL_TIM_OC_DelayElapsedCallback>
        HAL_TIM_PWM_PulseFinishedCallback(htim);
 8001bac:	6878      	ldr	r0, [r7, #4]
 8001bae:	f000 f953 	bl	8001e58 <HAL_TIM_PWM_PulseFinishedCallback>
#endif /* USE_HAL_TIM_REGISTER_CALLBACKS */
      }
      htim->Channel = HAL_TIM_ACTIVE_CHANNEL_CLEARED;
 8001bb2:	687b      	ldr	r3, [r7, #4]
 8001bb4:	2200      	movs	r2, #0
 8001bb6:	771a      	strb	r2, [r3, #28]
    }
  }
  /* TIM Update event */
  if (__HAL_TIM_GET_FLAG(htim, TIM_FLAG_UPDATE) != RESET)
 8001bb8:	687b      	ldr	r3, [r7, #4]
 8001bba:	681b      	ldr	r3, [r3, #0]
 8001bbc:	691b      	ldr	r3, [r3, #16]
 8001bbe:	f003 0301 	and.w	r3, r3, #1
 8001bc2:	2b01      	cmp	r3, #1
 8001bc4:	d10e      	bne.n	8001be4 <HAL_TIM_IRQHandler+0x184>
  {
    if (__HAL_TIM_GET_IT_SOURCE(htim, TIM_IT_UPDATE) != RESET)
 8001bc6:	687b      	ldr	r3, [r7, #4]
 8001bc8:	681b      	ldr	r3, [r3, #0]
 8001bca:	68db      	ldr	r3, [r3, #12]
 8001bcc:	f003 0301 	and.w	r3, r3, #1
 8001bd0:	2b01      	cmp	r3, #1
 8001bd2:	d107      	bne.n	8001be4 <HAL_TIM_IRQHandler+0x184>
    {
      __HAL_TIM_CLEAR_IT(htim, TIM_IT_UPDATE);
 8001bd4:	687b      	ldr	r3, [r7, #4]
 8001bd6:	681b      	ldr	r3, [r3, #0]
 8001bd8:	f06f 0201 	mvn.w	r2, #1
 8001bdc:	611a      	str	r2, [r3, #16]
#if (USE_HAL_TIM_REGISTER_CALLBACKS == 1)
      htim->PeriodElapsedCallback(htim);
#else
      HAL_TIM_PeriodElapsedCallback(htim);
 8001bde:	6878      	ldr	r0, [r7, #4]
 8001be0:	f7fe faf8 	bl	80001d4 <HAL_TIM_PeriodElapsedCallback>
#endif /* USE_HAL_TIM_REGISTER_CALLBACKS */
    }
  }
  /* TIM Break input event */
  if (__HAL_TIM_GET_FLAG(htim, TIM_FLAG_BREAK) != RESET)
 8001be4:	687b      	ldr	r3, [r7, #4]
 8001be6:	681b      	ldr	r3, [r3, #0]
 8001be8:	691b      	ldr	r3, [r3, #16]
 8001bea:	f003 0380 	and.w	r3, r3, #128	; 0x80
 8001bee:	2b80      	cmp	r3, #128	; 0x80
 8001bf0:	d10e      	bne.n	8001c10 <HAL_TIM_IRQHandler+0x1b0>
  {
    if (__HAL_TIM_GET_IT_SOURCE(htim, TIM_IT_BREAK) != RESET)
 8001bf2:	687b      	ldr	r3, [r7, #4]
 8001bf4:	681b      	ldr	r3, [r3, #0]
 8001bf6:	68db      	ldr	r3, [r3, #12]
 8001bf8:	f003 0380 	and.w	r3, r3, #128	; 0x80
 8001bfc:	2b80      	cmp	r3, #128	; 0x80
 8001bfe:	d107      	bne.n	8001c10 <HAL_TIM_IRQHandler+0x1b0>
    {
      __HAL_TIM_CLEAR_IT(htim, TIM_IT_BREAK);
 8001c00:	687b      	ldr	r3, [r7, #4]
 8001c02:	681b      	ldr	r3, [r3, #0]
 8001c04:	f06f 0280 	mvn.w	r2, #128	; 0x80
 8001c08:	611a      	str	r2, [r3, #16]
#if (USE_HAL_TIM_REGISTER_CALLBACKS == 1)
      htim->BreakCallback(htim);
#else
      HAL_TIMEx_BreakCallback(htim);
 8001c0a:	6878      	ldr	r0, [r7, #4]
 8001c0c:	f000 fab8 	bl	8002180 <HAL_TIMEx_BreakCallback>
#endif /* USE_HAL_TIM_REGISTER_CALLBACKS */
    }
  }
  /* TIM Break2 input event */
  if (__HAL_TIM_GET_FLAG(htim, TIM_FLAG_BREAK2) != RESET)
 8001c10:	687b      	ldr	r3, [r7, #4]
 8001c12:	681b      	ldr	r3, [r3, #0]
 8001c14:	691b      	ldr	r3, [r3, #16]
 8001c16:	f403 7380 	and.w	r3, r3, #256	; 0x100
 8001c1a:	f5b3 7f80 	cmp.w	r3, #256	; 0x100
 8001c1e:	d10e      	bne.n	8001c3e <HAL_TIM_IRQHandler+0x1de>
  {
    if (__HAL_TIM_GET_IT_SOURCE(htim, TIM_IT_BREAK) != RESET)
 8001c20:	687b      	ldr	r3, [r7, #4]
 8001c22:	681b      	ldr	r3, [r3, #0]
 8001c24:	68db      	ldr	r3, [r3, #12]
 8001c26:	f003 0380 	and.w	r3, r3, #128	; 0x80
 8001c2a:	2b80      	cmp	r3, #128	; 0x80
 8001c2c:	d107      	bne.n	8001c3e <HAL_TIM_IRQHandler+0x1de>
    {
      __HAL_TIM_CLEAR_FLAG(htim, TIM_FLAG_BREAK2);
 8001c2e:	687b      	ldr	r3, [r7, #4]
 8001c30:	681b      	ldr	r3, [r3, #0]
 8001c32:	f46f 7280 	mvn.w	r2, #256	; 0x100
 8001c36:	611a      	str	r2, [r3, #16]
#if (USE_HAL_TIM_REGISTER_CALLBACKS == 1)
      htim->Break2Callback(htim);
#else
      HAL_TIMEx_Break2Callback(htim);
 8001c38:	6878      	ldr	r0, [r7, #4]
 8001c3a:	f000 faab 	bl	8002194 <HAL_TIMEx_Break2Callback>
#endif /* USE_HAL_TIM_REGISTER_CALLBACKS */
    }
  }
  /* TIM Trigger detection event */
  if (__HAL_TIM_GET_FLAG(htim, TIM_FLAG_TRIGGER) != RESET)
 8001c3e:	687b      	ldr	r3, [r7, #4]
 8001c40:	681b      	ldr	r3, [r3, #0]
 8001c42:	691b      	ldr	r3, [r3, #16]
 8001c44:	f003 0340 	and.w	r3, r3, #64	; 0x40
 8001c48:	2b40      	cmp	r3, #64	; 0x40
 8001c4a:	d10e      	bne.n	8001c6a <HAL_TIM_IRQHandler+0x20a>
  {
    if (__HAL_TIM_GET_IT_SOURCE(htim, TIM_IT_TRIGGER) != RESET)
 8001c4c:	687b      	ldr	r3, [r7, #4]
 8001c4e:	681b      	ldr	r3, [r3, #0]
 8001c50:	68db      	ldr	r3, [r3, #12]
 8001c52:	f003 0340 	and.w	r3, r3, #64	; 0x40
 8001c56:	2b40      	cmp	r3, #64	; 0x40
 8001c58:	d107      	bne.n	8001c6a <HAL_TIM_IRQHandler+0x20a>
    {
      __HAL_TIM_CLEAR_IT(htim, TIM_IT_TRIGGER);
 8001c5a:	687b      	ldr	r3, [r7, #4]
 8001c5c:	681b      	ldr	r3, [r3, #0]
 8001c5e:	f06f 0240 	mvn.w	r2, #64	; 0x40
 8001c62:	611a      	str	r2, [r3, #16]
#if (USE_HAL_TIM_REGISTER_CALLBACKS == 1)
      htim->TriggerCallback(htim);
#else
      HAL_TIM_TriggerCallback(htim);
 8001c64:	6878      	ldr	r0, [r7, #4]
 8001c66:	f000 f901 	bl	8001e6c <HAL_TIM_TriggerCallback>
#endif /* USE_HAL_TIM_REGISTER_CALLBACKS */
    }
  }
  /* TIM commutation event */
  if (__HAL_TIM_GET_FLAG(htim, TIM_FLAG_COM) != RESET)
 8001c6a:	687b      	ldr	r3, [r7, #4]
 8001c6c:	681b      	ldr	r3, [r3, #0]
 8001c6e:	691b      	ldr	r3, [r3, #16]
 8001c70:	f003 0320 	and.w	r3, r3, #32
 8001c74:	2b20      	cmp	r3, #32
 8001c76:	d10e      	bne.n	8001c96 <HAL_TIM_IRQHandler+0x236>
  {
    if (__HAL_TIM_GET_IT_SOURCE(htim, TIM_IT_COM) != RESET)
 8001c78:	687b      	ldr	r3, [r7, #4]
 8001c7a:	681b      	ldr	r3, [r3, #0]
 8001c7c:	68db      	ldr	r3, [r3, #12]
 8001c7e:	f003 0320 	and.w	r3, r3, #32
 8001c82:	2b20      	cmp	r3, #32
 8001c84:	d107      	bne.n	8001c96 <HAL_TIM_IRQHandler+0x236>
    {
      __HAL_TIM_CLEAR_IT(htim, TIM_FLAG_COM);
 8001c86:	687b      	ldr	r3, [r7, #4]
 8001c88:	681b      	ldr	r3, [r3, #0]
 8001c8a:	f06f 0220 	mvn.w	r2, #32
 8001c8e:	611a      	str	r2, [r3, #16]
#if (USE_HAL_TIM_REGISTER_CALLBACKS == 1)
      htim->CommutationCallback(htim);
#else
      HAL_TIMEx_CommutCallback(htim);
 8001c90:	6878      	ldr	r0, [r7, #4]
 8001c92:	f000 fa6b 	bl	800216c <HAL_TIMEx_CommutCallback>
#endif /* USE_HAL_TIM_REGISTER_CALLBACKS */
    }
  }
}
 8001c96:	bf00      	nop
 8001c98:	3708      	adds	r7, #8
 8001c9a:	46bd      	mov	sp, r7
 8001c9c:	bd80      	pop	{r7, pc}

08001c9e <HAL_TIM_ConfigClockSource>:
  * @param  sClockSourceConfig pointer to a TIM_ClockConfigTypeDef structure that
  *         contains the clock source information for the TIM peripheral.
  * @retval HAL status
  */
HAL_StatusTypeDef HAL_TIM_ConfigClockSource(TIM_HandleTypeDef *htim, const TIM_ClockConfigTypeDef *sClockSourceConfig)
{
 8001c9e:	b580      	push	{r7, lr}
 8001ca0:	b084      	sub	sp, #16
 8001ca2:	af00      	add	r7, sp, #0
 8001ca4:	6078      	str	r0, [r7, #4]
 8001ca6:	6039      	str	r1, [r7, #0]
  HAL_StatusTypeDef status = HAL_OK;
 8001ca8:	2300      	movs	r3, #0
 8001caa:	73fb      	strb	r3, [r7, #15]
  uint32_t tmpsmcr;

  /* Process Locked */
  __HAL_LOCK(htim);
 8001cac:	687b      	ldr	r3, [r7, #4]
 8001cae:	f893 303c 	ldrb.w	r3, [r3, #60]	; 0x3c
 8001cb2:	2b01      	cmp	r3, #1
 8001cb4:	d101      	bne.n	8001cba <HAL_TIM_ConfigClockSource+0x1c>
 8001cb6:	2302      	movs	r3, #2
 8001cb8:	e0b6      	b.n	8001e28 <HAL_TIM_ConfigClockSource+0x18a>
 8001cba:	687b      	ldr	r3, [r7, #4]
 8001cbc:	2201      	movs	r2, #1
 8001cbe:	f883 203c 	strb.w	r2, [r3, #60]	; 0x3c

  htim->State = HAL_TIM_STATE_BUSY;
 8001cc2:	687b      	ldr	r3, [r7, #4]
 8001cc4:	2202      	movs	r2, #2
 8001cc6:	f883 203d 	strb.w	r2, [r3, #61]	; 0x3d

  /* Check the parameters */
  assert_param(IS_TIM_CLOCKSOURCE(sClockSourceConfig->ClockSource));

  /* Reset the SMS, TS, ECE, ETPS and ETRF bits */
  tmpsmcr = htim->Instance->SMCR;
 8001cca:	687b      	ldr	r3, [r7, #4]
 8001ccc:	681b      	ldr	r3, [r3, #0]
 8001cce:	689b      	ldr	r3, [r3, #8]
 8001cd0:	60bb      	str	r3, [r7, #8]
  tmpsmcr &= ~(TIM_SMCR_SMS | TIM_SMCR_TS);
 8001cd2:	68bb      	ldr	r3, [r7, #8]
 8001cd4:	f423 3380 	bic.w	r3, r3, #65536	; 0x10000
 8001cd8:	f023 0377 	bic.w	r3, r3, #119	; 0x77
 8001cdc:	60bb      	str	r3, [r7, #8]
  tmpsmcr &= ~(TIM_SMCR_ETF | TIM_SMCR_ETPS | TIM_SMCR_ECE | TIM_SMCR_ETP);
 8001cde:	68bb      	ldr	r3, [r7, #8]
 8001ce0:	f423 437f 	bic.w	r3, r3, #65280	; 0xff00
 8001ce4:	60bb      	str	r3, [r7, #8]
  htim->Instance->SMCR = tmpsmcr;
 8001ce6:	687b      	ldr	r3, [r7, #4]
 8001ce8:	681b      	ldr	r3, [r3, #0]
 8001cea:	68ba      	ldr	r2, [r7, #8]
 8001cec:	609a      	str	r2, [r3, #8]

  switch (sClockSourceConfig->ClockSource)
 8001cee:	683b      	ldr	r3, [r7, #0]
 8001cf0:	681b      	ldr	r3, [r3, #0]
 8001cf2:	f5b3 5f00 	cmp.w	r3, #8192	; 0x2000
 8001cf6:	d03e      	beq.n	8001d76 <HAL_TIM_ConfigClockSource+0xd8>
 8001cf8:	f5b3 5f00 	cmp.w	r3, #8192	; 0x2000
 8001cfc:	f200 8087 	bhi.w	8001e0e <HAL_TIM_ConfigClockSource+0x170>
 8001d00:	f5b3 5f80 	cmp.w	r3, #4096	; 0x1000
 8001d04:	f000 8086 	beq.w	8001e14 <HAL_TIM_ConfigClockSource+0x176>
 8001d08:	f5b3 5f80 	cmp.w	r3, #4096	; 0x1000
 8001d0c:	d87f      	bhi.n	8001e0e <HAL_TIM_ConfigClockSource+0x170>
 8001d0e:	2b70      	cmp	r3, #112	; 0x70
 8001d10:	d01a      	beq.n	8001d48 <HAL_TIM_ConfigClockSource+0xaa>
 8001d12:	2b70      	cmp	r3, #112	; 0x70
 8001d14:	d87b      	bhi.n	8001e0e <HAL_TIM_ConfigClockSource+0x170>
 8001d16:	2b60      	cmp	r3, #96	; 0x60
 8001d18:	d050      	beq.n	8001dbc <HAL_TIM_ConfigClockSource+0x11e>
 8001d1a:	2b60      	cmp	r3, #96	; 0x60
 8001d1c:	d877      	bhi.n	8001e0e <HAL_TIM_ConfigClockSource+0x170>
 8001d1e:	2b50      	cmp	r3, #80	; 0x50
 8001d20:	d03c      	beq.n	8001d9c <HAL_TIM_ConfigClockSource+0xfe>
 8001d22:	2b50      	cmp	r3, #80	; 0x50
 8001d24:	d873      	bhi.n	8001e0e <HAL_TIM_ConfigClockSource+0x170>
 8001d26:	2b40      	cmp	r3, #64	; 0x40
 8001d28:	d058      	beq.n	8001ddc <HAL_TIM_ConfigClockSource+0x13e>
 8001d2a:	2b40      	cmp	r3, #64	; 0x40
 8001d2c:	d86f      	bhi.n	8001e0e <HAL_TIM_ConfigClockSource+0x170>
 8001d2e:	2b30      	cmp	r3, #48	; 0x30
 8001d30:	d064      	beq.n	8001dfc <HAL_TIM_ConfigClockSource+0x15e>
 8001d32:	2b30      	cmp	r3, #48	; 0x30
 8001d34:	d86b      	bhi.n	8001e0e <HAL_TIM_ConfigClockSource+0x170>
 8001d36:	2b20      	cmp	r3, #32
 8001d38:	d060      	beq.n	8001dfc <HAL_TIM_ConfigClockSource+0x15e>
 8001d3a:	2b20      	cmp	r3, #32
 8001d3c:	d867      	bhi.n	8001e0e <HAL_TIM_ConfigClockSource+0x170>
 8001d3e:	2b00      	cmp	r3, #0
 8001d40:	d05c      	beq.n	8001dfc <HAL_TIM_ConfigClockSource+0x15e>
 8001d42:	2b10      	cmp	r3, #16
 8001d44:	d05a      	beq.n	8001dfc <HAL_TIM_ConfigClockSource+0x15e>
 8001d46:	e062      	b.n	8001e0e <HAL_TIM_ConfigClockSource+0x170>
      assert_param(IS_TIM_CLOCKPRESCALER(sClockSourceConfig->ClockPrescaler));
      assert_param(IS_TIM_CLOCKPOLARITY(sClockSourceConfig->ClockPolarity));
      assert_param(IS_TIM_CLOCKFILTER(sClockSourceConfig->ClockFilter));

      /* Configure the ETR Clock source */
      TIM_ETR_SetConfig(htim->Instance,
 8001d48:	687b      	ldr	r3, [r7, #4]
 8001d4a:	6818      	ldr	r0, [r3, #0]
 8001d4c:	683b      	ldr	r3, [r7, #0]
 8001d4e:	6899      	ldr	r1, [r3, #8]
 8001d50:	683b      	ldr	r3, [r7, #0]
 8001d52:	685a      	ldr	r2, [r3, #4]
 8001d54:	683b      	ldr	r3, [r7, #0]
 8001d56:	68db      	ldr	r3, [r3, #12]
 8001d58:	f000 f97a 	bl	8002050 <TIM_ETR_SetConfig>
                        sClockSourceConfig->ClockPrescaler,
                        sClockSourceConfig->ClockPolarity,
                        sClockSourceConfig->ClockFilter);

      /* Select the External clock mode1 and the ETRF trigger */
      tmpsmcr = htim->Instance->SMCR;
 8001d5c:	687b      	ldr	r3, [r7, #4]
 8001d5e:	681b      	ldr	r3, [r3, #0]
 8001d60:	689b      	ldr	r3, [r3, #8]
 8001d62:	60bb      	str	r3, [r7, #8]
      tmpsmcr |= (TIM_SLAVEMODE_EXTERNAL1 | TIM_CLOCKSOURCE_ETRMODE1);
 8001d64:	68bb      	ldr	r3, [r7, #8]
 8001d66:	f043 0377 	orr.w	r3, r3, #119	; 0x77
 8001d6a:	60bb      	str	r3, [r7, #8]
      /* Write to TIMx SMCR */
      htim->Instance->SMCR = tmpsmcr;
 8001d6c:	687b      	ldr	r3, [r7, #4]
 8001d6e:	681b      	ldr	r3, [r3, #0]
 8001d70:	68ba      	ldr	r2, [r7, #8]
 8001d72:	609a      	str	r2, [r3, #8]
      break;
 8001d74:	e04f      	b.n	8001e16 <HAL_TIM_ConfigClockSource+0x178>
      assert_param(IS_TIM_CLOCKPRESCALER(sClockSourceConfig->ClockPrescaler));
      assert_param(IS_TIM_CLOCKPOLARITY(sClockSourceConfig->ClockPolarity));
      assert_param(IS_TIM_CLOCKFILTER(sClockSourceConfig->ClockFilter));

      /* Configure the ETR Clock source */
      TIM_ETR_SetConfig(htim->Instance,
 8001d76:	687b      	ldr	r3, [r7, #4]
 8001d78:	6818      	ldr	r0, [r3, #0]
 8001d7a:	683b      	ldr	r3, [r7, #0]
 8001d7c:	6899      	ldr	r1, [r3, #8]
 8001d7e:	683b      	ldr	r3, [r7, #0]
 8001d80:	685a      	ldr	r2, [r3, #4]
 8001d82:	683b      	ldr	r3, [r7, #0]
 8001d84:	68db      	ldr	r3, [r3, #12]
 8001d86:	f000 f963 	bl	8002050 <TIM_ETR_SetConfig>
                        sClockSourceConfig->ClockPrescaler,
                        sClockSourceConfig->ClockPolarity,
                        sClockSourceConfig->ClockFilter);
      /* Enable the External clock mode2 */
      htim->Instance->SMCR |= TIM_SMCR_ECE;
 8001d8a:	687b      	ldr	r3, [r7, #4]
 8001d8c:	681b      	ldr	r3, [r3, #0]
 8001d8e:	689a      	ldr	r2, [r3, #8]
 8001d90:	687b      	ldr	r3, [r7, #4]
 8001d92:	681b      	ldr	r3, [r3, #0]
 8001d94:	f442 4280 	orr.w	r2, r2, #16384	; 0x4000
 8001d98:	609a      	str	r2, [r3, #8]
      break;
 8001d9a:	e03c      	b.n	8001e16 <HAL_TIM_ConfigClockSource+0x178>

      /* Check TI1 input conditioning related parameters */
      assert_param(IS_TIM_CLOCKPOLARITY(sClockSourceConfig->ClockPolarity));
      assert_param(IS_TIM_CLOCKFILTER(sClockSourceConfig->ClockFilter));

      TIM_TI1_ConfigInputStage(htim->Instance,
 8001d9c:	687b      	ldr	r3, [r7, #4]
 8001d9e:	6818      	ldr	r0, [r3, #0]
 8001da0:	683b      	ldr	r3, [r7, #0]
 8001da2:	6859      	ldr	r1, [r3, #4]
 8001da4:	683b      	ldr	r3, [r7, #0]
 8001da6:	68db      	ldr	r3, [r3, #12]
 8001da8:	461a      	mov	r2, r3
 8001daa:	f000 f8d7 	bl	8001f5c <TIM_TI1_ConfigInputStage>
                               sClockSourceConfig->ClockPolarity,
                               sClockSourceConfig->ClockFilter);
      TIM_ITRx_SetConfig(htim->Instance, TIM_CLOCKSOURCE_TI1);
 8001dae:	687b      	ldr	r3, [r7, #4]
 8001db0:	681b      	ldr	r3, [r3, #0]
 8001db2:	2150      	movs	r1, #80	; 0x50
 8001db4:	4618      	mov	r0, r3
 8001db6:	f000 f930 	bl	800201a <TIM_ITRx_SetConfig>
      break;
 8001dba:	e02c      	b.n	8001e16 <HAL_TIM_ConfigClockSource+0x178>

      /* Check TI2 input conditioning related parameters */
      assert_param(IS_TIM_CLOCKPOLARITY(sClockSourceConfig->ClockPolarity));
      assert_param(IS_TIM_CLOCKFILTER(sClockSourceConfig->ClockFilter));

      TIM_TI2_ConfigInputStage(htim->Instance,
 8001dbc:	687b      	ldr	r3, [r7, #4]
 8001dbe:	6818      	ldr	r0, [r3, #0]
 8001dc0:	683b      	ldr	r3, [r7, #0]
 8001dc2:	6859      	ldr	r1, [r3, #4]
 8001dc4:	683b      	ldr	r3, [r7, #0]
 8001dc6:	68db      	ldr	r3, [r3, #12]
 8001dc8:	461a      	mov	r2, r3
 8001dca:	f000 f8f6 	bl	8001fba <TIM_TI2_ConfigInputStage>
                               sClockSourceConfig->ClockPolarity,
                               sClockSourceConfig->ClockFilter);
      TIM_ITRx_SetConfig(htim->Instance, TIM_CLOCKSOURCE_TI2);
 8001dce:	687b      	ldr	r3, [r7, #4]
 8001dd0:	681b      	ldr	r3, [r3, #0]
 8001dd2:	2160      	movs	r1, #96	; 0x60
 8001dd4:	4618      	mov	r0, r3
 8001dd6:	f000 f920 	bl	800201a <TIM_ITRx_SetConfig>
      break;
 8001dda:	e01c      	b.n	8001e16 <HAL_TIM_ConfigClockSource+0x178>

      /* Check TI1 input conditioning related parameters */
      assert_param(IS_TIM_CLOCKPOLARITY(sClockSourceConfig->ClockPolarity));
      assert_param(IS_TIM_CLOCKFILTER(sClockSourceConfig->ClockFilter));

      TIM_TI1_ConfigInputStage(htim->Instance,
 8001ddc:	687b      	ldr	r3, [r7, #4]
 8001dde:	6818      	ldr	r0, [r3, #0]
 8001de0:	683b      	ldr	r3, [r7, #0]
 8001de2:	6859      	ldr	r1, [r3, #4]
 8001de4:	683b      	ldr	r3, [r7, #0]
 8001de6:	68db      	ldr	r3, [r3, #12]
 8001de8:	461a      	mov	r2, r3
 8001dea:	f000 f8b7 	bl	8001f5c <TIM_TI1_ConfigInputStage>
                               sClockSourceConfig->ClockPolarity,
                               sClockSourceConfig->ClockFilter);
      TIM_ITRx_SetConfig(htim->Instance, TIM_CLOCKSOURCE_TI1ED);
 8001dee:	687b      	ldr	r3, [r7, #4]
 8001df0:	681b      	ldr	r3, [r3, #0]
 8001df2:	2140      	movs	r1, #64	; 0x40
 8001df4:	4618      	mov	r0, r3
 8001df6:	f000 f910 	bl	800201a <TIM_ITRx_SetConfig>
      break;
 8001dfa:	e00c      	b.n	8001e16 <HAL_TIM_ConfigClockSource+0x178>
    case TIM_CLOCKSOURCE_ITR3:
    {
      /* Check whether or not the timer instance supports internal trigger input */
      assert_param(IS_TIM_CLOCKSOURCE_ITRX_INSTANCE(htim->Instance));

      TIM_ITRx_SetConfig(htim->Instance, sClockSourceConfig->ClockSource);
 8001dfc:	687b      	ldr	r3, [r7, #4]
 8001dfe:	681a      	ldr	r2, [r3, #0]
 8001e00:	683b      	ldr	r3, [r7, #0]
 8001e02:	681b      	ldr	r3, [r3, #0]
 8001e04:	4619      	mov	r1, r3
 8001e06:	4610      	mov	r0, r2
 8001e08:	f000 f907 	bl	800201a <TIM_ITRx_SetConfig>
      break;
 8001e0c:	e003      	b.n	8001e16 <HAL_TIM_ConfigClockSource+0x178>
    }

    default:
      status = HAL_ERROR;
 8001e0e:	2301      	movs	r3, #1
 8001e10:	73fb      	strb	r3, [r7, #15]
      break;
 8001e12:	e000      	b.n	8001e16 <HAL_TIM_ConfigClockSource+0x178>
      break;
 8001e14:	bf00      	nop
  }
  htim->State = HAL_TIM_STATE_READY;
 8001e16:	687b      	ldr	r3, [r7, #4]
 8001e18:	2201      	movs	r2, #1
 8001e1a:	f883 203d 	strb.w	r2, [r3, #61]	; 0x3d

  __HAL_UNLOCK(htim);
 8001e1e:	687b      	ldr	r3, [r7, #4]
 8001e20:	2200      	movs	r2, #0
 8001e22:	f883 203c 	strb.w	r2, [r3, #60]	; 0x3c

  return status;
 8001e26:	7bfb      	ldrb	r3, [r7, #15]
}
 8001e28:	4618      	mov	r0, r3
 8001e2a:	3710      	adds	r7, #16
 8001e2c:	46bd      	mov	sp, r7
 8001e2e:	bd80      	pop	{r7, pc}

08001e30 <HAL_TIM_OC_DelayElapsedCallback>:
  * @brief  Output Compare callback in non-blocking mode
  * @param  htim TIM OC handle
  * @retval None
  */
__weak void HAL_TIM_OC_DelayElapsedCallback(TIM_HandleTypeDef *htim)
{
 8001e30:	b480      	push	{r7}
 8001e32:	b083      	sub	sp, #12
 8001e34:	af00      	add	r7, sp, #0
 8001e36:	6078      	str	r0, [r7, #4]
  UNUSED(htim);

  /* NOTE : This function should not be modified, when the callback is needed,
            the HAL_TIM_OC_DelayElapsedCallback could be implemented in the user file
   */
}
 8001e38:	bf00      	nop
 8001e3a:	370c      	adds	r7, #12
 8001e3c:	46bd      	mov	sp, r7
 8001e3e:	f85d 7b04 	ldr.w	r7, [sp], #4
 8001e42:	4770      	bx	lr

08001e44 <HAL_TIM_IC_CaptureCallback>:
  * @brief  Input Capture callback in non-blocking mode
  * @param  htim TIM IC handle
  * @retval None
  */
__weak void HAL_TIM_IC_CaptureCallback(TIM_HandleTypeDef *htim)
{
 8001e44:	b480      	push	{r7}
 8001e46:	b083      	sub	sp, #12
 8001e48:	af00      	add	r7, sp, #0
 8001e4a:	6078      	str	r0, [r7, #4]
  UNUSED(htim);

  /* NOTE : This function should not be modified, when the callback is needed,
            the HAL_TIM_IC_CaptureCallback could be implemented in the user file
   */
}
 8001e4c:	bf00      	nop
 8001e4e:	370c      	adds	r7, #12
 8001e50:	46bd      	mov	sp, r7
 8001e52:	f85d 7b04 	ldr.w	r7, [sp], #4
 8001e56:	4770      	bx	lr

08001e58 <HAL_TIM_PWM_PulseFinishedCallback>:
  * @brief  PWM Pulse finished callback in non-blocking mode
  * @param  htim TIM handle
  * @retval None
  */
__weak void HAL_TIM_PWM_PulseFinishedCallback(TIM_HandleTypeDef *htim)
{
 8001e58:	b480      	push	{r7}
 8001e5a:	b083      	sub	sp, #12
 8001e5c:	af00      	add	r7, sp, #0
 8001e5e:	6078      	str	r0, [r7, #4]
  UNUSED(htim);

  /* NOTE : This function should not be modified, when the callback is needed,
            the HAL_TIM_PWM_PulseFinishedCallback could be implemented in the user file
   */
}
 8001e60:	bf00      	nop
 8001e62:	370c      	adds	r7, #12
 8001e64:	46bd      	mov	sp, r7
 8001e66:	f85d 7b04 	ldr.w	r7, [sp], #4
 8001e6a:	4770      	bx	lr

08001e6c <HAL_TIM_TriggerCallback>:
  * @brief  Hall Trigger detection callback in non-blocking mode
  * @param  htim TIM handle
  * @retval None
  */
__weak void HAL_TIM_TriggerCallback(TIM_HandleTypeDef *htim)
{
 8001e6c:	b480      	push	{r7}
 8001e6e:	b083      	sub	sp, #12
 8001e70:	af00      	add	r7, sp, #0
 8001e72:	6078      	str	r0, [r7, #4]
  UNUSED(htim);

  /* NOTE : This function should not be modified, when the callback is needed,
            the HAL_TIM_TriggerCallback could be implemented in the user file
   */
}
 8001e74:	bf00      	nop
 8001e76:	370c      	adds	r7, #12
 8001e78:	46bd      	mov	sp, r7
 8001e7a:	f85d 7b04 	ldr.w	r7, [sp], #4
 8001e7e:	4770      	bx	lr

08001e80 <TIM_Base_SetConfig>:
  * @param  TIMx TIM peripheral
  * @param  Structure TIM Base configuration structure
  * @retval None
  */
void TIM_Base_SetConfig(TIM_TypeDef *TIMx, const TIM_Base_InitTypeDef *Structure)
{
 8001e80:	b480      	push	{r7}
 8001e82:	b085      	sub	sp, #20
 8001e84:	af00      	add	r7, sp, #0
 8001e86:	6078      	str	r0, [r7, #4]
 8001e88:	6039      	str	r1, [r7, #0]
  uint32_t tmpcr1;
  tmpcr1 = TIMx->CR1;
 8001e8a:	687b      	ldr	r3, [r7, #4]
 8001e8c:	681b      	ldr	r3, [r3, #0]
 8001e8e:	60fb      	str	r3, [r7, #12]

  /* Set TIM Time Base Unit parameters ---------------------------------------*/
  if (IS_TIM_COUNTER_MODE_SELECT_INSTANCE(TIMx))
 8001e90:	687b      	ldr	r3, [r7, #4]
 8001e92:	4a2e      	ldr	r2, [pc, #184]	; (8001f4c <TIM_Base_SetConfig+0xcc>)
 8001e94:	4293      	cmp	r3, r2
 8001e96:	d007      	beq.n	8001ea8 <TIM_Base_SetConfig+0x28>
 8001e98:	687b      	ldr	r3, [r7, #4]
 8001e9a:	f1b3 4f80 	cmp.w	r3, #1073741824	; 0x40000000
 8001e9e:	d003      	beq.n	8001ea8 <TIM_Base_SetConfig+0x28>
 8001ea0:	687b      	ldr	r3, [r7, #4]
 8001ea2:	4a2b      	ldr	r2, [pc, #172]	; (8001f50 <TIM_Base_SetConfig+0xd0>)
 8001ea4:	4293      	cmp	r3, r2
 8001ea6:	d108      	bne.n	8001eba <TIM_Base_SetConfig+0x3a>
  {
    /* Select the Counter Mode */
    tmpcr1 &= ~(TIM_CR1_DIR | TIM_CR1_CMS);
 8001ea8:	68fb      	ldr	r3, [r7, #12]
 8001eaa:	f023 0370 	bic.w	r3, r3, #112	; 0x70
 8001eae:	60fb      	str	r3, [r7, #12]
    tmpcr1 |= Structure->CounterMode;
 8001eb0:	683b      	ldr	r3, [r7, #0]
 8001eb2:	685b      	ldr	r3, [r3, #4]
 8001eb4:	68fa      	ldr	r2, [r7, #12]
 8001eb6:	4313      	orrs	r3, r2
 8001eb8:	60fb      	str	r3, [r7, #12]
  }

  if (IS_TIM_CLOCK_DIVISION_INSTANCE(TIMx))
 8001eba:	687b      	ldr	r3, [r7, #4]
 8001ebc:	4a23      	ldr	r2, [pc, #140]	; (8001f4c <TIM_Base_SetConfig+0xcc>)
 8001ebe:	4293      	cmp	r3, r2
 8001ec0:	d00f      	beq.n	8001ee2 <TIM_Base_SetConfig+0x62>
 8001ec2:	687b      	ldr	r3, [r7, #4]
 8001ec4:	f1b3 4f80 	cmp.w	r3, #1073741824	; 0x40000000
 8001ec8:	d00b      	beq.n	8001ee2 <TIM_Base_SetConfig+0x62>
 8001eca:	687b      	ldr	r3, [r7, #4]
 8001ecc:	4a20      	ldr	r2, [pc, #128]	; (8001f50 <TIM_Base_SetConfig+0xd0>)
 8001ece:	4293      	cmp	r3, r2
 8001ed0:	d007      	beq.n	8001ee2 <TIM_Base_SetConfig+0x62>
 8001ed2:	687b      	ldr	r3, [r7, #4]
 8001ed4:	4a1f      	ldr	r2, [pc, #124]	; (8001f54 <TIM_Base_SetConfig+0xd4>)
 8001ed6:	4293      	cmp	r3, r2
 8001ed8:	d003      	beq.n	8001ee2 <TIM_Base_SetConfig+0x62>
 8001eda:	687b      	ldr	r3, [r7, #4]
 8001edc:	4a1e      	ldr	r2, [pc, #120]	; (8001f58 <TIM_Base_SetConfig+0xd8>)
 8001ede:	4293      	cmp	r3, r2
 8001ee0:	d108      	bne.n	8001ef4 <TIM_Base_SetConfig+0x74>
  {
    /* Set the clock division */
    tmpcr1 &= ~TIM_CR1_CKD;
 8001ee2:	68fb      	ldr	r3, [r7, #12]
 8001ee4:	f423 7340 	bic.w	r3, r3, #768	; 0x300
 8001ee8:	60fb      	str	r3, [r7, #12]
    tmpcr1 |= (uint32_t)Structure->ClockDivision;
 8001eea:	683b      	ldr	r3, [r7, #0]
 8001eec:	68db      	ldr	r3, [r3, #12]
 8001eee:	68fa      	ldr	r2, [r7, #12]
 8001ef0:	4313      	orrs	r3, r2
 8001ef2:	60fb      	str	r3, [r7, #12]
  }

  /* Set the auto-reload preload */
  MODIFY_REG(tmpcr1, TIM_CR1_ARPE, Structure->AutoReloadPreload);
 8001ef4:	68fb      	ldr	r3, [r7, #12]
 8001ef6:	f023 0280 	bic.w	r2, r3, #128	; 0x80
 8001efa:	683b      	ldr	r3, [r7, #0]
 8001efc:	695b      	ldr	r3, [r3, #20]
 8001efe:	4313      	orrs	r3, r2
 8001f00:	60fb      	str	r3, [r7, #12]

  TIMx->CR1 = tmpcr1;
 8001f02:	687b      	ldr	r3, [r7, #4]
 8001f04:	68fa      	ldr	r2, [r7, #12]
 8001f06:	601a      	str	r2, [r3, #0]

  /* Set the Autoreload value */
  TIMx->ARR = (uint32_t)Structure->Period ;
 8001f08:	683b      	ldr	r3, [r7, #0]
 8001f0a:	689a      	ldr	r2, [r3, #8]
 8001f0c:	687b      	ldr	r3, [r7, #4]
 8001f0e:	62da      	str	r2, [r3, #44]	; 0x2c

  /* Set the Prescaler value */
  TIMx->PSC = Structure->Prescaler;
 8001f10:	683b      	ldr	r3, [r7, #0]
 8001f12:	681a      	ldr	r2, [r3, #0]
 8001f14:	687b      	ldr	r3, [r7, #4]
 8001f16:	629a      	str	r2, [r3, #40]	; 0x28

  if (IS_TIM_REPETITION_COUNTER_INSTANCE(TIMx))
 8001f18:	687b      	ldr	r3, [r7, #4]
 8001f1a:	4a0c      	ldr	r2, [pc, #48]	; (8001f4c <TIM_Base_SetConfig+0xcc>)
 8001f1c:	4293      	cmp	r3, r2
 8001f1e:	d007      	beq.n	8001f30 <TIM_Base_SetConfig+0xb0>
 8001f20:	687b      	ldr	r3, [r7, #4]
 8001f22:	4a0c      	ldr	r2, [pc, #48]	; (8001f54 <TIM_Base_SetConfig+0xd4>)
 8001f24:	4293      	cmp	r3, r2
 8001f26:	d003      	beq.n	8001f30 <TIM_Base_SetConfig+0xb0>
 8001f28:	687b      	ldr	r3, [r7, #4]
 8001f2a:	4a0b      	ldr	r2, [pc, #44]	; (8001f58 <TIM_Base_SetConfig+0xd8>)
 8001f2c:	4293      	cmp	r3, r2
 8001f2e:	d103      	bne.n	8001f38 <TIM_Base_SetConfig+0xb8>
  {
    /* Set the Repetition Counter value */
    TIMx->RCR = Structure->RepetitionCounter;
 8001f30:	683b      	ldr	r3, [r7, #0]
 8001f32:	691a      	ldr	r2, [r3, #16]
 8001f34:	687b      	ldr	r3, [r7, #4]
 8001f36:	631a      	str	r2, [r3, #48]	; 0x30
  }

  /* Generate an update event to reload the Prescaler
     and the repetition counter (only for advanced timer) value immediately */
  TIMx->EGR = TIM_EGR_UG;
 8001f38:	687b      	ldr	r3, [r7, #4]
 8001f3a:	2201      	movs	r2, #1
 8001f3c:	615a      	str	r2, [r3, #20]
}
 8001f3e:	bf00      	nop
 8001f40:	3714      	adds	r7, #20
 8001f42:	46bd      	mov	sp, r7
 8001f44:	f85d 7b04 	ldr.w	r7, [sp], #4
 8001f48:	4770      	bx	lr
 8001f4a:	bf00      	nop
 8001f4c:	40012c00 	.word	0x40012c00
 8001f50:	40000400 	.word	0x40000400
 8001f54:	40014000 	.word	0x40014000
 8001f58:	40014400 	.word	0x40014400

08001f5c <TIM_TI1_ConfigInputStage>:
  * @param  TIM_ICFilter Specifies the Input Capture Filter.
  *          This parameter must be a value between 0x00 and 0x0F.
  * @retval None
  */
static void TIM_TI1_ConfigInputStage(TIM_TypeDef *TIMx, uint32_t TIM_ICPolarity, uint32_t TIM_ICFilter)
{
 8001f5c:	b480      	push	{r7}
 8001f5e:	b087      	sub	sp, #28
 8001f60:	af00      	add	r7, sp, #0
 8001f62:	60f8      	str	r0, [r7, #12]
 8001f64:	60b9      	str	r1, [r7, #8]
 8001f66:	607a      	str	r2, [r7, #4]
  uint32_t tmpccmr1;
  uint32_t tmpccer;

  /* Disable the Channel 1: Reset the CC1E Bit */
  tmpccer = TIMx->CCER;
 8001f68:	68fb      	ldr	r3, [r7, #12]
 8001f6a:	6a1b      	ldr	r3, [r3, #32]
 8001f6c:	617b      	str	r3, [r7, #20]
  TIMx->CCER &= ~TIM_CCER_CC1E;
 8001f6e:	68fb      	ldr	r3, [r7, #12]
 8001f70:	6a1b      	ldr	r3, [r3, #32]
 8001f72:	f023 0201 	bic.w	r2, r3, #1
 8001f76:	68fb      	ldr	r3, [r7, #12]
 8001f78:	621a      	str	r2, [r3, #32]
  tmpccmr1 = TIMx->CCMR1;
 8001f7a:	68fb      	ldr	r3, [r7, #12]
 8001f7c:	699b      	ldr	r3, [r3, #24]
 8001f7e:	613b      	str	r3, [r7, #16]

  /* Set the filter */
  tmpccmr1 &= ~TIM_CCMR1_IC1F;
 8001f80:	693b      	ldr	r3, [r7, #16]
 8001f82:	f023 03f0 	bic.w	r3, r3, #240	; 0xf0
 8001f86:	613b      	str	r3, [r7, #16]
  tmpccmr1 |= (TIM_ICFilter << 4U);
 8001f88:	687b      	ldr	r3, [r7, #4]
 8001f8a:	011b      	lsls	r3, r3, #4
 8001f8c:	693a      	ldr	r2, [r7, #16]
 8001f8e:	4313      	orrs	r3, r2
 8001f90:	613b      	str	r3, [r7, #16]

  /* Select the Polarity and set the CC1E Bit */
  tmpccer &= ~(TIM_CCER_CC1P | TIM_CCER_CC1NP);
 8001f92:	697b      	ldr	r3, [r7, #20]
 8001f94:	f023 030a 	bic.w	r3, r3, #10
 8001f98:	617b      	str	r3, [r7, #20]
  tmpccer |= TIM_ICPolarity;
 8001f9a:	697a      	ldr	r2, [r7, #20]
 8001f9c:	68bb      	ldr	r3, [r7, #8]
 8001f9e:	4313      	orrs	r3, r2
 8001fa0:	617b      	str	r3, [r7, #20]

  /* Write to TIMx CCMR1 and CCER registers */
  TIMx->CCMR1 = tmpccmr1;
 8001fa2:	68fb      	ldr	r3, [r7, #12]
 8001fa4:	693a      	ldr	r2, [r7, #16]
 8001fa6:	619a      	str	r2, [r3, #24]
  TIMx->CCER = tmpccer;
 8001fa8:	68fb      	ldr	r3, [r7, #12]
 8001faa:	697a      	ldr	r2, [r7, #20]
 8001fac:	621a      	str	r2, [r3, #32]
}
 8001fae:	bf00      	nop
 8001fb0:	371c      	adds	r7, #28
 8001fb2:	46bd      	mov	sp, r7
 8001fb4:	f85d 7b04 	ldr.w	r7, [sp], #4
 8001fb8:	4770      	bx	lr

08001fba <TIM_TI2_ConfigInputStage>:
  * @param  TIM_ICFilter Specifies the Input Capture Filter.
  *          This parameter must be a value between 0x00 and 0x0F.
  * @retval None
  */
static void TIM_TI2_ConfigInputStage(TIM_TypeDef *TIMx, uint32_t TIM_ICPolarity, uint32_t TIM_ICFilter)
{
 8001fba:	b480      	push	{r7}
 8001fbc:	b087      	sub	sp, #28
 8001fbe:	af00      	add	r7, sp, #0
 8001fc0:	60f8      	str	r0, [r7, #12]
 8001fc2:	60b9      	str	r1, [r7, #8]
 8001fc4:	607a      	str	r2, [r7, #4]
  uint32_t tmpccmr1;
  uint32_t tmpccer;

  /* Disable the Channel 2: Reset the CC2E Bit */
  TIMx->CCER &= ~TIM_CCER_CC2E;
 8001fc6:	68fb      	ldr	r3, [r7, #12]
 8001fc8:	6a1b      	ldr	r3, [r3, #32]
 8001fca:	f023 0210 	bic.w	r2, r3, #16
 8001fce:	68fb      	ldr	r3, [r7, #12]
 8001fd0:	621a      	str	r2, [r3, #32]
  tmpccmr1 = TIMx->CCMR1;
 8001fd2:	68fb      	ldr	r3, [r7, #12]
 8001fd4:	699b      	ldr	r3, [r3, #24]
 8001fd6:	617b      	str	r3, [r7, #20]
  tmpccer = TIMx->CCER;
 8001fd8:	68fb      	ldr	r3, [r7, #12]
 8001fda:	6a1b      	ldr	r3, [r3, #32]
 8001fdc:	613b      	str	r3, [r7, #16]

  /* Set the filter */
  tmpccmr1 &= ~TIM_CCMR1_IC2F;
 8001fde:	697b      	ldr	r3, [r7, #20]
 8001fe0:	f423 4370 	bic.w	r3, r3, #61440	; 0xf000
 8001fe4:	617b      	str	r3, [r7, #20]
  tmpccmr1 |= (TIM_ICFilter << 12U);
 8001fe6:	687b      	ldr	r3, [r7, #4]
 8001fe8:	031b      	lsls	r3, r3, #12
 8001fea:	697a      	ldr	r2, [r7, #20]
 8001fec:	4313      	orrs	r3, r2
 8001fee:	617b      	str	r3, [r7, #20]

  /* Select the Polarity and set the CC2E Bit */
  tmpccer &= ~(TIM_CCER_CC2P | TIM_CCER_CC2NP);
 8001ff0:	693b      	ldr	r3, [r7, #16]
 8001ff2:	f023 03a0 	bic.w	r3, r3, #160	; 0xa0
 8001ff6:	613b      	str	r3, [r7, #16]
  tmpccer |= (TIM_ICPolarity << 4U);
 8001ff8:	68bb      	ldr	r3, [r7, #8]
 8001ffa:	011b      	lsls	r3, r3, #4
 8001ffc:	693a      	ldr	r2, [r7, #16]
 8001ffe:	4313      	orrs	r3, r2
 8002000:	613b      	str	r3, [r7, #16]

  /* Write to TIMx CCMR1 and CCER registers */
  TIMx->CCMR1 = tmpccmr1 ;
 8002002:	68fb      	ldr	r3, [r7, #12]
 8002004:	697a      	ldr	r2, [r7, #20]
 8002006:	619a      	str	r2, [r3, #24]
  TIMx->CCER = tmpccer;
 8002008:	68fb      	ldr	r3, [r7, #12]
 800200a:	693a      	ldr	r2, [r7, #16]
 800200c:	621a      	str	r2, [r3, #32]
}
 800200e:	bf00      	nop
 8002010:	371c      	adds	r7, #28
 8002012:	46bd      	mov	sp, r7
 8002014:	f85d 7b04 	ldr.w	r7, [sp], #4
 8002018:	4770      	bx	lr

0800201a <TIM_ITRx_SetConfig>:
  *            @arg TIM_TS_TI2FP2: Filtered Timer Input 2
  *            @arg TIM_TS_ETRF: External Trigger input
  * @retval None
  */
static void TIM_ITRx_SetConfig(TIM_TypeDef *TIMx, uint32_t InputTriggerSource)
{
 800201a:	b480      	push	{r7}
 800201c:	b085      	sub	sp, #20
 800201e:	af00      	add	r7, sp, #0
 8002020:	6078      	str	r0, [r7, #4]
 8002022:	6039      	str	r1, [r7, #0]
  uint32_t tmpsmcr;

  /* Get the TIMx SMCR register value */
  tmpsmcr = TIMx->SMCR;
 8002024:	687b      	ldr	r3, [r7, #4]
 8002026:	689b      	ldr	r3, [r3, #8]
 8002028:	60fb      	str	r3, [r7, #12]
  /* Reset the TS Bits */
  tmpsmcr &= ~TIM_SMCR_TS;
 800202a:	68fb      	ldr	r3, [r7, #12]
 800202c:	f023 0370 	bic.w	r3, r3, #112	; 0x70
 8002030:	60fb      	str	r3, [r7, #12]
  /* Set the Input Trigger source and the slave mode*/
  tmpsmcr |= (InputTriggerSource | TIM_SLAVEMODE_EXTERNAL1);
 8002032:	683a      	ldr	r2, [r7, #0]
 8002034:	68fb      	ldr	r3, [r7, #12]
 8002036:	4313      	orrs	r3, r2
 8002038:	f043 0307 	orr.w	r3, r3, #7
 800203c:	60fb      	str	r3, [r7, #12]
  /* Write to TIMx SMCR */
  TIMx->SMCR = tmpsmcr;
 800203e:	687b      	ldr	r3, [r7, #4]
 8002040:	68fa      	ldr	r2, [r7, #12]
 8002042:	609a      	str	r2, [r3, #8]
}
 8002044:	bf00      	nop
 8002046:	3714      	adds	r7, #20
 8002048:	46bd      	mov	sp, r7
 800204a:	f85d 7b04 	ldr.w	r7, [sp], #4
 800204e:	4770      	bx	lr

08002050 <TIM_ETR_SetConfig>:
  *          This parameter must be a value between 0x00 and 0x0F
  * @retval None
  */
void TIM_ETR_SetConfig(TIM_TypeDef *TIMx, uint32_t TIM_ExtTRGPrescaler,
                       uint32_t TIM_ExtTRGPolarity, uint32_t ExtTRGFilter)
{
 8002050:	b480      	push	{r7}
 8002052:	b087      	sub	sp, #28
 8002054:	af00      	add	r7, sp, #0
 8002056:	60f8      	str	r0, [r7, #12]
 8002058:	60b9      	str	r1, [r7, #8]
 800205a:	607a      	str	r2, [r7, #4]
 800205c:	603b      	str	r3, [r7, #0]
  uint32_t tmpsmcr;

  tmpsmcr = TIMx->SMCR;
 800205e:	68fb      	ldr	r3, [r7, #12]
 8002060:	689b      	ldr	r3, [r3, #8]
 8002062:	617b      	str	r3, [r7, #20]

  /* Reset the ETR Bits */
  tmpsmcr &= ~(TIM_SMCR_ETF | TIM_SMCR_ETPS | TIM_SMCR_ECE | TIM_SMCR_ETP);
 8002064:	697b      	ldr	r3, [r7, #20]
 8002066:	f423 437f 	bic.w	r3, r3, #65280	; 0xff00
 800206a:	617b      	str	r3, [r7, #20]

  /* Set the Prescaler, the Filter value and the Polarity */
  tmpsmcr |= (uint32_t)(TIM_ExtTRGPrescaler | (TIM_ExtTRGPolarity | (ExtTRGFilter << 8U)));
 800206c:	683b      	ldr	r3, [r7, #0]
 800206e:	021a      	lsls	r2, r3, #8
 8002070:	687b      	ldr	r3, [r7, #4]
 8002072:	431a      	orrs	r2, r3
 8002074:	68bb      	ldr	r3, [r7, #8]
 8002076:	4313      	orrs	r3, r2
 8002078:	697a      	ldr	r2, [r7, #20]
 800207a:	4313      	orrs	r3, r2
 800207c:	617b      	str	r3, [r7, #20]

  /* Write to TIMx SMCR */
  TIMx->SMCR = tmpsmcr;
 800207e:	68fb      	ldr	r3, [r7, #12]
 8002080:	697a      	ldr	r2, [r7, #20]
 8002082:	609a      	str	r2, [r3, #8]
}
 8002084:	bf00      	nop
 8002086:	371c      	adds	r7, #28
 8002088:	46bd      	mov	sp, r7
 800208a:	f85d 7b04 	ldr.w	r7, [sp], #4
 800208e:	4770      	bx	lr

08002090 <HAL_TIMEx_MasterConfigSynchronization>:
  *         mode.
  * @retval HAL status
  */
HAL_StatusTypeDef HAL_TIMEx_MasterConfigSynchronization(TIM_HandleTypeDef *htim,
                                                        const TIM_MasterConfigTypeDef *sMasterConfig)
{
 8002090:	b480      	push	{r7}
 8002092:	b085      	sub	sp, #20
 8002094:	af00      	add	r7, sp, #0
 8002096:	6078      	str	r0, [r7, #4]
 8002098:	6039      	str	r1, [r7, #0]
  assert_param(IS_TIM_MASTER_INSTANCE(htim->Instance));
  assert_param(IS_TIM_TRGO_SOURCE(sMasterConfig->MasterOutputTrigger));
  assert_param(IS_TIM_MSM_STATE(sMasterConfig->MasterSlaveMode));

  /* Check input state */
  __HAL_LOCK(htim);
 800209a:	687b      	ldr	r3, [r7, #4]
 800209c:	f893 303c 	ldrb.w	r3, [r3, #60]	; 0x3c
 80020a0:	2b01      	cmp	r3, #1
 80020a2:	d101      	bne.n	80020a8 <HAL_TIMEx_MasterConfigSynchronization+0x18>
 80020a4:	2302      	movs	r3, #2
 80020a6:	e054      	b.n	8002152 <HAL_TIMEx_MasterConfigSynchronization+0xc2>
 80020a8:	687b      	ldr	r3, [r7, #4]
 80020aa:	2201      	movs	r2, #1
 80020ac:	f883 203c 	strb.w	r2, [r3, #60]	; 0x3c

  /* Change the handler state */
  htim->State = HAL_TIM_STATE_BUSY;
 80020b0:	687b      	ldr	r3, [r7, #4]
 80020b2:	2202      	movs	r2, #2
 80020b4:	f883 203d 	strb.w	r2, [r3, #61]	; 0x3d

  /* Get the TIMx CR2 register value */
  tmpcr2 = htim->Instance->CR2;
 80020b8:	687b      	ldr	r3, [r7, #4]
 80020ba:	681b      	ldr	r3, [r3, #0]
 80020bc:	685b      	ldr	r3, [r3, #4]
 80020be:	60fb      	str	r3, [r7, #12]

  /* Get the TIMx SMCR register value */
  tmpsmcr = htim->Instance->SMCR;
 80020c0:	687b      	ldr	r3, [r7, #4]
 80020c2:	681b      	ldr	r3, [r3, #0]
 80020c4:	689b      	ldr	r3, [r3, #8]
 80020c6:	60bb      	str	r3, [r7, #8]

  /* If the timer supports ADC synchronization through TRGO2, set the master mode selection 2 */
  if (IS_TIM_TRGO2_INSTANCE(htim->Instance))
 80020c8:	687b      	ldr	r3, [r7, #4]
 80020ca:	681b      	ldr	r3, [r3, #0]
 80020cc:	4a24      	ldr	r2, [pc, #144]	; (8002160 <HAL_TIMEx_MasterConfigSynchronization+0xd0>)
 80020ce:	4293      	cmp	r3, r2
 80020d0:	d108      	bne.n	80020e4 <HAL_TIMEx_MasterConfigSynchronization+0x54>
  {
    /* Check the parameters */
    assert_param(IS_TIM_TRGO2_SOURCE(sMasterConfig->MasterOutputTrigger2));

    /* Clear the MMS2 bits */
    tmpcr2 &= ~TIM_CR2_MMS2;
 80020d2:	68fb      	ldr	r3, [r7, #12]
 80020d4:	f423 0370 	bic.w	r3, r3, #15728640	; 0xf00000
 80020d8:	60fb      	str	r3, [r7, #12]
    /* Select the TRGO2 source*/
    tmpcr2 |= sMasterConfig->MasterOutputTrigger2;
 80020da:	683b      	ldr	r3, [r7, #0]
 80020dc:	685b      	ldr	r3, [r3, #4]
 80020de:	68fa      	ldr	r2, [r7, #12]
 80020e0:	4313      	orrs	r3, r2
 80020e2:	60fb      	str	r3, [r7, #12]
  }

  /* Reset the MMS Bits */
  tmpcr2 &= ~TIM_CR2_MMS;
 80020e4:	68fb      	ldr	r3, [r7, #12]
 80020e6:	f023 0370 	bic.w	r3, r3, #112	; 0x70
 80020ea:	60fb      	str	r3, [r7, #12]
  /* Select the TRGO source */
  tmpcr2 |=  sMasterConfig->MasterOutputTrigger;
 80020ec:	683b      	ldr	r3, [r7, #0]
 80020ee:	681b      	ldr	r3, [r3, #0]
 80020f0:	68fa      	ldr	r2, [r7, #12]
 80020f2:	4313      	orrs	r3, r2
 80020f4:	60fb      	str	r3, [r7, #12]

  /* Update TIMx CR2 */
  htim->Instance->CR2 = tmpcr2;
 80020f6:	687b      	ldr	r3, [r7, #4]
 80020f8:	681b      	ldr	r3, [r3, #0]
 80020fa:	68fa      	ldr	r2, [r7, #12]
 80020fc:	605a      	str	r2, [r3, #4]

  if (IS_TIM_SLAVE_INSTANCE(htim->Instance))
 80020fe:	687b      	ldr	r3, [r7, #4]
 8002100:	681b      	ldr	r3, [r3, #0]
 8002102:	4a17      	ldr	r2, [pc, #92]	; (8002160 <HAL_TIMEx_MasterConfigSynchronization+0xd0>)
 8002104:	4293      	cmp	r3, r2
 8002106:	d00e      	beq.n	8002126 <HAL_TIMEx_MasterConfigSynchronization+0x96>
 8002108:	687b      	ldr	r3, [r7, #4]
 800210a:	681b      	ldr	r3, [r3, #0]
 800210c:	f1b3 4f80 	cmp.w	r3, #1073741824	; 0x40000000
 8002110:	d009      	beq.n	8002126 <HAL_TIMEx_MasterConfigSynchronization+0x96>
 8002112:	687b      	ldr	r3, [r7, #4]
 8002114:	681b      	ldr	r3, [r3, #0]
 8002116:	4a13      	ldr	r2, [pc, #76]	; (8002164 <HAL_TIMEx_MasterConfigSynchronization+0xd4>)
 8002118:	4293      	cmp	r3, r2
 800211a:	d004      	beq.n	8002126 <HAL_TIMEx_MasterConfigSynchronization+0x96>
 800211c:	687b      	ldr	r3, [r7, #4]
 800211e:	681b      	ldr	r3, [r3, #0]
 8002120:	4a11      	ldr	r2, [pc, #68]	; (8002168 <HAL_TIMEx_MasterConfigSynchronization+0xd8>)
 8002122:	4293      	cmp	r3, r2
 8002124:	d10c      	bne.n	8002140 <HAL_TIMEx_MasterConfigSynchronization+0xb0>
  {
    /* Reset the MSM Bit */
    tmpsmcr &= ~TIM_SMCR_MSM;
 8002126:	68bb      	ldr	r3, [r7, #8]
 8002128:	f023 0380 	bic.w	r3, r3, #128	; 0x80
 800212c:	60bb      	str	r3, [r7, #8]
    /* Set master mode */
    tmpsmcr |= sMasterConfig->MasterSlaveMode;
 800212e:	683b      	ldr	r3, [r7, #0]
 8002130:	689b      	ldr	r3, [r3, #8]
 8002132:	68ba      	ldr	r2, [r7, #8]
 8002134:	4313      	orrs	r3, r2
 8002136:	60bb      	str	r3, [r7, #8]

    /* Update TIMx SMCR */
    htim->Instance->SMCR = tmpsmcr;
 8002138:	687b      	ldr	r3, [r7, #4]
 800213a:	681b      	ldr	r3, [r3, #0]
 800213c:	68ba      	ldr	r2, [r7, #8]
 800213e:	609a      	str	r2, [r3, #8]
  }

  /* Change the htim state */
  htim->State = HAL_TIM_STATE_READY;
 8002140:	687b      	ldr	r3, [r7, #4]
 8002142:	2201      	movs	r2, #1
 8002144:	f883 203d 	strb.w	r2, [r3, #61]	; 0x3d

  __HAL_UNLOCK(htim);
 8002148:	687b      	ldr	r3, [r7, #4]
 800214a:	2200      	movs	r2, #0
 800214c:	f883 203c 	strb.w	r2, [r3, #60]	; 0x3c

  return HAL_OK;
 8002150:	2300      	movs	r3, #0
}
 8002152:	4618      	mov	r0, r3
 8002154:	3714      	adds	r7, #20
 8002156:	46bd      	mov	sp, r7
 8002158:	f85d 7b04 	ldr.w	r7, [sp], #4
 800215c:	4770      	bx	lr
 800215e:	bf00      	nop
 8002160:	40012c00 	.word	0x40012c00
 8002164:	40000400 	.word	0x40000400
 8002168:	40014000 	.word	0x40014000

0800216c <HAL_TIMEx_CommutCallback>:
  * @brief  Hall commutation changed callback in non-blocking mode
  * @param  htim TIM handle
  * @retval None
  */
__weak void HAL_TIMEx_CommutCallback(TIM_HandleTypeDef *htim)
{
 800216c:	b480      	push	{r7}
 800216e:	b083      	sub	sp, #12
 8002170:	af00      	add	r7, sp, #0
 8002172:	6078      	str	r0, [r7, #4]
  UNUSED(htim);

  /* NOTE : This function should not be modified, when the callback is needed,
            the HAL_TIMEx_CommutCallback could be implemented in the user file
   */
}
 8002174:	bf00      	nop
 8002176:	370c      	adds	r7, #12
 8002178:	46bd      	mov	sp, r7
 800217a:	f85d 7b04 	ldr.w	r7, [sp], #4
 800217e:	4770      	bx	lr

08002180 <HAL_TIMEx_BreakCallback>:
  * @brief  Hall Break detection callback in non-blocking mode
  * @param  htim TIM handle
  * @retval None
  */
__weak void HAL_TIMEx_BreakCallback(TIM_HandleTypeDef *htim)
{
 8002180:	b480      	push	{r7}
 8002182:	b083      	sub	sp, #12
 8002184:	af00      	add	r7, sp, #0
 8002186:	6078      	str	r0, [r7, #4]
  UNUSED(htim);

  /* NOTE : This function should not be modified, when the callback is needed,
            the HAL_TIMEx_BreakCallback could be implemented in the user file
   */
}
 8002188:	bf00      	nop
 800218a:	370c      	adds	r7, #12
 800218c:	46bd      	mov	sp, r7
 800218e:	f85d 7b04 	ldr.w	r7, [sp], #4
 8002192:	4770      	bx	lr

08002194 <HAL_TIMEx_Break2Callback>:
  * @brief  Hall Break2 detection callback in non blocking mode
  * @param  htim: TIM handle
  * @retval None
  */
__weak void HAL_TIMEx_Break2Callback(TIM_HandleTypeDef *htim)
{
 8002194:	b480      	push	{r7}
 8002196:	b083      	sub	sp, #12
 8002198:	af00      	add	r7, sp, #0
 800219a:	6078      	str	r0, [r7, #4]
  UNUSED(htim);

  /* NOTE : This function Should not be modified, when the callback is needed,
            the HAL_TIMEx_Break2Callback could be implemented in the user file
   */
}
 800219c:	bf00      	nop
 800219e:	370c      	adds	r7, #12
 80021a0:	46bd      	mov	sp, r7
 80021a2:	f85d 7b04 	ldr.w	r7, [sp], #4
 80021a6:	4770      	bx	lr

080021a8 <__libc_init_array>:
 80021a8:	b570      	push	{r4, r5, r6, lr}
 80021aa:	4d0d      	ldr	r5, [pc, #52]	; (80021e0 <__libc_init_array+0x38>)
 80021ac:	4c0d      	ldr	r4, [pc, #52]	; (80021e4 <__libc_init_array+0x3c>)
 80021ae:	1b64      	subs	r4, r4, r5
 80021b0:	10a4      	asrs	r4, r4, #2
 80021b2:	2600      	movs	r6, #0
 80021b4:	42a6      	cmp	r6, r4
 80021b6:	d109      	bne.n	80021cc <__libc_init_array+0x24>
 80021b8:	4d0b      	ldr	r5, [pc, #44]	; (80021e8 <__libc_init_array+0x40>)
 80021ba:	4c0c      	ldr	r4, [pc, #48]	; (80021ec <__libc_init_array+0x44>)
 80021bc:	f000 f820 	bl	8002200 <_init>
 80021c0:	1b64      	subs	r4, r4, r5
 80021c2:	10a4      	asrs	r4, r4, #2
 80021c4:	2600      	movs	r6, #0
 80021c6:	42a6      	cmp	r6, r4
 80021c8:	d105      	bne.n	80021d6 <__libc_init_array+0x2e>
 80021ca:	bd70      	pop	{r4, r5, r6, pc}
 80021cc:	f855 3b04 	ldr.w	r3, [r5], #4
 80021d0:	4798      	blx	r3
 80021d2:	3601      	adds	r6, #1
 80021d4:	e7ee      	b.n	80021b4 <__libc_init_array+0xc>
 80021d6:	f855 3b04 	ldr.w	r3, [r5], #4
 80021da:	4798      	blx	r3
 80021dc:	3601      	adds	r6, #1
 80021de:	e7f2      	b.n	80021c6 <__libc_init_array+0x1e>
 80021e0:	08002258 	.word	0x08002258
 80021e4:	08002258 	.word	0x08002258
 80021e8:	08002258 	.word	0x08002258
 80021ec:	0800225c 	.word	0x0800225c

080021f0 <memset>:
 80021f0:	4402      	add	r2, r0
 80021f2:	4603      	mov	r3, r0
 80021f4:	4293      	cmp	r3, r2
 80021f6:	d100      	bne.n	80021fa <memset+0xa>
 80021f8:	4770      	bx	lr
 80021fa:	f803 1b01 	strb.w	r1, [r3], #1
 80021fe:	e7f9      	b.n	80021f4 <memset+0x4>

08002200 <_init>:
 8002200:	b5f8      	push	{r3, r4, r5, r6, r7, lr}
 8002202:	bf00      	nop
 8002204:	bcf8      	pop	{r3, r4, r5, r6, r7}
 8002206:	bc08      	pop	{r3}
 8002208:	469e      	mov	lr, r3
 800220a:	4770      	bx	lr

0800220c <_fini>:
 800220c:	b5f8      	push	{r3, r4, r5, r6, r7, lr}
 800220e:	bf00      	nop
 8002210:	bcf8      	pop	{r3, r4, r5, r6, r7}
 8002212:	bc08      	pop	{r3}
 8002214:	469e      	mov	lr, r3
 8002216:	4770      	bx	lr
