
Nucleo-64 Test.elf:     file format elf32-littlearm

Sections:
Idx Name          Size      VMA       LMA       File off  Algn
  0 .isr_vector   00000194  08000000  08000000  00010000  2**0
                  CONTENTS, ALLOC, LOAD, READONLY, DATA
  1 .text         00001694  08000194  08000194  00010194  2**2
                  CONTENTS, ALLOC, LOAD, READONLY, CODE
  2 .rodata       00000040  08001828  08001828  00011828  2**2
                  CONTENTS, ALLOC, LOAD, READONLY, DATA
  3 .ARM.extab    00000000  08001868  08001868  0002000c  2**0
                  CONTENTS
  4 .ARM          00000000  08001868  08001868  0002000c  2**0
                  CONTENTS
  5 .preinit_array 00000000  08001868  08001868  0002000c  2**0
                  CONTENTS, ALLOC, LOAD, DATA
  6 .init_array   00000004  08001868  08001868  00011868  2**2
                  CONTENTS, ALLOC, LOAD, DATA
  7 .fini_array   00000004  0800186c  0800186c  0001186c  2**2
                  CONTENTS, ALLOC, LOAD, DATA
  8 .data         0000000c  20000000  08001870  00020000  2**2
                  CONTENTS, ALLOC, LOAD, DATA
  9 .bss          00000020  2000000c  0800187c  0002000c  2**2
                  ALLOC
 10 ._user_heap_stack 00000604  2000002c  0800187c  0002002c  2**0
                  ALLOC
 11 .ARM.attributes 00000030  00000000  00000000  0002000c  2**0
                  CONTENTS, READONLY
 12 .debug_info   000049e3  00000000  00000000  0002003c  2**0
                  CONTENTS, READONLY, DEBUGGING, OCTETS
 13 .debug_abbrev 00001001  00000000  00000000  00024a1f  2**0
                  CONTENTS, READONLY, DEBUGGING, OCTETS
 14 .debug_aranges 00000560  00000000  00000000  00025a20  2**3
                  CONTENTS, READONLY, DEBUGGING, OCTETS
 15 .debug_ranges 000004c8  00000000  00000000  00025f80  2**3
                  CONTENTS, READONLY, DEBUGGING, OCTETS
 16 .debug_macro  00020539  00000000  00000000  00026448  2**0
                  CONTENTS, READONLY, DEBUGGING, OCTETS
 17 .debug_line   00005cb5  00000000  00000000  00046981  2**0
                  CONTENTS, READONLY, DEBUGGING, OCTETS
 18 .debug_str    000c5adc  00000000  00000000  0004c636  2**0
                  CONTENTS, READONLY, DEBUGGING, OCTETS
 19 .comment      00000050  00000000  00000000  00112112  2**0
                  CONTENTS, READONLY
 20 .debug_frame  000013a8  00000000  00000000  00112164  2**2
                  CONTENTS, READONLY, DEBUGGING, OCTETS

Disassembly of section .text:

08000194 <__do_global_dtors_aux>:
 8000194:	b510      	push	{r4, lr}
 8000196:	4c05      	ldr	r4, [pc, #20]	; (80001ac <__do_global_dtors_aux+0x18>)
 8000198:	7823      	ldrb	r3, [r4, #0]
 800019a:	b933      	cbnz	r3, 80001aa <__do_global_dtors_aux+0x16>
 800019c:	4b04      	ldr	r3, [pc, #16]	; (80001b0 <__do_global_dtors_aux+0x1c>)
 800019e:	b113      	cbz	r3, 80001a6 <__do_global_dtors_aux+0x12>
 80001a0:	4804      	ldr	r0, [pc, #16]	; (80001b4 <__do_global_dtors_aux+0x20>)
 80001a2:	f3af 8000 	nop.w
 80001a6:	2301      	movs	r3, #1
 80001a8:	7023      	strb	r3, [r4, #0]
 80001aa:	bd10      	pop	{r4, pc}
 80001ac:	2000000c 	.word	0x2000000c
 80001b0:	00000000 	.word	0x00000000
 80001b4:	08001810 	.word	0x08001810

080001b8 <frame_dummy>:
 80001b8:	b508      	push	{r3, lr}
 80001ba:	4b03      	ldr	r3, [pc, #12]	; (80001c8 <frame_dummy+0x10>)
 80001bc:	b11b      	cbz	r3, 80001c6 <frame_dummy+0xe>
 80001be:	4903      	ldr	r1, [pc, #12]	; (80001cc <frame_dummy+0x14>)
 80001c0:	4803      	ldr	r0, [pc, #12]	; (80001d0 <frame_dummy+0x18>)
 80001c2:	f3af 8000 	nop.w
 80001c6:	bd08      	pop	{r3, pc}
 80001c8:	00000000 	.word	0x00000000
 80001cc:	20000010 	.word	0x20000010
 80001d0:	08001810 	.word	0x08001810

080001d4 <main>:
/**
  * @brief  The application entry point.
  * @retval int
  */
int main(void)
{
 80001d4:	b580      	push	{r7, lr}
 80001d6:	af00      	add	r7, sp, #0
  /* USER CODE END 1 */

  /* MCU Configuration--------------------------------------------------------*/

  /* Reset of all peripherals, Initializes the Flash interface and the Systick. */
  HAL_Init();
 80001d8:	f000 f972 	bl	80004c0 <HAL_Init>
  /* USER CODE BEGIN Init */

  /* USER CODE END Init */

  /* Configure the system clock */
  SystemClock_Config();
 80001dc:	f000 f817 	bl	800020e <SystemClock_Config>
  /* USER CODE BEGIN SysInit */

  /* USER CODE END SysInit */

  /* Initialize all configured peripherals */
  MX_GPIO_Init();
 80001e0:	f000 f866 	bl	80002b0 <MX_GPIO_Init>
  /* USER CODE BEGIN WHILE */
  while (1)
  {
    /* USER CODE END WHILE */

	  HAL_GPIO_WritePin(GPIOA, GPIO_PIN_5, GPIO_PIN_SET);
 80001e4:	2201      	movs	r2, #1
 80001e6:	2120      	movs	r1, #32
 80001e8:	f04f 4090 	mov.w	r0, #1207959552	; 0x48000000
 80001ec:	f000 fc68 	bl	8000ac0 <HAL_GPIO_WritePin>
	  HAL_Delay(500);
 80001f0:	f44f 70fa 	mov.w	r0, #500	; 0x1f4
 80001f4:	f000 f9e0 	bl	80005b8 <HAL_Delay>
	  HAL_GPIO_WritePin(GPIOA, GPIO_PIN_5, GPIO_PIN_RESET);
 80001f8:	2200      	movs	r2, #0
 80001fa:	2120      	movs	r1, #32
 80001fc:	f04f 4090 	mov.w	r0, #1207959552	; 0x48000000
 8000200:	f000 fc5e 	bl	8000ac0 <HAL_GPIO_WritePin>
	  HAL_Delay(500);
 8000204:	f44f 70fa 	mov.w	r0, #500	; 0x1f4
 8000208:	f000 f9d6 	bl	80005b8 <HAL_Delay>
	  HAL_GPIO_WritePin(GPIOA, GPIO_PIN_5, GPIO_PIN_SET);
 800020c:	e7ea      	b.n	80001e4 <main+0x10>

0800020e <SystemClock_Config>:
/**
  * @brief System Clock Configuration
  * @retval None
  */
void SystemClock_Config(void)
{
 800020e:	b580      	push	{r7, lr}
 8000210:	b096      	sub	sp, #88	; 0x58
 8000212:	af00      	add	r7, sp, #0
  RCC_OscInitTypeDef RCC_OscInitStruct = {0};
 8000214:	f107 0314 	add.w	r3, r7, #20
 8000218:	2244      	movs	r2, #68	; 0x44
 800021a:	2100      	movs	r1, #0
 800021c:	4618      	mov	r0, r3
 800021e:	f001 faef 	bl	8001800 <memset>
  RCC_ClkInitTypeDef RCC_ClkInitStruct = {0};
 8000222:	463b      	mov	r3, r7
 8000224:	2200      	movs	r2, #0
 8000226:	601a      	str	r2, [r3, #0]
 8000228:	605a      	str	r2, [r3, #4]
 800022a:	609a      	str	r2, [r3, #8]
 800022c:	60da      	str	r2, [r3, #12]
 800022e:	611a      	str	r2, [r3, #16]

  /** Configure the main internal regulator output voltage
  */
  if (HAL_PWREx_ControlVoltageScaling(PWR_REGULATOR_VOLTAGE_SCALE1) != HAL_OK)
 8000230:	f44f 7000 	mov.w	r0, #512	; 0x200
 8000234:	f000 fc6a 	bl	8000b0c <HAL_PWREx_ControlVoltageScaling>
 8000238:	4603      	mov	r3, r0
 800023a:	2b00      	cmp	r3, #0
 800023c:	d001      	beq.n	8000242 <SystemClock_Config+0x34>
  {
    Error_Handler();
 800023e:	f000 f8af 	bl	80003a0 <Error_Handler>
  }

  /** Initializes the RCC Oscillators according to the specified parameters
  * in the RCC_OscInitTypeDef structure.
  */
  RCC_OscInitStruct.OscillatorType = RCC_OSCILLATORTYPE_HSI;
 8000242:	2302      	movs	r3, #2
 8000244:	617b      	str	r3, [r7, #20]
  RCC_OscInitStruct.HSIState = RCC_HSI_ON;
 8000246:	f44f 7380 	mov.w	r3, #256	; 0x100
 800024a:	623b      	str	r3, [r7, #32]
  RCC_OscInitStruct.HSICalibrationValue = RCC_HSICALIBRATION_DEFAULT;
 800024c:	2340      	movs	r3, #64	; 0x40
 800024e:	627b      	str	r3, [r7, #36]	; 0x24
  RCC_OscInitStruct.PLL.PLLState = RCC_PLL_ON;
 8000250:	2302      	movs	r3, #2
 8000252:	63fb      	str	r3, [r7, #60]	; 0x3c
  RCC_OscInitStruct.PLL.PLLSource = RCC_PLLSOURCE_HSI;
 8000254:	2302      	movs	r3, #2
 8000256:	643b      	str	r3, [r7, #64]	; 0x40
  RCC_OscInitStruct.PLL.PLLM = 1;
 8000258:	2301      	movs	r3, #1
 800025a:	647b      	str	r3, [r7, #68]	; 0x44
  RCC_OscInitStruct.PLL.PLLN = 10;
 800025c:	230a      	movs	r3, #10
 800025e:	64bb      	str	r3, [r7, #72]	; 0x48
  RCC_OscInitStruct.PLL.PLLP = RCC_PLLP_DIV7;
 8000260:	2307      	movs	r3, #7
 8000262:	64fb      	str	r3, [r7, #76]	; 0x4c
  RCC_OscInitStruct.PLL.PLLQ = RCC_PLLQ_DIV2;
 8000264:	2302      	movs	r3, #2
 8000266:	653b      	str	r3, [r7, #80]	; 0x50
  RCC_OscInitStruct.PLL.PLLR = RCC_PLLR_DIV2;
 8000268:	2302      	movs	r3, #2
 800026a:	657b      	str	r3, [r7, #84]	; 0x54
  if (HAL_RCC_OscConfig(&RCC_OscInitStruct) != HAL_OK)
 800026c:	f107 0314 	add.w	r3, r7, #20
 8000270:	4618      	mov	r0, r3
 8000272:	f000 fca1 	bl	8000bb8 <HAL_RCC_OscConfig>
 8000276:	4603      	mov	r3, r0
 8000278:	2b00      	cmp	r3, #0
 800027a:	d001      	beq.n	8000280 <SystemClock_Config+0x72>
  {
    Error_Handler();
 800027c:	f000 f890 	bl	80003a0 <Error_Handler>
  }

  /** Initializes the CPU, AHB and APB buses clocks
  */
  RCC_ClkInitStruct.ClockType = RCC_CLOCKTYPE_HCLK|RCC_CLOCKTYPE_SYSCLK
 8000280:	230f      	movs	r3, #15
 8000282:	603b      	str	r3, [r7, #0]
                              |RCC_CLOCKTYPE_PCLK1|RCC_CLOCKTYPE_PCLK2;
  RCC_ClkInitStruct.SYSCLKSource = RCC_SYSCLKSOURCE_PLLCLK;
 8000284:	2303      	movs	r3, #3
 8000286:	607b      	str	r3, [r7, #4]
  RCC_ClkInitStruct.AHBCLKDivider = RCC_SYSCLK_DIV1;
 8000288:	2300      	movs	r3, #0
 800028a:	60bb      	str	r3, [r7, #8]
  RCC_ClkInitStruct.APB1CLKDivider = RCC_HCLK_DIV1;
 800028c:	2300      	movs	r3, #0
 800028e:	60fb      	str	r3, [r7, #12]
  RCC_ClkInitStruct.APB2CLKDivider = RCC_HCLK_DIV1;
 8000290:	2300      	movs	r3, #0
 8000292:	613b      	str	r3, [r7, #16]

  if (HAL_RCC_ClockConfig(&RCC_ClkInitStruct, FLASH_LATENCY_4) != HAL_OK)
 8000294:	463b      	mov	r3, r7
 8000296:	2104      	movs	r1, #4
 8000298:	4618      	mov	r0, r3
 800029a:	f001 f8a1 	bl	80013e0 <HAL_RCC_ClockConfig>
 800029e:	4603      	mov	r3, r0
 80002a0:	2b00      	cmp	r3, #0
 80002a2:	d001      	beq.n	80002a8 <SystemClock_Config+0x9a>
  {
    Error_Handler();
 80002a4:	f000 f87c 	bl	80003a0 <Error_Handler>
  }
}
 80002a8:	bf00      	nop
 80002aa:	3758      	adds	r7, #88	; 0x58
 80002ac:	46bd      	mov	sp, r7
 80002ae:	bd80      	pop	{r7, pc}

080002b0 <MX_GPIO_Init>:
  * @brief GPIO Initialization Function
  * @param None
  * @retval None
  */
static void MX_GPIO_Init(void)
{
 80002b0:	b580      	push	{r7, lr}
 80002b2:	b08a      	sub	sp, #40	; 0x28
 80002b4:	af00      	add	r7, sp, #0
  GPIO_InitTypeDef GPIO_InitStruct = {0};
 80002b6:	f107 0314 	add.w	r3, r7, #20
 80002ba:	2200      	movs	r2, #0
 80002bc:	601a      	str	r2, [r3, #0]
 80002be:	605a      	str	r2, [r3, #4]
 80002c0:	609a      	str	r2, [r3, #8]
 80002c2:	60da      	str	r2, [r3, #12]
 80002c4:	611a      	str	r2, [r3, #16]

  /* GPIO Ports Clock Enable */
  __HAL_RCC_GPIOC_CLK_ENABLE();
 80002c6:	4b34      	ldr	r3, [pc, #208]	; (8000398 <MX_GPIO_Init+0xe8>)
 80002c8:	6cdb      	ldr	r3, [r3, #76]	; 0x4c
 80002ca:	4a33      	ldr	r2, [pc, #204]	; (8000398 <MX_GPIO_Init+0xe8>)
 80002cc:	f043 0304 	orr.w	r3, r3, #4
 80002d0:	64d3      	str	r3, [r2, #76]	; 0x4c
 80002d2:	4b31      	ldr	r3, [pc, #196]	; (8000398 <MX_GPIO_Init+0xe8>)
 80002d4:	6cdb      	ldr	r3, [r3, #76]	; 0x4c
 80002d6:	f003 0304 	and.w	r3, r3, #4
 80002da:	613b      	str	r3, [r7, #16]
 80002dc:	693b      	ldr	r3, [r7, #16]
  __HAL_RCC_GPIOH_CLK_ENABLE();
 80002de:	4b2e      	ldr	r3, [pc, #184]	; (8000398 <MX_GPIO_Init+0xe8>)
 80002e0:	6cdb      	ldr	r3, [r3, #76]	; 0x4c
 80002e2:	4a2d      	ldr	r2, [pc, #180]	; (8000398 <MX_GPIO_Init+0xe8>)
 80002e4:	f043 0380 	orr.w	r3, r3, #128	; 0x80
 80002e8:	64d3      	str	r3, [r2, #76]	; 0x4c
 80002ea:	4b2b      	ldr	r3, [pc, #172]	; (8000398 <MX_GPIO_Init+0xe8>)
 80002ec:	6cdb      	ldr	r3, [r3, #76]	; 0x4c
 80002ee:	f003 0380 	and.w	r3, r3, #128	; 0x80
 80002f2:	60fb      	str	r3, [r7, #12]
 80002f4:	68fb      	ldr	r3, [r7, #12]
  __HAL_RCC_GPIOA_CLK_ENABLE();
 80002f6:	4b28      	ldr	r3, [pc, #160]	; (8000398 <MX_GPIO_Init+0xe8>)
 80002f8:	6cdb      	ldr	r3, [r3, #76]	; 0x4c
 80002fa:	4a27      	ldr	r2, [pc, #156]	; (8000398 <MX_GPIO_Init+0xe8>)
 80002fc:	f043 0301 	orr.w	r3, r3, #1
 8000300:	64d3      	str	r3, [r2, #76]	; 0x4c
 8000302:	4b25      	ldr	r3, [pc, #148]	; (8000398 <MX_GPIO_Init+0xe8>)
 8000304:	6cdb      	ldr	r3, [r3, #76]	; 0x4c
 8000306:	f003 0301 	and.w	r3, r3, #1
 800030a:	60bb      	str	r3, [r7, #8]
 800030c:	68bb      	ldr	r3, [r7, #8]
  __HAL_RCC_GPIOB_CLK_ENABLE();
 800030e:	4b22      	ldr	r3, [pc, #136]	; (8000398 <MX_GPIO_Init+0xe8>)
 8000310:	6cdb      	ldr	r3, [r3, #76]	; 0x4c
 8000312:	4a21      	ldr	r2, [pc, #132]	; (8000398 <MX_GPIO_Init+0xe8>)
 8000314:	f043 0302 	orr.w	r3, r3, #2
 8000318:	64d3      	str	r3, [r2, #76]	; 0x4c
 800031a:	4b1f      	ldr	r3, [pc, #124]	; (8000398 <MX_GPIO_Init+0xe8>)
 800031c:	6cdb      	ldr	r3, [r3, #76]	; 0x4c
 800031e:	f003 0302 	and.w	r3, r3, #2
 8000322:	607b      	str	r3, [r7, #4]
 8000324:	687b      	ldr	r3, [r7, #4]

  /*Configure GPIO pin Output Level */
  HAL_GPIO_WritePin(LEDPIN_GPIO_Port, LEDPIN_Pin, GPIO_PIN_SET);
 8000326:	2201      	movs	r2, #1
 8000328:	2120      	movs	r1, #32
 800032a:	f04f 4090 	mov.w	r0, #1207959552	; 0x48000000
 800032e:	f000 fbc7 	bl	8000ac0 <HAL_GPIO_WritePin>

  /*Configure GPIO pin : B1_Pin */
  GPIO_InitStruct.Pin = B1_Pin;
 8000332:	f44f 5300 	mov.w	r3, #8192	; 0x2000
 8000336:	617b      	str	r3, [r7, #20]
  GPIO_InitStruct.Mode = GPIO_MODE_IT_FALLING;
 8000338:	f44f 1304 	mov.w	r3, #2162688	; 0x210000
 800033c:	61bb      	str	r3, [r7, #24]
  GPIO_InitStruct.Pull = GPIO_NOPULL;
 800033e:	2300      	movs	r3, #0
 8000340:	61fb      	str	r3, [r7, #28]
  HAL_GPIO_Init(B1_GPIO_Port, &GPIO_InitStruct);
 8000342:	f107 0314 	add.w	r3, r7, #20
 8000346:	4619      	mov	r1, r3
 8000348:	4814      	ldr	r0, [pc, #80]	; (800039c <MX_GPIO_Init+0xec>)
 800034a:	f000 fa3f 	bl	80007cc <HAL_GPIO_Init>

  /*Configure GPIO pins : USART_TX_Pin USART_RX_Pin */
  GPIO_InitStruct.Pin = USART_TX_Pin|USART_RX_Pin;
 800034e:	230c      	movs	r3, #12
 8000350:	617b      	str	r3, [r7, #20]
  GPIO_InitStruct.Mode = GPIO_MODE_AF_PP;
 8000352:	2302      	movs	r3, #2
 8000354:	61bb      	str	r3, [r7, #24]
  GPIO_InitStruct.Pull = GPIO_NOPULL;
 8000356:	2300      	movs	r3, #0
 8000358:	61fb      	str	r3, [r7, #28]
  GPIO_InitStruct.Speed = GPIO_SPEED_FREQ_VERY_HIGH;
 800035a:	2303      	movs	r3, #3
 800035c:	623b      	str	r3, [r7, #32]
  GPIO_InitStruct.Alternate = GPIO_AF7_USART2;
 800035e:	2307      	movs	r3, #7
 8000360:	627b      	str	r3, [r7, #36]	; 0x24
  HAL_GPIO_Init(GPIOA, &GPIO_InitStruct);
 8000362:	f107 0314 	add.w	r3, r7, #20
 8000366:	4619      	mov	r1, r3
 8000368:	f04f 4090 	mov.w	r0, #1207959552	; 0x48000000
 800036c:	f000 fa2e 	bl	80007cc <HAL_GPIO_Init>

  /*Configure GPIO pin : LEDPIN_Pin */
  GPIO_InitStruct.Pin = LEDPIN_Pin;
 8000370:	2320      	movs	r3, #32
 8000372:	617b      	str	r3, [r7, #20]
  GPIO_InitStruct.Mode = GPIO_MODE_OUTPUT_PP;
 8000374:	2301      	movs	r3, #1
 8000376:	61bb      	str	r3, [r7, #24]
  GPIO_InitStruct.Pull = GPIO_NOPULL;
 8000378:	2300      	movs	r3, #0
 800037a:	61fb      	str	r3, [r7, #28]
  GPIO_InitStruct.Speed = GPIO_SPEED_FREQ_LOW;
 800037c:	2300      	movs	r3, #0
 800037e:	623b      	str	r3, [r7, #32]
  HAL_GPIO_Init(LEDPIN_GPIO_Port, &GPIO_InitStruct);
 8000380:	f107 0314 	add.w	r3, r7, #20
 8000384:	4619      	mov	r1, r3
 8000386:	f04f 4090 	mov.w	r0, #1207959552	; 0x48000000
 800038a:	f000 fa1f 	bl	80007cc <HAL_GPIO_Init>

}
 800038e:	bf00      	nop
 8000390:	3728      	adds	r7, #40	; 0x28
 8000392:	46bd      	mov	sp, r7
 8000394:	bd80      	pop	{r7, pc}
 8000396:	bf00      	nop
 8000398:	40021000 	.word	0x40021000
 800039c:	48000800 	.word	0x48000800

080003a0 <Error_Handler>:
/**
  * @brief  This function is executed in case of error occurrence.
  * @retval None
  */
void Error_Handler(void)
{
 80003a0:	b480      	push	{r7}
 80003a2:	af00      	add	r7, sp, #0
  \details Disables IRQ interrupts by setting the I-bit in the CPSR.
           Can only be executed in Privileged modes.
 */
__STATIC_FORCEINLINE void __disable_irq(void)
{
  __ASM volatile ("cpsid i" : : : "memory");
 80003a4:	b672      	cpsid	i
}
 80003a6:	bf00      	nop
  /* USER CODE BEGIN Error_Handler_Debug */
  /* User can add his own implementation to report the HAL error return state */
  __disable_irq();
  while (1)
 80003a8:	e7fe      	b.n	80003a8 <Error_Handler+0x8>
	...

080003ac <HAL_MspInit>:
/* USER CODE END 0 */
/**
  * Initializes the Global MSP.
  */
void HAL_MspInit(void)
{
 80003ac:	b480      	push	{r7}
 80003ae:	b083      	sub	sp, #12
 80003b0:	af00      	add	r7, sp, #0
  /* USER CODE BEGIN MspInit 0 */

  /* USER CODE END MspInit 0 */

  __HAL_RCC_SYSCFG_CLK_ENABLE();
 80003b2:	4b0f      	ldr	r3, [pc, #60]	; (80003f0 <HAL_MspInit+0x44>)
 80003b4:	6e1b      	ldr	r3, [r3, #96]	; 0x60
 80003b6:	4a0e      	ldr	r2, [pc, #56]	; (80003f0 <HAL_MspInit+0x44>)
 80003b8:	f043 0301 	orr.w	r3, r3, #1
 80003bc:	6613      	str	r3, [r2, #96]	; 0x60
 80003be:	4b0c      	ldr	r3, [pc, #48]	; (80003f0 <HAL_MspInit+0x44>)
 80003c0:	6e1b      	ldr	r3, [r3, #96]	; 0x60
 80003c2:	f003 0301 	and.w	r3, r3, #1
 80003c6:	607b      	str	r3, [r7, #4]
 80003c8:	687b      	ldr	r3, [r7, #4]
  __HAL_RCC_PWR_CLK_ENABLE();
 80003ca:	4b09      	ldr	r3, [pc, #36]	; (80003f0 <HAL_MspInit+0x44>)
 80003cc:	6d9b      	ldr	r3, [r3, #88]	; 0x58
 80003ce:	4a08      	ldr	r2, [pc, #32]	; (80003f0 <HAL_MspInit+0x44>)
 80003d0:	f043 5380 	orr.w	r3, r3, #268435456	; 0x10000000
 80003d4:	6593      	str	r3, [r2, #88]	; 0x58
 80003d6:	4b06      	ldr	r3, [pc, #24]	; (80003f0 <HAL_MspInit+0x44>)
 80003d8:	6d9b      	ldr	r3, [r3, #88]	; 0x58
 80003da:	f003 5380 	and.w	r3, r3, #268435456	; 0x10000000
 80003de:	603b      	str	r3, [r7, #0]
 80003e0:	683b      	ldr	r3, [r7, #0]
  /* System interrupt init*/

  /* USER CODE BEGIN MspInit 1 */

  /* USER CODE END MspInit 1 */
}
 80003e2:	bf00      	nop
 80003e4:	370c      	adds	r7, #12
 80003e6:	46bd      	mov	sp, r7
 80003e8:	f85d 7b04 	ldr.w	r7, [sp], #4
 80003ec:	4770      	bx	lr
 80003ee:	bf00      	nop
 80003f0:	40021000 	.word	0x40021000

080003f4 <NMI_Handler>:
/******************************************************************************/
/**
  * @brief This function handles Non maskable interrupt.
  */
void NMI_Handler(void)
{
 80003f4:	b480      	push	{r7}
 80003f6:	af00      	add	r7, sp, #0
  /* USER CODE BEGIN NonMaskableInt_IRQn 0 */

  /* USER CODE END NonMaskableInt_IRQn 0 */
  /* USER CODE BEGIN NonMaskableInt_IRQn 1 */
  while (1)
 80003f8:	e7fe      	b.n	80003f8 <NMI_Handler+0x4>

080003fa <HardFault_Handler>:

/**
  * @brief This function handles Hard fault interrupt.
  */
void HardFault_Handler(void)
{
 80003fa:	b480      	push	{r7}
 80003fc:	af00      	add	r7, sp, #0
  /* USER CODE BEGIN HardFault_IRQn 0 */

  /* USER CODE END HardFault_IRQn 0 */
  while (1)
 80003fe:	e7fe      	b.n	80003fe <HardFault_Handler+0x4>

08000400 <MemManage_Handler>:

/**
  * @brief This function handles Memory management fault.
  */
void MemManage_Handler(void)
{
 8000400:	b480      	push	{r7}
 8000402:	af00      	add	r7, sp, #0
  /* USER CODE BEGIN MemoryManagement_IRQn 0 */

  /* USER CODE END MemoryManagement_IRQn 0 */
  while (1)
 8000404:	e7fe      	b.n	8000404 <MemManage_Handler+0x4>

08000406 <BusFault_Handler>:

/**
  * @brief This function handles Prefetch fault, memory access fault.
  */
void BusFault_Handler(void)
{
 8000406:	b480      	push	{r7}
 8000408:	af00      	add	r7, sp, #0
  /* USER CODE BEGIN BusFault_IRQn 0 */

  /* USER CODE END BusFault_IRQn 0 */
  while (1)
 800040a:	e7fe      	b.n	800040a <BusFault_Handler+0x4>

0800040c <UsageFault_Handler>:

/**
  * @brief This function handles Undefined instruction or illegal state.
  */
void UsageFault_Handler(void)
{
 800040c:	b480      	push	{r7}
 800040e:	af00      	add	r7, sp, #0
  /* USER CODE BEGIN UsageFault_IRQn 0 */

  /* USER CODE END UsageFault_IRQn 0 */
  while (1)
 8000410:	e7fe      	b.n	8000410 <UsageFault_Handler+0x4>

08000412 <SVC_Handler>:

/**
  * @brief This function handles System service call via SWI instruction.
  */
void SVC_Handler(void)
{
 8000412:	b480      	push	{r7}
 8000414:	af00      	add	r7, sp, #0

  /* USER CODE END SVCall_IRQn 0 */
  /* USER CODE BEGIN SVCall_IRQn 1 */

  /* USER CODE END SVCall_IRQn 1 */
}
 8000416:	bf00      	nop
 8000418:	46bd      	mov	sp, r7
 800041a:	f85d 7b04 	ldr.w	r7, [sp], #4
 800041e:	4770      	bx	lr

08000420 <DebugMon_Handler>:

/**
  * @brief This function handles Debug monitor.
  */
void DebugMon_Handler(void)
{
 8000420:	b480      	push	{r7}
 8000422:	af00      	add	r7, sp, #0

  /* USER CODE END DebugMonitor_IRQn 0 */
  /* USER CODE BEGIN DebugMonitor_IRQn 1 */

  /* USER CODE END DebugMonitor_IRQn 1 */
}
 8000424:	bf00      	nop
 8000426:	46bd      	mov	sp, r7
 8000428:	f85d 7b04 	ldr.w	r7, [sp], #4
 800042c:	4770      	bx	lr

0800042e <PendSV_Handler>:

/**
  * @brief This function handles Pendable request for system service.
  */
void PendSV_Handler(void)
{
 800042e:	b480      	push	{r7}
 8000430:	af00      	add	r7, sp, #0

  /* USER CODE END PendSV_IRQn 0 */
  /* USER CODE BEGIN PendSV_IRQn 1 */

  /* USER CODE END PendSV_IRQn 1 */
}
 8000432:	bf00      	nop
 8000434:	46bd      	mov	sp, r7
 8000436:	f85d 7b04 	ldr.w	r7, [sp], #4
 800043a:	4770      	bx	lr

0800043c <SysTick_Handler>:

/**
  * @brief This function handles System tick timer.
  */
void SysTick_Handler(void)
{
 800043c:	b580      	push	{r7, lr}
 800043e:	af00      	add	r7, sp, #0
  /* USER CODE BEGIN SysTick_IRQn 0 */

  /* USER CODE END SysTick_IRQn 0 */
  HAL_IncTick();
 8000440:	f000 f89a 	bl	8000578 <HAL_IncTick>
  /* USER CODE BEGIN SysTick_IRQn 1 */

  /* USER CODE END SysTick_IRQn 1 */
}
 8000444:	bf00      	nop
 8000446:	bd80      	pop	{r7, pc}

08000448 <SystemInit>:
  * @brief  Setup the microcontroller system.
  * @retval None
  */

void SystemInit(void)
{
 8000448:	b480      	push	{r7}
 800044a:	af00      	add	r7, sp, #0
  SCB->VTOR = VECT_TAB_BASE_ADDRESS | VECT_TAB_OFFSET;
#endif

  /* FPU settings ------------------------------------------------------------*/
#if (__FPU_PRESENT == 1) && (__FPU_USED == 1)
  SCB->CPACR |= ((3UL << 20U)|(3UL << 22U));  /* set CP10 and CP11 Full Access */
 800044c:	4b06      	ldr	r3, [pc, #24]	; (8000468 <SystemInit+0x20>)
 800044e:	f8d3 3088 	ldr.w	r3, [r3, #136]	; 0x88
 8000452:	4a05      	ldr	r2, [pc, #20]	; (8000468 <SystemInit+0x20>)
 8000454:	f443 0370 	orr.w	r3, r3, #15728640	; 0xf00000
 8000458:	f8c2 3088 	str.w	r3, [r2, #136]	; 0x88
#endif
}
 800045c:	bf00      	nop
 800045e:	46bd      	mov	sp, r7
 8000460:	f85d 7b04 	ldr.w	r7, [sp], #4
 8000464:	4770      	bx	lr
 8000466:	bf00      	nop
 8000468:	e000ed00 	.word	0xe000ed00

0800046c <Reset_Handler>:

    .section	.text.Reset_Handler
	.weak	Reset_Handler
	.type	Reset_Handler, %function
Reset_Handler:
  ldr   sp, =_estack    /* Set stack pointer */
 800046c:	f8df d034 	ldr.w	sp, [pc, #52]	; 80004a4 <LoopForever+0x2>

/* Call the clock system initialization function.*/
    bl  SystemInit
 8000470:	f7ff ffea 	bl	8000448 <SystemInit>

/* Copy the data segment initializers from flash to SRAM */
  ldr r0, =_sdata
 8000474:	480c      	ldr	r0, [pc, #48]	; (80004a8 <LoopForever+0x6>)
  ldr r1, =_edata
 8000476:	490d      	ldr	r1, [pc, #52]	; (80004ac <LoopForever+0xa>)
  ldr r2, =_sidata
 8000478:	4a0d      	ldr	r2, [pc, #52]	; (80004b0 <LoopForever+0xe>)
  movs r3, #0
 800047a:	2300      	movs	r3, #0
  b LoopCopyDataInit
 800047c:	e002      	b.n	8000484 <LoopCopyDataInit>

0800047e <CopyDataInit>:

CopyDataInit:
  ldr r4, [r2, r3]
 800047e:	58d4      	ldr	r4, [r2, r3]
  str r4, [r0, r3]
 8000480:	50c4      	str	r4, [r0, r3]
  adds r3, r3, #4
 8000482:	3304      	adds	r3, #4

08000484 <LoopCopyDataInit>:

LoopCopyDataInit:
  adds r4, r0, r3
 8000484:	18c4      	adds	r4, r0, r3
  cmp r4, r1
 8000486:	428c      	cmp	r4, r1
  bcc CopyDataInit
 8000488:	d3f9      	bcc.n	800047e <CopyDataInit>
  
/* Zero fill the bss segment. */
  ldr r2, =_sbss
 800048a:	4a0a      	ldr	r2, [pc, #40]	; (80004b4 <LoopForever+0x12>)
  ldr r4, =_ebss
 800048c:	4c0a      	ldr	r4, [pc, #40]	; (80004b8 <LoopForever+0x16>)
  movs r3, #0
 800048e:	2300      	movs	r3, #0
  b LoopFillZerobss
 8000490:	e001      	b.n	8000496 <LoopFillZerobss>

08000492 <FillZerobss>:

FillZerobss:
  str  r3, [r2]
 8000492:	6013      	str	r3, [r2, #0]
  adds r2, r2, #4
 8000494:	3204      	adds	r2, #4

08000496 <LoopFillZerobss>:

LoopFillZerobss:
  cmp r2, r4
 8000496:	42a2      	cmp	r2, r4
  bcc FillZerobss
 8000498:	d3fb      	bcc.n	8000492 <FillZerobss>

/* Call static constructors */
    bl __libc_init_array
 800049a:	f001 f98d 	bl	80017b8 <__libc_init_array>
/* Call the application's entry point.*/
	bl	main
 800049e:	f7ff fe99 	bl	80001d4 <main>

080004a2 <LoopForever>:

LoopForever:
    b LoopForever
 80004a2:	e7fe      	b.n	80004a2 <LoopForever>
  ldr   sp, =_estack    /* Set stack pointer */
 80004a4:	20028000 	.word	0x20028000
  ldr r0, =_sdata
 80004a8:	20000000 	.word	0x20000000
  ldr r1, =_edata
 80004ac:	2000000c 	.word	0x2000000c
  ldr r2, =_sidata
 80004b0:	08001870 	.word	0x08001870
  ldr r2, =_sbss
 80004b4:	2000000c 	.word	0x2000000c
  ldr r4, =_ebss
 80004b8:	2000002c 	.word	0x2000002c

080004bc <ADC1_IRQHandler>:
 * @retval : None
*/
    .section	.text.Default_Handler,"ax",%progbits
Default_Handler:
Infinite_Loop:
	b	Infinite_Loop
 80004bc:	e7fe      	b.n	80004bc <ADC1_IRQHandler>
	...

080004c0 <HAL_Init>:
  *         each 1ms in the SysTick_Handler() interrupt handler.
  *
  * @retval HAL status
  */
HAL_StatusTypeDef HAL_Init(void)
{
 80004c0:	b580      	push	{r7, lr}
 80004c2:	b082      	sub	sp, #8
 80004c4:	af00      	add	r7, sp, #0
  HAL_StatusTypeDef  status = HAL_OK;
 80004c6:	2300      	movs	r3, #0
 80004c8:	71fb      	strb	r3, [r7, #7]
#if (DATA_CACHE_ENABLE == 0)
   __HAL_FLASH_DATA_CACHE_DISABLE();
#endif /* DATA_CACHE_ENABLE */

#if (PREFETCH_ENABLE != 0)
  __HAL_FLASH_PREFETCH_BUFFER_ENABLE();
 80004ca:	4b0c      	ldr	r3, [pc, #48]	; (80004fc <HAL_Init+0x3c>)
 80004cc:	681b      	ldr	r3, [r3, #0]
 80004ce:	4a0b      	ldr	r2, [pc, #44]	; (80004fc <HAL_Init+0x3c>)
 80004d0:	f443 7380 	orr.w	r3, r3, #256	; 0x100
 80004d4:	6013      	str	r3, [r2, #0]
#endif /* PREFETCH_ENABLE */

  /* Set Interrupt Group Priority */
  HAL_NVIC_SetPriorityGrouping(NVIC_PRIORITYGROUP_4);
 80004d6:	2003      	movs	r0, #3
 80004d8:	f000 f944 	bl	8000764 <HAL_NVIC_SetPriorityGrouping>

  /* Use SysTick as time base source and configure 1ms tick (default clock after Reset is MSI) */
  if (HAL_InitTick(TICK_INT_PRIORITY) != HAL_OK)
 80004dc:	2000      	movs	r0, #0
 80004de:	f000 f80f 	bl	8000500 <HAL_InitTick>
 80004e2:	4603      	mov	r3, r0
 80004e4:	2b00      	cmp	r3, #0
 80004e6:	d002      	beq.n	80004ee <HAL_Init+0x2e>
  {
    status = HAL_ERROR;
 80004e8:	2301      	movs	r3, #1
 80004ea:	71fb      	strb	r3, [r7, #7]
 80004ec:	e001      	b.n	80004f2 <HAL_Init+0x32>
  }
  else
  {
    /* Init the low level hardware */
    HAL_MspInit();
 80004ee:	f7ff ff5d 	bl	80003ac <HAL_MspInit>
  }

  /* Return function status */
  return status;
 80004f2:	79fb      	ldrb	r3, [r7, #7]
}
 80004f4:	4618      	mov	r0, r3
 80004f6:	3708      	adds	r7, #8
 80004f8:	46bd      	mov	sp, r7
 80004fa:	bd80      	pop	{r7, pc}
 80004fc:	40022000 	.word	0x40022000

08000500 <HAL_InitTick>:
  *       implementation  in user file.
  * @param TickPriority  Tick interrupt priority.
  * @retval HAL status
  */
__weak HAL_StatusTypeDef HAL_InitTick(uint32_t TickPriority)
{
 8000500:	b580      	push	{r7, lr}
 8000502:	b084      	sub	sp, #16
 8000504:	af00      	add	r7, sp, #0
 8000506:	6078      	str	r0, [r7, #4]
  HAL_StatusTypeDef  status = HAL_OK;
 8000508:	2300      	movs	r3, #0
 800050a:	73fb      	strb	r3, [r7, #15]

  /* Check uwTickFreq for MisraC 2012 (even if uwTickFreq is a enum type that doesn't take the value zero)*/
  if ((uint32_t)uwTickFreq != 0U)
 800050c:	4b17      	ldr	r3, [pc, #92]	; (800056c <HAL_InitTick+0x6c>)
 800050e:	781b      	ldrb	r3, [r3, #0]
 8000510:	2b00      	cmp	r3, #0
 8000512:	d023      	beq.n	800055c <HAL_InitTick+0x5c>
  {
    /*Configure the SysTick to have interrupt in 1ms time basis*/
    if (HAL_SYSTICK_Config(SystemCoreClock / (1000U / (uint32_t)uwTickFreq)) == 0U)
 8000514:	4b16      	ldr	r3, [pc, #88]	; (8000570 <HAL_InitTick+0x70>)
 8000516:	681a      	ldr	r2, [r3, #0]
 8000518:	4b14      	ldr	r3, [pc, #80]	; (800056c <HAL_InitTick+0x6c>)
 800051a:	781b      	ldrb	r3, [r3, #0]
 800051c:	4619      	mov	r1, r3
 800051e:	f44f 737a 	mov.w	r3, #1000	; 0x3e8
 8000522:	fbb3 f3f1 	udiv	r3, r3, r1
 8000526:	fbb2 f3f3 	udiv	r3, r2, r3
 800052a:	4618      	mov	r0, r3
 800052c:	f000 f941 	bl	80007b2 <HAL_SYSTICK_Config>
 8000530:	4603      	mov	r3, r0
 8000532:	2b00      	cmp	r3, #0
 8000534:	d10f      	bne.n	8000556 <HAL_InitTick+0x56>
    {
      /* Configure the SysTick IRQ priority */
      if (TickPriority < (1UL << __NVIC_PRIO_BITS))
 8000536:	687b      	ldr	r3, [r7, #4]
 8000538:	2b0f      	cmp	r3, #15
 800053a:	d809      	bhi.n	8000550 <HAL_InitTick+0x50>
      {
        HAL_NVIC_SetPriority(SysTick_IRQn, TickPriority, 0U);
 800053c:	2200      	movs	r2, #0
 800053e:	6879      	ldr	r1, [r7, #4]
 8000540:	f04f 30ff 	mov.w	r0, #4294967295
 8000544:	f000 f919 	bl	800077a <HAL_NVIC_SetPriority>
        uwTickPrio = TickPriority;
 8000548:	4a0a      	ldr	r2, [pc, #40]	; (8000574 <HAL_InitTick+0x74>)
 800054a:	687b      	ldr	r3, [r7, #4]
 800054c:	6013      	str	r3, [r2, #0]
 800054e:	e007      	b.n	8000560 <HAL_InitTick+0x60>
      }
      else
      {
        status = HAL_ERROR;
 8000550:	2301      	movs	r3, #1
 8000552:	73fb      	strb	r3, [r7, #15]
 8000554:	e004      	b.n	8000560 <HAL_InitTick+0x60>
      }
    }
    else
    {
      status = HAL_ERROR;
 8000556:	2301      	movs	r3, #1
 8000558:	73fb      	strb	r3, [r7, #15]
 800055a:	e001      	b.n	8000560 <HAL_InitTick+0x60>
    }
  }
  else
  {
    status = HAL_ERROR;
 800055c:	2301      	movs	r3, #1
 800055e:	73fb      	strb	r3, [r7, #15]
  }

  /* Return function status */
  return status;
 8000560:	7bfb      	ldrb	r3, [r7, #15]
}
 8000562:	4618      	mov	r0, r3
 8000564:	3710      	adds	r7, #16
 8000566:	46bd      	mov	sp, r7
 8000568:	bd80      	pop	{r7, pc}
 800056a:	bf00      	nop
 800056c:	20000008 	.word	0x20000008
 8000570:	20000000 	.word	0x20000000
 8000574:	20000004 	.word	0x20000004

08000578 <HAL_IncTick>:
 * @note This function is declared as __weak to be overwritten in case of other
  *      implementations in user file.
  * @retval None
  */
__weak void HAL_IncTick(void)
{
 8000578:	b480      	push	{r7}
 800057a:	af00      	add	r7, sp, #0
  uwTick += (uint32_t)uwTickFreq;
 800057c:	4b06      	ldr	r3, [pc, #24]	; (8000598 <HAL_IncTick+0x20>)
 800057e:	781b      	ldrb	r3, [r3, #0]
 8000580:	461a      	mov	r2, r3
 8000582:	4b06      	ldr	r3, [pc, #24]	; (800059c <HAL_IncTick+0x24>)
 8000584:	681b      	ldr	r3, [r3, #0]
 8000586:	4413      	add	r3, r2
 8000588:	4a04      	ldr	r2, [pc, #16]	; (800059c <HAL_IncTick+0x24>)
 800058a:	6013      	str	r3, [r2, #0]
}
 800058c:	bf00      	nop
 800058e:	46bd      	mov	sp, r7
 8000590:	f85d 7b04 	ldr.w	r7, [sp], #4
 8000594:	4770      	bx	lr
 8000596:	bf00      	nop
 8000598:	20000008 	.word	0x20000008
 800059c:	20000028 	.word	0x20000028

080005a0 <HAL_GetTick>:
  * @note This function is declared as __weak to be overwritten in case of other
  *       implementations in user file.
  * @retval tick value
  */
__weak uint32_t HAL_GetTick(void)
{
 80005a0:	b480      	push	{r7}
 80005a2:	af00      	add	r7, sp, #0
  return uwTick;
 80005a4:	4b03      	ldr	r3, [pc, #12]	; (80005b4 <HAL_GetTick+0x14>)
 80005a6:	681b      	ldr	r3, [r3, #0]
}
 80005a8:	4618      	mov	r0, r3
 80005aa:	46bd      	mov	sp, r7
 80005ac:	f85d 7b04 	ldr.w	r7, [sp], #4
 80005b0:	4770      	bx	lr
 80005b2:	bf00      	nop
 80005b4:	20000028 	.word	0x20000028

080005b8 <HAL_Delay>:
  *       implementations in user file.
  * @param Delay  specifies the delay time length, in milliseconds.
  * @retval None
  */
__weak void HAL_Delay(uint32_t Delay)
{
 80005b8:	b580      	push	{r7, lr}
 80005ba:	b084      	sub	sp, #16
 80005bc:	af00      	add	r7, sp, #0
 80005be:	6078      	str	r0, [r7, #4]
  uint32_t tickstart = HAL_GetTick();
 80005c0:	f7ff ffee 	bl	80005a0 <HAL_GetTick>
 80005c4:	60b8      	str	r0, [r7, #8]
  uint32_t wait = Delay;
 80005c6:	687b      	ldr	r3, [r7, #4]
 80005c8:	60fb      	str	r3, [r7, #12]

  /* Add a period to guaranty minimum wait */
  if (wait < HAL_MAX_DELAY)
 80005ca:	68fb      	ldr	r3, [r7, #12]
 80005cc:	f1b3 3fff 	cmp.w	r3, #4294967295
 80005d0:	d005      	beq.n	80005de <HAL_Delay+0x26>
  {
    wait += (uint32_t)uwTickFreq;
 80005d2:	4b0a      	ldr	r3, [pc, #40]	; (80005fc <HAL_Delay+0x44>)
 80005d4:	781b      	ldrb	r3, [r3, #0]
 80005d6:	461a      	mov	r2, r3
 80005d8:	68fb      	ldr	r3, [r7, #12]
 80005da:	4413      	add	r3, r2
 80005dc:	60fb      	str	r3, [r7, #12]
  }

  while ((HAL_GetTick() - tickstart) < wait)
 80005de:	bf00      	nop
 80005e0:	f7ff ffde 	bl	80005a0 <HAL_GetTick>
 80005e4:	4602      	mov	r2, r0
 80005e6:	68bb      	ldr	r3, [r7, #8]
 80005e8:	1ad3      	subs	r3, r2, r3
 80005ea:	68fa      	ldr	r2, [r7, #12]
 80005ec:	429a      	cmp	r2, r3
 80005ee:	d8f7      	bhi.n	80005e0 <HAL_Delay+0x28>
  {
  }
}
 80005f0:	bf00      	nop
 80005f2:	bf00      	nop
 80005f4:	3710      	adds	r7, #16
 80005f6:	46bd      	mov	sp, r7
 80005f8:	bd80      	pop	{r7, pc}
 80005fa:	bf00      	nop
 80005fc:	20000008 	.word	0x20000008

08000600 <__NVIC_SetPriorityGrouping>:
           In case of a conflict between priority grouping and available
           priority bits (__NVIC_PRIO_BITS), the smallest possible priority group is set.
  \param [in]      PriorityGroup  Priority grouping field.
 */
__STATIC_INLINE void __NVIC_SetPriorityGrouping(uint32_t PriorityGroup)
{
 8000600:	b480      	push	{r7}
 8000602:	b085      	sub	sp, #20
 8000604:	af00      	add	r7, sp, #0
 8000606:	6078      	str	r0, [r7, #4]
  uint32_t reg_value;
  uint32_t PriorityGroupTmp = (PriorityGroup & (uint32_t)0x07UL);             /* only values 0..7 are used          */
 8000608:	687b      	ldr	r3, [r7, #4]
 800060a:	f003 0307 	and.w	r3, r3, #7
 800060e:	60fb      	str	r3, [r7, #12]

  reg_value  =  SCB->AIRCR;                                                   /* read old register configuration    */
 8000610:	4b0c      	ldr	r3, [pc, #48]	; (8000644 <__NVIC_SetPriorityGrouping+0x44>)
 8000612:	68db      	ldr	r3, [r3, #12]
 8000614:	60bb      	str	r3, [r7, #8]
  reg_value &= ~((uint32_t)(SCB_AIRCR_VECTKEY_Msk | SCB_AIRCR_PRIGROUP_Msk)); /* clear bits to change               */
 8000616:	68ba      	ldr	r2, [r7, #8]
 8000618:	f64f 03ff 	movw	r3, #63743	; 0xf8ff
 800061c:	4013      	ands	r3, r2
 800061e:	60bb      	str	r3, [r7, #8]
  reg_value  =  (reg_value                                   |
                ((uint32_t)0x5FAUL << SCB_AIRCR_VECTKEY_Pos) |
                (PriorityGroupTmp << SCB_AIRCR_PRIGROUP_Pos)  );              /* Insert write key and priority group */
 8000620:	68fb      	ldr	r3, [r7, #12]
 8000622:	021a      	lsls	r2, r3, #8
                ((uint32_t)0x5FAUL << SCB_AIRCR_VECTKEY_Pos) |
 8000624:	68bb      	ldr	r3, [r7, #8]
 8000626:	4313      	orrs	r3, r2
  reg_value  =  (reg_value                                   |
 8000628:	f043 63bf 	orr.w	r3, r3, #100139008	; 0x5f80000
 800062c:	f443 3300 	orr.w	r3, r3, #131072	; 0x20000
 8000630:	60bb      	str	r3, [r7, #8]
  SCB->AIRCR =  reg_value;
 8000632:	4a04      	ldr	r2, [pc, #16]	; (8000644 <__NVIC_SetPriorityGrouping+0x44>)
 8000634:	68bb      	ldr	r3, [r7, #8]
 8000636:	60d3      	str	r3, [r2, #12]
}
 8000638:	bf00      	nop
 800063a:	3714      	adds	r7, #20
 800063c:	46bd      	mov	sp, r7
 800063e:	f85d 7b04 	ldr.w	r7, [sp], #4
 8000642:	4770      	bx	lr
 8000644:	e000ed00 	.word	0xe000ed00

08000648 <__NVIC_GetPriorityGrouping>:
  \brief   Get Priority Grouping
  \details Reads the priority grouping field from the NVIC Interrupt Controller.
  \return                Priority grouping field (SCB->AIRCR [10:8] PRIGROUP field).
 */
__STATIC_INLINE uint32_t __NVIC_GetPriorityGrouping(void)
{
 8000648:	b480      	push	{r7}
 800064a:	af00      	add	r7, sp, #0
  return ((uint32_t)((SCB->AIRCR & SCB_AIRCR_PRIGROUP_Msk) >> SCB_AIRCR_PRIGROUP_Pos));
 800064c:	4b04      	ldr	r3, [pc, #16]	; (8000660 <__NVIC_GetPriorityGrouping+0x18>)
 800064e:	68db      	ldr	r3, [r3, #12]
 8000650:	0a1b      	lsrs	r3, r3, #8
 8000652:	f003 0307 	and.w	r3, r3, #7
}
 8000656:	4618      	mov	r0, r3
 8000658:	46bd      	mov	sp, r7
 800065a:	f85d 7b04 	ldr.w	r7, [sp], #4
 800065e:	4770      	bx	lr
 8000660:	e000ed00 	.word	0xe000ed00

08000664 <__NVIC_SetPriority>:
  \param [in]      IRQn  Interrupt number.
  \param [in]  priority  Priority to set.
  \note    The priority cannot be set for every processor exception.
 */
__STATIC_INLINE void __NVIC_SetPriority(IRQn_Type IRQn, uint32_t priority)
{
 8000664:	b480      	push	{r7}
 8000666:	b083      	sub	sp, #12
 8000668:	af00      	add	r7, sp, #0
 800066a:	4603      	mov	r3, r0
 800066c:	6039      	str	r1, [r7, #0]
 800066e:	71fb      	strb	r3, [r7, #7]
  if ((int32_t)(IRQn) >= 0)
 8000670:	f997 3007 	ldrsb.w	r3, [r7, #7]
 8000674:	2b00      	cmp	r3, #0
 8000676:	db0a      	blt.n	800068e <__NVIC_SetPriority+0x2a>
  {
    NVIC->IP[((uint32_t)IRQn)]               = (uint8_t)((priority << (8U - __NVIC_PRIO_BITS)) & (uint32_t)0xFFUL);
 8000678:	683b      	ldr	r3, [r7, #0]
 800067a:	b2da      	uxtb	r2, r3
 800067c:	490c      	ldr	r1, [pc, #48]	; (80006b0 <__NVIC_SetPriority+0x4c>)
 800067e:	f997 3007 	ldrsb.w	r3, [r7, #7]
 8000682:	0112      	lsls	r2, r2, #4
 8000684:	b2d2      	uxtb	r2, r2
 8000686:	440b      	add	r3, r1
 8000688:	f883 2300 	strb.w	r2, [r3, #768]	; 0x300
  }
  else
  {
    SCB->SHP[(((uint32_t)IRQn) & 0xFUL)-4UL] = (uint8_t)((priority << (8U - __NVIC_PRIO_BITS)) & (uint32_t)0xFFUL);
  }
}
 800068c:	e00a      	b.n	80006a4 <__NVIC_SetPriority+0x40>
    SCB->SHP[(((uint32_t)IRQn) & 0xFUL)-4UL] = (uint8_t)((priority << (8U - __NVIC_PRIO_BITS)) & (uint32_t)0xFFUL);
 800068e:	683b      	ldr	r3, [r7, #0]
 8000690:	b2da      	uxtb	r2, r3
 8000692:	4908      	ldr	r1, [pc, #32]	; (80006b4 <__NVIC_SetPriority+0x50>)
 8000694:	79fb      	ldrb	r3, [r7, #7]
 8000696:	f003 030f 	and.w	r3, r3, #15
 800069a:	3b04      	subs	r3, #4
 800069c:	0112      	lsls	r2, r2, #4
 800069e:	b2d2      	uxtb	r2, r2
 80006a0:	440b      	add	r3, r1
 80006a2:	761a      	strb	r2, [r3, #24]
}
 80006a4:	bf00      	nop
 80006a6:	370c      	adds	r7, #12
 80006a8:	46bd      	mov	sp, r7
 80006aa:	f85d 7b04 	ldr.w	r7, [sp], #4
 80006ae:	4770      	bx	lr
 80006b0:	e000e100 	.word	0xe000e100
 80006b4:	e000ed00 	.word	0xe000ed00

080006b8 <NVIC_EncodePriority>:
  \param [in]   PreemptPriority  Preemptive priority value (starting from 0).
  \param [in]       SubPriority  Subpriority value (starting from 0).
  \return                        Encoded priority. Value can be used in the function \ref NVIC_SetPriority().
 */
__STATIC_INLINE uint32_t NVIC_EncodePriority (uint32_t PriorityGroup, uint32_t PreemptPriority, uint32_t SubPriority)
{
 80006b8:	b480      	push	{r7}
 80006ba:	b089      	sub	sp, #36	; 0x24
 80006bc:	af00      	add	r7, sp, #0
 80006be:	60f8      	str	r0, [r7, #12]
 80006c0:	60b9      	str	r1, [r7, #8]
 80006c2:	607a      	str	r2, [r7, #4]
  uint32_t PriorityGroupTmp = (PriorityGroup & (uint32_t)0x07UL);   /* only values 0..7 are used          */
 80006c4:	68fb      	ldr	r3, [r7, #12]
 80006c6:	f003 0307 	and.w	r3, r3, #7
 80006ca:	61fb      	str	r3, [r7, #28]
  uint32_t PreemptPriorityBits;
  uint32_t SubPriorityBits;

  PreemptPriorityBits = ((7UL - PriorityGroupTmp) > (uint32_t)(__NVIC_PRIO_BITS)) ? (uint32_t)(__NVIC_PRIO_BITS) : (uint32_t)(7UL - PriorityGroupTmp);
 80006cc:	69fb      	ldr	r3, [r7, #28]
 80006ce:	f1c3 0307 	rsb	r3, r3, #7
 80006d2:	2b04      	cmp	r3, #4
 80006d4:	bf28      	it	cs
 80006d6:	2304      	movcs	r3, #4
 80006d8:	61bb      	str	r3, [r7, #24]
  SubPriorityBits     = ((PriorityGroupTmp + (uint32_t)(__NVIC_PRIO_BITS)) < (uint32_t)7UL) ? (uint32_t)0UL : (uint32_t)((PriorityGroupTmp - 7UL) + (uint32_t)(__NVIC_PRIO_BITS));
 80006da:	69fb      	ldr	r3, [r7, #28]
 80006dc:	3304      	adds	r3, #4
 80006de:	2b06      	cmp	r3, #6
 80006e0:	d902      	bls.n	80006e8 <NVIC_EncodePriority+0x30>
 80006e2:	69fb      	ldr	r3, [r7, #28]
 80006e4:	3b03      	subs	r3, #3
 80006e6:	e000      	b.n	80006ea <NVIC_EncodePriority+0x32>
 80006e8:	2300      	movs	r3, #0
 80006ea:	617b      	str	r3, [r7, #20]

  return (
           ((PreemptPriority & (uint32_t)((1UL << (PreemptPriorityBits)) - 1UL)) << SubPriorityBits) |
 80006ec:	f04f 32ff 	mov.w	r2, #4294967295
 80006f0:	69bb      	ldr	r3, [r7, #24]
 80006f2:	fa02 f303 	lsl.w	r3, r2, r3
 80006f6:	43da      	mvns	r2, r3
 80006f8:	68bb      	ldr	r3, [r7, #8]
 80006fa:	401a      	ands	r2, r3
 80006fc:	697b      	ldr	r3, [r7, #20]
 80006fe:	409a      	lsls	r2, r3
           ((SubPriority     & (uint32_t)((1UL << (SubPriorityBits    )) - 1UL)))
 8000700:	f04f 31ff 	mov.w	r1, #4294967295
 8000704:	697b      	ldr	r3, [r7, #20]
 8000706:	fa01 f303 	lsl.w	r3, r1, r3
 800070a:	43d9      	mvns	r1, r3
 800070c:	687b      	ldr	r3, [r7, #4]
 800070e:	400b      	ands	r3, r1
           ((PreemptPriority & (uint32_t)((1UL << (PreemptPriorityBits)) - 1UL)) << SubPriorityBits) |
 8000710:	4313      	orrs	r3, r2
         );
}
 8000712:	4618      	mov	r0, r3
 8000714:	3724      	adds	r7, #36	; 0x24
 8000716:	46bd      	mov	sp, r7
 8000718:	f85d 7b04 	ldr.w	r7, [sp], #4
 800071c:	4770      	bx	lr
	...

08000720 <SysTick_Config>:
  \note    When the variable <b>__Vendor_SysTickConfig</b> is set to 1, then the
           function <b>SysTick_Config</b> is not included. In this case, the file <b><i>device</i>.h</b>
           must contain a vendor-specific implementation of this function.
 */
__STATIC_INLINE uint32_t SysTick_Config(uint32_t ticks)
{
 8000720:	b580      	push	{r7, lr}
 8000722:	b082      	sub	sp, #8
 8000724:	af00      	add	r7, sp, #0
 8000726:	6078      	str	r0, [r7, #4]
  if ((ticks - 1UL) > SysTick_LOAD_RELOAD_Msk)
 8000728:	687b      	ldr	r3, [r7, #4]
 800072a:	3b01      	subs	r3, #1
 800072c:	f1b3 7f80 	cmp.w	r3, #16777216	; 0x1000000
 8000730:	d301      	bcc.n	8000736 <SysTick_Config+0x16>
  {
    return (1UL);                                                   /* Reload value impossible */
 8000732:	2301      	movs	r3, #1
 8000734:	e00f      	b.n	8000756 <SysTick_Config+0x36>
  }

  SysTick->LOAD  = (uint32_t)(ticks - 1UL);                         /* set reload register */
 8000736:	4a0a      	ldr	r2, [pc, #40]	; (8000760 <SysTick_Config+0x40>)
 8000738:	687b      	ldr	r3, [r7, #4]
 800073a:	3b01      	subs	r3, #1
 800073c:	6053      	str	r3, [r2, #4]
  NVIC_SetPriority (SysTick_IRQn, (1UL << __NVIC_PRIO_BITS) - 1UL); /* set Priority for Systick Interrupt */
 800073e:	210f      	movs	r1, #15
 8000740:	f04f 30ff 	mov.w	r0, #4294967295
 8000744:	f7ff ff8e 	bl	8000664 <__NVIC_SetPriority>
  SysTick->VAL   = 0UL;                                             /* Load the SysTick Counter Value */
 8000748:	4b05      	ldr	r3, [pc, #20]	; (8000760 <SysTick_Config+0x40>)
 800074a:	2200      	movs	r2, #0
 800074c:	609a      	str	r2, [r3, #8]
  SysTick->CTRL  = SysTick_CTRL_CLKSOURCE_Msk |
 800074e:	4b04      	ldr	r3, [pc, #16]	; (8000760 <SysTick_Config+0x40>)
 8000750:	2207      	movs	r2, #7
 8000752:	601a      	str	r2, [r3, #0]
                   SysTick_CTRL_TICKINT_Msk   |
                   SysTick_CTRL_ENABLE_Msk;                         /* Enable SysTick IRQ and SysTick Timer */
  return (0UL);                                                     /* Function successful */
 8000754:	2300      	movs	r3, #0
}
 8000756:	4618      	mov	r0, r3
 8000758:	3708      	adds	r7, #8
 800075a:	46bd      	mov	sp, r7
 800075c:	bd80      	pop	{r7, pc}
 800075e:	bf00      	nop
 8000760:	e000e010 	.word	0xe000e010

08000764 <HAL_NVIC_SetPriorityGrouping>:
  * @note   When the NVIC_PriorityGroup_0 is selected, IRQ pre-emption is no more possible.
  *         The pending IRQ priority will be managed only by the subpriority.
  * @retval None
  */
void HAL_NVIC_SetPriorityGrouping(uint32_t PriorityGroup)
{
 8000764:	b580      	push	{r7, lr}
 8000766:	b082      	sub	sp, #8
 8000768:	af00      	add	r7, sp, #0
 800076a:	6078      	str	r0, [r7, #4]
  /* Check the parameters */
  assert_param(IS_NVIC_PRIORITY_GROUP(PriorityGroup));

  /* Set the PRIGROUP[10:8] bits according to the PriorityGroup parameter value */
  NVIC_SetPriorityGrouping(PriorityGroup);
 800076c:	6878      	ldr	r0, [r7, #4]
 800076e:	f7ff ff47 	bl	8000600 <__NVIC_SetPriorityGrouping>
}
 8000772:	bf00      	nop
 8000774:	3708      	adds	r7, #8
 8000776:	46bd      	mov	sp, r7
 8000778:	bd80      	pop	{r7, pc}

0800077a <HAL_NVIC_SetPriority>:
  *         This parameter can be a value between 0 and 15
  *         A lower priority value indicates a higher priority.
  * @retval None
  */
void HAL_NVIC_SetPriority(IRQn_Type IRQn, uint32_t PreemptPriority, uint32_t SubPriority)
{
 800077a:	b580      	push	{r7, lr}
 800077c:	b086      	sub	sp, #24
 800077e:	af00      	add	r7, sp, #0
 8000780:	4603      	mov	r3, r0
 8000782:	60b9      	str	r1, [r7, #8]
 8000784:	607a      	str	r2, [r7, #4]
 8000786:	73fb      	strb	r3, [r7, #15]
  uint32_t prioritygroup = 0x00;
 8000788:	2300      	movs	r3, #0
 800078a:	617b      	str	r3, [r7, #20]

  /* Check the parameters */
  assert_param(IS_NVIC_SUB_PRIORITY(SubPriority));
  assert_param(IS_NVIC_PREEMPTION_PRIORITY(PreemptPriority));

  prioritygroup = NVIC_GetPriorityGrouping();
 800078c:	f7ff ff5c 	bl	8000648 <__NVIC_GetPriorityGrouping>
 8000790:	6178      	str	r0, [r7, #20]

  NVIC_SetPriority(IRQn, NVIC_EncodePriority(prioritygroup, PreemptPriority, SubPriority));
 8000792:	687a      	ldr	r2, [r7, #4]
 8000794:	68b9      	ldr	r1, [r7, #8]
 8000796:	6978      	ldr	r0, [r7, #20]
 8000798:	f7ff ff8e 	bl	80006b8 <NVIC_EncodePriority>
 800079c:	4602      	mov	r2, r0
 800079e:	f997 300f 	ldrsb.w	r3, [r7, #15]
 80007a2:	4611      	mov	r1, r2
 80007a4:	4618      	mov	r0, r3
 80007a6:	f7ff ff5d 	bl	8000664 <__NVIC_SetPriority>
}
 80007aa:	bf00      	nop
 80007ac:	3718      	adds	r7, #24
 80007ae:	46bd      	mov	sp, r7
 80007b0:	bd80      	pop	{r7, pc}

080007b2 <HAL_SYSTICK_Config>:
  * @param  TicksNumb: Specifies the ticks Number of ticks between two interrupts.
  * @retval status:  - 0  Function succeeded.
  *                  - 1  Function failed.
  */
uint32_t HAL_SYSTICK_Config(uint32_t TicksNumb)
{
 80007b2:	b580      	push	{r7, lr}
 80007b4:	b082      	sub	sp, #8
 80007b6:	af00      	add	r7, sp, #0
 80007b8:	6078      	str	r0, [r7, #4]
   return SysTick_Config(TicksNumb);
 80007ba:	6878      	ldr	r0, [r7, #4]
 80007bc:	f7ff ffb0 	bl	8000720 <SysTick_Config>
 80007c0:	4603      	mov	r3, r0
}
 80007c2:	4618      	mov	r0, r3
 80007c4:	3708      	adds	r7, #8
 80007c6:	46bd      	mov	sp, r7
 80007c8:	bd80      	pop	{r7, pc}
	...

080007cc <HAL_GPIO_Init>:
  * @param  GPIO_Init pointer to a GPIO_InitTypeDef structure that contains
  *         the configuration information for the specified GPIO peripheral.
  * @retval None
  */
void HAL_GPIO_Init(GPIO_TypeDef  *GPIOx, GPIO_InitTypeDef *GPIO_Init)
{
 80007cc:	b480      	push	{r7}
 80007ce:	b087      	sub	sp, #28
 80007d0:	af00      	add	r7, sp, #0
 80007d2:	6078      	str	r0, [r7, #4]
 80007d4:	6039      	str	r1, [r7, #0]
  uint32_t position = 0x00u;
 80007d6:	2300      	movs	r3, #0
 80007d8:	617b      	str	r3, [r7, #20]
  assert_param(IS_GPIO_ALL_INSTANCE(GPIOx));
  assert_param(IS_GPIO_PIN(GPIO_Init->Pin));
  assert_param(IS_GPIO_MODE(GPIO_Init->Mode));

  /* Configure the port pins */
  while (((GPIO_Init->Pin) >> position) != 0x00u)
 80007da:	e154      	b.n	8000a86 <HAL_GPIO_Init+0x2ba>
  {
    /* Get current io position */
    iocurrent = (GPIO_Init->Pin) & (1uL << position);
 80007dc:	683b      	ldr	r3, [r7, #0]
 80007de:	681a      	ldr	r2, [r3, #0]
 80007e0:	2101      	movs	r1, #1
 80007e2:	697b      	ldr	r3, [r7, #20]
 80007e4:	fa01 f303 	lsl.w	r3, r1, r3
 80007e8:	4013      	ands	r3, r2
 80007ea:	60fb      	str	r3, [r7, #12]

    if (iocurrent != 0x00u)
 80007ec:	68fb      	ldr	r3, [r7, #12]
 80007ee:	2b00      	cmp	r3, #0
 80007f0:	f000 8146 	beq.w	8000a80 <HAL_GPIO_Init+0x2b4>
    {
      /*--------------------- GPIO Mode Configuration ------------------------*/
      /* In case of Output or Alternate function mode selection */
      if (((GPIO_Init->Mode & GPIO_MODE) == MODE_OUTPUT) || ((GPIO_Init->Mode & GPIO_MODE) == MODE_AF))
 80007f4:	683b      	ldr	r3, [r7, #0]
 80007f6:	685b      	ldr	r3, [r3, #4]
 80007f8:	f003 0303 	and.w	r3, r3, #3
 80007fc:	2b01      	cmp	r3, #1
 80007fe:	d005      	beq.n	800080c <HAL_GPIO_Init+0x40>
 8000800:	683b      	ldr	r3, [r7, #0]
 8000802:	685b      	ldr	r3, [r3, #4]
 8000804:	f003 0303 	and.w	r3, r3, #3
 8000808:	2b02      	cmp	r3, #2
 800080a:	d130      	bne.n	800086e <HAL_GPIO_Init+0xa2>
      {
        /* Check the Speed parameter */
        assert_param(IS_GPIO_SPEED(GPIO_Init->Speed));

        /* Configure the IO Speed */
        temp = GPIOx->OSPEEDR;
 800080c:	687b      	ldr	r3, [r7, #4]
 800080e:	689b      	ldr	r3, [r3, #8]
 8000810:	613b      	str	r3, [r7, #16]
        temp &= ~(GPIO_OSPEEDR_OSPEED0 << (position * 2u));
 8000812:	697b      	ldr	r3, [r7, #20]
 8000814:	005b      	lsls	r3, r3, #1
 8000816:	2203      	movs	r2, #3
 8000818:	fa02 f303 	lsl.w	r3, r2, r3
 800081c:	43db      	mvns	r3, r3
 800081e:	693a      	ldr	r2, [r7, #16]
 8000820:	4013      	ands	r3, r2
 8000822:	613b      	str	r3, [r7, #16]
        temp |= (GPIO_Init->Speed << (position * 2u));
 8000824:	683b      	ldr	r3, [r7, #0]
 8000826:	68da      	ldr	r2, [r3, #12]
 8000828:	697b      	ldr	r3, [r7, #20]
 800082a:	005b      	lsls	r3, r3, #1
 800082c:	fa02 f303 	lsl.w	r3, r2, r3
 8000830:	693a      	ldr	r2, [r7, #16]
 8000832:	4313      	orrs	r3, r2
 8000834:	613b      	str	r3, [r7, #16]
        GPIOx->OSPEEDR = temp;
 8000836:	687b      	ldr	r3, [r7, #4]
 8000838:	693a      	ldr	r2, [r7, #16]
 800083a:	609a      	str	r2, [r3, #8]

        /* Configure the IO Output Type */
        temp = GPIOx->OTYPER;
 800083c:	687b      	ldr	r3, [r7, #4]
 800083e:	685b      	ldr	r3, [r3, #4]
 8000840:	613b      	str	r3, [r7, #16]
        temp &= ~(GPIO_OTYPER_OT0 << position) ;
 8000842:	2201      	movs	r2, #1
 8000844:	697b      	ldr	r3, [r7, #20]
 8000846:	fa02 f303 	lsl.w	r3, r2, r3
 800084a:	43db      	mvns	r3, r3
 800084c:	693a      	ldr	r2, [r7, #16]
 800084e:	4013      	ands	r3, r2
 8000850:	613b      	str	r3, [r7, #16]
        temp |= (((GPIO_Init->Mode & OUTPUT_TYPE) >> OUTPUT_TYPE_Pos) << position);
 8000852:	683b      	ldr	r3, [r7, #0]
 8000854:	685b      	ldr	r3, [r3, #4]
 8000856:	091b      	lsrs	r3, r3, #4
 8000858:	f003 0201 	and.w	r2, r3, #1
 800085c:	697b      	ldr	r3, [r7, #20]
 800085e:	fa02 f303 	lsl.w	r3, r2, r3
 8000862:	693a      	ldr	r2, [r7, #16]
 8000864:	4313      	orrs	r3, r2
 8000866:	613b      	str	r3, [r7, #16]
        GPIOx->OTYPER = temp;
 8000868:	687b      	ldr	r3, [r7, #4]
 800086a:	693a      	ldr	r2, [r7, #16]
 800086c:	605a      	str	r2, [r3, #4]
      }

#endif /* STM32L471xx || STM32L475xx || STM32L476xx || STM32L485xx || STM32L486xx */

      /* Activate the Pull-up or Pull down resistor for the current IO */
      if ((GPIO_Init->Mode & GPIO_MODE) != MODE_ANALOG)
 800086e:	683b      	ldr	r3, [r7, #0]
 8000870:	685b      	ldr	r3, [r3, #4]
 8000872:	f003 0303 	and.w	r3, r3, #3
 8000876:	2b03      	cmp	r3, #3
 8000878:	d017      	beq.n	80008aa <HAL_GPIO_Init+0xde>
      {
        /* Check the Pull parameter */
        assert_param(IS_GPIO_PULL(GPIO_Init->Pull));

        temp = GPIOx->PUPDR;
 800087a:	687b      	ldr	r3, [r7, #4]
 800087c:	68db      	ldr	r3, [r3, #12]
 800087e:	613b      	str	r3, [r7, #16]
        temp &= ~(GPIO_PUPDR_PUPD0 << (position * 2U));
 8000880:	697b      	ldr	r3, [r7, #20]
 8000882:	005b      	lsls	r3, r3, #1
 8000884:	2203      	movs	r2, #3
 8000886:	fa02 f303 	lsl.w	r3, r2, r3
 800088a:	43db      	mvns	r3, r3
 800088c:	693a      	ldr	r2, [r7, #16]
 800088e:	4013      	ands	r3, r2
 8000890:	613b      	str	r3, [r7, #16]
        temp |= ((GPIO_Init->Pull) << (position * 2U));
 8000892:	683b      	ldr	r3, [r7, #0]
 8000894:	689a      	ldr	r2, [r3, #8]
 8000896:	697b      	ldr	r3, [r7, #20]
 8000898:	005b      	lsls	r3, r3, #1
 800089a:	fa02 f303 	lsl.w	r3, r2, r3
 800089e:	693a      	ldr	r2, [r7, #16]
 80008a0:	4313      	orrs	r3, r2
 80008a2:	613b      	str	r3, [r7, #16]
        GPIOx->PUPDR = temp;
 80008a4:	687b      	ldr	r3, [r7, #4]
 80008a6:	693a      	ldr	r2, [r7, #16]
 80008a8:	60da      	str	r2, [r3, #12]
      }

      /* In case of Alternate function mode selection */
      if ((GPIO_Init->Mode & GPIO_MODE) == MODE_AF)
 80008aa:	683b      	ldr	r3, [r7, #0]
 80008ac:	685b      	ldr	r3, [r3, #4]
 80008ae:	f003 0303 	and.w	r3, r3, #3
 80008b2:	2b02      	cmp	r3, #2
 80008b4:	d123      	bne.n	80008fe <HAL_GPIO_Init+0x132>
        /* Check the Alternate function parameters */
        assert_param(IS_GPIO_AF_INSTANCE(GPIOx));
        assert_param(IS_GPIO_AF(GPIO_Init->Alternate));

        /* Configure Alternate function mapped with the current IO */
        temp = GPIOx->AFR[position >> 3u];
 80008b6:	697b      	ldr	r3, [r7, #20]
 80008b8:	08da      	lsrs	r2, r3, #3
 80008ba:	687b      	ldr	r3, [r7, #4]
 80008bc:	3208      	adds	r2, #8
 80008be:	f853 3022 	ldr.w	r3, [r3, r2, lsl #2]
 80008c2:	613b      	str	r3, [r7, #16]
        temp &= ~(0xFu << ((position & 0x07u) * 4u));
 80008c4:	697b      	ldr	r3, [r7, #20]
 80008c6:	f003 0307 	and.w	r3, r3, #7
 80008ca:	009b      	lsls	r3, r3, #2
 80008cc:	220f      	movs	r2, #15
 80008ce:	fa02 f303 	lsl.w	r3, r2, r3
 80008d2:	43db      	mvns	r3, r3
 80008d4:	693a      	ldr	r2, [r7, #16]
 80008d6:	4013      	ands	r3, r2
 80008d8:	613b      	str	r3, [r7, #16]
        temp |= ((GPIO_Init->Alternate) << ((position & 0x07u) * 4u));
 80008da:	683b      	ldr	r3, [r7, #0]
 80008dc:	691a      	ldr	r2, [r3, #16]
 80008de:	697b      	ldr	r3, [r7, #20]
 80008e0:	f003 0307 	and.w	r3, r3, #7
 80008e4:	009b      	lsls	r3, r3, #2
 80008e6:	fa02 f303 	lsl.w	r3, r2, r3
 80008ea:	693a      	ldr	r2, [r7, #16]
 80008ec:	4313      	orrs	r3, r2
 80008ee:	613b      	str	r3, [r7, #16]
        GPIOx->AFR[position >> 3u] = temp;
 80008f0:	697b      	ldr	r3, [r7, #20]
 80008f2:	08da      	lsrs	r2, r3, #3
 80008f4:	687b      	ldr	r3, [r7, #4]
 80008f6:	3208      	adds	r2, #8
 80008f8:	6939      	ldr	r1, [r7, #16]
 80008fa:	f843 1022 	str.w	r1, [r3, r2, lsl #2]
      }

      /* Configure IO Direction mode (Input, Output, Alternate or Analog) */
      temp = GPIOx->MODER;
 80008fe:	687b      	ldr	r3, [r7, #4]
 8000900:	681b      	ldr	r3, [r3, #0]
 8000902:	613b      	str	r3, [r7, #16]
      temp &= ~(GPIO_MODER_MODE0 << (position * 2u));
 8000904:	697b      	ldr	r3, [r7, #20]
 8000906:	005b      	lsls	r3, r3, #1
 8000908:	2203      	movs	r2, #3
 800090a:	fa02 f303 	lsl.w	r3, r2, r3
 800090e:	43db      	mvns	r3, r3
 8000910:	693a      	ldr	r2, [r7, #16]
 8000912:	4013      	ands	r3, r2
 8000914:	613b      	str	r3, [r7, #16]
      temp |= ((GPIO_Init->Mode & GPIO_MODE) << (position * 2u));
 8000916:	683b      	ldr	r3, [r7, #0]
 8000918:	685b      	ldr	r3, [r3, #4]
 800091a:	f003 0203 	and.w	r2, r3, #3
 800091e:	697b      	ldr	r3, [r7, #20]
 8000920:	005b      	lsls	r3, r3, #1
 8000922:	fa02 f303 	lsl.w	r3, r2, r3
 8000926:	693a      	ldr	r2, [r7, #16]
 8000928:	4313      	orrs	r3, r2
 800092a:	613b      	str	r3, [r7, #16]
      GPIOx->MODER = temp;
 800092c:	687b      	ldr	r3, [r7, #4]
 800092e:	693a      	ldr	r2, [r7, #16]
 8000930:	601a      	str	r2, [r3, #0]

      /*--------------------- EXTI Mode Configuration ------------------------*/
      /* Configure the External Interrupt or event for the current IO */
      if ((GPIO_Init->Mode & EXTI_MODE) != 0x00u)
 8000932:	683b      	ldr	r3, [r7, #0]
 8000934:	685b      	ldr	r3, [r3, #4]
 8000936:	f403 3340 	and.w	r3, r3, #196608	; 0x30000
 800093a:	2b00      	cmp	r3, #0
 800093c:	f000 80a0 	beq.w	8000a80 <HAL_GPIO_Init+0x2b4>
      {
        /* Enable SYSCFG Clock */
        __HAL_RCC_SYSCFG_CLK_ENABLE();
 8000940:	4b58      	ldr	r3, [pc, #352]	; (8000aa4 <HAL_GPIO_Init+0x2d8>)
 8000942:	6e1b      	ldr	r3, [r3, #96]	; 0x60
 8000944:	4a57      	ldr	r2, [pc, #348]	; (8000aa4 <HAL_GPIO_Init+0x2d8>)
 8000946:	f043 0301 	orr.w	r3, r3, #1
 800094a:	6613      	str	r3, [r2, #96]	; 0x60
 800094c:	4b55      	ldr	r3, [pc, #340]	; (8000aa4 <HAL_GPIO_Init+0x2d8>)
 800094e:	6e1b      	ldr	r3, [r3, #96]	; 0x60
 8000950:	f003 0301 	and.w	r3, r3, #1
 8000954:	60bb      	str	r3, [r7, #8]
 8000956:	68bb      	ldr	r3, [r7, #8]

        temp = SYSCFG->EXTICR[position >> 2u];
 8000958:	4a53      	ldr	r2, [pc, #332]	; (8000aa8 <HAL_GPIO_Init+0x2dc>)
 800095a:	697b      	ldr	r3, [r7, #20]
 800095c:	089b      	lsrs	r3, r3, #2
 800095e:	3302      	adds	r3, #2
 8000960:	f852 3023 	ldr.w	r3, [r2, r3, lsl #2]
 8000964:	613b      	str	r3, [r7, #16]
        temp &= ~(0x0FuL << (4u * (position & 0x03u)));
 8000966:	697b      	ldr	r3, [r7, #20]
 8000968:	f003 0303 	and.w	r3, r3, #3
 800096c:	009b      	lsls	r3, r3, #2
 800096e:	220f      	movs	r2, #15
 8000970:	fa02 f303 	lsl.w	r3, r2, r3
 8000974:	43db      	mvns	r3, r3
 8000976:	693a      	ldr	r2, [r7, #16]
 8000978:	4013      	ands	r3, r2
 800097a:	613b      	str	r3, [r7, #16]
        temp |= (GPIO_GET_INDEX(GPIOx) << (4u * (position & 0x03u)));
 800097c:	687b      	ldr	r3, [r7, #4]
 800097e:	f1b3 4f90 	cmp.w	r3, #1207959552	; 0x48000000
 8000982:	d019      	beq.n	80009b8 <HAL_GPIO_Init+0x1ec>
 8000984:	687b      	ldr	r3, [r7, #4]
 8000986:	4a49      	ldr	r2, [pc, #292]	; (8000aac <HAL_GPIO_Init+0x2e0>)
 8000988:	4293      	cmp	r3, r2
 800098a:	d013      	beq.n	80009b4 <HAL_GPIO_Init+0x1e8>
 800098c:	687b      	ldr	r3, [r7, #4]
 800098e:	4a48      	ldr	r2, [pc, #288]	; (8000ab0 <HAL_GPIO_Init+0x2e4>)
 8000990:	4293      	cmp	r3, r2
 8000992:	d00d      	beq.n	80009b0 <HAL_GPIO_Init+0x1e4>
 8000994:	687b      	ldr	r3, [r7, #4]
 8000996:	4a47      	ldr	r2, [pc, #284]	; (8000ab4 <HAL_GPIO_Init+0x2e8>)
 8000998:	4293      	cmp	r3, r2
 800099a:	d007      	beq.n	80009ac <HAL_GPIO_Init+0x1e0>
 800099c:	687b      	ldr	r3, [r7, #4]
 800099e:	4a46      	ldr	r2, [pc, #280]	; (8000ab8 <HAL_GPIO_Init+0x2ec>)
 80009a0:	4293      	cmp	r3, r2
 80009a2:	d101      	bne.n	80009a8 <HAL_GPIO_Init+0x1dc>
 80009a4:	2304      	movs	r3, #4
 80009a6:	e008      	b.n	80009ba <HAL_GPIO_Init+0x1ee>
 80009a8:	2307      	movs	r3, #7
 80009aa:	e006      	b.n	80009ba <HAL_GPIO_Init+0x1ee>
 80009ac:	2303      	movs	r3, #3
 80009ae:	e004      	b.n	80009ba <HAL_GPIO_Init+0x1ee>
 80009b0:	2302      	movs	r3, #2
 80009b2:	e002      	b.n	80009ba <HAL_GPIO_Init+0x1ee>
 80009b4:	2301      	movs	r3, #1
 80009b6:	e000      	b.n	80009ba <HAL_GPIO_Init+0x1ee>
 80009b8:	2300      	movs	r3, #0
 80009ba:	697a      	ldr	r2, [r7, #20]
 80009bc:	f002 0203 	and.w	r2, r2, #3
 80009c0:	0092      	lsls	r2, r2, #2
 80009c2:	4093      	lsls	r3, r2
 80009c4:	693a      	ldr	r2, [r7, #16]
 80009c6:	4313      	orrs	r3, r2
 80009c8:	613b      	str	r3, [r7, #16]
        SYSCFG->EXTICR[position >> 2u] = temp;
 80009ca:	4937      	ldr	r1, [pc, #220]	; (8000aa8 <HAL_GPIO_Init+0x2dc>)
 80009cc:	697b      	ldr	r3, [r7, #20]
 80009ce:	089b      	lsrs	r3, r3, #2
 80009d0:	3302      	adds	r3, #2
 80009d2:	693a      	ldr	r2, [r7, #16]
 80009d4:	f841 2023 	str.w	r2, [r1, r3, lsl #2]

        /* Clear Rising Falling edge configuration */
        temp = EXTI->RTSR1;
 80009d8:	4b38      	ldr	r3, [pc, #224]	; (8000abc <HAL_GPIO_Init+0x2f0>)
 80009da:	689b      	ldr	r3, [r3, #8]
 80009dc:	613b      	str	r3, [r7, #16]
        temp &= ~(iocurrent);
 80009de:	68fb      	ldr	r3, [r7, #12]
 80009e0:	43db      	mvns	r3, r3
 80009e2:	693a      	ldr	r2, [r7, #16]
 80009e4:	4013      	ands	r3, r2
 80009e6:	613b      	str	r3, [r7, #16]
        if ((GPIO_Init->Mode & TRIGGER_RISING) != 0x00u)
 80009e8:	683b      	ldr	r3, [r7, #0]
 80009ea:	685b      	ldr	r3, [r3, #4]
 80009ec:	f403 1380 	and.w	r3, r3, #1048576	; 0x100000
 80009f0:	2b00      	cmp	r3, #0
 80009f2:	d003      	beq.n	80009fc <HAL_GPIO_Init+0x230>
        {
          temp |= iocurrent;
 80009f4:	693a      	ldr	r2, [r7, #16]
 80009f6:	68fb      	ldr	r3, [r7, #12]
 80009f8:	4313      	orrs	r3, r2
 80009fa:	613b      	str	r3, [r7, #16]
        }
        EXTI->RTSR1 = temp;
 80009fc:	4a2f      	ldr	r2, [pc, #188]	; (8000abc <HAL_GPIO_Init+0x2f0>)
 80009fe:	693b      	ldr	r3, [r7, #16]
 8000a00:	6093      	str	r3, [r2, #8]

        temp = EXTI->FTSR1;
 8000a02:	4b2e      	ldr	r3, [pc, #184]	; (8000abc <HAL_GPIO_Init+0x2f0>)
 8000a04:	68db      	ldr	r3, [r3, #12]
 8000a06:	613b      	str	r3, [r7, #16]
        temp &= ~(iocurrent);
 8000a08:	68fb      	ldr	r3, [r7, #12]
 8000a0a:	43db      	mvns	r3, r3
 8000a0c:	693a      	ldr	r2, [r7, #16]
 8000a0e:	4013      	ands	r3, r2
 8000a10:	613b      	str	r3, [r7, #16]
        if ((GPIO_Init->Mode & TRIGGER_FALLING) != 0x00u)
 8000a12:	683b      	ldr	r3, [r7, #0]
 8000a14:	685b      	ldr	r3, [r3, #4]
 8000a16:	f403 1300 	and.w	r3, r3, #2097152	; 0x200000
 8000a1a:	2b00      	cmp	r3, #0
 8000a1c:	d003      	beq.n	8000a26 <HAL_GPIO_Init+0x25a>
        {
          temp |= iocurrent;
 8000a1e:	693a      	ldr	r2, [r7, #16]
 8000a20:	68fb      	ldr	r3, [r7, #12]
 8000a22:	4313      	orrs	r3, r2
 8000a24:	613b      	str	r3, [r7, #16]
        }
        EXTI->FTSR1 = temp;
 8000a26:	4a25      	ldr	r2, [pc, #148]	; (8000abc <HAL_GPIO_Init+0x2f0>)
 8000a28:	693b      	ldr	r3, [r7, #16]
 8000a2a:	60d3      	str	r3, [r2, #12]

        /* Clear EXTI line configuration */
        temp = EXTI->EMR1;
 8000a2c:	4b23      	ldr	r3, [pc, #140]	; (8000abc <HAL_GPIO_Init+0x2f0>)
 8000a2e:	685b      	ldr	r3, [r3, #4]
 8000a30:	613b      	str	r3, [r7, #16]
        temp &= ~(iocurrent);
 8000a32:	68fb      	ldr	r3, [r7, #12]
 8000a34:	43db      	mvns	r3, r3
 8000a36:	693a      	ldr	r2, [r7, #16]
 8000a38:	4013      	ands	r3, r2
 8000a3a:	613b      	str	r3, [r7, #16]
        if ((GPIO_Init->Mode & EXTI_EVT) != 0x00u)
 8000a3c:	683b      	ldr	r3, [r7, #0]
 8000a3e:	685b      	ldr	r3, [r3, #4]
 8000a40:	f403 3300 	and.w	r3, r3, #131072	; 0x20000
 8000a44:	2b00      	cmp	r3, #0
 8000a46:	d003      	beq.n	8000a50 <HAL_GPIO_Init+0x284>
        {
          temp |= iocurrent;
 8000a48:	693a      	ldr	r2, [r7, #16]
 8000a4a:	68fb      	ldr	r3, [r7, #12]
 8000a4c:	4313      	orrs	r3, r2
 8000a4e:	613b      	str	r3, [r7, #16]
        }
        EXTI->EMR1 = temp;
 8000a50:	4a1a      	ldr	r2, [pc, #104]	; (8000abc <HAL_GPIO_Init+0x2f0>)
 8000a52:	693b      	ldr	r3, [r7, #16]
 8000a54:	6053      	str	r3, [r2, #4]

        temp = EXTI->IMR1;
 8000a56:	4b19      	ldr	r3, [pc, #100]	; (8000abc <HAL_GPIO_Init+0x2f0>)
 8000a58:	681b      	ldr	r3, [r3, #0]
 8000a5a:	613b      	str	r3, [r7, #16]
        temp &= ~(iocurrent);
 8000a5c:	68fb      	ldr	r3, [r7, #12]
 8000a5e:	43db      	mvns	r3, r3
 8000a60:	693a      	ldr	r2, [r7, #16]
 8000a62:	4013      	ands	r3, r2
 8000a64:	613b      	str	r3, [r7, #16]
        if ((GPIO_Init->Mode & EXTI_IT) != 0x00u)
 8000a66:	683b      	ldr	r3, [r7, #0]
 8000a68:	685b      	ldr	r3, [r3, #4]
 8000a6a:	f403 3380 	and.w	r3, r3, #65536	; 0x10000
 8000a6e:	2b00      	cmp	r3, #0
 8000a70:	d003      	beq.n	8000a7a <HAL_GPIO_Init+0x2ae>
        {
          temp |= iocurrent;
 8000a72:	693a      	ldr	r2, [r7, #16]
 8000a74:	68fb      	ldr	r3, [r7, #12]
 8000a76:	4313      	orrs	r3, r2
 8000a78:	613b      	str	r3, [r7, #16]
        }
        EXTI->IMR1 = temp;
 8000a7a:	4a10      	ldr	r2, [pc, #64]	; (8000abc <HAL_GPIO_Init+0x2f0>)
 8000a7c:	693b      	ldr	r3, [r7, #16]
 8000a7e:	6013      	str	r3, [r2, #0]
      }
    }

    position++;
 8000a80:	697b      	ldr	r3, [r7, #20]
 8000a82:	3301      	adds	r3, #1
 8000a84:	617b      	str	r3, [r7, #20]
  while (((GPIO_Init->Pin) >> position) != 0x00u)
 8000a86:	683b      	ldr	r3, [r7, #0]
 8000a88:	681a      	ldr	r2, [r3, #0]
 8000a8a:	697b      	ldr	r3, [r7, #20]
 8000a8c:	fa22 f303 	lsr.w	r3, r2, r3
 8000a90:	2b00      	cmp	r3, #0
 8000a92:	f47f aea3 	bne.w	80007dc <HAL_GPIO_Init+0x10>
  }
}
 8000a96:	bf00      	nop
 8000a98:	bf00      	nop
 8000a9a:	371c      	adds	r7, #28
 8000a9c:	46bd      	mov	sp, r7
 8000a9e:	f85d 7b04 	ldr.w	r7, [sp], #4
 8000aa2:	4770      	bx	lr
 8000aa4:	40021000 	.word	0x40021000
 8000aa8:	40010000 	.word	0x40010000
 8000aac:	48000400 	.word	0x48000400
 8000ab0:	48000800 	.word	0x48000800
 8000ab4:	48000c00 	.word	0x48000c00
 8000ab8:	48001000 	.word	0x48001000
 8000abc:	40010400 	.word	0x40010400

08000ac0 <HAL_GPIO_WritePin>:
  *            @arg GPIO_PIN_RESET: to clear the port pin
  *            @arg GPIO_PIN_SET: to set the port pin
  * @retval None
  */
void HAL_GPIO_WritePin(GPIO_TypeDef* GPIOx, uint16_t GPIO_Pin, GPIO_PinState PinState)
{
 8000ac0:	b480      	push	{r7}
 8000ac2:	b083      	sub	sp, #12
 8000ac4:	af00      	add	r7, sp, #0
 8000ac6:	6078      	str	r0, [r7, #4]
 8000ac8:	460b      	mov	r3, r1
 8000aca:	807b      	strh	r3, [r7, #2]
 8000acc:	4613      	mov	r3, r2
 8000ace:	707b      	strb	r3, [r7, #1]
  /* Check the parameters */
  assert_param(IS_GPIO_PIN(GPIO_Pin));
  assert_param(IS_GPIO_PIN_ACTION(PinState));

  if(PinState != GPIO_PIN_RESET)
 8000ad0:	787b      	ldrb	r3, [r7, #1]
 8000ad2:	2b00      	cmp	r3, #0
 8000ad4:	d003      	beq.n	8000ade <HAL_GPIO_WritePin+0x1e>
  {
    GPIOx->BSRR = (uint32_t)GPIO_Pin;
 8000ad6:	887a      	ldrh	r2, [r7, #2]
 8000ad8:	687b      	ldr	r3, [r7, #4]
 8000ada:	619a      	str	r2, [r3, #24]
  }
  else
  {
    GPIOx->BRR = (uint32_t)GPIO_Pin;
  }
}
 8000adc:	e002      	b.n	8000ae4 <HAL_GPIO_WritePin+0x24>
    GPIOx->BRR = (uint32_t)GPIO_Pin;
 8000ade:	887a      	ldrh	r2, [r7, #2]
 8000ae0:	687b      	ldr	r3, [r7, #4]
 8000ae2:	629a      	str	r2, [r3, #40]	; 0x28
}
 8000ae4:	bf00      	nop
 8000ae6:	370c      	adds	r7, #12
 8000ae8:	46bd      	mov	sp, r7
 8000aea:	f85d 7b04 	ldr.w	r7, [sp], #4
 8000aee:	4770      	bx	lr

08000af0 <HAL_PWREx_GetVoltageRange>:
  * @brief Return Voltage Scaling Range.
  * @retval VOS bit field (PWR_REGULATOR_VOLTAGE_SCALE1 or PWR_REGULATOR_VOLTAGE_SCALE2
  *         or PWR_REGULATOR_VOLTAGE_SCALE1_BOOST when applicable)
  */
uint32_t HAL_PWREx_GetVoltageRange(void)
{
 8000af0:	b480      	push	{r7}
 8000af2:	af00      	add	r7, sp, #0
    else
    {
      return PWR_REGULATOR_VOLTAGE_SCALE1_BOOST;
    }
#else
  return  (PWR->CR1 & PWR_CR1_VOS);
 8000af4:	4b04      	ldr	r3, [pc, #16]	; (8000b08 <HAL_PWREx_GetVoltageRange+0x18>)
 8000af6:	681b      	ldr	r3, [r3, #0]
 8000af8:	f403 63c0 	and.w	r3, r3, #1536	; 0x600
#endif
}
 8000afc:	4618      	mov	r0, r3
 8000afe:	46bd      	mov	sp, r7
 8000b00:	f85d 7b04 	ldr.w	r7, [sp], #4
 8000b04:	4770      	bx	lr
 8000b06:	bf00      	nop
 8000b08:	40007000 	.word	0x40007000

08000b0c <HAL_PWREx_ControlVoltageScaling>:
  *        cleared before returning the status. If the flag is not cleared within
  *        50 microseconds, HAL_TIMEOUT status is reported.
  * @retval HAL Status
  */
HAL_StatusTypeDef HAL_PWREx_ControlVoltageScaling(uint32_t VoltageScaling)
{
 8000b0c:	b480      	push	{r7}
 8000b0e:	b085      	sub	sp, #20
 8000b10:	af00      	add	r7, sp, #0
 8000b12:	6078      	str	r0, [r7, #4]
  }

#else

  /* If Set Range 1 */
  if (VoltageScaling == PWR_REGULATOR_VOLTAGE_SCALE1)
 8000b14:	687b      	ldr	r3, [r7, #4]
 8000b16:	f5b3 7f00 	cmp.w	r3, #512	; 0x200
 8000b1a:	d130      	bne.n	8000b7e <HAL_PWREx_ControlVoltageScaling+0x72>
  {
    if (READ_BIT(PWR->CR1, PWR_CR1_VOS) != PWR_REGULATOR_VOLTAGE_SCALE1)
 8000b1c:	4b23      	ldr	r3, [pc, #140]	; (8000bac <HAL_PWREx_ControlVoltageScaling+0xa0>)
 8000b1e:	681b      	ldr	r3, [r3, #0]
 8000b20:	f403 63c0 	and.w	r3, r3, #1536	; 0x600
 8000b24:	f5b3 7f00 	cmp.w	r3, #512	; 0x200
 8000b28:	d038      	beq.n	8000b9c <HAL_PWREx_ControlVoltageScaling+0x90>
    {
      /* Set Range 1 */
      MODIFY_REG(PWR->CR1, PWR_CR1_VOS, PWR_REGULATOR_VOLTAGE_SCALE1);
 8000b2a:	4b20      	ldr	r3, [pc, #128]	; (8000bac <HAL_PWREx_ControlVoltageScaling+0xa0>)
 8000b2c:	681b      	ldr	r3, [r3, #0]
 8000b2e:	f423 63c0 	bic.w	r3, r3, #1536	; 0x600
 8000b32:	4a1e      	ldr	r2, [pc, #120]	; (8000bac <HAL_PWREx_ControlVoltageScaling+0xa0>)
 8000b34:	f443 7300 	orr.w	r3, r3, #512	; 0x200
 8000b38:	6013      	str	r3, [r2, #0]

      /* Wait until VOSF is cleared */
      wait_loop_index = ((PWR_FLAG_SETTING_DELAY_US * SystemCoreClock) / 1000000U) + 1U;
 8000b3a:	4b1d      	ldr	r3, [pc, #116]	; (8000bb0 <HAL_PWREx_ControlVoltageScaling+0xa4>)
 8000b3c:	681b      	ldr	r3, [r3, #0]
 8000b3e:	2232      	movs	r2, #50	; 0x32
 8000b40:	fb02 f303 	mul.w	r3, r2, r3
 8000b44:	4a1b      	ldr	r2, [pc, #108]	; (8000bb4 <HAL_PWREx_ControlVoltageScaling+0xa8>)
 8000b46:	fba2 2303 	umull	r2, r3, r2, r3
 8000b4a:	0c9b      	lsrs	r3, r3, #18
 8000b4c:	3301      	adds	r3, #1
 8000b4e:	60fb      	str	r3, [r7, #12]
      while ((HAL_IS_BIT_SET(PWR->SR2, PWR_SR2_VOSF)) && (wait_loop_index != 0U))
 8000b50:	e002      	b.n	8000b58 <HAL_PWREx_ControlVoltageScaling+0x4c>
      {
        wait_loop_index--;
 8000b52:	68fb      	ldr	r3, [r7, #12]
 8000b54:	3b01      	subs	r3, #1
 8000b56:	60fb      	str	r3, [r7, #12]
      while ((HAL_IS_BIT_SET(PWR->SR2, PWR_SR2_VOSF)) && (wait_loop_index != 0U))
 8000b58:	4b14      	ldr	r3, [pc, #80]	; (8000bac <HAL_PWREx_ControlVoltageScaling+0xa0>)
 8000b5a:	695b      	ldr	r3, [r3, #20]
 8000b5c:	f403 6380 	and.w	r3, r3, #1024	; 0x400
 8000b60:	f5b3 6f80 	cmp.w	r3, #1024	; 0x400
 8000b64:	d102      	bne.n	8000b6c <HAL_PWREx_ControlVoltageScaling+0x60>
 8000b66:	68fb      	ldr	r3, [r7, #12]
 8000b68:	2b00      	cmp	r3, #0
 8000b6a:	d1f2      	bne.n	8000b52 <HAL_PWREx_ControlVoltageScaling+0x46>
      }
      if (HAL_IS_BIT_SET(PWR->SR2, PWR_SR2_VOSF))
 8000b6c:	4b0f      	ldr	r3, [pc, #60]	; (8000bac <HAL_PWREx_ControlVoltageScaling+0xa0>)
 8000b6e:	695b      	ldr	r3, [r3, #20]
 8000b70:	f403 6380 	and.w	r3, r3, #1024	; 0x400
 8000b74:	f5b3 6f80 	cmp.w	r3, #1024	; 0x400
 8000b78:	d110      	bne.n	8000b9c <HAL_PWREx_ControlVoltageScaling+0x90>
      {
        return HAL_TIMEOUT;
 8000b7a:	2303      	movs	r3, #3
 8000b7c:	e00f      	b.n	8000b9e <HAL_PWREx_ControlVoltageScaling+0x92>
      }
    }
  }
  else
  {
    if (READ_BIT(PWR->CR1, PWR_CR1_VOS) != PWR_REGULATOR_VOLTAGE_SCALE2)
 8000b7e:	4b0b      	ldr	r3, [pc, #44]	; (8000bac <HAL_PWREx_ControlVoltageScaling+0xa0>)
 8000b80:	681b      	ldr	r3, [r3, #0]
 8000b82:	f403 63c0 	and.w	r3, r3, #1536	; 0x600
 8000b86:	f5b3 6f80 	cmp.w	r3, #1024	; 0x400
 8000b8a:	d007      	beq.n	8000b9c <HAL_PWREx_ControlVoltageScaling+0x90>
    {
      /* Set Range 2 */
      MODIFY_REG(PWR->CR1, PWR_CR1_VOS, PWR_REGULATOR_VOLTAGE_SCALE2);
 8000b8c:	4b07      	ldr	r3, [pc, #28]	; (8000bac <HAL_PWREx_ControlVoltageScaling+0xa0>)
 8000b8e:	681b      	ldr	r3, [r3, #0]
 8000b90:	f423 63c0 	bic.w	r3, r3, #1536	; 0x600
 8000b94:	4a05      	ldr	r2, [pc, #20]	; (8000bac <HAL_PWREx_ControlVoltageScaling+0xa0>)
 8000b96:	f443 6380 	orr.w	r3, r3, #1024	; 0x400
 8000b9a:	6013      	str	r3, [r2, #0]
      /* No need to wait for VOSF to be cleared for this transition */
    }
  }
#endif

  return HAL_OK;
 8000b9c:	2300      	movs	r3, #0
}
 8000b9e:	4618      	mov	r0, r3
 8000ba0:	3714      	adds	r7, #20
 8000ba2:	46bd      	mov	sp, r7
 8000ba4:	f85d 7b04 	ldr.w	r7, [sp], #4
 8000ba8:	4770      	bx	lr
 8000baa:	bf00      	nop
 8000bac:	40007000 	.word	0x40007000
 8000bb0:	20000000 	.word	0x20000000
 8000bb4:	431bde83 	.word	0x431bde83

08000bb8 <HAL_RCC_OscConfig>:
  *         supported by this macro. User should request a transition to HSE Off
  *         first and then HSE On or HSE Bypass.
  * @retval HAL status
  */
HAL_StatusTypeDef HAL_RCC_OscConfig(RCC_OscInitTypeDef  *RCC_OscInitStruct)
{
 8000bb8:	b580      	push	{r7, lr}
 8000bba:	b088      	sub	sp, #32
 8000bbc:	af00      	add	r7, sp, #0
 8000bbe:	6078      	str	r0, [r7, #4]
  uint32_t tickstart;
  HAL_StatusTypeDef status;
  uint32_t sysclk_source, pll_config;

  /* Check Null pointer */
  if(RCC_OscInitStruct == NULL)
 8000bc0:	687b      	ldr	r3, [r7, #4]
 8000bc2:	2b00      	cmp	r3, #0
 8000bc4:	d102      	bne.n	8000bcc <HAL_RCC_OscConfig+0x14>
  {
    return HAL_ERROR;
 8000bc6:	2301      	movs	r3, #1
 8000bc8:	f000 bc02 	b.w	80013d0 <HAL_RCC_OscConfig+0x818>
  }

  /* Check the parameters */
  assert_param(IS_RCC_OSCILLATORTYPE(RCC_OscInitStruct->OscillatorType));

  sysclk_source = __HAL_RCC_GET_SYSCLK_SOURCE();
 8000bcc:	4b96      	ldr	r3, [pc, #600]	; (8000e28 <HAL_RCC_OscConfig+0x270>)
 8000bce:	689b      	ldr	r3, [r3, #8]
 8000bd0:	f003 030c 	and.w	r3, r3, #12
 8000bd4:	61bb      	str	r3, [r7, #24]
  pll_config = __HAL_RCC_GET_PLL_OSCSOURCE();
 8000bd6:	4b94      	ldr	r3, [pc, #592]	; (8000e28 <HAL_RCC_OscConfig+0x270>)
 8000bd8:	68db      	ldr	r3, [r3, #12]
 8000bda:	f003 0303 	and.w	r3, r3, #3
 8000bde:	617b      	str	r3, [r7, #20]

  /*----------------------------- MSI Configuration --------------------------*/
  if(((RCC_OscInitStruct->OscillatorType) & RCC_OSCILLATORTYPE_MSI) == RCC_OSCILLATORTYPE_MSI)
 8000be0:	687b      	ldr	r3, [r7, #4]
 8000be2:	681b      	ldr	r3, [r3, #0]
 8000be4:	f003 0310 	and.w	r3, r3, #16
 8000be8:	2b00      	cmp	r3, #0
 8000bea:	f000 80e4 	beq.w	8000db6 <HAL_RCC_OscConfig+0x1fe>
    assert_param(IS_RCC_MSI(RCC_OscInitStruct->MSIState));
    assert_param(IS_RCC_MSICALIBRATION_VALUE(RCC_OscInitStruct->MSICalibrationValue));
    assert_param(IS_RCC_MSI_CLOCK_RANGE(RCC_OscInitStruct->MSIClockRange));

    /* Check if MSI is used as system clock or as PLL source when PLL is selected as system clock */
    if((sysclk_source == RCC_CFGR_SWS_MSI) ||
 8000bee:	69bb      	ldr	r3, [r7, #24]
 8000bf0:	2b00      	cmp	r3, #0
 8000bf2:	d007      	beq.n	8000c04 <HAL_RCC_OscConfig+0x4c>
 8000bf4:	69bb      	ldr	r3, [r7, #24]
 8000bf6:	2b0c      	cmp	r3, #12
 8000bf8:	f040 808b 	bne.w	8000d12 <HAL_RCC_OscConfig+0x15a>
       ((sysclk_source == RCC_CFGR_SWS_PLL) && (pll_config == RCC_PLLSOURCE_MSI)))
 8000bfc:	697b      	ldr	r3, [r7, #20]
 8000bfe:	2b01      	cmp	r3, #1
 8000c00:	f040 8087 	bne.w	8000d12 <HAL_RCC_OscConfig+0x15a>
    {
      if((READ_BIT(RCC->CR, RCC_CR_MSIRDY) != 0U) && (RCC_OscInitStruct->MSIState == RCC_MSI_OFF))
 8000c04:	4b88      	ldr	r3, [pc, #544]	; (8000e28 <HAL_RCC_OscConfig+0x270>)
 8000c06:	681b      	ldr	r3, [r3, #0]
 8000c08:	f003 0302 	and.w	r3, r3, #2
 8000c0c:	2b00      	cmp	r3, #0
 8000c0e:	d005      	beq.n	8000c1c <HAL_RCC_OscConfig+0x64>
 8000c10:	687b      	ldr	r3, [r7, #4]
 8000c12:	699b      	ldr	r3, [r3, #24]
 8000c14:	2b00      	cmp	r3, #0
 8000c16:	d101      	bne.n	8000c1c <HAL_RCC_OscConfig+0x64>
      {
        return HAL_ERROR;
 8000c18:	2301      	movs	r3, #1
 8000c1a:	e3d9      	b.n	80013d0 <HAL_RCC_OscConfig+0x818>
      else
      {
        /* To correctly read data from FLASH memory, the number of wait states (LATENCY)
           must be correctly programmed according to the frequency of the CPU clock
           (HCLK) and the supply voltage of the device. */
        if(RCC_OscInitStruct->MSIClockRange > __HAL_RCC_GET_MSI_RANGE())
 8000c1c:	687b      	ldr	r3, [r7, #4]
 8000c1e:	6a1a      	ldr	r2, [r3, #32]
 8000c20:	4b81      	ldr	r3, [pc, #516]	; (8000e28 <HAL_RCC_OscConfig+0x270>)
 8000c22:	681b      	ldr	r3, [r3, #0]
 8000c24:	f003 0308 	and.w	r3, r3, #8
 8000c28:	2b00      	cmp	r3, #0
 8000c2a:	d004      	beq.n	8000c36 <HAL_RCC_OscConfig+0x7e>
 8000c2c:	4b7e      	ldr	r3, [pc, #504]	; (8000e28 <HAL_RCC_OscConfig+0x270>)
 8000c2e:	681b      	ldr	r3, [r3, #0]
 8000c30:	f003 03f0 	and.w	r3, r3, #240	; 0xf0
 8000c34:	e005      	b.n	8000c42 <HAL_RCC_OscConfig+0x8a>
 8000c36:	4b7c      	ldr	r3, [pc, #496]	; (8000e28 <HAL_RCC_OscConfig+0x270>)
 8000c38:	f8d3 3094 	ldr.w	r3, [r3, #148]	; 0x94
 8000c3c:	091b      	lsrs	r3, r3, #4
 8000c3e:	f003 03f0 	and.w	r3, r3, #240	; 0xf0
 8000c42:	4293      	cmp	r3, r2
 8000c44:	d223      	bcs.n	8000c8e <HAL_RCC_OscConfig+0xd6>
        {
          /* First increase number of wait states update if necessary */
          if(RCC_SetFlashLatencyFromMSIRange(RCC_OscInitStruct->MSIClockRange) != HAL_OK)
 8000c46:	687b      	ldr	r3, [r7, #4]
 8000c48:	6a1b      	ldr	r3, [r3, #32]
 8000c4a:	4618      	mov	r0, r3
 8000c4c:	f000 fd54 	bl	80016f8 <RCC_SetFlashLatencyFromMSIRange>
 8000c50:	4603      	mov	r3, r0
 8000c52:	2b00      	cmp	r3, #0
 8000c54:	d001      	beq.n	8000c5a <HAL_RCC_OscConfig+0xa2>
          {
            return HAL_ERROR;
 8000c56:	2301      	movs	r3, #1
 8000c58:	e3ba      	b.n	80013d0 <HAL_RCC_OscConfig+0x818>
          }

          /* Selects the Multiple Speed oscillator (MSI) clock range .*/
          __HAL_RCC_MSI_RANGE_CONFIG(RCC_OscInitStruct->MSIClockRange);
 8000c5a:	4b73      	ldr	r3, [pc, #460]	; (8000e28 <HAL_RCC_OscConfig+0x270>)
 8000c5c:	681b      	ldr	r3, [r3, #0]
 8000c5e:	4a72      	ldr	r2, [pc, #456]	; (8000e28 <HAL_RCC_OscConfig+0x270>)
 8000c60:	f043 0308 	orr.w	r3, r3, #8
 8000c64:	6013      	str	r3, [r2, #0]
 8000c66:	4b70      	ldr	r3, [pc, #448]	; (8000e28 <HAL_RCC_OscConfig+0x270>)
 8000c68:	681b      	ldr	r3, [r3, #0]
 8000c6a:	f023 02f0 	bic.w	r2, r3, #240	; 0xf0
 8000c6e:	687b      	ldr	r3, [r7, #4]
 8000c70:	6a1b      	ldr	r3, [r3, #32]
 8000c72:	496d      	ldr	r1, [pc, #436]	; (8000e28 <HAL_RCC_OscConfig+0x270>)
 8000c74:	4313      	orrs	r3, r2
 8000c76:	600b      	str	r3, [r1, #0]
          /* Adjusts the Multiple Speed oscillator (MSI) calibration value.*/
          __HAL_RCC_MSI_CALIBRATIONVALUE_ADJUST(RCC_OscInitStruct->MSICalibrationValue);
 8000c78:	4b6b      	ldr	r3, [pc, #428]	; (8000e28 <HAL_RCC_OscConfig+0x270>)
 8000c7a:	685b      	ldr	r3, [r3, #4]
 8000c7c:	f423 427f 	bic.w	r2, r3, #65280	; 0xff00
 8000c80:	687b      	ldr	r3, [r7, #4]
 8000c82:	69db      	ldr	r3, [r3, #28]
 8000c84:	021b      	lsls	r3, r3, #8
 8000c86:	4968      	ldr	r1, [pc, #416]	; (8000e28 <HAL_RCC_OscConfig+0x270>)
 8000c88:	4313      	orrs	r3, r2
 8000c8a:	604b      	str	r3, [r1, #4]
 8000c8c:	e025      	b.n	8000cda <HAL_RCC_OscConfig+0x122>
        }
        else
        {
          /* Else, keep current flash latency while decreasing applies */
          /* Selects the Multiple Speed oscillator (MSI) clock range .*/
          __HAL_RCC_MSI_RANGE_CONFIG(RCC_OscInitStruct->MSIClockRange);
 8000c8e:	4b66      	ldr	r3, [pc, #408]	; (8000e28 <HAL_RCC_OscConfig+0x270>)
 8000c90:	681b      	ldr	r3, [r3, #0]
 8000c92:	4a65      	ldr	r2, [pc, #404]	; (8000e28 <HAL_RCC_OscConfig+0x270>)
 8000c94:	f043 0308 	orr.w	r3, r3, #8
 8000c98:	6013      	str	r3, [r2, #0]
 8000c9a:	4b63      	ldr	r3, [pc, #396]	; (8000e28 <HAL_RCC_OscConfig+0x270>)
 8000c9c:	681b      	ldr	r3, [r3, #0]
 8000c9e:	f023 02f0 	bic.w	r2, r3, #240	; 0xf0
 8000ca2:	687b      	ldr	r3, [r7, #4]
 8000ca4:	6a1b      	ldr	r3, [r3, #32]
 8000ca6:	4960      	ldr	r1, [pc, #384]	; (8000e28 <HAL_RCC_OscConfig+0x270>)
 8000ca8:	4313      	orrs	r3, r2
 8000caa:	600b      	str	r3, [r1, #0]
          /* Adjusts the Multiple Speed oscillator (MSI) calibration value.*/
          __HAL_RCC_MSI_CALIBRATIONVALUE_ADJUST(RCC_OscInitStruct->MSICalibrationValue);
 8000cac:	4b5e      	ldr	r3, [pc, #376]	; (8000e28 <HAL_RCC_OscConfig+0x270>)
 8000cae:	685b      	ldr	r3, [r3, #4]
 8000cb0:	f423 427f 	bic.w	r2, r3, #65280	; 0xff00
 8000cb4:	687b      	ldr	r3, [r7, #4]
 8000cb6:	69db      	ldr	r3, [r3, #28]
 8000cb8:	021b      	lsls	r3, r3, #8
 8000cba:	495b      	ldr	r1, [pc, #364]	; (8000e28 <HAL_RCC_OscConfig+0x270>)
 8000cbc:	4313      	orrs	r3, r2
 8000cbe:	604b      	str	r3, [r1, #4]

          /* Decrease number of wait states update if necessary */
          /* Only possible when MSI is the System clock source  */
          if(sysclk_source == RCC_CFGR_SWS_MSI)
 8000cc0:	69bb      	ldr	r3, [r7, #24]
 8000cc2:	2b00      	cmp	r3, #0
 8000cc4:	d109      	bne.n	8000cda <HAL_RCC_OscConfig+0x122>
          {
            if(RCC_SetFlashLatencyFromMSIRange(RCC_OscInitStruct->MSIClockRange) != HAL_OK)
 8000cc6:	687b      	ldr	r3, [r7, #4]
 8000cc8:	6a1b      	ldr	r3, [r3, #32]
 8000cca:	4618      	mov	r0, r3
 8000ccc:	f000 fd14 	bl	80016f8 <RCC_SetFlashLatencyFromMSIRange>
 8000cd0:	4603      	mov	r3, r0
 8000cd2:	2b00      	cmp	r3, #0
 8000cd4:	d001      	beq.n	8000cda <HAL_RCC_OscConfig+0x122>
            {
              return HAL_ERROR;
 8000cd6:	2301      	movs	r3, #1
 8000cd8:	e37a      	b.n	80013d0 <HAL_RCC_OscConfig+0x818>
            }
          }
        }

        /* Update the SystemCoreClock global variable */
        SystemCoreClock = HAL_RCC_GetSysClockFreq() >> (AHBPrescTable[READ_BIT(RCC->CFGR, RCC_CFGR_HPRE) >> RCC_CFGR_HPRE_Pos] & 0x1FU);
 8000cda:	f000 fc81 	bl	80015e0 <HAL_RCC_GetSysClockFreq>
 8000cde:	4602      	mov	r2, r0
 8000ce0:	4b51      	ldr	r3, [pc, #324]	; (8000e28 <HAL_RCC_OscConfig+0x270>)
 8000ce2:	689b      	ldr	r3, [r3, #8]
 8000ce4:	091b      	lsrs	r3, r3, #4
 8000ce6:	f003 030f 	and.w	r3, r3, #15
 8000cea:	4950      	ldr	r1, [pc, #320]	; (8000e2c <HAL_RCC_OscConfig+0x274>)
 8000cec:	5ccb      	ldrb	r3, [r1, r3]
 8000cee:	f003 031f 	and.w	r3, r3, #31
 8000cf2:	fa22 f303 	lsr.w	r3, r2, r3
 8000cf6:	4a4e      	ldr	r2, [pc, #312]	; (8000e30 <HAL_RCC_OscConfig+0x278>)
 8000cf8:	6013      	str	r3, [r2, #0]

        /* Configure the source of time base considering new system clocks settings*/
        status = HAL_InitTick(uwTickPrio);
 8000cfa:	4b4e      	ldr	r3, [pc, #312]	; (8000e34 <HAL_RCC_OscConfig+0x27c>)
 8000cfc:	681b      	ldr	r3, [r3, #0]
 8000cfe:	4618      	mov	r0, r3
 8000d00:	f7ff fbfe 	bl	8000500 <HAL_InitTick>
 8000d04:	4603      	mov	r3, r0
 8000d06:	73fb      	strb	r3, [r7, #15]
        if(status != HAL_OK)
 8000d08:	7bfb      	ldrb	r3, [r7, #15]
 8000d0a:	2b00      	cmp	r3, #0
 8000d0c:	d052      	beq.n	8000db4 <HAL_RCC_OscConfig+0x1fc>
        {
          return status;
 8000d0e:	7bfb      	ldrb	r3, [r7, #15]
 8000d10:	e35e      	b.n	80013d0 <HAL_RCC_OscConfig+0x818>
      }
    }
    else
    {
      /* Check the MSI State */
      if(RCC_OscInitStruct->MSIState != RCC_MSI_OFF)
 8000d12:	687b      	ldr	r3, [r7, #4]
 8000d14:	699b      	ldr	r3, [r3, #24]
 8000d16:	2b00      	cmp	r3, #0
 8000d18:	d032      	beq.n	8000d80 <HAL_RCC_OscConfig+0x1c8>
      {
        /* Enable the Internal High Speed oscillator (MSI). */
        __HAL_RCC_MSI_ENABLE();
 8000d1a:	4b43      	ldr	r3, [pc, #268]	; (8000e28 <HAL_RCC_OscConfig+0x270>)
 8000d1c:	681b      	ldr	r3, [r3, #0]
 8000d1e:	4a42      	ldr	r2, [pc, #264]	; (8000e28 <HAL_RCC_OscConfig+0x270>)
 8000d20:	f043 0301 	orr.w	r3, r3, #1
 8000d24:	6013      	str	r3, [r2, #0]

        /* Get timeout */
        tickstart = HAL_GetTick();
 8000d26:	f7ff fc3b 	bl	80005a0 <HAL_GetTick>
 8000d2a:	6138      	str	r0, [r7, #16]

        /* Wait till MSI is ready */
        while(READ_BIT(RCC->CR, RCC_CR_MSIRDY) == 0U)
 8000d2c:	e008      	b.n	8000d40 <HAL_RCC_OscConfig+0x188>
        {
          if((HAL_GetTick() - tickstart) > MSI_TIMEOUT_VALUE)
 8000d2e:	f7ff fc37 	bl	80005a0 <HAL_GetTick>
 8000d32:	4602      	mov	r2, r0
 8000d34:	693b      	ldr	r3, [r7, #16]
 8000d36:	1ad3      	subs	r3, r2, r3
 8000d38:	2b02      	cmp	r3, #2
 8000d3a:	d901      	bls.n	8000d40 <HAL_RCC_OscConfig+0x188>
          {
            return HAL_TIMEOUT;
 8000d3c:	2303      	movs	r3, #3
 8000d3e:	e347      	b.n	80013d0 <HAL_RCC_OscConfig+0x818>
        while(READ_BIT(RCC->CR, RCC_CR_MSIRDY) == 0U)
 8000d40:	4b39      	ldr	r3, [pc, #228]	; (8000e28 <HAL_RCC_OscConfig+0x270>)
 8000d42:	681b      	ldr	r3, [r3, #0]
 8000d44:	f003 0302 	and.w	r3, r3, #2
 8000d48:	2b00      	cmp	r3, #0
 8000d4a:	d0f0      	beq.n	8000d2e <HAL_RCC_OscConfig+0x176>
          }
        }
         /* Selects the Multiple Speed oscillator (MSI) clock range .*/
        __HAL_RCC_MSI_RANGE_CONFIG(RCC_OscInitStruct->MSIClockRange);
 8000d4c:	4b36      	ldr	r3, [pc, #216]	; (8000e28 <HAL_RCC_OscConfig+0x270>)
 8000d4e:	681b      	ldr	r3, [r3, #0]
 8000d50:	4a35      	ldr	r2, [pc, #212]	; (8000e28 <HAL_RCC_OscConfig+0x270>)
 8000d52:	f043 0308 	orr.w	r3, r3, #8
 8000d56:	6013      	str	r3, [r2, #0]
 8000d58:	4b33      	ldr	r3, [pc, #204]	; (8000e28 <HAL_RCC_OscConfig+0x270>)
 8000d5a:	681b      	ldr	r3, [r3, #0]
 8000d5c:	f023 02f0 	bic.w	r2, r3, #240	; 0xf0
 8000d60:	687b      	ldr	r3, [r7, #4]
 8000d62:	6a1b      	ldr	r3, [r3, #32]
 8000d64:	4930      	ldr	r1, [pc, #192]	; (8000e28 <HAL_RCC_OscConfig+0x270>)
 8000d66:	4313      	orrs	r3, r2
 8000d68:	600b      	str	r3, [r1, #0]
         /* Adjusts the Multiple Speed oscillator (MSI) calibration value.*/
        __HAL_RCC_MSI_CALIBRATIONVALUE_ADJUST(RCC_OscInitStruct->MSICalibrationValue);
 8000d6a:	4b2f      	ldr	r3, [pc, #188]	; (8000e28 <HAL_RCC_OscConfig+0x270>)
 8000d6c:	685b      	ldr	r3, [r3, #4]
 8000d6e:	f423 427f 	bic.w	r2, r3, #65280	; 0xff00
 8000d72:	687b      	ldr	r3, [r7, #4]
 8000d74:	69db      	ldr	r3, [r3, #28]
 8000d76:	021b      	lsls	r3, r3, #8
 8000d78:	492b      	ldr	r1, [pc, #172]	; (8000e28 <HAL_RCC_OscConfig+0x270>)
 8000d7a:	4313      	orrs	r3, r2
 8000d7c:	604b      	str	r3, [r1, #4]
 8000d7e:	e01a      	b.n	8000db6 <HAL_RCC_OscConfig+0x1fe>

      }
      else
      {
        /* Disable the Internal High Speed oscillator (MSI). */
        __HAL_RCC_MSI_DISABLE();
 8000d80:	4b29      	ldr	r3, [pc, #164]	; (8000e28 <HAL_RCC_OscConfig+0x270>)
 8000d82:	681b      	ldr	r3, [r3, #0]
 8000d84:	4a28      	ldr	r2, [pc, #160]	; (8000e28 <HAL_RCC_OscConfig+0x270>)
 8000d86:	f023 0301 	bic.w	r3, r3, #1
 8000d8a:	6013      	str	r3, [r2, #0]

        /* Get timeout */
        tickstart = HAL_GetTick();
 8000d8c:	f7ff fc08 	bl	80005a0 <HAL_GetTick>
 8000d90:	6138      	str	r0, [r7, #16]

        /* Wait till MSI is ready */
        while(READ_BIT(RCC->CR, RCC_CR_MSIRDY) != 0U)
 8000d92:	e008      	b.n	8000da6 <HAL_RCC_OscConfig+0x1ee>
        {
          if((HAL_GetTick() - tickstart) > MSI_TIMEOUT_VALUE)
 8000d94:	f7ff fc04 	bl	80005a0 <HAL_GetTick>
 8000d98:	4602      	mov	r2, r0
 8000d9a:	693b      	ldr	r3, [r7, #16]
 8000d9c:	1ad3      	subs	r3, r2, r3
 8000d9e:	2b02      	cmp	r3, #2
 8000da0:	d901      	bls.n	8000da6 <HAL_RCC_OscConfig+0x1ee>
          {
            return HAL_TIMEOUT;
 8000da2:	2303      	movs	r3, #3
 8000da4:	e314      	b.n	80013d0 <HAL_RCC_OscConfig+0x818>
        while(READ_BIT(RCC->CR, RCC_CR_MSIRDY) != 0U)
 8000da6:	4b20      	ldr	r3, [pc, #128]	; (8000e28 <HAL_RCC_OscConfig+0x270>)
 8000da8:	681b      	ldr	r3, [r3, #0]
 8000daa:	f003 0302 	and.w	r3, r3, #2
 8000dae:	2b00      	cmp	r3, #0
 8000db0:	d1f0      	bne.n	8000d94 <HAL_RCC_OscConfig+0x1dc>
 8000db2:	e000      	b.n	8000db6 <HAL_RCC_OscConfig+0x1fe>
      if((READ_BIT(RCC->CR, RCC_CR_MSIRDY) != 0U) && (RCC_OscInitStruct->MSIState == RCC_MSI_OFF))
 8000db4:	bf00      	nop
        }
      }
    }
  }
  /*------------------------------- HSE Configuration ------------------------*/
  if(((RCC_OscInitStruct->OscillatorType) & RCC_OSCILLATORTYPE_HSE) == RCC_OSCILLATORTYPE_HSE)
 8000db6:	687b      	ldr	r3, [r7, #4]
 8000db8:	681b      	ldr	r3, [r3, #0]
 8000dba:	f003 0301 	and.w	r3, r3, #1
 8000dbe:	2b00      	cmp	r3, #0
 8000dc0:	d073      	beq.n	8000eaa <HAL_RCC_OscConfig+0x2f2>
  {
    /* Check the parameters */
    assert_param(IS_RCC_HSE(RCC_OscInitStruct->HSEState));

    /* When the HSE is used as system clock or clock source for PLL in these cases it is not allowed to be disabled */
    if((sysclk_source == RCC_CFGR_SWS_HSE) ||
 8000dc2:	69bb      	ldr	r3, [r7, #24]
 8000dc4:	2b08      	cmp	r3, #8
 8000dc6:	d005      	beq.n	8000dd4 <HAL_RCC_OscConfig+0x21c>
 8000dc8:	69bb      	ldr	r3, [r7, #24]
 8000dca:	2b0c      	cmp	r3, #12
 8000dcc:	d10e      	bne.n	8000dec <HAL_RCC_OscConfig+0x234>
       ((sysclk_source == RCC_CFGR_SWS_PLL) && (pll_config == RCC_PLLSOURCE_HSE)))
 8000dce:	697b      	ldr	r3, [r7, #20]
 8000dd0:	2b03      	cmp	r3, #3
 8000dd2:	d10b      	bne.n	8000dec <HAL_RCC_OscConfig+0x234>
    {
      if((READ_BIT(RCC->CR, RCC_CR_HSERDY) != 0U) && (RCC_OscInitStruct->HSEState == RCC_HSE_OFF))
 8000dd4:	4b14      	ldr	r3, [pc, #80]	; (8000e28 <HAL_RCC_OscConfig+0x270>)
 8000dd6:	681b      	ldr	r3, [r3, #0]
 8000dd8:	f403 3300 	and.w	r3, r3, #131072	; 0x20000
 8000ddc:	2b00      	cmp	r3, #0
 8000dde:	d063      	beq.n	8000ea8 <HAL_RCC_OscConfig+0x2f0>
 8000de0:	687b      	ldr	r3, [r7, #4]
 8000de2:	685b      	ldr	r3, [r3, #4]
 8000de4:	2b00      	cmp	r3, #0
 8000de6:	d15f      	bne.n	8000ea8 <HAL_RCC_OscConfig+0x2f0>
      {
        return HAL_ERROR;
 8000de8:	2301      	movs	r3, #1
 8000dea:	e2f1      	b.n	80013d0 <HAL_RCC_OscConfig+0x818>
      }
    }
    else
    {
      /* Set the new HSE configuration ---------------------------------------*/
      __HAL_RCC_HSE_CONFIG(RCC_OscInitStruct->HSEState);
 8000dec:	687b      	ldr	r3, [r7, #4]
 8000dee:	685b      	ldr	r3, [r3, #4]
 8000df0:	f5b3 3f80 	cmp.w	r3, #65536	; 0x10000
 8000df4:	d106      	bne.n	8000e04 <HAL_RCC_OscConfig+0x24c>
 8000df6:	4b0c      	ldr	r3, [pc, #48]	; (8000e28 <HAL_RCC_OscConfig+0x270>)
 8000df8:	681b      	ldr	r3, [r3, #0]
 8000dfa:	4a0b      	ldr	r2, [pc, #44]	; (8000e28 <HAL_RCC_OscConfig+0x270>)
 8000dfc:	f443 3380 	orr.w	r3, r3, #65536	; 0x10000
 8000e00:	6013      	str	r3, [r2, #0]
 8000e02:	e025      	b.n	8000e50 <HAL_RCC_OscConfig+0x298>
 8000e04:	687b      	ldr	r3, [r7, #4]
 8000e06:	685b      	ldr	r3, [r3, #4]
 8000e08:	f5b3 2fa0 	cmp.w	r3, #327680	; 0x50000
 8000e0c:	d114      	bne.n	8000e38 <HAL_RCC_OscConfig+0x280>
 8000e0e:	4b06      	ldr	r3, [pc, #24]	; (8000e28 <HAL_RCC_OscConfig+0x270>)
 8000e10:	681b      	ldr	r3, [r3, #0]
 8000e12:	4a05      	ldr	r2, [pc, #20]	; (8000e28 <HAL_RCC_OscConfig+0x270>)
 8000e14:	f443 2380 	orr.w	r3, r3, #262144	; 0x40000
 8000e18:	6013      	str	r3, [r2, #0]
 8000e1a:	4b03      	ldr	r3, [pc, #12]	; (8000e28 <HAL_RCC_OscConfig+0x270>)
 8000e1c:	681b      	ldr	r3, [r3, #0]
 8000e1e:	4a02      	ldr	r2, [pc, #8]	; (8000e28 <HAL_RCC_OscConfig+0x270>)
 8000e20:	f443 3380 	orr.w	r3, r3, #65536	; 0x10000
 8000e24:	6013      	str	r3, [r2, #0]
 8000e26:	e013      	b.n	8000e50 <HAL_RCC_OscConfig+0x298>
 8000e28:	40021000 	.word	0x40021000
 8000e2c:	08001828 	.word	0x08001828
 8000e30:	20000000 	.word	0x20000000
 8000e34:	20000004 	.word	0x20000004
 8000e38:	4ba0      	ldr	r3, [pc, #640]	; (80010bc <HAL_RCC_OscConfig+0x504>)
 8000e3a:	681b      	ldr	r3, [r3, #0]
 8000e3c:	4a9f      	ldr	r2, [pc, #636]	; (80010bc <HAL_RCC_OscConfig+0x504>)
 8000e3e:	f423 3380 	bic.w	r3, r3, #65536	; 0x10000
 8000e42:	6013      	str	r3, [r2, #0]
 8000e44:	4b9d      	ldr	r3, [pc, #628]	; (80010bc <HAL_RCC_OscConfig+0x504>)
 8000e46:	681b      	ldr	r3, [r3, #0]
 8000e48:	4a9c      	ldr	r2, [pc, #624]	; (80010bc <HAL_RCC_OscConfig+0x504>)
 8000e4a:	f423 2380 	bic.w	r3, r3, #262144	; 0x40000
 8000e4e:	6013      	str	r3, [r2, #0]

      /* Check the HSE State */
      if(RCC_OscInitStruct->HSEState != RCC_HSE_OFF)
 8000e50:	687b      	ldr	r3, [r7, #4]
 8000e52:	685b      	ldr	r3, [r3, #4]
 8000e54:	2b00      	cmp	r3, #0
 8000e56:	d013      	beq.n	8000e80 <HAL_RCC_OscConfig+0x2c8>
      {
        /* Get Start Tick*/
        tickstart = HAL_GetTick();
 8000e58:	f7ff fba2 	bl	80005a0 <HAL_GetTick>
 8000e5c:	6138      	str	r0, [r7, #16]

        /* Wait till HSE is ready */
        while(READ_BIT(RCC->CR, RCC_CR_HSERDY) == 0U)
 8000e5e:	e008      	b.n	8000e72 <HAL_RCC_OscConfig+0x2ba>
        {
          if((HAL_GetTick() - tickstart) > HSE_TIMEOUT_VALUE)
 8000e60:	f7ff fb9e 	bl	80005a0 <HAL_GetTick>
 8000e64:	4602      	mov	r2, r0
 8000e66:	693b      	ldr	r3, [r7, #16]
 8000e68:	1ad3      	subs	r3, r2, r3
 8000e6a:	2b64      	cmp	r3, #100	; 0x64
 8000e6c:	d901      	bls.n	8000e72 <HAL_RCC_OscConfig+0x2ba>
          {
            return HAL_TIMEOUT;
 8000e6e:	2303      	movs	r3, #3
 8000e70:	e2ae      	b.n	80013d0 <HAL_RCC_OscConfig+0x818>
        while(READ_BIT(RCC->CR, RCC_CR_HSERDY) == 0U)
 8000e72:	4b92      	ldr	r3, [pc, #584]	; (80010bc <HAL_RCC_OscConfig+0x504>)
 8000e74:	681b      	ldr	r3, [r3, #0]
 8000e76:	f403 3300 	and.w	r3, r3, #131072	; 0x20000
 8000e7a:	2b00      	cmp	r3, #0
 8000e7c:	d0f0      	beq.n	8000e60 <HAL_RCC_OscConfig+0x2a8>
 8000e7e:	e014      	b.n	8000eaa <HAL_RCC_OscConfig+0x2f2>
        }
      }
      else
      {
        /* Get Start Tick*/
        tickstart = HAL_GetTick();
 8000e80:	f7ff fb8e 	bl	80005a0 <HAL_GetTick>
 8000e84:	6138      	str	r0, [r7, #16]

        /* Wait till HSE is disabled */
        while(READ_BIT(RCC->CR, RCC_CR_HSERDY) != 0U)
 8000e86:	e008      	b.n	8000e9a <HAL_RCC_OscConfig+0x2e2>
        {
          if((HAL_GetTick() - tickstart) > HSE_TIMEOUT_VALUE)
 8000e88:	f7ff fb8a 	bl	80005a0 <HAL_GetTick>
 8000e8c:	4602      	mov	r2, r0
 8000e8e:	693b      	ldr	r3, [r7, #16]
 8000e90:	1ad3      	subs	r3, r2, r3
 8000e92:	2b64      	cmp	r3, #100	; 0x64
 8000e94:	d901      	bls.n	8000e9a <HAL_RCC_OscConfig+0x2e2>
          {
            return HAL_TIMEOUT;
 8000e96:	2303      	movs	r3, #3
 8000e98:	e29a      	b.n	80013d0 <HAL_RCC_OscConfig+0x818>
        while(READ_BIT(RCC->CR, RCC_CR_HSERDY) != 0U)
 8000e9a:	4b88      	ldr	r3, [pc, #544]	; (80010bc <HAL_RCC_OscConfig+0x504>)
 8000e9c:	681b      	ldr	r3, [r3, #0]
 8000e9e:	f403 3300 	and.w	r3, r3, #131072	; 0x20000
 8000ea2:	2b00      	cmp	r3, #0
 8000ea4:	d1f0      	bne.n	8000e88 <HAL_RCC_OscConfig+0x2d0>
 8000ea6:	e000      	b.n	8000eaa <HAL_RCC_OscConfig+0x2f2>
      if((READ_BIT(RCC->CR, RCC_CR_HSERDY) != 0U) && (RCC_OscInitStruct->HSEState == RCC_HSE_OFF))
 8000ea8:	bf00      	nop
        }
      }
    }
  }
  /*----------------------------- HSI Configuration --------------------------*/
  if(((RCC_OscInitStruct->OscillatorType) & RCC_OSCILLATORTYPE_HSI) == RCC_OSCILLATORTYPE_HSI)
 8000eaa:	687b      	ldr	r3, [r7, #4]
 8000eac:	681b      	ldr	r3, [r3, #0]
 8000eae:	f003 0302 	and.w	r3, r3, #2
 8000eb2:	2b00      	cmp	r3, #0
 8000eb4:	d060      	beq.n	8000f78 <HAL_RCC_OscConfig+0x3c0>
    /* Check the parameters */
    assert_param(IS_RCC_HSI(RCC_OscInitStruct->HSIState));
    assert_param(IS_RCC_HSI_CALIBRATION_VALUE(RCC_OscInitStruct->HSICalibrationValue));

    /* Check if HSI is used as system clock or as PLL source when PLL is selected as system clock */
    if((sysclk_source == RCC_CFGR_SWS_HSI) ||
 8000eb6:	69bb      	ldr	r3, [r7, #24]
 8000eb8:	2b04      	cmp	r3, #4
 8000eba:	d005      	beq.n	8000ec8 <HAL_RCC_OscConfig+0x310>
 8000ebc:	69bb      	ldr	r3, [r7, #24]
 8000ebe:	2b0c      	cmp	r3, #12
 8000ec0:	d119      	bne.n	8000ef6 <HAL_RCC_OscConfig+0x33e>
       ((sysclk_source == RCC_CFGR_SWS_PLL) && (pll_config == RCC_PLLSOURCE_HSI)))
 8000ec2:	697b      	ldr	r3, [r7, #20]
 8000ec4:	2b02      	cmp	r3, #2
 8000ec6:	d116      	bne.n	8000ef6 <HAL_RCC_OscConfig+0x33e>
    {
      /* When HSI is used as system clock it will not be disabled */
      if((READ_BIT(RCC->CR, RCC_CR_HSIRDY) != 0U) && (RCC_OscInitStruct->HSIState == RCC_HSI_OFF))
 8000ec8:	4b7c      	ldr	r3, [pc, #496]	; (80010bc <HAL_RCC_OscConfig+0x504>)
 8000eca:	681b      	ldr	r3, [r3, #0]
 8000ecc:	f403 6380 	and.w	r3, r3, #1024	; 0x400
 8000ed0:	2b00      	cmp	r3, #0
 8000ed2:	d005      	beq.n	8000ee0 <HAL_RCC_OscConfig+0x328>
 8000ed4:	687b      	ldr	r3, [r7, #4]
 8000ed6:	68db      	ldr	r3, [r3, #12]
 8000ed8:	2b00      	cmp	r3, #0
 8000eda:	d101      	bne.n	8000ee0 <HAL_RCC_OscConfig+0x328>
      {
        return HAL_ERROR;
 8000edc:	2301      	movs	r3, #1
 8000ede:	e277      	b.n	80013d0 <HAL_RCC_OscConfig+0x818>
      }
      /* Otherwise, just the calibration is allowed */
      else
      {
        /* Adjusts the Internal High Speed oscillator (HSI) calibration value.*/
        __HAL_RCC_HSI_CALIBRATIONVALUE_ADJUST(RCC_OscInitStruct->HSICalibrationValue);
 8000ee0:	4b76      	ldr	r3, [pc, #472]	; (80010bc <HAL_RCC_OscConfig+0x504>)
 8000ee2:	685b      	ldr	r3, [r3, #4]
 8000ee4:	f023 42fe 	bic.w	r2, r3, #2130706432	; 0x7f000000
 8000ee8:	687b      	ldr	r3, [r7, #4]
 8000eea:	691b      	ldr	r3, [r3, #16]
 8000eec:	061b      	lsls	r3, r3, #24
 8000eee:	4973      	ldr	r1, [pc, #460]	; (80010bc <HAL_RCC_OscConfig+0x504>)
 8000ef0:	4313      	orrs	r3, r2
 8000ef2:	604b      	str	r3, [r1, #4]
      if((READ_BIT(RCC->CR, RCC_CR_HSIRDY) != 0U) && (RCC_OscInitStruct->HSIState == RCC_HSI_OFF))
 8000ef4:	e040      	b.n	8000f78 <HAL_RCC_OscConfig+0x3c0>
      }
    }
    else
    {
      /* Check the HSI State */
      if(RCC_OscInitStruct->HSIState != RCC_HSI_OFF)
 8000ef6:	687b      	ldr	r3, [r7, #4]
 8000ef8:	68db      	ldr	r3, [r3, #12]
 8000efa:	2b00      	cmp	r3, #0
 8000efc:	d023      	beq.n	8000f46 <HAL_RCC_OscConfig+0x38e>
      {
        /* Enable the Internal High Speed oscillator (HSI). */
        __HAL_RCC_HSI_ENABLE();
 8000efe:	4b6f      	ldr	r3, [pc, #444]	; (80010bc <HAL_RCC_OscConfig+0x504>)
 8000f00:	681b      	ldr	r3, [r3, #0]
 8000f02:	4a6e      	ldr	r2, [pc, #440]	; (80010bc <HAL_RCC_OscConfig+0x504>)
 8000f04:	f443 7380 	orr.w	r3, r3, #256	; 0x100
 8000f08:	6013      	str	r3, [r2, #0]

        /* Get Start Tick*/
        tickstart = HAL_GetTick();
 8000f0a:	f7ff fb49 	bl	80005a0 <HAL_GetTick>
 8000f0e:	6138      	str	r0, [r7, #16]

        /* Wait till HSI is ready */
        while(READ_BIT(RCC->CR, RCC_CR_HSIRDY) == 0U)
 8000f10:	e008      	b.n	8000f24 <HAL_RCC_OscConfig+0x36c>
        {
          if((HAL_GetTick() - tickstart) > HSI_TIMEOUT_VALUE)
 8000f12:	f7ff fb45 	bl	80005a0 <HAL_GetTick>
 8000f16:	4602      	mov	r2, r0
 8000f18:	693b      	ldr	r3, [r7, #16]
 8000f1a:	1ad3      	subs	r3, r2, r3
 8000f1c:	2b02      	cmp	r3, #2
 8000f1e:	d901      	bls.n	8000f24 <HAL_RCC_OscConfig+0x36c>
          {
            return HAL_TIMEOUT;
 8000f20:	2303      	movs	r3, #3
 8000f22:	e255      	b.n	80013d0 <HAL_RCC_OscConfig+0x818>
        while(READ_BIT(RCC->CR, RCC_CR_HSIRDY) == 0U)
 8000f24:	4b65      	ldr	r3, [pc, #404]	; (80010bc <HAL_RCC_OscConfig+0x504>)
 8000f26:	681b      	ldr	r3, [r3, #0]
 8000f28:	f403 6380 	and.w	r3, r3, #1024	; 0x400
 8000f2c:	2b00      	cmp	r3, #0
 8000f2e:	d0f0      	beq.n	8000f12 <HAL_RCC_OscConfig+0x35a>
          }
        }

        /* Adjusts the Internal High Speed oscillator (HSI) calibration value.*/
        __HAL_RCC_HSI_CALIBRATIONVALUE_ADJUST(RCC_OscInitStruct->HSICalibrationValue);
 8000f30:	4b62      	ldr	r3, [pc, #392]	; (80010bc <HAL_RCC_OscConfig+0x504>)
 8000f32:	685b      	ldr	r3, [r3, #4]
 8000f34:	f023 42fe 	bic.w	r2, r3, #2130706432	; 0x7f000000
 8000f38:	687b      	ldr	r3, [r7, #4]
 8000f3a:	691b      	ldr	r3, [r3, #16]
 8000f3c:	061b      	lsls	r3, r3, #24
 8000f3e:	495f      	ldr	r1, [pc, #380]	; (80010bc <HAL_RCC_OscConfig+0x504>)
 8000f40:	4313      	orrs	r3, r2
 8000f42:	604b      	str	r3, [r1, #4]
 8000f44:	e018      	b.n	8000f78 <HAL_RCC_OscConfig+0x3c0>
      }
      else
      {
        /* Disable the Internal High Speed oscillator (HSI). */
        __HAL_RCC_HSI_DISABLE();
 8000f46:	4b5d      	ldr	r3, [pc, #372]	; (80010bc <HAL_RCC_OscConfig+0x504>)
 8000f48:	681b      	ldr	r3, [r3, #0]
 8000f4a:	4a5c      	ldr	r2, [pc, #368]	; (80010bc <HAL_RCC_OscConfig+0x504>)
 8000f4c:	f423 7380 	bic.w	r3, r3, #256	; 0x100
 8000f50:	6013      	str	r3, [r2, #0]

        /* Get Start Tick*/
        tickstart = HAL_GetTick();
 8000f52:	f7ff fb25 	bl	80005a0 <HAL_GetTick>
 8000f56:	6138      	str	r0, [r7, #16]

        /* Wait till HSI is disabled */
        while(READ_BIT(RCC->CR, RCC_CR_HSIRDY) != 0U)
 8000f58:	e008      	b.n	8000f6c <HAL_RCC_OscConfig+0x3b4>
        {
          if((HAL_GetTick() - tickstart) > HSI_TIMEOUT_VALUE)
 8000f5a:	f7ff fb21 	bl	80005a0 <HAL_GetTick>
 8000f5e:	4602      	mov	r2, r0
 8000f60:	693b      	ldr	r3, [r7, #16]
 8000f62:	1ad3      	subs	r3, r2, r3
 8000f64:	2b02      	cmp	r3, #2
 8000f66:	d901      	bls.n	8000f6c <HAL_RCC_OscConfig+0x3b4>
          {
            return HAL_TIMEOUT;
 8000f68:	2303      	movs	r3, #3
 8000f6a:	e231      	b.n	80013d0 <HAL_RCC_OscConfig+0x818>
        while(READ_BIT(RCC->CR, RCC_CR_HSIRDY) != 0U)
 8000f6c:	4b53      	ldr	r3, [pc, #332]	; (80010bc <HAL_RCC_OscConfig+0x504>)
 8000f6e:	681b      	ldr	r3, [r3, #0]
 8000f70:	f403 6380 	and.w	r3, r3, #1024	; 0x400
 8000f74:	2b00      	cmp	r3, #0
 8000f76:	d1f0      	bne.n	8000f5a <HAL_RCC_OscConfig+0x3a2>
        }
      }
    }
  }
  /*------------------------------ LSI Configuration -------------------------*/
  if(((RCC_OscInitStruct->OscillatorType) & RCC_OSCILLATORTYPE_LSI) == RCC_OSCILLATORTYPE_LSI)
 8000f78:	687b      	ldr	r3, [r7, #4]
 8000f7a:	681b      	ldr	r3, [r3, #0]
 8000f7c:	f003 0308 	and.w	r3, r3, #8
 8000f80:	2b00      	cmp	r3, #0
 8000f82:	d03c      	beq.n	8000ffe <HAL_RCC_OscConfig+0x446>
  {
    /* Check the parameters */
    assert_param(IS_RCC_LSI(RCC_OscInitStruct->LSIState));

    /* Check the LSI State */
    if(RCC_OscInitStruct->LSIState != RCC_LSI_OFF)
 8000f84:	687b      	ldr	r3, [r7, #4]
 8000f86:	695b      	ldr	r3, [r3, #20]
 8000f88:	2b00      	cmp	r3, #0
 8000f8a:	d01c      	beq.n	8000fc6 <HAL_RCC_OscConfig+0x40e>
        MODIFY_REG(RCC->CSR, RCC_CSR_LSIPREDIV, RCC_OscInitStruct->LSIDiv);
      }
#endif /* RCC_CSR_LSIPREDIV */

      /* Enable the Internal Low Speed oscillator (LSI). */
      __HAL_RCC_LSI_ENABLE();
 8000f8c:	4b4b      	ldr	r3, [pc, #300]	; (80010bc <HAL_RCC_OscConfig+0x504>)
 8000f8e:	f8d3 3094 	ldr.w	r3, [r3, #148]	; 0x94
 8000f92:	4a4a      	ldr	r2, [pc, #296]	; (80010bc <HAL_RCC_OscConfig+0x504>)
 8000f94:	f043 0301 	orr.w	r3, r3, #1
 8000f98:	f8c2 3094 	str.w	r3, [r2, #148]	; 0x94

      /* Get Start Tick*/
      tickstart = HAL_GetTick();
 8000f9c:	f7ff fb00 	bl	80005a0 <HAL_GetTick>
 8000fa0:	6138      	str	r0, [r7, #16]

      /* Wait till LSI is ready */
      while(READ_BIT(RCC->CSR, RCC_CSR_LSIRDY) == 0U)
 8000fa2:	e008      	b.n	8000fb6 <HAL_RCC_OscConfig+0x3fe>
      {
        if((HAL_GetTick() - tickstart) > LSI_TIMEOUT_VALUE)
 8000fa4:	f7ff fafc 	bl	80005a0 <HAL_GetTick>
 8000fa8:	4602      	mov	r2, r0
 8000faa:	693b      	ldr	r3, [r7, #16]
 8000fac:	1ad3      	subs	r3, r2, r3
 8000fae:	2b02      	cmp	r3, #2
 8000fb0:	d901      	bls.n	8000fb6 <HAL_RCC_OscConfig+0x3fe>
        {
          return HAL_TIMEOUT;
 8000fb2:	2303      	movs	r3, #3
 8000fb4:	e20c      	b.n	80013d0 <HAL_RCC_OscConfig+0x818>
      while(READ_BIT(RCC->CSR, RCC_CSR_LSIRDY) == 0U)
 8000fb6:	4b41      	ldr	r3, [pc, #260]	; (80010bc <HAL_RCC_OscConfig+0x504>)
 8000fb8:	f8d3 3094 	ldr.w	r3, [r3, #148]	; 0x94
 8000fbc:	f003 0302 	and.w	r3, r3, #2
 8000fc0:	2b00      	cmp	r3, #0
 8000fc2:	d0ef      	beq.n	8000fa4 <HAL_RCC_OscConfig+0x3ec>
 8000fc4:	e01b      	b.n	8000ffe <HAL_RCC_OscConfig+0x446>
      }
    }
    else
    {
      /* Disable the Internal Low Speed oscillator (LSI). */
      __HAL_RCC_LSI_DISABLE();
 8000fc6:	4b3d      	ldr	r3, [pc, #244]	; (80010bc <HAL_RCC_OscConfig+0x504>)
 8000fc8:	f8d3 3094 	ldr.w	r3, [r3, #148]	; 0x94
 8000fcc:	4a3b      	ldr	r2, [pc, #236]	; (80010bc <HAL_RCC_OscConfig+0x504>)
 8000fce:	f023 0301 	bic.w	r3, r3, #1
 8000fd2:	f8c2 3094 	str.w	r3, [r2, #148]	; 0x94

      /* Get Start Tick*/
      tickstart = HAL_GetTick();
 8000fd6:	f7ff fae3 	bl	80005a0 <HAL_GetTick>
 8000fda:	6138      	str	r0, [r7, #16]

      /* Wait till LSI is disabled */
      while(READ_BIT(RCC->CSR, RCC_CSR_LSIRDY) != 0U)
 8000fdc:	e008      	b.n	8000ff0 <HAL_RCC_OscConfig+0x438>
      {
        if((HAL_GetTick() - tickstart) > LSI_TIMEOUT_VALUE)
 8000fde:	f7ff fadf 	bl	80005a0 <HAL_GetTick>
 8000fe2:	4602      	mov	r2, r0
 8000fe4:	693b      	ldr	r3, [r7, #16]
 8000fe6:	1ad3      	subs	r3, r2, r3
 8000fe8:	2b02      	cmp	r3, #2
 8000fea:	d901      	bls.n	8000ff0 <HAL_RCC_OscConfig+0x438>
        {
          return HAL_TIMEOUT;
 8000fec:	2303      	movs	r3, #3
 8000fee:	e1ef      	b.n	80013d0 <HAL_RCC_OscConfig+0x818>
      while(READ_BIT(RCC->CSR, RCC_CSR_LSIRDY) != 0U)
 8000ff0:	4b32      	ldr	r3, [pc, #200]	; (80010bc <HAL_RCC_OscConfig+0x504>)
 8000ff2:	f8d3 3094 	ldr.w	r3, [r3, #148]	; 0x94
 8000ff6:	f003 0302 	and.w	r3, r3, #2
 8000ffa:	2b00      	cmp	r3, #0
 8000ffc:	d1ef      	bne.n	8000fde <HAL_RCC_OscConfig+0x426>
        }
      }
    }
  }
  /*------------------------------ LSE Configuration -------------------------*/
  if(((RCC_OscInitStruct->OscillatorType) & RCC_OSCILLATORTYPE_LSE) == RCC_OSCILLATORTYPE_LSE)
 8000ffe:	687b      	ldr	r3, [r7, #4]
 8001000:	681b      	ldr	r3, [r3, #0]
 8001002:	f003 0304 	and.w	r3, r3, #4
 8001006:	2b00      	cmp	r3, #0
 8001008:	f000 80a6 	beq.w	8001158 <HAL_RCC_OscConfig+0x5a0>
  {
    FlagStatus       pwrclkchanged = RESET;
 800100c:	2300      	movs	r3, #0
 800100e:	77fb      	strb	r3, [r7, #31]
    /* Check the parameters */
    assert_param(IS_RCC_LSE(RCC_OscInitStruct->LSEState));

    /* Update LSE configuration in Backup Domain control register    */
    /* Requires to enable write access to Backup Domain of necessary */
    if(HAL_IS_BIT_CLR(RCC->APB1ENR1, RCC_APB1ENR1_PWREN))
 8001010:	4b2a      	ldr	r3, [pc, #168]	; (80010bc <HAL_RCC_OscConfig+0x504>)
 8001012:	6d9b      	ldr	r3, [r3, #88]	; 0x58
 8001014:	f003 5380 	and.w	r3, r3, #268435456	; 0x10000000
 8001018:	2b00      	cmp	r3, #0
 800101a:	d10d      	bne.n	8001038 <HAL_RCC_OscConfig+0x480>
    {
      __HAL_RCC_PWR_CLK_ENABLE();
 800101c:	4b27      	ldr	r3, [pc, #156]	; (80010bc <HAL_RCC_OscConfig+0x504>)
 800101e:	6d9b      	ldr	r3, [r3, #88]	; 0x58
 8001020:	4a26      	ldr	r2, [pc, #152]	; (80010bc <HAL_RCC_OscConfig+0x504>)
 8001022:	f043 5380 	orr.w	r3, r3, #268435456	; 0x10000000
 8001026:	6593      	str	r3, [r2, #88]	; 0x58
 8001028:	4b24      	ldr	r3, [pc, #144]	; (80010bc <HAL_RCC_OscConfig+0x504>)
 800102a:	6d9b      	ldr	r3, [r3, #88]	; 0x58
 800102c:	f003 5380 	and.w	r3, r3, #268435456	; 0x10000000
 8001030:	60bb      	str	r3, [r7, #8]
 8001032:	68bb      	ldr	r3, [r7, #8]
      pwrclkchanged = SET;
 8001034:	2301      	movs	r3, #1
 8001036:	77fb      	strb	r3, [r7, #31]
    }

    if(HAL_IS_BIT_CLR(PWR->CR1, PWR_CR1_DBP))
 8001038:	4b21      	ldr	r3, [pc, #132]	; (80010c0 <HAL_RCC_OscConfig+0x508>)
 800103a:	681b      	ldr	r3, [r3, #0]
 800103c:	f403 7380 	and.w	r3, r3, #256	; 0x100
 8001040:	2b00      	cmp	r3, #0
 8001042:	d118      	bne.n	8001076 <HAL_RCC_OscConfig+0x4be>
    {
      /* Enable write access to Backup domain */
      SET_BIT(PWR->CR1, PWR_CR1_DBP);
 8001044:	4b1e      	ldr	r3, [pc, #120]	; (80010c0 <HAL_RCC_OscConfig+0x508>)
 8001046:	681b      	ldr	r3, [r3, #0]
 8001048:	4a1d      	ldr	r2, [pc, #116]	; (80010c0 <HAL_RCC_OscConfig+0x508>)
 800104a:	f443 7380 	orr.w	r3, r3, #256	; 0x100
 800104e:	6013      	str	r3, [r2, #0]

      /* Wait for Backup domain Write protection disable */
      tickstart = HAL_GetTick();
 8001050:	f7ff faa6 	bl	80005a0 <HAL_GetTick>
 8001054:	6138      	str	r0, [r7, #16]

      while(HAL_IS_BIT_CLR(PWR->CR1, PWR_CR1_DBP))
 8001056:	e008      	b.n	800106a <HAL_RCC_OscConfig+0x4b2>
      {
        if((HAL_GetTick() - tickstart) > RCC_DBP_TIMEOUT_VALUE)
 8001058:	f7ff faa2 	bl	80005a0 <HAL_GetTick>
 800105c:	4602      	mov	r2, r0
 800105e:	693b      	ldr	r3, [r7, #16]
 8001060:	1ad3      	subs	r3, r2, r3
 8001062:	2b02      	cmp	r3, #2
 8001064:	d901      	bls.n	800106a <HAL_RCC_OscConfig+0x4b2>
        {
          return HAL_TIMEOUT;
 8001066:	2303      	movs	r3, #3
 8001068:	e1b2      	b.n	80013d0 <HAL_RCC_OscConfig+0x818>
      while(HAL_IS_BIT_CLR(PWR->CR1, PWR_CR1_DBP))
 800106a:	4b15      	ldr	r3, [pc, #84]	; (80010c0 <HAL_RCC_OscConfig+0x508>)
 800106c:	681b      	ldr	r3, [r3, #0]
 800106e:	f403 7380 	and.w	r3, r3, #256	; 0x100
 8001072:	2b00      	cmp	r3, #0
 8001074:	d0f0      	beq.n	8001058 <HAL_RCC_OscConfig+0x4a0>
    {
      CLEAR_BIT(RCC->BDCR, RCC_BDCR_LSEON);
      CLEAR_BIT(RCC->BDCR, RCC_BDCR_LSEBYP);
    }
#else
    __HAL_RCC_LSE_CONFIG(RCC_OscInitStruct->LSEState);
 8001076:	687b      	ldr	r3, [r7, #4]
 8001078:	689b      	ldr	r3, [r3, #8]
 800107a:	2b01      	cmp	r3, #1
 800107c:	d108      	bne.n	8001090 <HAL_RCC_OscConfig+0x4d8>
 800107e:	4b0f      	ldr	r3, [pc, #60]	; (80010bc <HAL_RCC_OscConfig+0x504>)
 8001080:	f8d3 3090 	ldr.w	r3, [r3, #144]	; 0x90
 8001084:	4a0d      	ldr	r2, [pc, #52]	; (80010bc <HAL_RCC_OscConfig+0x504>)
 8001086:	f043 0301 	orr.w	r3, r3, #1
 800108a:	f8c2 3090 	str.w	r3, [r2, #144]	; 0x90
 800108e:	e029      	b.n	80010e4 <HAL_RCC_OscConfig+0x52c>
 8001090:	687b      	ldr	r3, [r7, #4]
 8001092:	689b      	ldr	r3, [r3, #8]
 8001094:	2b05      	cmp	r3, #5
 8001096:	d115      	bne.n	80010c4 <HAL_RCC_OscConfig+0x50c>
 8001098:	4b08      	ldr	r3, [pc, #32]	; (80010bc <HAL_RCC_OscConfig+0x504>)
 800109a:	f8d3 3090 	ldr.w	r3, [r3, #144]	; 0x90
 800109e:	4a07      	ldr	r2, [pc, #28]	; (80010bc <HAL_RCC_OscConfig+0x504>)
 80010a0:	f043 0304 	orr.w	r3, r3, #4
 80010a4:	f8c2 3090 	str.w	r3, [r2, #144]	; 0x90
 80010a8:	4b04      	ldr	r3, [pc, #16]	; (80010bc <HAL_RCC_OscConfig+0x504>)
 80010aa:	f8d3 3090 	ldr.w	r3, [r3, #144]	; 0x90
 80010ae:	4a03      	ldr	r2, [pc, #12]	; (80010bc <HAL_RCC_OscConfig+0x504>)
 80010b0:	f043 0301 	orr.w	r3, r3, #1
 80010b4:	f8c2 3090 	str.w	r3, [r2, #144]	; 0x90
 80010b8:	e014      	b.n	80010e4 <HAL_RCC_OscConfig+0x52c>
 80010ba:	bf00      	nop
 80010bc:	40021000 	.word	0x40021000
 80010c0:	40007000 	.word	0x40007000
 80010c4:	4b9a      	ldr	r3, [pc, #616]	; (8001330 <HAL_RCC_OscConfig+0x778>)
 80010c6:	f8d3 3090 	ldr.w	r3, [r3, #144]	; 0x90
 80010ca:	4a99      	ldr	r2, [pc, #612]	; (8001330 <HAL_RCC_OscConfig+0x778>)
 80010cc:	f023 0301 	bic.w	r3, r3, #1
 80010d0:	f8c2 3090 	str.w	r3, [r2, #144]	; 0x90
 80010d4:	4b96      	ldr	r3, [pc, #600]	; (8001330 <HAL_RCC_OscConfig+0x778>)
 80010d6:	f8d3 3090 	ldr.w	r3, [r3, #144]	; 0x90
 80010da:	4a95      	ldr	r2, [pc, #596]	; (8001330 <HAL_RCC_OscConfig+0x778>)
 80010dc:	f023 0304 	bic.w	r3, r3, #4
 80010e0:	f8c2 3090 	str.w	r3, [r2, #144]	; 0x90
#endif /* RCC_BDCR_LSESYSDIS */

    /* Check the LSE State */
    if(RCC_OscInitStruct->LSEState != RCC_LSE_OFF)
 80010e4:	687b      	ldr	r3, [r7, #4]
 80010e6:	689b      	ldr	r3, [r3, #8]
 80010e8:	2b00      	cmp	r3, #0
 80010ea:	d016      	beq.n	800111a <HAL_RCC_OscConfig+0x562>
    {
      /* Get Start Tick*/
      tickstart = HAL_GetTick();
 80010ec:	f7ff fa58 	bl	80005a0 <HAL_GetTick>
 80010f0:	6138      	str	r0, [r7, #16]

      /* Wait till LSE is ready */
      while(READ_BIT(RCC->BDCR, RCC_BDCR_LSERDY) == 0U)
 80010f2:	e00a      	b.n	800110a <HAL_RCC_OscConfig+0x552>
      {
        if((HAL_GetTick() - tickstart) > RCC_LSE_TIMEOUT_VALUE)
 80010f4:	f7ff fa54 	bl	80005a0 <HAL_GetTick>
 80010f8:	4602      	mov	r2, r0
 80010fa:	693b      	ldr	r3, [r7, #16]
 80010fc:	1ad3      	subs	r3, r2, r3
 80010fe:	f241 3288 	movw	r2, #5000	; 0x1388
 8001102:	4293      	cmp	r3, r2
 8001104:	d901      	bls.n	800110a <HAL_RCC_OscConfig+0x552>
        {
          return HAL_TIMEOUT;
 8001106:	2303      	movs	r3, #3
 8001108:	e162      	b.n	80013d0 <HAL_RCC_OscConfig+0x818>
      while(READ_BIT(RCC->BDCR, RCC_BDCR_LSERDY) == 0U)
 800110a:	4b89      	ldr	r3, [pc, #548]	; (8001330 <HAL_RCC_OscConfig+0x778>)
 800110c:	f8d3 3090 	ldr.w	r3, [r3, #144]	; 0x90
 8001110:	f003 0302 	and.w	r3, r3, #2
 8001114:	2b00      	cmp	r3, #0
 8001116:	d0ed      	beq.n	80010f4 <HAL_RCC_OscConfig+0x53c>
 8001118:	e015      	b.n	8001146 <HAL_RCC_OscConfig+0x58e>
      }
    }
    else
    {
      /* Get Start Tick*/
      tickstart = HAL_GetTick();
 800111a:	f7ff fa41 	bl	80005a0 <HAL_GetTick>
 800111e:	6138      	str	r0, [r7, #16]

      /* Wait till LSE is disabled */
      while(READ_BIT(RCC->BDCR, RCC_BDCR_LSERDY) != 0U)
 8001120:	e00a      	b.n	8001138 <HAL_RCC_OscConfig+0x580>
      {
        if((HAL_GetTick() - tickstart) > RCC_LSE_TIMEOUT_VALUE)
 8001122:	f7ff fa3d 	bl	80005a0 <HAL_GetTick>
 8001126:	4602      	mov	r2, r0
 8001128:	693b      	ldr	r3, [r7, #16]
 800112a:	1ad3      	subs	r3, r2, r3
 800112c:	f241 3288 	movw	r2, #5000	; 0x1388
 8001130:	4293      	cmp	r3, r2
 8001132:	d901      	bls.n	8001138 <HAL_RCC_OscConfig+0x580>
        {
          return HAL_TIMEOUT;
 8001134:	2303      	movs	r3, #3
 8001136:	e14b      	b.n	80013d0 <HAL_RCC_OscConfig+0x818>
      while(READ_BIT(RCC->BDCR, RCC_BDCR_LSERDY) != 0U)
 8001138:	4b7d      	ldr	r3, [pc, #500]	; (8001330 <HAL_RCC_OscConfig+0x778>)
 800113a:	f8d3 3090 	ldr.w	r3, [r3, #144]	; 0x90
 800113e:	f003 0302 	and.w	r3, r3, #2
 8001142:	2b00      	cmp	r3, #0
 8001144:	d1ed      	bne.n	8001122 <HAL_RCC_OscConfig+0x56a>
      CLEAR_BIT(RCC->BDCR, RCC_BDCR_LSESYSDIS);
#endif /* RCC_BDCR_LSESYSDIS */
    }

    /* Restore clock configuration if changed */
    if(pwrclkchanged == SET)
 8001146:	7ffb      	ldrb	r3, [r7, #31]
 8001148:	2b01      	cmp	r3, #1
 800114a:	d105      	bne.n	8001158 <HAL_RCC_OscConfig+0x5a0>
    {
      __HAL_RCC_PWR_CLK_DISABLE();
 800114c:	4b78      	ldr	r3, [pc, #480]	; (8001330 <HAL_RCC_OscConfig+0x778>)
 800114e:	6d9b      	ldr	r3, [r3, #88]	; 0x58
 8001150:	4a77      	ldr	r2, [pc, #476]	; (8001330 <HAL_RCC_OscConfig+0x778>)
 8001152:	f023 5380 	bic.w	r3, r3, #268435456	; 0x10000000
 8001156:	6593      	str	r3, [r2, #88]	; 0x58
    }
  }
#if defined(RCC_HSI48_SUPPORT)
  /*------------------------------ HSI48 Configuration -----------------------*/
  if(((RCC_OscInitStruct->OscillatorType) & RCC_OSCILLATORTYPE_HSI48) == RCC_OSCILLATORTYPE_HSI48)
 8001158:	687b      	ldr	r3, [r7, #4]
 800115a:	681b      	ldr	r3, [r3, #0]
 800115c:	f003 0320 	and.w	r3, r3, #32
 8001160:	2b00      	cmp	r3, #0
 8001162:	d03c      	beq.n	80011de <HAL_RCC_OscConfig+0x626>
  {
    /* Check the parameters */
    assert_param(IS_RCC_HSI48(RCC_OscInitStruct->HSI48State));

    /* Check the LSI State */
    if(RCC_OscInitStruct->HSI48State != RCC_HSI48_OFF)
 8001164:	687b      	ldr	r3, [r7, #4]
 8001166:	6a5b      	ldr	r3, [r3, #36]	; 0x24
 8001168:	2b00      	cmp	r3, #0
 800116a:	d01c      	beq.n	80011a6 <HAL_RCC_OscConfig+0x5ee>
    {
      /* Enable the Internal Low Speed oscillator (HSI48). */
      __HAL_RCC_HSI48_ENABLE();
 800116c:	4b70      	ldr	r3, [pc, #448]	; (8001330 <HAL_RCC_OscConfig+0x778>)
 800116e:	f8d3 3098 	ldr.w	r3, [r3, #152]	; 0x98
 8001172:	4a6f      	ldr	r2, [pc, #444]	; (8001330 <HAL_RCC_OscConfig+0x778>)
 8001174:	f043 0301 	orr.w	r3, r3, #1
 8001178:	f8c2 3098 	str.w	r3, [r2, #152]	; 0x98

      /* Get Start Tick*/
      tickstart = HAL_GetTick();
 800117c:	f7ff fa10 	bl	80005a0 <HAL_GetTick>
 8001180:	6138      	str	r0, [r7, #16]

      /* Wait till HSI48 is ready */
      while(READ_BIT(RCC->CRRCR, RCC_CRRCR_HSI48RDY) == 0U)
 8001182:	e008      	b.n	8001196 <HAL_RCC_OscConfig+0x5de>
      {
        if((HAL_GetTick() - tickstart) > HSI48_TIMEOUT_VALUE)
 8001184:	f7ff fa0c 	bl	80005a0 <HAL_GetTick>
 8001188:	4602      	mov	r2, r0
 800118a:	693b      	ldr	r3, [r7, #16]
 800118c:	1ad3      	subs	r3, r2, r3
 800118e:	2b02      	cmp	r3, #2
 8001190:	d901      	bls.n	8001196 <HAL_RCC_OscConfig+0x5de>
        {
          return HAL_TIMEOUT;
 8001192:	2303      	movs	r3, #3
 8001194:	e11c      	b.n	80013d0 <HAL_RCC_OscConfig+0x818>
      while(READ_BIT(RCC->CRRCR, RCC_CRRCR_HSI48RDY) == 0U)
 8001196:	4b66      	ldr	r3, [pc, #408]	; (8001330 <HAL_RCC_OscConfig+0x778>)
 8001198:	f8d3 3098 	ldr.w	r3, [r3, #152]	; 0x98
 800119c:	f003 0302 	and.w	r3, r3, #2
 80011a0:	2b00      	cmp	r3, #0
 80011a2:	d0ef      	beq.n	8001184 <HAL_RCC_OscConfig+0x5cc>
 80011a4:	e01b      	b.n	80011de <HAL_RCC_OscConfig+0x626>
      }
    }
    else
    {
      /* Disable the Internal Low Speed oscillator (HSI48). */
      __HAL_RCC_HSI48_DISABLE();
 80011a6:	4b62      	ldr	r3, [pc, #392]	; (8001330 <HAL_RCC_OscConfig+0x778>)
 80011a8:	f8d3 3098 	ldr.w	r3, [r3, #152]	; 0x98
 80011ac:	4a60      	ldr	r2, [pc, #384]	; (8001330 <HAL_RCC_OscConfig+0x778>)
 80011ae:	f023 0301 	bic.w	r3, r3, #1
 80011b2:	f8c2 3098 	str.w	r3, [r2, #152]	; 0x98

      /* Get Start Tick*/
      tickstart = HAL_GetTick();
 80011b6:	f7ff f9f3 	bl	80005a0 <HAL_GetTick>
 80011ba:	6138      	str	r0, [r7, #16]

      /* Wait till HSI48 is disabled */
      while(READ_BIT(RCC->CRRCR, RCC_CRRCR_HSI48RDY) != 0U)
 80011bc:	e008      	b.n	80011d0 <HAL_RCC_OscConfig+0x618>
      {
        if((HAL_GetTick() - tickstart) > HSI48_TIMEOUT_VALUE)
 80011be:	f7ff f9ef 	bl	80005a0 <HAL_GetTick>
 80011c2:	4602      	mov	r2, r0
 80011c4:	693b      	ldr	r3, [r7, #16]
 80011c6:	1ad3      	subs	r3, r2, r3
 80011c8:	2b02      	cmp	r3, #2
 80011ca:	d901      	bls.n	80011d0 <HAL_RCC_OscConfig+0x618>
        {
          return HAL_TIMEOUT;
 80011cc:	2303      	movs	r3, #3
 80011ce:	e0ff      	b.n	80013d0 <HAL_RCC_OscConfig+0x818>
      while(READ_BIT(RCC->CRRCR, RCC_CRRCR_HSI48RDY) != 0U)
 80011d0:	4b57      	ldr	r3, [pc, #348]	; (8001330 <HAL_RCC_OscConfig+0x778>)
 80011d2:	f8d3 3098 	ldr.w	r3, [r3, #152]	; 0x98
 80011d6:	f003 0302 	and.w	r3, r3, #2
 80011da:	2b00      	cmp	r3, #0
 80011dc:	d1ef      	bne.n	80011be <HAL_RCC_OscConfig+0x606>
#endif /* RCC_HSI48_SUPPORT */
  /*-------------------------------- PLL Configuration -----------------------*/
  /* Check the parameters */
  assert_param(IS_RCC_PLL(RCC_OscInitStruct->PLL.PLLState));

  if(RCC_OscInitStruct->PLL.PLLState != RCC_PLL_NONE)
 80011de:	687b      	ldr	r3, [r7, #4]
 80011e0:	6a9b      	ldr	r3, [r3, #40]	; 0x28
 80011e2:	2b00      	cmp	r3, #0
 80011e4:	f000 80f3 	beq.w	80013ce <HAL_RCC_OscConfig+0x816>
  {
    /* PLL On ? */
    if(RCC_OscInitStruct->PLL.PLLState == RCC_PLL_ON)
 80011e8:	687b      	ldr	r3, [r7, #4]
 80011ea:	6a9b      	ldr	r3, [r3, #40]	; 0x28
 80011ec:	2b02      	cmp	r3, #2
 80011ee:	f040 80c9 	bne.w	8001384 <HAL_RCC_OscConfig+0x7cc>
#endif /* RCC_PLLP_SUPPORT */
      assert_param(IS_RCC_PLLQ_VALUE(RCC_OscInitStruct->PLL.PLLQ));
      assert_param(IS_RCC_PLLR_VALUE(RCC_OscInitStruct->PLL.PLLR));

      /* Do nothing if PLL configuration is the unchanged */
      pll_config = RCC->PLLCFGR;
 80011f2:	4b4f      	ldr	r3, [pc, #316]	; (8001330 <HAL_RCC_OscConfig+0x778>)
 80011f4:	68db      	ldr	r3, [r3, #12]
 80011f6:	617b      	str	r3, [r7, #20]
      if((READ_BIT(pll_config, RCC_PLLCFGR_PLLSRC)  != RCC_OscInitStruct->PLL.PLLSource) ||
 80011f8:	697b      	ldr	r3, [r7, #20]
 80011fa:	f003 0203 	and.w	r2, r3, #3
 80011fe:	687b      	ldr	r3, [r7, #4]
 8001200:	6adb      	ldr	r3, [r3, #44]	; 0x2c
 8001202:	429a      	cmp	r2, r3
 8001204:	d12c      	bne.n	8001260 <HAL_RCC_OscConfig+0x6a8>
         (READ_BIT(pll_config, RCC_PLLCFGR_PLLM)    != ((RCC_OscInitStruct->PLL.PLLM - 1U) << RCC_PLLCFGR_PLLM_Pos)) ||
 8001206:	697b      	ldr	r3, [r7, #20]
 8001208:	f003 0270 	and.w	r2, r3, #112	; 0x70
 800120c:	687b      	ldr	r3, [r7, #4]
 800120e:	6b1b      	ldr	r3, [r3, #48]	; 0x30
 8001210:	3b01      	subs	r3, #1
 8001212:	011b      	lsls	r3, r3, #4
      if((READ_BIT(pll_config, RCC_PLLCFGR_PLLSRC)  != RCC_OscInitStruct->PLL.PLLSource) ||
 8001214:	429a      	cmp	r2, r3
 8001216:	d123      	bne.n	8001260 <HAL_RCC_OscConfig+0x6a8>
         (READ_BIT(pll_config, RCC_PLLCFGR_PLLN)    != (RCC_OscInitStruct->PLL.PLLN << RCC_PLLCFGR_PLLN_Pos)) ||
 8001218:	697b      	ldr	r3, [r7, #20]
 800121a:	f403 42fe 	and.w	r2, r3, #32512	; 0x7f00
 800121e:	687b      	ldr	r3, [r7, #4]
 8001220:	6b5b      	ldr	r3, [r3, #52]	; 0x34
 8001222:	021b      	lsls	r3, r3, #8
         (READ_BIT(pll_config, RCC_PLLCFGR_PLLM)    != ((RCC_OscInitStruct->PLL.PLLM - 1U) << RCC_PLLCFGR_PLLM_Pos)) ||
 8001224:	429a      	cmp	r2, r3
 8001226:	d11b      	bne.n	8001260 <HAL_RCC_OscConfig+0x6a8>
#if defined(RCC_PLLP_SUPPORT)
#if defined(RCC_PLLP_DIV_2_31_SUPPORT)
         (READ_BIT(pll_config, RCC_PLLCFGR_PLLPDIV) != (RCC_OscInitStruct->PLL.PLLP << RCC_PLLCFGR_PLLPDIV_Pos)) ||
 8001228:	697b      	ldr	r3, [r7, #20]
 800122a:	f003 4278 	and.w	r2, r3, #4160749568	; 0xf8000000
 800122e:	687b      	ldr	r3, [r7, #4]
 8001230:	6b9b      	ldr	r3, [r3, #56]	; 0x38
 8001232:	06db      	lsls	r3, r3, #27
         (READ_BIT(pll_config, RCC_PLLCFGR_PLLN)    != (RCC_OscInitStruct->PLL.PLLN << RCC_PLLCFGR_PLLN_Pos)) ||
 8001234:	429a      	cmp	r2, r3
 8001236:	d113      	bne.n	8001260 <HAL_RCC_OscConfig+0x6a8>
#else
         (READ_BIT(pll_config, RCC_PLLCFGR_PLLP)    != ((RCC_OscInitStruct->PLL.PLLP == RCC_PLLP_DIV7) ? 0U : 1U)) ||
#endif
#endif
         (READ_BIT(pll_config, RCC_PLLCFGR_PLLQ)    != ((((RCC_OscInitStruct->PLL.PLLQ) >> 1U) - 1U) << RCC_PLLCFGR_PLLQ_Pos)) ||
 8001238:	697b      	ldr	r3, [r7, #20]
 800123a:	f403 02c0 	and.w	r2, r3, #6291456	; 0x600000
 800123e:	687b      	ldr	r3, [r7, #4]
 8001240:	6bdb      	ldr	r3, [r3, #60]	; 0x3c
 8001242:	085b      	lsrs	r3, r3, #1
 8001244:	3b01      	subs	r3, #1
 8001246:	055b      	lsls	r3, r3, #21
         (READ_BIT(pll_config, RCC_PLLCFGR_PLLPDIV) != (RCC_OscInitStruct->PLL.PLLP << RCC_PLLCFGR_PLLPDIV_Pos)) ||
 8001248:	429a      	cmp	r2, r3
 800124a:	d109      	bne.n	8001260 <HAL_RCC_OscConfig+0x6a8>
         (READ_BIT(pll_config, RCC_PLLCFGR_PLLR)    != ((((RCC_OscInitStruct->PLL.PLLR) >> 1U) - 1U) << RCC_PLLCFGR_PLLR_Pos)))
 800124c:	697b      	ldr	r3, [r7, #20]
 800124e:	f003 62c0 	and.w	r2, r3, #100663296	; 0x6000000
 8001252:	687b      	ldr	r3, [r7, #4]
 8001254:	6c1b      	ldr	r3, [r3, #64]	; 0x40
 8001256:	085b      	lsrs	r3, r3, #1
 8001258:	3b01      	subs	r3, #1
 800125a:	065b      	lsls	r3, r3, #25
         (READ_BIT(pll_config, RCC_PLLCFGR_PLLQ)    != ((((RCC_OscInitStruct->PLL.PLLQ) >> 1U) - 1U) << RCC_PLLCFGR_PLLQ_Pos)) ||
 800125c:	429a      	cmp	r2, r3
 800125e:	d06b      	beq.n	8001338 <HAL_RCC_OscConfig+0x780>
      {
        /* Check if the PLL is used as system clock or not */
        if(sysclk_source != RCC_CFGR_SWS_PLL)
 8001260:	69bb      	ldr	r3, [r7, #24]
 8001262:	2b0c      	cmp	r3, #12
 8001264:	d062      	beq.n	800132c <HAL_RCC_OscConfig+0x774>
        {
#if defined(RCC_PLLSAI1_SUPPORT) || defined(RCC_PLLSAI2_SUPPORT)
          /* Check if main PLL can be updated */
          /* Not possible if the source is shared by other enabled PLLSAIx */
          if((READ_BIT(RCC->CR, RCC_CR_PLLSAI1ON) != 0U)
 8001266:	4b32      	ldr	r3, [pc, #200]	; (8001330 <HAL_RCC_OscConfig+0x778>)
 8001268:	681b      	ldr	r3, [r3, #0]
 800126a:	f003 6380 	and.w	r3, r3, #67108864	; 0x4000000
 800126e:	2b00      	cmp	r3, #0
 8001270:	d001      	beq.n	8001276 <HAL_RCC_OscConfig+0x6be>
#if defined(RCC_PLLSAI2_SUPPORT)
             || (READ_BIT(RCC->CR, RCC_CR_PLLSAI2ON) != 0U)
#endif
            )
          {
            return HAL_ERROR;
 8001272:	2301      	movs	r3, #1
 8001274:	e0ac      	b.n	80013d0 <HAL_RCC_OscConfig+0x818>
          }
          else
#endif /* RCC_PLLSAI1_SUPPORT || RCC_PLLSAI2_SUPPORT */
          {
            /* Disable the main PLL. */
            __HAL_RCC_PLL_DISABLE();
 8001276:	4b2e      	ldr	r3, [pc, #184]	; (8001330 <HAL_RCC_OscConfig+0x778>)
 8001278:	681b      	ldr	r3, [r3, #0]
 800127a:	4a2d      	ldr	r2, [pc, #180]	; (8001330 <HAL_RCC_OscConfig+0x778>)
 800127c:	f023 7380 	bic.w	r3, r3, #16777216	; 0x1000000
 8001280:	6013      	str	r3, [r2, #0]

            /* Get Start Tick*/
            tickstart = HAL_GetTick();
 8001282:	f7ff f98d 	bl	80005a0 <HAL_GetTick>
 8001286:	6138      	str	r0, [r7, #16]

            /* Wait till PLL is ready */
            while(READ_BIT(RCC->CR, RCC_CR_PLLRDY) != 0U)
 8001288:	e008      	b.n	800129c <HAL_RCC_OscConfig+0x6e4>
            {
              if((HAL_GetTick() - tickstart) > PLL_TIMEOUT_VALUE)
 800128a:	f7ff f989 	bl	80005a0 <HAL_GetTick>
 800128e:	4602      	mov	r2, r0
 8001290:	693b      	ldr	r3, [r7, #16]
 8001292:	1ad3      	subs	r3, r2, r3
 8001294:	2b02      	cmp	r3, #2
 8001296:	d901      	bls.n	800129c <HAL_RCC_OscConfig+0x6e4>
              {
                return HAL_TIMEOUT;
 8001298:	2303      	movs	r3, #3
 800129a:	e099      	b.n	80013d0 <HAL_RCC_OscConfig+0x818>
            while(READ_BIT(RCC->CR, RCC_CR_PLLRDY) != 0U)
 800129c:	4b24      	ldr	r3, [pc, #144]	; (8001330 <HAL_RCC_OscConfig+0x778>)
 800129e:	681b      	ldr	r3, [r3, #0]
 80012a0:	f003 7300 	and.w	r3, r3, #33554432	; 0x2000000
 80012a4:	2b00      	cmp	r3, #0
 80012a6:	d1f0      	bne.n	800128a <HAL_RCC_OscConfig+0x6d2>
              }
            }

            /* Configure the main PLL clock source, multiplication and division factors. */
#if defined(RCC_PLLP_SUPPORT)
            __HAL_RCC_PLL_CONFIG(RCC_OscInitStruct->PLL.PLLSource,
 80012a8:	4b21      	ldr	r3, [pc, #132]	; (8001330 <HAL_RCC_OscConfig+0x778>)
 80012aa:	68da      	ldr	r2, [r3, #12]
 80012ac:	4b21      	ldr	r3, [pc, #132]	; (8001334 <HAL_RCC_OscConfig+0x77c>)
 80012ae:	4013      	ands	r3, r2
 80012b0:	687a      	ldr	r2, [r7, #4]
 80012b2:	6ad1      	ldr	r1, [r2, #44]	; 0x2c
 80012b4:	687a      	ldr	r2, [r7, #4]
 80012b6:	6b12      	ldr	r2, [r2, #48]	; 0x30
 80012b8:	3a01      	subs	r2, #1
 80012ba:	0112      	lsls	r2, r2, #4
 80012bc:	4311      	orrs	r1, r2
 80012be:	687a      	ldr	r2, [r7, #4]
 80012c0:	6b52      	ldr	r2, [r2, #52]	; 0x34
 80012c2:	0212      	lsls	r2, r2, #8
 80012c4:	4311      	orrs	r1, r2
 80012c6:	687a      	ldr	r2, [r7, #4]
 80012c8:	6bd2      	ldr	r2, [r2, #60]	; 0x3c
 80012ca:	0852      	lsrs	r2, r2, #1
 80012cc:	3a01      	subs	r2, #1
 80012ce:	0552      	lsls	r2, r2, #21
 80012d0:	4311      	orrs	r1, r2
 80012d2:	687a      	ldr	r2, [r7, #4]
 80012d4:	6c12      	ldr	r2, [r2, #64]	; 0x40
 80012d6:	0852      	lsrs	r2, r2, #1
 80012d8:	3a01      	subs	r2, #1
 80012da:	0652      	lsls	r2, r2, #25
 80012dc:	4311      	orrs	r1, r2
 80012de:	687a      	ldr	r2, [r7, #4]
 80012e0:	6b92      	ldr	r2, [r2, #56]	; 0x38
 80012e2:	06d2      	lsls	r2, r2, #27
 80012e4:	430a      	orrs	r2, r1
 80012e6:	4912      	ldr	r1, [pc, #72]	; (8001330 <HAL_RCC_OscConfig+0x778>)
 80012e8:	4313      	orrs	r3, r2
 80012ea:	60cb      	str	r3, [r1, #12]
                                 RCC_OscInitStruct->PLL.PLLQ,
                                 RCC_OscInitStruct->PLL.PLLR);
#endif

            /* Enable the main PLL. */
            __HAL_RCC_PLL_ENABLE();
 80012ec:	4b10      	ldr	r3, [pc, #64]	; (8001330 <HAL_RCC_OscConfig+0x778>)
 80012ee:	681b      	ldr	r3, [r3, #0]
 80012f0:	4a0f      	ldr	r2, [pc, #60]	; (8001330 <HAL_RCC_OscConfig+0x778>)
 80012f2:	f043 7380 	orr.w	r3, r3, #16777216	; 0x1000000
 80012f6:	6013      	str	r3, [r2, #0]

            /* Enable PLL System Clock output. */
            __HAL_RCC_PLLCLKOUT_ENABLE(RCC_PLL_SYSCLK);
 80012f8:	4b0d      	ldr	r3, [pc, #52]	; (8001330 <HAL_RCC_OscConfig+0x778>)
 80012fa:	68db      	ldr	r3, [r3, #12]
 80012fc:	4a0c      	ldr	r2, [pc, #48]	; (8001330 <HAL_RCC_OscConfig+0x778>)
 80012fe:	f043 7380 	orr.w	r3, r3, #16777216	; 0x1000000
 8001302:	60d3      	str	r3, [r2, #12]

            /* Get Start Tick*/
            tickstart = HAL_GetTick();
 8001304:	f7ff f94c 	bl	80005a0 <HAL_GetTick>
 8001308:	6138      	str	r0, [r7, #16]

            /* Wait till PLL is ready */
            while(READ_BIT(RCC->CR, RCC_CR_PLLRDY) == 0U)
 800130a:	e008      	b.n	800131e <HAL_RCC_OscConfig+0x766>
            {
              if((HAL_GetTick() - tickstart) > PLL_TIMEOUT_VALUE)
 800130c:	f7ff f948 	bl	80005a0 <HAL_GetTick>
 8001310:	4602      	mov	r2, r0
 8001312:	693b      	ldr	r3, [r7, #16]
 8001314:	1ad3      	subs	r3, r2, r3
 8001316:	2b02      	cmp	r3, #2
 8001318:	d901      	bls.n	800131e <HAL_RCC_OscConfig+0x766>
              {
                return HAL_TIMEOUT;
 800131a:	2303      	movs	r3, #3
 800131c:	e058      	b.n	80013d0 <HAL_RCC_OscConfig+0x818>
            while(READ_BIT(RCC->CR, RCC_CR_PLLRDY) == 0U)
 800131e:	4b04      	ldr	r3, [pc, #16]	; (8001330 <HAL_RCC_OscConfig+0x778>)
 8001320:	681b      	ldr	r3, [r3, #0]
 8001322:	f003 7300 	and.w	r3, r3, #33554432	; 0x2000000
 8001326:	2b00      	cmp	r3, #0
 8001328:	d0f0      	beq.n	800130c <HAL_RCC_OscConfig+0x754>
        if(sysclk_source != RCC_CFGR_SWS_PLL)
 800132a:	e050      	b.n	80013ce <HAL_RCC_OscConfig+0x816>
          }
        }
        else
        {
          /* PLL is already used as System core clock */
          return HAL_ERROR;
 800132c:	2301      	movs	r3, #1
 800132e:	e04f      	b.n	80013d0 <HAL_RCC_OscConfig+0x818>
 8001330:	40021000 	.word	0x40021000
 8001334:	019d808c 	.word	0x019d808c
      }
      else
      {
        /* PLL configuration is unchanged */
        /* Re-enable PLL if it was disabled (ie. low power mode) */
        if(READ_BIT(RCC->CR, RCC_CR_PLLRDY) == 0U)
 8001338:	4b27      	ldr	r3, [pc, #156]	; (80013d8 <HAL_RCC_OscConfig+0x820>)
 800133a:	681b      	ldr	r3, [r3, #0]
 800133c:	f003 7300 	and.w	r3, r3, #33554432	; 0x2000000
 8001340:	2b00      	cmp	r3, #0
 8001342:	d144      	bne.n	80013ce <HAL_RCC_OscConfig+0x816>
        {
          /* Enable the main PLL. */
          __HAL_RCC_PLL_ENABLE();
 8001344:	4b24      	ldr	r3, [pc, #144]	; (80013d8 <HAL_RCC_OscConfig+0x820>)
 8001346:	681b      	ldr	r3, [r3, #0]
 8001348:	4a23      	ldr	r2, [pc, #140]	; (80013d8 <HAL_RCC_OscConfig+0x820>)
 800134a:	f043 7380 	orr.w	r3, r3, #16777216	; 0x1000000
 800134e:	6013      	str	r3, [r2, #0]

          /* Enable PLL System Clock output. */
          __HAL_RCC_PLLCLKOUT_ENABLE(RCC_PLL_SYSCLK);
 8001350:	4b21      	ldr	r3, [pc, #132]	; (80013d8 <HAL_RCC_OscConfig+0x820>)
 8001352:	68db      	ldr	r3, [r3, #12]
 8001354:	4a20      	ldr	r2, [pc, #128]	; (80013d8 <HAL_RCC_OscConfig+0x820>)
 8001356:	f043 7380 	orr.w	r3, r3, #16777216	; 0x1000000
 800135a:	60d3      	str	r3, [r2, #12]

          /* Get Start Tick*/
          tickstart = HAL_GetTick();
 800135c:	f7ff f920 	bl	80005a0 <HAL_GetTick>
 8001360:	6138      	str	r0, [r7, #16]

          /* Wait till PLL is ready */
          while(READ_BIT(RCC->CR, RCC_CR_PLLRDY) == 0U)
 8001362:	e008      	b.n	8001376 <HAL_RCC_OscConfig+0x7be>
          {
            if((HAL_GetTick() - tickstart) > PLL_TIMEOUT_VALUE)
 8001364:	f7ff f91c 	bl	80005a0 <HAL_GetTick>
 8001368:	4602      	mov	r2, r0
 800136a:	693b      	ldr	r3, [r7, #16]
 800136c:	1ad3      	subs	r3, r2, r3
 800136e:	2b02      	cmp	r3, #2
 8001370:	d901      	bls.n	8001376 <HAL_RCC_OscConfig+0x7be>
            {
              return HAL_TIMEOUT;
 8001372:	2303      	movs	r3, #3
 8001374:	e02c      	b.n	80013d0 <HAL_RCC_OscConfig+0x818>
          while(READ_BIT(RCC->CR, RCC_CR_PLLRDY) == 0U)
 8001376:	4b18      	ldr	r3, [pc, #96]	; (80013d8 <HAL_RCC_OscConfig+0x820>)
 8001378:	681b      	ldr	r3, [r3, #0]
 800137a:	f003 7300 	and.w	r3, r3, #33554432	; 0x2000000
 800137e:	2b00      	cmp	r3, #0
 8001380:	d0f0      	beq.n	8001364 <HAL_RCC_OscConfig+0x7ac>
 8001382:	e024      	b.n	80013ce <HAL_RCC_OscConfig+0x816>
      }
    }
    else
    {
      /* Check that PLL is not used as system clock or not */
      if(sysclk_source != RCC_CFGR_SWS_PLL)
 8001384:	69bb      	ldr	r3, [r7, #24]
 8001386:	2b0c      	cmp	r3, #12
 8001388:	d01f      	beq.n	80013ca <HAL_RCC_OscConfig+0x812>
      {
        /* Disable the main PLL. */
        __HAL_RCC_PLL_DISABLE();
 800138a:	4b13      	ldr	r3, [pc, #76]	; (80013d8 <HAL_RCC_OscConfig+0x820>)
 800138c:	681b      	ldr	r3, [r3, #0]
 800138e:	4a12      	ldr	r2, [pc, #72]	; (80013d8 <HAL_RCC_OscConfig+0x820>)
 8001390:	f023 7380 	bic.w	r3, r3, #16777216	; 0x1000000
 8001394:	6013      	str	r3, [r2, #0]

        /* Get Start Tick*/
        tickstart = HAL_GetTick();
 8001396:	f7ff f903 	bl	80005a0 <HAL_GetTick>
 800139a:	6138      	str	r0, [r7, #16]

        /* Wait till PLL is disabled */
        while(READ_BIT(RCC->CR, RCC_CR_PLLRDY) != 0U)
 800139c:	e008      	b.n	80013b0 <HAL_RCC_OscConfig+0x7f8>
        {
          if((HAL_GetTick() - tickstart) > PLL_TIMEOUT_VALUE)
 800139e:	f7ff f8ff 	bl	80005a0 <HAL_GetTick>
 80013a2:	4602      	mov	r2, r0
 80013a4:	693b      	ldr	r3, [r7, #16]
 80013a6:	1ad3      	subs	r3, r2, r3
 80013a8:	2b02      	cmp	r3, #2
 80013aa:	d901      	bls.n	80013b0 <HAL_RCC_OscConfig+0x7f8>
          {
            return HAL_TIMEOUT;
 80013ac:	2303      	movs	r3, #3
 80013ae:	e00f      	b.n	80013d0 <HAL_RCC_OscConfig+0x818>
        while(READ_BIT(RCC->CR, RCC_CR_PLLRDY) != 0U)
 80013b0:	4b09      	ldr	r3, [pc, #36]	; (80013d8 <HAL_RCC_OscConfig+0x820>)
 80013b2:	681b      	ldr	r3, [r3, #0]
 80013b4:	f003 7300 	and.w	r3, r3, #33554432	; 0x2000000
 80013b8:	2b00      	cmp	r3, #0
 80013ba:	d1f0      	bne.n	800139e <HAL_RCC_OscConfig+0x7e6>
        }
        /* Unselect main PLL clock source and disable main PLL outputs to save power */
#if defined(RCC_PLLSAI2_SUPPORT)
        RCC->PLLCFGR &= ~(RCC_PLLCFGR_PLLSRC | RCC_PLL_SYSCLK | RCC_PLL_48M1CLK | RCC_PLL_SAI3CLK);
#elif defined(RCC_PLLSAI1_SUPPORT)
        RCC->PLLCFGR &= ~(RCC_PLLCFGR_PLLSRC | RCC_PLL_SYSCLK | RCC_PLL_48M1CLK | RCC_PLL_SAI2CLK);
 80013bc:	4b06      	ldr	r3, [pc, #24]	; (80013d8 <HAL_RCC_OscConfig+0x820>)
 80013be:	68da      	ldr	r2, [r3, #12]
 80013c0:	4905      	ldr	r1, [pc, #20]	; (80013d8 <HAL_RCC_OscConfig+0x820>)
 80013c2:	4b06      	ldr	r3, [pc, #24]	; (80013dc <HAL_RCC_OscConfig+0x824>)
 80013c4:	4013      	ands	r3, r2
 80013c6:	60cb      	str	r3, [r1, #12]
 80013c8:	e001      	b.n	80013ce <HAL_RCC_OscConfig+0x816>
#endif /* RCC_PLLSAI2_SUPPORT */
      }
      else
      {
        /* PLL is already used as System core clock */
        return HAL_ERROR;
 80013ca:	2301      	movs	r3, #1
 80013cc:	e000      	b.n	80013d0 <HAL_RCC_OscConfig+0x818>
      }
    }
  }
  return HAL_OK;
 80013ce:	2300      	movs	r3, #0
}
 80013d0:	4618      	mov	r0, r3
 80013d2:	3720      	adds	r7, #32
 80013d4:	46bd      	mov	sp, r7
 80013d6:	bd80      	pop	{r7, pc}
 80013d8:	40021000 	.word	0x40021000
 80013dc:	feeefffc 	.word	0xfeeefffc

080013e0 <HAL_RCC_ClockConfig>:
  *         HPRE[3:0] bits to ensure that HCLK not exceed the maximum allowed frequency
  *         (for more details refer to section above "Initialization/de-initialization functions")
  * @retval None
  */
HAL_StatusTypeDef HAL_RCC_ClockConfig(RCC_ClkInitTypeDef  *RCC_ClkInitStruct, uint32_t FLatency)
{
 80013e0:	b580      	push	{r7, lr}
 80013e2:	b084      	sub	sp, #16
 80013e4:	af00      	add	r7, sp, #0
 80013e6:	6078      	str	r0, [r7, #4]
 80013e8:	6039      	str	r1, [r7, #0]
  uint32_t hpre = RCC_SYSCLK_DIV1;
#endif
  HAL_StatusTypeDef status;

  /* Check Null pointer */
  if(RCC_ClkInitStruct == NULL)
 80013ea:	687b      	ldr	r3, [r7, #4]
 80013ec:	2b00      	cmp	r3, #0
 80013ee:	d101      	bne.n	80013f4 <HAL_RCC_ClockConfig+0x14>
  {
    return HAL_ERROR;
 80013f0:	2301      	movs	r3, #1
 80013f2:	e0e7      	b.n	80015c4 <HAL_RCC_ClockConfig+0x1e4>
  /* To correctly read data from FLASH memory, the number of wait states (LATENCY)
    must be correctly programmed according to the frequency of the CPU clock
    (HCLK) and the supply voltage of the device. */

  /* Increasing the number of wait states because of higher CPU frequency */
  if(FLatency > __HAL_FLASH_GET_LATENCY())
 80013f4:	4b75      	ldr	r3, [pc, #468]	; (80015cc <HAL_RCC_ClockConfig+0x1ec>)
 80013f6:	681b      	ldr	r3, [r3, #0]
 80013f8:	f003 0307 	and.w	r3, r3, #7
 80013fc:	683a      	ldr	r2, [r7, #0]
 80013fe:	429a      	cmp	r2, r3
 8001400:	d910      	bls.n	8001424 <HAL_RCC_ClockConfig+0x44>
  {
    /* Program the new number of wait states to the LATENCY bits in the FLASH_ACR register */
    __HAL_FLASH_SET_LATENCY(FLatency);
 8001402:	4b72      	ldr	r3, [pc, #456]	; (80015cc <HAL_RCC_ClockConfig+0x1ec>)
 8001404:	681b      	ldr	r3, [r3, #0]
 8001406:	f023 0207 	bic.w	r2, r3, #7
 800140a:	4970      	ldr	r1, [pc, #448]	; (80015cc <HAL_RCC_ClockConfig+0x1ec>)
 800140c:	683b      	ldr	r3, [r7, #0]
 800140e:	4313      	orrs	r3, r2
 8001410:	600b      	str	r3, [r1, #0]

    /* Check that the new number of wait states is taken into account to access the Flash
    memory by reading the FLASH_ACR register */
    if(__HAL_FLASH_GET_LATENCY() != FLatency)
 8001412:	4b6e      	ldr	r3, [pc, #440]	; (80015cc <HAL_RCC_ClockConfig+0x1ec>)
 8001414:	681b      	ldr	r3, [r3, #0]
 8001416:	f003 0307 	and.w	r3, r3, #7
 800141a:	683a      	ldr	r2, [r7, #0]
 800141c:	429a      	cmp	r2, r3
 800141e:	d001      	beq.n	8001424 <HAL_RCC_ClockConfig+0x44>
    {
      return HAL_ERROR;
 8001420:	2301      	movs	r3, #1
 8001422:	e0cf      	b.n	80015c4 <HAL_RCC_ClockConfig+0x1e4>
    }
  }

  /*----------------- HCLK Configuration prior to SYSCLK----------------------*/
  /* Apply higher HCLK prescaler request here to ensure CPU clock is not of of spec when SYSCLK is increased */
  if(((RCC_ClkInitStruct->ClockType) & RCC_CLOCKTYPE_HCLK) == RCC_CLOCKTYPE_HCLK)
 8001424:	687b      	ldr	r3, [r7, #4]
 8001426:	681b      	ldr	r3, [r3, #0]
 8001428:	f003 0302 	and.w	r3, r3, #2
 800142c:	2b00      	cmp	r3, #0
 800142e:	d010      	beq.n	8001452 <HAL_RCC_ClockConfig+0x72>
  {
    assert_param(IS_RCC_HCLK(RCC_ClkInitStruct->AHBCLKDivider));

    if(RCC_ClkInitStruct->AHBCLKDivider > READ_BIT(RCC->CFGR, RCC_CFGR_HPRE))
 8001430:	687b      	ldr	r3, [r7, #4]
 8001432:	689a      	ldr	r2, [r3, #8]
 8001434:	4b66      	ldr	r3, [pc, #408]	; (80015d0 <HAL_RCC_ClockConfig+0x1f0>)
 8001436:	689b      	ldr	r3, [r3, #8]
 8001438:	f003 03f0 	and.w	r3, r3, #240	; 0xf0
 800143c:	429a      	cmp	r2, r3
 800143e:	d908      	bls.n	8001452 <HAL_RCC_ClockConfig+0x72>
    {
      MODIFY_REG(RCC->CFGR, RCC_CFGR_HPRE, RCC_ClkInitStruct->AHBCLKDivider);
 8001440:	4b63      	ldr	r3, [pc, #396]	; (80015d0 <HAL_RCC_ClockConfig+0x1f0>)
 8001442:	689b      	ldr	r3, [r3, #8]
 8001444:	f023 02f0 	bic.w	r2, r3, #240	; 0xf0
 8001448:	687b      	ldr	r3, [r7, #4]
 800144a:	689b      	ldr	r3, [r3, #8]
 800144c:	4960      	ldr	r1, [pc, #384]	; (80015d0 <HAL_RCC_ClockConfig+0x1f0>)
 800144e:	4313      	orrs	r3, r2
 8001450:	608b      	str	r3, [r1, #8]
    }
  }

  /*------------------------- SYSCLK Configuration ---------------------------*/
  if(((RCC_ClkInitStruct->ClockType) & RCC_CLOCKTYPE_SYSCLK) == RCC_CLOCKTYPE_SYSCLK)
 8001452:	687b      	ldr	r3, [r7, #4]
 8001454:	681b      	ldr	r3, [r3, #0]
 8001456:	f003 0301 	and.w	r3, r3, #1
 800145a:	2b00      	cmp	r3, #0
 800145c:	d04c      	beq.n	80014f8 <HAL_RCC_ClockConfig+0x118>
  {
    assert_param(IS_RCC_SYSCLKSOURCE(RCC_ClkInitStruct->SYSCLKSource));

    /* PLL is selected as System Clock Source */
    if(RCC_ClkInitStruct->SYSCLKSource == RCC_SYSCLKSOURCE_PLLCLK)
 800145e:	687b      	ldr	r3, [r7, #4]
 8001460:	685b      	ldr	r3, [r3, #4]
 8001462:	2b03      	cmp	r3, #3
 8001464:	d107      	bne.n	8001476 <HAL_RCC_ClockConfig+0x96>
    {
      /* Check the PLL ready flag */
      if(READ_BIT(RCC->CR, RCC_CR_PLLRDY) == 0U)
 8001466:	4b5a      	ldr	r3, [pc, #360]	; (80015d0 <HAL_RCC_ClockConfig+0x1f0>)
 8001468:	681b      	ldr	r3, [r3, #0]
 800146a:	f003 7300 	and.w	r3, r3, #33554432	; 0x2000000
 800146e:	2b00      	cmp	r3, #0
 8001470:	d121      	bne.n	80014b6 <HAL_RCC_ClockConfig+0xd6>
      {
        return HAL_ERROR;
 8001472:	2301      	movs	r3, #1
 8001474:	e0a6      	b.n	80015c4 <HAL_RCC_ClockConfig+0x1e4>
#endif
    }
    else
    {
      /* HSE is selected as System Clock Source */
      if(RCC_ClkInitStruct->SYSCLKSource == RCC_SYSCLKSOURCE_HSE)
 8001476:	687b      	ldr	r3, [r7, #4]
 8001478:	685b      	ldr	r3, [r3, #4]
 800147a:	2b02      	cmp	r3, #2
 800147c:	d107      	bne.n	800148e <HAL_RCC_ClockConfig+0xae>
      {
        /* Check the HSE ready flag */
        if(READ_BIT(RCC->CR, RCC_CR_HSERDY) == 0U)
 800147e:	4b54      	ldr	r3, [pc, #336]	; (80015d0 <HAL_RCC_ClockConfig+0x1f0>)
 8001480:	681b      	ldr	r3, [r3, #0]
 8001482:	f403 3300 	and.w	r3, r3, #131072	; 0x20000
 8001486:	2b00      	cmp	r3, #0
 8001488:	d115      	bne.n	80014b6 <HAL_RCC_ClockConfig+0xd6>
        {
          return HAL_ERROR;
 800148a:	2301      	movs	r3, #1
 800148c:	e09a      	b.n	80015c4 <HAL_RCC_ClockConfig+0x1e4>
        }
      }
      /* MSI is selected as System Clock Source */
      else if(RCC_ClkInitStruct->SYSCLKSource == RCC_SYSCLKSOURCE_MSI)
 800148e:	687b      	ldr	r3, [r7, #4]
 8001490:	685b      	ldr	r3, [r3, #4]
 8001492:	2b00      	cmp	r3, #0
 8001494:	d107      	bne.n	80014a6 <HAL_RCC_ClockConfig+0xc6>
      {
        /* Check the MSI ready flag */
        if(READ_BIT(RCC->CR, RCC_CR_MSIRDY) == 0U)
 8001496:	4b4e      	ldr	r3, [pc, #312]	; (80015d0 <HAL_RCC_ClockConfig+0x1f0>)
 8001498:	681b      	ldr	r3, [r3, #0]
 800149a:	f003 0302 	and.w	r3, r3, #2
 800149e:	2b00      	cmp	r3, #0
 80014a0:	d109      	bne.n	80014b6 <HAL_RCC_ClockConfig+0xd6>
        {
          return HAL_ERROR;
 80014a2:	2301      	movs	r3, #1
 80014a4:	e08e      	b.n	80015c4 <HAL_RCC_ClockConfig+0x1e4>
      }
      /* HSI is selected as System Clock Source */
      else
      {
        /* Check the HSI ready flag */
        if(READ_BIT(RCC->CR, RCC_CR_HSIRDY) == 0U)
 80014a6:	4b4a      	ldr	r3, [pc, #296]	; (80015d0 <HAL_RCC_ClockConfig+0x1f0>)
 80014a8:	681b      	ldr	r3, [r3, #0]
 80014aa:	f403 6380 	and.w	r3, r3, #1024	; 0x400
 80014ae:	2b00      	cmp	r3, #0
 80014b0:	d101      	bne.n	80014b6 <HAL_RCC_ClockConfig+0xd6>
        {
          return HAL_ERROR;
 80014b2:	2301      	movs	r3, #1
 80014b4:	e086      	b.n	80015c4 <HAL_RCC_ClockConfig+0x1e4>
      }
#endif

    }

    MODIFY_REG(RCC->CFGR, RCC_CFGR_SW, RCC_ClkInitStruct->SYSCLKSource);
 80014b6:	4b46      	ldr	r3, [pc, #280]	; (80015d0 <HAL_RCC_ClockConfig+0x1f0>)
 80014b8:	689b      	ldr	r3, [r3, #8]
 80014ba:	f023 0203 	bic.w	r2, r3, #3
 80014be:	687b      	ldr	r3, [r7, #4]
 80014c0:	685b      	ldr	r3, [r3, #4]
 80014c2:	4943      	ldr	r1, [pc, #268]	; (80015d0 <HAL_RCC_ClockConfig+0x1f0>)
 80014c4:	4313      	orrs	r3, r2
 80014c6:	608b      	str	r3, [r1, #8]

    /* Get Start Tick*/
    tickstart = HAL_GetTick();
 80014c8:	f7ff f86a 	bl	80005a0 <HAL_GetTick>
 80014cc:	60f8      	str	r0, [r7, #12]

    while(__HAL_RCC_GET_SYSCLK_SOURCE() != (RCC_ClkInitStruct->SYSCLKSource << RCC_CFGR_SWS_Pos))
 80014ce:	e00a      	b.n	80014e6 <HAL_RCC_ClockConfig+0x106>
    {
      if((HAL_GetTick() - tickstart) > CLOCKSWITCH_TIMEOUT_VALUE)
 80014d0:	f7ff f866 	bl	80005a0 <HAL_GetTick>
 80014d4:	4602      	mov	r2, r0
 80014d6:	68fb      	ldr	r3, [r7, #12]
 80014d8:	1ad3      	subs	r3, r2, r3
 80014da:	f241 3288 	movw	r2, #5000	; 0x1388
 80014de:	4293      	cmp	r3, r2
 80014e0:	d901      	bls.n	80014e6 <HAL_RCC_ClockConfig+0x106>
      {
        return HAL_TIMEOUT;
 80014e2:	2303      	movs	r3, #3
 80014e4:	e06e      	b.n	80015c4 <HAL_RCC_ClockConfig+0x1e4>
    while(__HAL_RCC_GET_SYSCLK_SOURCE() != (RCC_ClkInitStruct->SYSCLKSource << RCC_CFGR_SWS_Pos))
 80014e6:	4b3a      	ldr	r3, [pc, #232]	; (80015d0 <HAL_RCC_ClockConfig+0x1f0>)
 80014e8:	689b      	ldr	r3, [r3, #8]
 80014ea:	f003 020c 	and.w	r2, r3, #12
 80014ee:	687b      	ldr	r3, [r7, #4]
 80014f0:	685b      	ldr	r3, [r3, #4]
 80014f2:	009b      	lsls	r3, r3, #2
 80014f4:	429a      	cmp	r2, r3
 80014f6:	d1eb      	bne.n	80014d0 <HAL_RCC_ClockConfig+0xf0>
  }
#endif

  /*----------------- HCLK Configuration after SYSCLK-------------------------*/
  /* Apply lower HCLK prescaler request here to ensure CPU clock is not of of spec when SYSCLK is set */
  if(((RCC_ClkInitStruct->ClockType) & RCC_CLOCKTYPE_HCLK) == RCC_CLOCKTYPE_HCLK)
 80014f8:	687b      	ldr	r3, [r7, #4]
 80014fa:	681b      	ldr	r3, [r3, #0]
 80014fc:	f003 0302 	and.w	r3, r3, #2
 8001500:	2b00      	cmp	r3, #0
 8001502:	d010      	beq.n	8001526 <HAL_RCC_ClockConfig+0x146>
  {
    if(RCC_ClkInitStruct->AHBCLKDivider < READ_BIT(RCC->CFGR, RCC_CFGR_HPRE))
 8001504:	687b      	ldr	r3, [r7, #4]
 8001506:	689a      	ldr	r2, [r3, #8]
 8001508:	4b31      	ldr	r3, [pc, #196]	; (80015d0 <HAL_RCC_ClockConfig+0x1f0>)
 800150a:	689b      	ldr	r3, [r3, #8]
 800150c:	f003 03f0 	and.w	r3, r3, #240	; 0xf0
 8001510:	429a      	cmp	r2, r3
 8001512:	d208      	bcs.n	8001526 <HAL_RCC_ClockConfig+0x146>
    {
      MODIFY_REG(RCC->CFGR, RCC_CFGR_HPRE, RCC_ClkInitStruct->AHBCLKDivider);
 8001514:	4b2e      	ldr	r3, [pc, #184]	; (80015d0 <HAL_RCC_ClockConfig+0x1f0>)
 8001516:	689b      	ldr	r3, [r3, #8]
 8001518:	f023 02f0 	bic.w	r2, r3, #240	; 0xf0
 800151c:	687b      	ldr	r3, [r7, #4]
 800151e:	689b      	ldr	r3, [r3, #8]
 8001520:	492b      	ldr	r1, [pc, #172]	; (80015d0 <HAL_RCC_ClockConfig+0x1f0>)
 8001522:	4313      	orrs	r3, r2
 8001524:	608b      	str	r3, [r1, #8]
    }
  }

  /* Allow decreasing of the number of wait states (because of lower CPU frequency expected) */
  if(FLatency < __HAL_FLASH_GET_LATENCY())
 8001526:	4b29      	ldr	r3, [pc, #164]	; (80015cc <HAL_RCC_ClockConfig+0x1ec>)
 8001528:	681b      	ldr	r3, [r3, #0]
 800152a:	f003 0307 	and.w	r3, r3, #7
 800152e:	683a      	ldr	r2, [r7, #0]
 8001530:	429a      	cmp	r2, r3
 8001532:	d210      	bcs.n	8001556 <HAL_RCC_ClockConfig+0x176>
  {
    /* Program the new number of wait states to the LATENCY bits in the FLASH_ACR register */
    __HAL_FLASH_SET_LATENCY(FLatency);
 8001534:	4b25      	ldr	r3, [pc, #148]	; (80015cc <HAL_RCC_ClockConfig+0x1ec>)
 8001536:	681b      	ldr	r3, [r3, #0]
 8001538:	f023 0207 	bic.w	r2, r3, #7
 800153c:	4923      	ldr	r1, [pc, #140]	; (80015cc <HAL_RCC_ClockConfig+0x1ec>)
 800153e:	683b      	ldr	r3, [r7, #0]
 8001540:	4313      	orrs	r3, r2
 8001542:	600b      	str	r3, [r1, #0]

    /* Check that the new number of wait states is taken into account to access the Flash
    memory by reading the FLASH_ACR register */
    if(__HAL_FLASH_GET_LATENCY() != FLatency)
 8001544:	4b21      	ldr	r3, [pc, #132]	; (80015cc <HAL_RCC_ClockConfig+0x1ec>)
 8001546:	681b      	ldr	r3, [r3, #0]
 8001548:	f003 0307 	and.w	r3, r3, #7
 800154c:	683a      	ldr	r2, [r7, #0]
 800154e:	429a      	cmp	r2, r3
 8001550:	d001      	beq.n	8001556 <HAL_RCC_ClockConfig+0x176>
    {
      return HAL_ERROR;
 8001552:	2301      	movs	r3, #1
 8001554:	e036      	b.n	80015c4 <HAL_RCC_ClockConfig+0x1e4>
    }
  }

  /*-------------------------- PCLK1 Configuration ---------------------------*/
  if(((RCC_ClkInitStruct->ClockType) & RCC_CLOCKTYPE_PCLK1) == RCC_CLOCKTYPE_PCLK1)
 8001556:	687b      	ldr	r3, [r7, #4]
 8001558:	681b      	ldr	r3, [r3, #0]
 800155a:	f003 0304 	and.w	r3, r3, #4
 800155e:	2b00      	cmp	r3, #0
 8001560:	d008      	beq.n	8001574 <HAL_RCC_ClockConfig+0x194>
  {
    assert_param(IS_RCC_PCLK(RCC_ClkInitStruct->APB1CLKDivider));
    MODIFY_REG(RCC->CFGR, RCC_CFGR_PPRE1, RCC_ClkInitStruct->APB1CLKDivider);
 8001562:	4b1b      	ldr	r3, [pc, #108]	; (80015d0 <HAL_RCC_ClockConfig+0x1f0>)
 8001564:	689b      	ldr	r3, [r3, #8]
 8001566:	f423 62e0 	bic.w	r2, r3, #1792	; 0x700
 800156a:	687b      	ldr	r3, [r7, #4]
 800156c:	68db      	ldr	r3, [r3, #12]
 800156e:	4918      	ldr	r1, [pc, #96]	; (80015d0 <HAL_RCC_ClockConfig+0x1f0>)
 8001570:	4313      	orrs	r3, r2
 8001572:	608b      	str	r3, [r1, #8]
  }

  /*-------------------------- PCLK2 Configuration ---------------------------*/
  if(((RCC_ClkInitStruct->ClockType) & RCC_CLOCKTYPE_PCLK2) == RCC_CLOCKTYPE_PCLK2)
 8001574:	687b      	ldr	r3, [r7, #4]
 8001576:	681b      	ldr	r3, [r3, #0]
 8001578:	f003 0308 	and.w	r3, r3, #8
 800157c:	2b00      	cmp	r3, #0
 800157e:	d009      	beq.n	8001594 <HAL_RCC_ClockConfig+0x1b4>
  {
    assert_param(IS_RCC_PCLK(RCC_ClkInitStruct->APB2CLKDivider));
    MODIFY_REG(RCC->CFGR, RCC_CFGR_PPRE2, ((RCC_ClkInitStruct->APB2CLKDivider) << 3U));
 8001580:	4b13      	ldr	r3, [pc, #76]	; (80015d0 <HAL_RCC_ClockConfig+0x1f0>)
 8001582:	689b      	ldr	r3, [r3, #8]
 8001584:	f423 5260 	bic.w	r2, r3, #14336	; 0x3800
 8001588:	687b      	ldr	r3, [r7, #4]
 800158a:	691b      	ldr	r3, [r3, #16]
 800158c:	00db      	lsls	r3, r3, #3
 800158e:	4910      	ldr	r1, [pc, #64]	; (80015d0 <HAL_RCC_ClockConfig+0x1f0>)
 8001590:	4313      	orrs	r3, r2
 8001592:	608b      	str	r3, [r1, #8]
  }

  /* Update the SystemCoreClock global variable */
  SystemCoreClock = HAL_RCC_GetSysClockFreq() >> (AHBPrescTable[READ_BIT(RCC->CFGR, RCC_CFGR_HPRE) >> RCC_CFGR_HPRE_Pos] & 0x1FU);
 8001594:	f000 f824 	bl	80015e0 <HAL_RCC_GetSysClockFreq>
 8001598:	4602      	mov	r2, r0
 800159a:	4b0d      	ldr	r3, [pc, #52]	; (80015d0 <HAL_RCC_ClockConfig+0x1f0>)
 800159c:	689b      	ldr	r3, [r3, #8]
 800159e:	091b      	lsrs	r3, r3, #4
 80015a0:	f003 030f 	and.w	r3, r3, #15
 80015a4:	490b      	ldr	r1, [pc, #44]	; (80015d4 <HAL_RCC_ClockConfig+0x1f4>)
 80015a6:	5ccb      	ldrb	r3, [r1, r3]
 80015a8:	f003 031f 	and.w	r3, r3, #31
 80015ac:	fa22 f303 	lsr.w	r3, r2, r3
 80015b0:	4a09      	ldr	r2, [pc, #36]	; (80015d8 <HAL_RCC_ClockConfig+0x1f8>)
 80015b2:	6013      	str	r3, [r2, #0]

  /* Configure the source of time base considering new system clocks settings*/
  status = HAL_InitTick(uwTickPrio);
 80015b4:	4b09      	ldr	r3, [pc, #36]	; (80015dc <HAL_RCC_ClockConfig+0x1fc>)
 80015b6:	681b      	ldr	r3, [r3, #0]
 80015b8:	4618      	mov	r0, r3
 80015ba:	f7fe ffa1 	bl	8000500 <HAL_InitTick>
 80015be:	4603      	mov	r3, r0
 80015c0:	72fb      	strb	r3, [r7, #11]

  return status;
 80015c2:	7afb      	ldrb	r3, [r7, #11]
}
 80015c4:	4618      	mov	r0, r3
 80015c6:	3710      	adds	r7, #16
 80015c8:	46bd      	mov	sp, r7
 80015ca:	bd80      	pop	{r7, pc}
 80015cc:	40022000 	.word	0x40022000
 80015d0:	40021000 	.word	0x40021000
 80015d4:	08001828 	.word	0x08001828
 80015d8:	20000000 	.word	0x20000000
 80015dc:	20000004 	.word	0x20000004

080015e0 <HAL_RCC_GetSysClockFreq>:
  *
  *
  * @retval SYSCLK frequency
  */
uint32_t HAL_RCC_GetSysClockFreq(void)
{
 80015e0:	b480      	push	{r7}
 80015e2:	b089      	sub	sp, #36	; 0x24
 80015e4:	af00      	add	r7, sp, #0
  uint32_t msirange = 0U, sysclockfreq = 0U;
 80015e6:	2300      	movs	r3, #0
 80015e8:	61fb      	str	r3, [r7, #28]
 80015ea:	2300      	movs	r3, #0
 80015ec:	61bb      	str	r3, [r7, #24]
  uint32_t pllvco, pllsource, pllr, pllm;    /* no init needed */
  uint32_t sysclk_source, pll_oscsource;

  sysclk_source = __HAL_RCC_GET_SYSCLK_SOURCE();
 80015ee:	4b3e      	ldr	r3, [pc, #248]	; (80016e8 <HAL_RCC_GetSysClockFreq+0x108>)
 80015f0:	689b      	ldr	r3, [r3, #8]
 80015f2:	f003 030c 	and.w	r3, r3, #12
 80015f6:	613b      	str	r3, [r7, #16]
  pll_oscsource = __HAL_RCC_GET_PLL_OSCSOURCE();
 80015f8:	4b3b      	ldr	r3, [pc, #236]	; (80016e8 <HAL_RCC_GetSysClockFreq+0x108>)
 80015fa:	68db      	ldr	r3, [r3, #12]
 80015fc:	f003 0303 	and.w	r3, r3, #3
 8001600:	60fb      	str	r3, [r7, #12]

  if((sysclk_source == RCC_CFGR_SWS_MSI) ||
 8001602:	693b      	ldr	r3, [r7, #16]
 8001604:	2b00      	cmp	r3, #0
 8001606:	d005      	beq.n	8001614 <HAL_RCC_GetSysClockFreq+0x34>
 8001608:	693b      	ldr	r3, [r7, #16]
 800160a:	2b0c      	cmp	r3, #12
 800160c:	d121      	bne.n	8001652 <HAL_RCC_GetSysClockFreq+0x72>
     ((sysclk_source == RCC_CFGR_SWS_PLL) && (pll_oscsource == RCC_PLLSOURCE_MSI)))
 800160e:	68fb      	ldr	r3, [r7, #12]
 8001610:	2b01      	cmp	r3, #1
 8001612:	d11e      	bne.n	8001652 <HAL_RCC_GetSysClockFreq+0x72>
  {
    /* MSI or PLL with MSI source used as system clock source */

    /* Get SYSCLK source */
    if(READ_BIT(RCC->CR, RCC_CR_MSIRGSEL) == 0U)
 8001614:	4b34      	ldr	r3, [pc, #208]	; (80016e8 <HAL_RCC_GetSysClockFreq+0x108>)
 8001616:	681b      	ldr	r3, [r3, #0]
 8001618:	f003 0308 	and.w	r3, r3, #8
 800161c:	2b00      	cmp	r3, #0
 800161e:	d107      	bne.n	8001630 <HAL_RCC_GetSysClockFreq+0x50>
    { /* MSISRANGE from RCC_CSR applies */
      msirange = READ_BIT(RCC->CSR, RCC_CSR_MSISRANGE) >> RCC_CSR_MSISRANGE_Pos;
 8001620:	4b31      	ldr	r3, [pc, #196]	; (80016e8 <HAL_RCC_GetSysClockFreq+0x108>)
 8001622:	f8d3 3094 	ldr.w	r3, [r3, #148]	; 0x94
 8001626:	0a1b      	lsrs	r3, r3, #8
 8001628:	f003 030f 	and.w	r3, r3, #15
 800162c:	61fb      	str	r3, [r7, #28]
 800162e:	e005      	b.n	800163c <HAL_RCC_GetSysClockFreq+0x5c>
    }
    else
    { /* MSIRANGE from RCC_CR applies */
      msirange = READ_BIT(RCC->CR, RCC_CR_MSIRANGE) >> RCC_CR_MSIRANGE_Pos;
 8001630:	4b2d      	ldr	r3, [pc, #180]	; (80016e8 <HAL_RCC_GetSysClockFreq+0x108>)
 8001632:	681b      	ldr	r3, [r3, #0]
 8001634:	091b      	lsrs	r3, r3, #4
 8001636:	f003 030f 	and.w	r3, r3, #15
 800163a:	61fb      	str	r3, [r7, #28]
    }
    /*MSI frequency range in HZ*/
    msirange = MSIRangeTable[msirange];
 800163c:	4a2b      	ldr	r2, [pc, #172]	; (80016ec <HAL_RCC_GetSysClockFreq+0x10c>)
 800163e:	69fb      	ldr	r3, [r7, #28]
 8001640:	f852 3023 	ldr.w	r3, [r2, r3, lsl #2]
 8001644:	61fb      	str	r3, [r7, #28]

    if(sysclk_source == RCC_CFGR_SWS_MSI)
 8001646:	693b      	ldr	r3, [r7, #16]
 8001648:	2b00      	cmp	r3, #0
 800164a:	d10d      	bne.n	8001668 <HAL_RCC_GetSysClockFreq+0x88>
    {
      /* MSI used as system clock source */
      sysclockfreq = msirange;
 800164c:	69fb      	ldr	r3, [r7, #28]
 800164e:	61bb      	str	r3, [r7, #24]
    if(sysclk_source == RCC_CFGR_SWS_MSI)
 8001650:	e00a      	b.n	8001668 <HAL_RCC_GetSysClockFreq+0x88>
    }
  }
  else if(sysclk_source == RCC_CFGR_SWS_HSI)
 8001652:	693b      	ldr	r3, [r7, #16]
 8001654:	2b04      	cmp	r3, #4
 8001656:	d102      	bne.n	800165e <HAL_RCC_GetSysClockFreq+0x7e>
  {
    /* HSI used as system clock source */
    sysclockfreq = HSI_VALUE;
 8001658:	4b25      	ldr	r3, [pc, #148]	; (80016f0 <HAL_RCC_GetSysClockFreq+0x110>)
 800165a:	61bb      	str	r3, [r7, #24]
 800165c:	e004      	b.n	8001668 <HAL_RCC_GetSysClockFreq+0x88>
  }
  else if(sysclk_source == RCC_CFGR_SWS_HSE)
 800165e:	693b      	ldr	r3, [r7, #16]
 8001660:	2b08      	cmp	r3, #8
 8001662:	d101      	bne.n	8001668 <HAL_RCC_GetSysClockFreq+0x88>
  {
    /* HSE used as system clock source */
    sysclockfreq = HSE_VALUE;
 8001664:	4b23      	ldr	r3, [pc, #140]	; (80016f4 <HAL_RCC_GetSysClockFreq+0x114>)
 8001666:	61bb      	str	r3, [r7, #24]
  else
  {
    /* unexpected case: sysclockfreq at 0 */
  }

  if(sysclk_source == RCC_CFGR_SWS_PLL)
 8001668:	693b      	ldr	r3, [r7, #16]
 800166a:	2b0c      	cmp	r3, #12
 800166c:	d134      	bne.n	80016d8 <HAL_RCC_GetSysClockFreq+0xf8>
    /* PLL used as system clock  source */

    /* PLL_VCO = (HSE_VALUE or HSI_VALUE or MSI_VALUE) * PLLN / PLLM
    SYSCLK = PLL_VCO / PLLR
    */
    pllsource = READ_BIT(RCC->PLLCFGR, RCC_PLLCFGR_PLLSRC);
 800166e:	4b1e      	ldr	r3, [pc, #120]	; (80016e8 <HAL_RCC_GetSysClockFreq+0x108>)
 8001670:	68db      	ldr	r3, [r3, #12]
 8001672:	f003 0303 	and.w	r3, r3, #3
 8001676:	60bb      	str	r3, [r7, #8]

    switch (pllsource)
 8001678:	68bb      	ldr	r3, [r7, #8]
 800167a:	2b02      	cmp	r3, #2
 800167c:	d003      	beq.n	8001686 <HAL_RCC_GetSysClockFreq+0xa6>
 800167e:	68bb      	ldr	r3, [r7, #8]
 8001680:	2b03      	cmp	r3, #3
 8001682:	d003      	beq.n	800168c <HAL_RCC_GetSysClockFreq+0xac>
 8001684:	e005      	b.n	8001692 <HAL_RCC_GetSysClockFreq+0xb2>
    {
    case RCC_PLLSOURCE_HSI:  /* HSI used as PLL clock source */
      pllvco = HSI_VALUE;
 8001686:	4b1a      	ldr	r3, [pc, #104]	; (80016f0 <HAL_RCC_GetSysClockFreq+0x110>)
 8001688:	617b      	str	r3, [r7, #20]
      break;
 800168a:	e005      	b.n	8001698 <HAL_RCC_GetSysClockFreq+0xb8>

    case RCC_PLLSOURCE_HSE:  /* HSE used as PLL clock source */
      pllvco = HSE_VALUE;
 800168c:	4b19      	ldr	r3, [pc, #100]	; (80016f4 <HAL_RCC_GetSysClockFreq+0x114>)
 800168e:	617b      	str	r3, [r7, #20]
      break;
 8001690:	e002      	b.n	8001698 <HAL_RCC_GetSysClockFreq+0xb8>

    case RCC_PLLSOURCE_MSI:  /* MSI used as PLL clock source */
    default:
      pllvco = msirange;
 8001692:	69fb      	ldr	r3, [r7, #28]
 8001694:	617b      	str	r3, [r7, #20]
      break;
 8001696:	bf00      	nop
    }
    pllm = (READ_BIT(RCC->PLLCFGR, RCC_PLLCFGR_PLLM) >> RCC_PLLCFGR_PLLM_Pos) + 1U ;
 8001698:	4b13      	ldr	r3, [pc, #76]	; (80016e8 <HAL_RCC_GetSysClockFreq+0x108>)
 800169a:	68db      	ldr	r3, [r3, #12]
 800169c:	091b      	lsrs	r3, r3, #4
 800169e:	f003 0307 	and.w	r3, r3, #7
 80016a2:	3301      	adds	r3, #1
 80016a4:	607b      	str	r3, [r7, #4]
    pllvco = (pllvco * (READ_BIT(RCC->PLLCFGR, RCC_PLLCFGR_PLLN) >> RCC_PLLCFGR_PLLN_Pos)) / pllm;
 80016a6:	4b10      	ldr	r3, [pc, #64]	; (80016e8 <HAL_RCC_GetSysClockFreq+0x108>)
 80016a8:	68db      	ldr	r3, [r3, #12]
 80016aa:	0a1b      	lsrs	r3, r3, #8
 80016ac:	f003 037f 	and.w	r3, r3, #127	; 0x7f
 80016b0:	697a      	ldr	r2, [r7, #20]
 80016b2:	fb03 f202 	mul.w	r2, r3, r2
 80016b6:	687b      	ldr	r3, [r7, #4]
 80016b8:	fbb2 f3f3 	udiv	r3, r2, r3
 80016bc:	617b      	str	r3, [r7, #20]
    pllr = ((READ_BIT(RCC->PLLCFGR, RCC_PLLCFGR_PLLR) >> RCC_PLLCFGR_PLLR_Pos) + 1U ) * 2U;
 80016be:	4b0a      	ldr	r3, [pc, #40]	; (80016e8 <HAL_RCC_GetSysClockFreq+0x108>)
 80016c0:	68db      	ldr	r3, [r3, #12]
 80016c2:	0e5b      	lsrs	r3, r3, #25
 80016c4:	f003 0303 	and.w	r3, r3, #3
 80016c8:	3301      	adds	r3, #1
 80016ca:	005b      	lsls	r3, r3, #1
 80016cc:	603b      	str	r3, [r7, #0]
    sysclockfreq = pllvco / pllr;
 80016ce:	697a      	ldr	r2, [r7, #20]
 80016d0:	683b      	ldr	r3, [r7, #0]
 80016d2:	fbb2 f3f3 	udiv	r3, r2, r3
 80016d6:	61bb      	str	r3, [r7, #24]
  }

  return sysclockfreq;
 80016d8:	69bb      	ldr	r3, [r7, #24]
}
 80016da:	4618      	mov	r0, r3
 80016dc:	3724      	adds	r7, #36	; 0x24
 80016de:	46bd      	mov	sp, r7
 80016e0:	f85d 7b04 	ldr.w	r7, [sp], #4
 80016e4:	4770      	bx	lr
 80016e6:	bf00      	nop
 80016e8:	40021000 	.word	0x40021000
 80016ec:	08001838 	.word	0x08001838
 80016f0:	00f42400 	.word	0x00f42400
 80016f4:	007a1200 	.word	0x007a1200

080016f8 <RCC_SetFlashLatencyFromMSIRange>:
            voltage range.
  * @param  msirange  MSI range value from RCC_MSIRANGE_0 to RCC_MSIRANGE_11
  * @retval HAL status
  */
static HAL_StatusTypeDef RCC_SetFlashLatencyFromMSIRange(uint32_t msirange)
{
 80016f8:	b580      	push	{r7, lr}
 80016fa:	b086      	sub	sp, #24
 80016fc:	af00      	add	r7, sp, #0
 80016fe:	6078      	str	r0, [r7, #4]
  uint32_t vos;
  uint32_t latency = FLASH_LATENCY_0;  /* default value 0WS */
 8001700:	2300      	movs	r3, #0
 8001702:	613b      	str	r3, [r7, #16]

  if(__HAL_RCC_PWR_IS_CLK_ENABLED())
 8001704:	4b2a      	ldr	r3, [pc, #168]	; (80017b0 <RCC_SetFlashLatencyFromMSIRange+0xb8>)
 8001706:	6d9b      	ldr	r3, [r3, #88]	; 0x58
 8001708:	f003 5380 	and.w	r3, r3, #268435456	; 0x10000000
 800170c:	2b00      	cmp	r3, #0
 800170e:	d003      	beq.n	8001718 <RCC_SetFlashLatencyFromMSIRange+0x20>
  {
    vos = HAL_PWREx_GetVoltageRange();
 8001710:	f7ff f9ee 	bl	8000af0 <HAL_PWREx_GetVoltageRange>
 8001714:	6178      	str	r0, [r7, #20]
 8001716:	e014      	b.n	8001742 <RCC_SetFlashLatencyFromMSIRange+0x4a>
  }
  else
  {
    __HAL_RCC_PWR_CLK_ENABLE();
 8001718:	4b25      	ldr	r3, [pc, #148]	; (80017b0 <RCC_SetFlashLatencyFromMSIRange+0xb8>)
 800171a:	6d9b      	ldr	r3, [r3, #88]	; 0x58
 800171c:	4a24      	ldr	r2, [pc, #144]	; (80017b0 <RCC_SetFlashLatencyFromMSIRange+0xb8>)
 800171e:	f043 5380 	orr.w	r3, r3, #268435456	; 0x10000000
 8001722:	6593      	str	r3, [r2, #88]	; 0x58
 8001724:	4b22      	ldr	r3, [pc, #136]	; (80017b0 <RCC_SetFlashLatencyFromMSIRange+0xb8>)
 8001726:	6d9b      	ldr	r3, [r3, #88]	; 0x58
 8001728:	f003 5380 	and.w	r3, r3, #268435456	; 0x10000000
 800172c:	60fb      	str	r3, [r7, #12]
 800172e:	68fb      	ldr	r3, [r7, #12]
    vos = HAL_PWREx_GetVoltageRange();
 8001730:	f7ff f9de 	bl	8000af0 <HAL_PWREx_GetVoltageRange>
 8001734:	6178      	str	r0, [r7, #20]
    __HAL_RCC_PWR_CLK_DISABLE();
 8001736:	4b1e      	ldr	r3, [pc, #120]	; (80017b0 <RCC_SetFlashLatencyFromMSIRange+0xb8>)
 8001738:	6d9b      	ldr	r3, [r3, #88]	; 0x58
 800173a:	4a1d      	ldr	r2, [pc, #116]	; (80017b0 <RCC_SetFlashLatencyFromMSIRange+0xb8>)
 800173c:	f023 5380 	bic.w	r3, r3, #268435456	; 0x10000000
 8001740:	6593      	str	r3, [r2, #88]	; 0x58
  }

  if(vos == PWR_REGULATOR_VOLTAGE_SCALE1)
 8001742:	697b      	ldr	r3, [r7, #20]
 8001744:	f5b3 7f00 	cmp.w	r3, #512	; 0x200
 8001748:	d10b      	bne.n	8001762 <RCC_SetFlashLatencyFromMSIRange+0x6a>
  {
    if(msirange > RCC_MSIRANGE_8)
 800174a:	687b      	ldr	r3, [r7, #4]
 800174c:	2b80      	cmp	r3, #128	; 0x80
 800174e:	d919      	bls.n	8001784 <RCC_SetFlashLatencyFromMSIRange+0x8c>
    {
      /* MSI > 16Mhz */
      if(msirange > RCC_MSIRANGE_10)
 8001750:	687b      	ldr	r3, [r7, #4]
 8001752:	2ba0      	cmp	r3, #160	; 0xa0
 8001754:	d902      	bls.n	800175c <RCC_SetFlashLatencyFromMSIRange+0x64>
      {
        /* MSI 48Mhz */
        latency = FLASH_LATENCY_2; /* 2WS */
 8001756:	2302      	movs	r3, #2
 8001758:	613b      	str	r3, [r7, #16]
 800175a:	e013      	b.n	8001784 <RCC_SetFlashLatencyFromMSIRange+0x8c>
      }
      else
      {
        /* MSI 24Mhz or 32Mhz */
        latency = FLASH_LATENCY_1; /* 1WS */
 800175c:	2301      	movs	r3, #1
 800175e:	613b      	str	r3, [r7, #16]
 8001760:	e010      	b.n	8001784 <RCC_SetFlashLatencyFromMSIRange+0x8c>
        latency = FLASH_LATENCY_1; /* 1WS */
      }
      /* else MSI < 8Mhz default FLASH_LATENCY_0 0WS */
    }
#else
    if(msirange > RCC_MSIRANGE_8)
 8001762:	687b      	ldr	r3, [r7, #4]
 8001764:	2b80      	cmp	r3, #128	; 0x80
 8001766:	d902      	bls.n	800176e <RCC_SetFlashLatencyFromMSIRange+0x76>
    {
      /* MSI > 16Mhz */
      latency = FLASH_LATENCY_3; /* 3WS */
 8001768:	2303      	movs	r3, #3
 800176a:	613b      	str	r3, [r7, #16]
 800176c:	e00a      	b.n	8001784 <RCC_SetFlashLatencyFromMSIRange+0x8c>
    }
    else
    {
      if(msirange == RCC_MSIRANGE_8)
 800176e:	687b      	ldr	r3, [r7, #4]
 8001770:	2b80      	cmp	r3, #128	; 0x80
 8001772:	d102      	bne.n	800177a <RCC_SetFlashLatencyFromMSIRange+0x82>
      {
        /* MSI 16Mhz */
        latency = FLASH_LATENCY_2; /* 2WS */
 8001774:	2302      	movs	r3, #2
 8001776:	613b      	str	r3, [r7, #16]
 8001778:	e004      	b.n	8001784 <RCC_SetFlashLatencyFromMSIRange+0x8c>
      }
      else if(msirange == RCC_MSIRANGE_7)
 800177a:	687b      	ldr	r3, [r7, #4]
 800177c:	2b70      	cmp	r3, #112	; 0x70
 800177e:	d101      	bne.n	8001784 <RCC_SetFlashLatencyFromMSIRange+0x8c>
      {
        /* MSI 8Mhz */
        latency = FLASH_LATENCY_1; /* 1WS */
 8001780:	2301      	movs	r3, #1
 8001782:	613b      	str	r3, [r7, #16]
      /* else MSI < 8Mhz default FLASH_LATENCY_0 0WS */
    }
#endif
  }

  __HAL_FLASH_SET_LATENCY(latency);
 8001784:	4b0b      	ldr	r3, [pc, #44]	; (80017b4 <RCC_SetFlashLatencyFromMSIRange+0xbc>)
 8001786:	681b      	ldr	r3, [r3, #0]
 8001788:	f023 0207 	bic.w	r2, r3, #7
 800178c:	4909      	ldr	r1, [pc, #36]	; (80017b4 <RCC_SetFlashLatencyFromMSIRange+0xbc>)
 800178e:	693b      	ldr	r3, [r7, #16]
 8001790:	4313      	orrs	r3, r2
 8001792:	600b      	str	r3, [r1, #0]

  /* Check that the new number of wait states is taken into account to access the Flash
     memory by reading the FLASH_ACR register */
  if(__HAL_FLASH_GET_LATENCY() != latency)
 8001794:	4b07      	ldr	r3, [pc, #28]	; (80017b4 <RCC_SetFlashLatencyFromMSIRange+0xbc>)
 8001796:	681b      	ldr	r3, [r3, #0]
 8001798:	f003 0307 	and.w	r3, r3, #7
 800179c:	693a      	ldr	r2, [r7, #16]
 800179e:	429a      	cmp	r2, r3
 80017a0:	d001      	beq.n	80017a6 <RCC_SetFlashLatencyFromMSIRange+0xae>
  {
    return HAL_ERROR;
 80017a2:	2301      	movs	r3, #1
 80017a4:	e000      	b.n	80017a8 <RCC_SetFlashLatencyFromMSIRange+0xb0>
  }

  return HAL_OK;
 80017a6:	2300      	movs	r3, #0
}
 80017a8:	4618      	mov	r0, r3
 80017aa:	3718      	adds	r7, #24
 80017ac:	46bd      	mov	sp, r7
 80017ae:	bd80      	pop	{r7, pc}
 80017b0:	40021000 	.word	0x40021000
 80017b4:	40022000 	.word	0x40022000

080017b8 <__libc_init_array>:
 80017b8:	b570      	push	{r4, r5, r6, lr}
 80017ba:	4d0d      	ldr	r5, [pc, #52]	; (80017f0 <__libc_init_array+0x38>)
 80017bc:	4c0d      	ldr	r4, [pc, #52]	; (80017f4 <__libc_init_array+0x3c>)
 80017be:	1b64      	subs	r4, r4, r5
 80017c0:	10a4      	asrs	r4, r4, #2
 80017c2:	2600      	movs	r6, #0
 80017c4:	42a6      	cmp	r6, r4
 80017c6:	d109      	bne.n	80017dc <__libc_init_array+0x24>
 80017c8:	4d0b      	ldr	r5, [pc, #44]	; (80017f8 <__libc_init_array+0x40>)
 80017ca:	4c0c      	ldr	r4, [pc, #48]	; (80017fc <__libc_init_array+0x44>)
 80017cc:	f000 f820 	bl	8001810 <_init>
 80017d0:	1b64      	subs	r4, r4, r5
 80017d2:	10a4      	asrs	r4, r4, #2
 80017d4:	2600      	movs	r6, #0
 80017d6:	42a6      	cmp	r6, r4
 80017d8:	d105      	bne.n	80017e6 <__libc_init_array+0x2e>
 80017da:	bd70      	pop	{r4, r5, r6, pc}
 80017dc:	f855 3b04 	ldr.w	r3, [r5], #4
 80017e0:	4798      	blx	r3
 80017e2:	3601      	adds	r6, #1
 80017e4:	e7ee      	b.n	80017c4 <__libc_init_array+0xc>
 80017e6:	f855 3b04 	ldr.w	r3, [r5], #4
 80017ea:	4798      	blx	r3
 80017ec:	3601      	adds	r6, #1
 80017ee:	e7f2      	b.n	80017d6 <__libc_init_array+0x1e>
 80017f0:	08001868 	.word	0x08001868
 80017f4:	08001868 	.word	0x08001868
 80017f8:	08001868 	.word	0x08001868
 80017fc:	0800186c 	.word	0x0800186c

08001800 <memset>:
 8001800:	4402      	add	r2, r0
 8001802:	4603      	mov	r3, r0
 8001804:	4293      	cmp	r3, r2
 8001806:	d100      	bne.n	800180a <memset+0xa>
 8001808:	4770      	bx	lr
 800180a:	f803 1b01 	strb.w	r1, [r3], #1
 800180e:	e7f9      	b.n	8001804 <memset+0x4>

08001810 <_init>:
 8001810:	b5f8      	push	{r3, r4, r5, r6, r7, lr}
 8001812:	bf00      	nop
 8001814:	bcf8      	pop	{r3, r4, r5, r6, r7}
 8001816:	bc08      	pop	{r3}
 8001818:	469e      	mov	lr, r3
 800181a:	4770      	bx	lr

0800181c <_fini>:
 800181c:	b5f8      	push	{r3, r4, r5, r6, r7, lr}
 800181e:	bf00      	nop
 8001820:	bcf8      	pop	{r3, r4, r5, r6, r7}
 8001822:	bc08      	pop	{r3}
 8001824:	469e      	mov	lr, r3
 8001826:	4770      	bx	lr
