
Payload PCB.elf:     file format elf32-littlearm

Sections:
Idx Name          Size      VMA       LMA       File off  Algn
  0 .isr_vector   00000194  08000000  08000000  00010000  2**0
                  CONTENTS, ALLOC, LOAD, READONLY, DATA
  1 .text         000034d8  08000194  08000194  00010194  2**2
                  CONTENTS, ALLOC, LOAD, READONLY, CODE
  2 .rodata       0000009c  0800366c  0800366c  0001366c  2**2
                  CONTENTS, ALLOC, LOAD, READONLY, DATA
  3 .ARM.extab    00000000  08003708  08003708  0002000c  2**0
                  CONTENTS
  4 .ARM          00000000  08003708  08003708  0002000c  2**0
                  CONTENTS
  5 .preinit_array 00000000  08003708  08003708  0002000c  2**0
                  CONTENTS, ALLOC, LOAD, DATA
  6 .init_array   00000004  08003708  08003708  00013708  2**2
                  CONTENTS, ALLOC, LOAD, DATA
  7 .fini_array   00000004  0800370c  0800370c  0001370c  2**2
                  CONTENTS, ALLOC, LOAD, DATA
  8 .data         0000000c  20000000  08003710  00020000  2**2
                  CONTENTS, ALLOC, LOAD, DATA
  9 .bss          000006ac  2000000c  0800371c  0002000c  2**2
                  ALLOC
 10 ._user_heap_stack 00000600  200006b8  0800371c  000206b8  2**0
                  ALLOC
 11 .ARM.attributes 00000030  00000000  00000000  0002000c  2**0
                  CONTENTS, READONLY
 12 .comment      00000050  00000000  00000000  0002003c  2**0
                  CONTENTS, READONLY
 13 .debug_frame  0000004c  00000000  00000000  0002008c  2**2
                  CONTENTS, READONLY, DEBUGGING, OCTETS

Disassembly of section .text:

08000194 <__do_global_dtors_aux>:
 8000194:	b510      	push	{r4, lr}
 8000196:	4c05      	ldr	r4, [pc, #20]	; (80001ac <__do_global_dtors_aux+0x18>)
 8000198:	7823      	ldrb	r3, [r4, #0]
 800019a:	b933      	cbnz	r3, 80001aa <__do_global_dtors_aux+0x16>
 800019c:	4b04      	ldr	r3, [pc, #16]	; (80001b0 <__do_global_dtors_aux+0x1c>)
 800019e:	b113      	cbz	r3, 80001a6 <__do_global_dtors_aux+0x12>
 80001a0:	4804      	ldr	r0, [pc, #16]	; (80001b4 <__do_global_dtors_aux+0x20>)
 80001a2:	f3af 8000 	nop.w
 80001a6:	2301      	movs	r3, #1
 80001a8:	7023      	strb	r3, [r4, #0]
 80001aa:	bd10      	pop	{r4, pc}
 80001ac:	2000000c 	.word	0x2000000c
 80001b0:	00000000 	.word	0x00000000
 80001b4:	08003654 	.word	0x08003654

080001b8 <frame_dummy>:
 80001b8:	b508      	push	{r3, lr}
 80001ba:	4b03      	ldr	r3, [pc, #12]	; (80001c8 <frame_dummy+0x10>)
 80001bc:	b11b      	cbz	r3, 80001c6 <frame_dummy+0xe>
 80001be:	4903      	ldr	r1, [pc, #12]	; (80001cc <frame_dummy+0x14>)
 80001c0:	4803      	ldr	r0, [pc, #12]	; (80001d0 <frame_dummy+0x18>)
 80001c2:	f3af 8000 	nop.w
 80001c6:	bd08      	pop	{r3, pc}
 80001c8:	00000000 	.word	0x00000000
 80001cc:	20000010 	.word	0x20000010
 80001d0:	08003654 	.word	0x08003654

080001d4 <MX_ADC1_Init>:
 80001d4:	b57f      	push	{r0, r1, r2, r3, r4, r5, r6, lr}
 80001d6:	2218      	movs	r2, #24
 80001d8:	2100      	movs	r1, #0
 80001da:	4668      	mov	r0, sp
 80001dc:	f003 fa32 	bl	8003644 <memset>
 80001e0:	4817      	ldr	r0, [pc, #92]	; (8000240 <MX_ADC1_Init+0x6c>)
 80001e2:	4918      	ldr	r1, [pc, #96]	; (8000244 <MX_ADC1_Init+0x70>)
 80001e4:	2300      	movs	r3, #0
 80001e6:	2204      	movs	r2, #4
 80001e8:	6142      	str	r2, [r0, #20]
 80001ea:	8303      	strh	r3, [r0, #24]
 80001ec:	2201      	movs	r2, #1
 80001ee:	e9c0 1300 	strd	r1, r3, [r0]
 80001f2:	e9c0 3302 	strd	r3, r3, [r0, #8]
 80001f6:	e9c0 330a 	strd	r3, r3, [r0, #40]	; 0x28
 80001fa:	6103      	str	r3, [r0, #16]
 80001fc:	61c2      	str	r2, [r0, #28]
 80001fe:	f880 3020 	strb.w	r3, [r0, #32]
 8000202:	f880 3030 	strb.w	r3, [r0, #48]	; 0x30
 8000206:	6343      	str	r3, [r0, #52]	; 0x34
 8000208:	f880 3038 	strb.w	r3, [r0, #56]	; 0x38
 800020c:	f000 fd5a 	bl	8000cc4 <HAL_ADC_Init>
 8000210:	b108      	cbz	r0, 8000216 <MX_ADC1_Init+0x42>
 8000212:	f000 fbe7 	bl	80009e4 <Error_Handler>
 8000216:	4a0c      	ldr	r2, [pc, #48]	; (8000248 <MX_ADC1_Init+0x74>)
 8000218:	4809      	ldr	r0, [pc, #36]	; (8000240 <MX_ADC1_Init+0x6c>)
 800021a:	2306      	movs	r3, #6
 800021c:	e9cd 2300 	strd	r2, r3, [sp]
 8000220:	2300      	movs	r3, #0
 8000222:	227f      	movs	r2, #127	; 0x7f
 8000224:	e9cd 3202 	strd	r3, r2, [sp, #8]
 8000228:	4669      	mov	r1, sp
 800022a:	2204      	movs	r2, #4
 800022c:	e9cd 2304 	strd	r2, r3, [sp, #16]
 8000230:	f000 fe70 	bl	8000f14 <HAL_ADC_ConfigChannel>
 8000234:	b108      	cbz	r0, 800023a <MX_ADC1_Init+0x66>
 8000236:	f000 fbd5 	bl	80009e4 <Error_Handler>
 800023a:	b007      	add	sp, #28
 800023c:	f85d fb04 	ldr.w	pc, [sp], #4
 8000240:	20000028 	.word	0x20000028
 8000244:	50040000 	.word	0x50040000
 8000248:	04300002 	.word	0x04300002

0800024c <HAL_ADC_MspInit>:
 800024c:	b530      	push	{r4, r5, lr}
 800024e:	b0a3      	sub	sp, #140	; 0x8c
 8000250:	4604      	mov	r4, r0
 8000252:	2214      	movs	r2, #20
 8000254:	2100      	movs	r1, #0
 8000256:	a803      	add	r0, sp, #12
 8000258:	f003 f9f4 	bl	8003644 <memset>
 800025c:	2268      	movs	r2, #104	; 0x68
 800025e:	2100      	movs	r1, #0
 8000260:	a808      	add	r0, sp, #32
 8000262:	f003 f9ef 	bl	8003644 <memset>
 8000266:	6822      	ldr	r2, [r4, #0]
 8000268:	4b26      	ldr	r3, [pc, #152]	; (8000304 <HAL_ADC_MspInit+0xb8>)
 800026a:	429a      	cmp	r2, r3
 800026c:	d147      	bne.n	80002fe <HAL_ADC_MspInit+0xb2>
 800026e:	f44f 4380 	mov.w	r3, #16384	; 0x4000
 8000272:	9308      	str	r3, [sp, #32]
 8000274:	f04f 5380 	mov.w	r3, #268435456	; 0x10000000
 8000278:	931f      	str	r3, [sp, #124]	; 0x7c
 800027a:	2301      	movs	r3, #1
 800027c:	2010      	movs	r0, #16
 800027e:	e9cd 3309 	strd	r3, r3, [sp, #36]	; 0x24
 8000282:	2307      	movs	r3, #7
 8000284:	e9cd 030b 	strd	r0, r3, [sp, #44]	; 0x2c
 8000288:	2302      	movs	r3, #2
 800028a:	e9cd 330d 	strd	r3, r3, [sp, #52]	; 0x34
 800028e:	a808      	add	r0, sp, #32
 8000290:	f04f 7380 	mov.w	r3, #16777216	; 0x1000000
 8000294:	930f      	str	r3, [sp, #60]	; 0x3c
 8000296:	f002 fccd 	bl	8002c34 <HAL_RCCEx_PeriphCLKConfig>
 800029a:	b108      	cbz	r0, 80002a0 <HAL_ADC_MspInit+0x54>
 800029c:	f000 fba2 	bl	80009e4 <Error_Handler>
 80002a0:	4b19      	ldr	r3, [pc, #100]	; (8000308 <HAL_ADC_MspInit+0xbc>)
 80002a2:	481a      	ldr	r0, [pc, #104]	; (800030c <HAL_ADC_MspInit+0xc0>)
 80002a4:	6cda      	ldr	r2, [r3, #76]	; 0x4c
 80002a6:	f442 5200 	orr.w	r2, r2, #8192	; 0x2000
 80002aa:	64da      	str	r2, [r3, #76]	; 0x4c
 80002ac:	6cda      	ldr	r2, [r3, #76]	; 0x4c
 80002ae:	f402 5200 	and.w	r2, r2, #8192	; 0x2000
 80002b2:	9200      	str	r2, [sp, #0]
 80002b4:	9a00      	ldr	r2, [sp, #0]
 80002b6:	6cda      	ldr	r2, [r3, #76]	; 0x4c
 80002b8:	f042 0204 	orr.w	r2, r2, #4
 80002bc:	64da      	str	r2, [r3, #76]	; 0x4c
 80002be:	6cda      	ldr	r2, [r3, #76]	; 0x4c
 80002c0:	f002 0204 	and.w	r2, r2, #4
 80002c4:	9201      	str	r2, [sp, #4]
 80002c6:	9a01      	ldr	r2, [sp, #4]
 80002c8:	6cda      	ldr	r2, [r3, #76]	; 0x4c
 80002ca:	f042 0201 	orr.w	r2, r2, #1
 80002ce:	64da      	str	r2, [r3, #76]	; 0x4c
 80002d0:	6cdb      	ldr	r3, [r3, #76]	; 0x4c
 80002d2:	f003 0301 	and.w	r3, r3, #1
 80002d6:	9302      	str	r3, [sp, #8]
 80002d8:	9b02      	ldr	r3, [sp, #8]
 80002da:	250b      	movs	r5, #11
 80002dc:	230f      	movs	r3, #15
 80002de:	2400      	movs	r4, #0
 80002e0:	a903      	add	r1, sp, #12
 80002e2:	e9cd 3503 	strd	r3, r5, [sp, #12]
 80002e6:	9405      	str	r4, [sp, #20]
 80002e8:	f001 fcd4 	bl	8001c94 <HAL_GPIO_Init>
 80002ec:	233f      	movs	r3, #63	; 0x3f
 80002ee:	a903      	add	r1, sp, #12
 80002f0:	f04f 4090 	mov.w	r0, #1207959552	; 0x48000000
 80002f4:	e9cd 3503 	strd	r3, r5, [sp, #12]
 80002f8:	9405      	str	r4, [sp, #20]
 80002fa:	f001 fccb 	bl	8001c94 <HAL_GPIO_Init>
 80002fe:	b023      	add	sp, #140	; 0x8c
 8000300:	bd30      	pop	{r4, r5, pc}
 8000302:	bf00      	nop
 8000304:	50040000 	.word	0x50040000
 8000308:	40021000 	.word	0x40021000
 800030c:	48000800 	.word	0x48000800

08000310 <MX_CAN1_Init>:
 8000310:	480a      	ldr	r0, [pc, #40]	; (800033c <MX_CAN1_Init+0x2c>)
 8000312:	4a0b      	ldr	r2, [pc, #44]	; (8000340 <MX_CAN1_Init+0x30>)
 8000314:	b508      	push	{r3, lr}
 8000316:	2310      	movs	r3, #16
 8000318:	e9c0 2300 	strd	r2, r3, [r0]
 800031c:	2300      	movs	r3, #0
 800031e:	6183      	str	r3, [r0, #24]
 8000320:	8383      	strh	r3, [r0, #28]
 8000322:	e9c0 3302 	strd	r3, r3, [r0, #8]
 8000326:	e9c0 3304 	strd	r3, r3, [r0, #16]
 800032a:	f001 f959 	bl	80015e0 <HAL_CAN_Init>
 800032e:	b118      	cbz	r0, 8000338 <MX_CAN1_Init+0x28>
 8000330:	e8bd 4008 	ldmia.w	sp!, {r3, lr}
 8000334:	f000 bb56 	b.w	80009e4 <Error_Handler>
 8000338:	bd08      	pop	{r3, pc}
 800033a:	bf00      	nop
 800033c:	20000090 	.word	0x20000090
 8000340:	40006400 	.word	0x40006400

08000344 <HAL_CAN_MspInit>:
 8000344:	b510      	push	{r4, lr}
 8000346:	4604      	mov	r4, r0
 8000348:	b088      	sub	sp, #32
 800034a:	2214      	movs	r2, #20
 800034c:	2100      	movs	r1, #0
 800034e:	a803      	add	r0, sp, #12
 8000350:	f003 f978 	bl	8003644 <memset>
 8000354:	6822      	ldr	r2, [r4, #0]
 8000356:	4b17      	ldr	r3, [pc, #92]	; (80003b4 <HAL_CAN_MspInit+0x70>)
 8000358:	429a      	cmp	r2, r3
 800035a:	d128      	bne.n	80003ae <HAL_CAN_MspInit+0x6a>
 800035c:	f503 33d6 	add.w	r3, r3, #109568	; 0x1ac00
 8000360:	2103      	movs	r1, #3
 8000362:	6d9a      	ldr	r2, [r3, #88]	; 0x58
 8000364:	4814      	ldr	r0, [pc, #80]	; (80003b8 <HAL_CAN_MspInit+0x74>)
 8000366:	f042 7200 	orr.w	r2, r2, #33554432	; 0x2000000
 800036a:	659a      	str	r2, [r3, #88]	; 0x58
 800036c:	6d9a      	ldr	r2, [r3, #88]	; 0x58
 800036e:	f002 7200 	and.w	r2, r2, #33554432	; 0x2000000
 8000372:	9201      	str	r2, [sp, #4]
 8000374:	9a01      	ldr	r2, [sp, #4]
 8000376:	6cda      	ldr	r2, [r3, #76]	; 0x4c
 8000378:	f042 0202 	orr.w	r2, r2, #2
 800037c:	64da      	str	r2, [r3, #76]	; 0x4c
 800037e:	6cdb      	ldr	r3, [r3, #76]	; 0x4c
 8000380:	f003 0302 	and.w	r3, r3, #2
 8000384:	9302      	str	r3, [sp, #8]
 8000386:	f44f 5240 	mov.w	r2, #12288	; 0x3000
 800038a:	9b02      	ldr	r3, [sp, #8]
 800038c:	2302      	movs	r3, #2
 800038e:	e9cd 2303 	strd	r2, r3, [sp, #12]
 8000392:	230a      	movs	r3, #10
 8000394:	e9cd 1306 	strd	r1, r3, [sp, #24]
 8000398:	a903      	add	r1, sp, #12
 800039a:	f001 fc7b 	bl	8001c94 <HAL_GPIO_Init>
 800039e:	2200      	movs	r2, #0
 80003a0:	2014      	movs	r0, #20
 80003a2:	4611      	mov	r1, r2
 80003a4:	f001 fc22 	bl	8001bec <HAL_NVIC_SetPriority>
 80003a8:	2014      	movs	r0, #20
 80003aa:	f001 fc51 	bl	8001c50 <HAL_NVIC_EnableIRQ>
 80003ae:	b008      	add	sp, #32
 80003b0:	bd10      	pop	{r4, pc}
 80003b2:	bf00      	nop
 80003b4:	40006400 	.word	0x40006400
 80003b8:	48000400 	.word	0x48000400

080003bc <CAN_Init>:
 80003bc:	b500      	push	{lr}
 80003be:	b08b      	sub	sp, #44	; 0x2c
 80003c0:	2300      	movs	r3, #0
 80003c2:	e9cd 3300 	strd	r3, r3, [sp]
 80003c6:	e9cd 3302 	strd	r3, r3, [sp, #8]
 80003ca:	e9cd 3304 	strd	r3, r3, [sp, #16]
 80003ce:	9306      	str	r3, [sp, #24]
 80003d0:	2301      	movs	r3, #1
 80003d2:	e9cd 3307 	strd	r3, r3, [sp, #28]
 80003d6:	4809      	ldr	r0, [pc, #36]	; (80003fc <CAN_Init+0x40>)
 80003d8:	230e      	movs	r3, #14
 80003da:	4669      	mov	r1, sp
 80003dc:	9309      	str	r3, [sp, #36]	; 0x24
 80003de:	f001 f97a 	bl	80016d6 <HAL_CAN_ConfigFilter>
 80003e2:	b938      	cbnz	r0, 80003f4 <CAN_Init+0x38>
 80003e4:	4805      	ldr	r0, [pc, #20]	; (80003fc <CAN_Init+0x40>)
 80003e6:	f001 f9e5 	bl	80017b4 <HAL_CAN_Start>
 80003ea:	b918      	cbnz	r0, 80003f4 <CAN_Init+0x38>
 80003ec:	4803      	ldr	r0, [pc, #12]	; (80003fc <CAN_Init+0x40>)
 80003ee:	2102      	movs	r1, #2
 80003f0:	f001 facf 	bl	8001992 <HAL_CAN_ActivateNotification>
 80003f4:	b00b      	add	sp, #44	; 0x2c
 80003f6:	f85d fb04 	ldr.w	pc, [sp], #4
 80003fa:	bf00      	nop
 80003fc:	20000090 	.word	0x20000090

08000400 <CAN_Transmit_Message>:
 8000400:	b500      	push	{lr}
 8000402:	b08f      	sub	sp, #60	; 0x3c
 8000404:	ab01      	add	r3, sp, #4
 8000406:	e883 0007 	stmia.w	r3, {r0, r1, r2}
 800040a:	f89d 2004 	ldrb.w	r2, [sp, #4]
 800040e:	f89d 3006 	ldrb.w	r3, [sp, #6]
 8000412:	4819      	ldr	r0, [pc, #100]	; (8000478 <CAN_Transmit_Message+0x78>)
 8000414:	ea43 1302 	orr.w	r3, r3, r2, lsl #4
 8000418:	f89d 2007 	ldrb.w	r2, [sp, #7]
 800041c:	f88d 2018 	strb.w	r2, [sp, #24]
 8000420:	f89d 2008 	ldrb.w	r2, [sp, #8]
 8000424:	f88d 2019 	strb.w	r2, [sp, #25]
 8000428:	f89d 2009 	ldrb.w	r2, [sp, #9]
 800042c:	f88d 201a 	strb.w	r2, [sp, #26]
 8000430:	f89d 200a 	ldrb.w	r2, [sp, #10]
 8000434:	f88d 201b 	strb.w	r2, [sp, #27]
 8000438:	f89d 200b 	ldrb.w	r2, [sp, #11]
 800043c:	f88d 201c 	strb.w	r2, [sp, #28]
 8000440:	f043 0308 	orr.w	r3, r3, #8
 8000444:	f89d 200c 	ldrb.w	r2, [sp, #12]
 8000448:	f88d 201d 	strb.w	r2, [sp, #29]
 800044c:	9308      	str	r3, [sp, #32]
 800044e:	f89d 200d 	ldrb.w	r2, [sp, #13]
 8000452:	f88d 201e 	strb.w	r2, [sp, #30]
 8000456:	2300      	movs	r3, #0
 8000458:	f89d 200e 	ldrb.w	r2, [sp, #14]
 800045c:	f88d 201f 	strb.w	r2, [sp, #31]
 8000460:	e9cd 330a 	strd	r3, r3, [sp, #40]	; 0x28
 8000464:	2308      	movs	r3, #8
 8000466:	930c      	str	r3, [sp, #48]	; 0x30
 8000468:	aa06      	add	r2, sp, #24
 800046a:	ab05      	add	r3, sp, #20
 800046c:	a908      	add	r1, sp, #32
 800046e:	f001 f9cf 	bl	8001810 <HAL_CAN_AddTxMessage>
 8000472:	b00f      	add	sp, #60	; 0x3c
 8000474:	f85d fb04 	ldr.w	pc, [sp], #4
 8000478:	20000090 	.word	0x20000090

0800047c <CAN_Message_Received>:
 800047c:	b510      	push	{r4, lr}
 800047e:	b08c      	sub	sp, #48	; 0x30
 8000480:	4821      	ldr	r0, [pc, #132]	; (8000508 <CAN_Message_Received+0x8c>)
 8000482:	466b      	mov	r3, sp
 8000484:	aa05      	add	r2, sp, #20
 8000486:	2100      	movs	r1, #0
 8000488:	f001 fa0c 	bl	80018a4 <HAL_CAN_GetRxMessage>
 800048c:	4604      	mov	r4, r0
 800048e:	bbc0      	cbnz	r0, 8000502 <CAN_Message_Received+0x86>
 8000490:	9b05      	ldr	r3, [sp, #20]
 8000492:	f003 0203 	and.w	r2, r3, #3
 8000496:	2a02      	cmp	r2, #2
 8000498:	d133      	bne.n	8000502 <CAN_Message_Received+0x86>
 800049a:	f3c3 0381 	ubfx	r3, r3, #2, #2
 800049e:	f88d 3009 	strb.w	r3, [sp, #9]
 80004a2:	2302      	movs	r3, #2
 80004a4:	f88d 300a 	strb.w	r3, [sp, #10]
 80004a8:	f89d 3000 	ldrb.w	r3, [sp]
 80004ac:	f88d 300b 	strb.w	r3, [sp, #11]
 80004b0:	f89d 3001 	ldrb.w	r3, [sp, #1]
 80004b4:	f88d 300c 	strb.w	r3, [sp, #12]
 80004b8:	f89d 3002 	ldrb.w	r3, [sp, #2]
 80004bc:	f88d 300d 	strb.w	r3, [sp, #13]
 80004c0:	f89d 3003 	ldrb.w	r3, [sp, #3]
 80004c4:	9a08      	ldr	r2, [sp, #32]
 80004c6:	f88d 300e 	strb.w	r3, [sp, #14]
 80004ca:	f89d 3004 	ldrb.w	r3, [sp, #4]
 80004ce:	f88d 300f 	strb.w	r3, [sp, #15]
 80004d2:	f89d 3005 	ldrb.w	r3, [sp, #5]
 80004d6:	f88d 3010 	strb.w	r3, [sp, #16]
 80004da:	2a02      	cmp	r2, #2
 80004dc:	f89d 3006 	ldrb.w	r3, [sp, #6]
 80004e0:	bf18      	it	ne
 80004e2:	f89d 201b 	ldrbne.w	r2, [sp, #27]
 80004e6:	f88d 3011 	strb.w	r3, [sp, #17]
 80004ea:	bf08      	it	eq
 80004ec:	227f      	moveq	r2, #127	; 0x7f
 80004ee:	f89d 3007 	ldrb.w	r3, [sp, #7]
 80004f2:	4806      	ldr	r0, [pc, #24]	; (800050c <CAN_Message_Received+0x90>)
 80004f4:	f88d 2008 	strb.w	r2, [sp, #8]
 80004f8:	a902      	add	r1, sp, #8
 80004fa:	f88d 3012 	strb.w	r3, [sp, #18]
 80004fe:	f000 f846 	bl	800058e <CAN_Queue_Enqueue>
 8000502:	4620      	mov	r0, r4
 8000504:	b00c      	add	sp, #48	; 0x30
 8000506:	bd10      	pop	{r4, pc}
 8000508:	20000090 	.word	0x20000090
 800050c:	2000010c 	.word	0x2000010c

08000510 <CAN_Send_Default_ACK>:
 8000510:	b088      	sub	sp, #32
 8000512:	ab01      	add	r3, sp, #4
 8000514:	e883 0007 	stmia.w	r3, {r0, r1, r2}
 8000518:	f89d 3004 	ldrb.w	r3, [sp, #4]
 800051c:	f88d 3014 	strb.w	r3, [sp, #20]
 8000520:	2302      	movs	r3, #2
 8000522:	f88d 3015 	strb.w	r3, [sp, #21]
 8000526:	f89d 3005 	ldrb.w	r3, [sp, #5]
 800052a:	f88d 3016 	strb.w	r3, [sp, #22]
 800052e:	2301      	movs	r3, #1
 8000530:	f88d 3017 	strb.w	r3, [sp, #23]
 8000534:	f89d 3007 	ldrb.w	r3, [sp, #7]
 8000538:	f88d 3018 	strb.w	r3, [sp, #24]
 800053c:	2300      	movs	r3, #0
 800053e:	f88d 3019 	strb.w	r3, [sp, #25]
 8000542:	f88d 301a 	strb.w	r3, [sp, #26]
 8000546:	f88d 301b 	strb.w	r3, [sp, #27]
 800054a:	f88d 301c 	strb.w	r3, [sp, #28]
 800054e:	f88d 301d 	strb.w	r3, [sp, #29]
 8000552:	f88d 301e 	strb.w	r3, [sp, #30]
 8000556:	ab08      	add	r3, sp, #32
 8000558:	e913 0007 	ldmdb	r3, {r0, r1, r2}
 800055c:	b008      	add	sp, #32
 800055e:	f7ff bf4f 	b.w	8000400 <CAN_Transmit_Message>

08000562 <CAN_Queue_Init>:
 8000562:	2300      	movs	r3, #0
 8000564:	e9c0 3300 	strd	r3, r3, [r0]
 8000568:	4770      	bx	lr

0800056a <CAN_Queue_IsEmpty>:
 800056a:	e9d0 2000 	ldrd	r2, r0, [r0]
 800056e:	1a13      	subs	r3, r2, r0
 8000570:	4258      	negs	r0, r3
 8000572:	4158      	adcs	r0, r3
 8000574:	4770      	bx	lr

08000576 <CAN_Queue_IsFull>:
 8000576:	6843      	ldr	r3, [r0, #4]
 8000578:	6800      	ldr	r0, [r0, #0]
 800057a:	2264      	movs	r2, #100	; 0x64
 800057c:	3301      	adds	r3, #1
 800057e:	fbb3 f1f2 	udiv	r1, r3, r2
 8000582:	fb02 3311 	mls	r3, r2, r1, r3
 8000586:	1a1b      	subs	r3, r3, r0
 8000588:	4258      	negs	r0, r3
 800058a:	4158      	adcs	r0, r3
 800058c:	4770      	bx	lr

0800058e <CAN_Queue_Enqueue>:
 800058e:	b538      	push	{r3, r4, r5, lr}
 8000590:	4604      	mov	r4, r0
 8000592:	460d      	mov	r5, r1
 8000594:	f7ff ffef 	bl	8000576 <CAN_Queue_IsFull>
 8000598:	b9b0      	cbnz	r0, 80005c8 <CAN_Queue_Enqueue+0x3a>
 800059a:	6863      	ldr	r3, [r4, #4]
 800059c:	6829      	ldr	r1, [r5, #0]
 800059e:	220b      	movs	r2, #11
 80005a0:	4353      	muls	r3, r2
 80005a2:	3308      	adds	r3, #8
 80005a4:	18e2      	adds	r2, r4, r3
 80005a6:	50e1      	str	r1, [r4, r3]
 80005a8:	6869      	ldr	r1, [r5, #4]
 80005aa:	6051      	str	r1, [r2, #4]
 80005ac:	892b      	ldrh	r3, [r5, #8]
 80005ae:	8113      	strh	r3, [r2, #8]
 80005b0:	7aab      	ldrb	r3, [r5, #10]
 80005b2:	7293      	strb	r3, [r2, #10]
 80005b4:	6863      	ldr	r3, [r4, #4]
 80005b6:	2264      	movs	r2, #100	; 0x64
 80005b8:	3301      	adds	r3, #1
 80005ba:	fbb3 f1f2 	udiv	r1, r3, r2
 80005be:	fb02 3311 	mls	r3, r2, r1, r3
 80005c2:	6063      	str	r3, [r4, #4]
 80005c4:	2001      	movs	r0, #1
 80005c6:	bd38      	pop	{r3, r4, r5, pc}
 80005c8:	2000      	movs	r0, #0
 80005ca:	e7fc      	b.n	80005c6 <CAN_Queue_Enqueue+0x38>

080005cc <CAN_Queue_Dequeue>:
 80005cc:	e9d0 3200 	ldrd	r3, r2, [r0]
 80005d0:	4293      	cmp	r3, r2
 80005d2:	d015      	beq.n	8000600 <CAN_Queue_Dequeue+0x34>
 80005d4:	220b      	movs	r2, #11
 80005d6:	4353      	muls	r3, r2
 80005d8:	3308      	adds	r3, #8
 80005da:	18c2      	adds	r2, r0, r3
 80005dc:	58c3      	ldr	r3, [r0, r3]
 80005de:	600b      	str	r3, [r1, #0]
 80005e0:	6853      	ldr	r3, [r2, #4]
 80005e2:	604b      	str	r3, [r1, #4]
 80005e4:	8913      	ldrh	r3, [r2, #8]
 80005e6:	810b      	strh	r3, [r1, #8]
 80005e8:	7a93      	ldrb	r3, [r2, #10]
 80005ea:	728b      	strb	r3, [r1, #10]
 80005ec:	6803      	ldr	r3, [r0, #0]
 80005ee:	2264      	movs	r2, #100	; 0x64
 80005f0:	3301      	adds	r3, #1
 80005f2:	fbb3 f1f2 	udiv	r1, r3, r2
 80005f6:	fb02 3311 	mls	r3, r2, r1, r3
 80005fa:	6003      	str	r3, [r0, #0]
 80005fc:	2001      	movs	r0, #1
 80005fe:	4770      	bx	lr
 8000600:	2000      	movs	r0, #0
 8000602:	4770      	bx	lr

08000604 <MX_GPIO_Init>:
 8000604:	b5f0      	push	{r4, r5, r6, r7, lr}
 8000606:	b089      	sub	sp, #36	; 0x24
 8000608:	2214      	movs	r2, #20
 800060a:	2100      	movs	r1, #0
 800060c:	a803      	add	r0, sp, #12
 800060e:	f003 f819 	bl	8003644 <memset>
 8000612:	4b2d      	ldr	r3, [pc, #180]	; (80006c8 <MX_GPIO_Init+0xc4>)
 8000614:	4f2d      	ldr	r7, [pc, #180]	; (80006cc <MX_GPIO_Init+0xc8>)
 8000616:	6cda      	ldr	r2, [r3, #76]	; 0x4c
 8000618:	4e2d      	ldr	r6, [pc, #180]	; (80006d0 <MX_GPIO_Init+0xcc>)
 800061a:	f042 0204 	orr.w	r2, r2, #4
 800061e:	64da      	str	r2, [r3, #76]	; 0x4c
 8000620:	6cda      	ldr	r2, [r3, #76]	; 0x4c
 8000622:	f002 0204 	and.w	r2, r2, #4
 8000626:	9200      	str	r2, [sp, #0]
 8000628:	9a00      	ldr	r2, [sp, #0]
 800062a:	6cda      	ldr	r2, [r3, #76]	; 0x4c
 800062c:	f042 0201 	orr.w	r2, r2, #1
 8000630:	64da      	str	r2, [r3, #76]	; 0x4c
 8000632:	6cda      	ldr	r2, [r3, #76]	; 0x4c
 8000634:	f002 0201 	and.w	r2, r2, #1
 8000638:	9201      	str	r2, [sp, #4]
 800063a:	9a01      	ldr	r2, [sp, #4]
 800063c:	6cda      	ldr	r2, [r3, #76]	; 0x4c
 800063e:	f042 0202 	orr.w	r2, r2, #2
 8000642:	64da      	str	r2, [r3, #76]	; 0x4c
 8000644:	6cdb      	ldr	r3, [r3, #76]	; 0x4c
 8000646:	f003 0302 	and.w	r3, r3, #2
 800064a:	9302      	str	r3, [sp, #8]
 800064c:	4638      	mov	r0, r7
 800064e:	2200      	movs	r2, #0
 8000650:	f240 71f7 	movw	r1, #2039	; 0x7f7
 8000654:	9b02      	ldr	r3, [sp, #8]
 8000656:	f001 fbe1 	bl	8001e1c <HAL_GPIO_WritePin>
 800065a:	4630      	mov	r0, r6
 800065c:	2201      	movs	r2, #1
 800065e:	f44f 7180 	mov.w	r1, #256	; 0x100
 8000662:	f001 fbdb 	bl	8001e1c <HAL_GPIO_WritePin>
 8000666:	4630      	mov	r0, r6
 8000668:	2200      	movs	r2, #0
 800066a:	f44f 7100 	mov.w	r1, #512	; 0x200
 800066e:	f001 fbd5 	bl	8001e1c <HAL_GPIO_WritePin>
 8000672:	2200      	movs	r2, #0
 8000674:	f44f 7180 	mov.w	r1, #256	; 0x100
 8000678:	f04f 4090 	mov.w	r0, #1207959552	; 0x48000000
 800067c:	f001 fbce 	bl	8001e1c <HAL_GPIO_WritePin>
 8000680:	2501      	movs	r5, #1
 8000682:	2400      	movs	r4, #0
 8000684:	f240 73f7 	movw	r3, #2039	; 0x7f7
 8000688:	a903      	add	r1, sp, #12
 800068a:	4638      	mov	r0, r7
 800068c:	e9cd 3503 	strd	r3, r5, [sp, #12]
 8000690:	e9cd 4405 	strd	r4, r4, [sp, #20]
 8000694:	f001 fafe 	bl	8001c94 <HAL_GPIO_Init>
 8000698:	f44f 7340 	mov.w	r3, #768	; 0x300
 800069c:	a903      	add	r1, sp, #12
 800069e:	4630      	mov	r0, r6
 80006a0:	e9cd 3503 	strd	r3, r5, [sp, #12]
 80006a4:	e9cd 4405 	strd	r4, r4, [sp, #20]
 80006a8:	f001 faf4 	bl	8001c94 <HAL_GPIO_Init>
 80006ac:	f44f 7380 	mov.w	r3, #256	; 0x100
 80006b0:	a903      	add	r1, sp, #12
 80006b2:	f04f 4090 	mov.w	r0, #1207959552	; 0x48000000
 80006b6:	e9cd 3503 	strd	r3, r5, [sp, #12]
 80006ba:	e9cd 4405 	strd	r4, r4, [sp, #20]
 80006be:	f001 fae9 	bl	8001c94 <HAL_GPIO_Init>
 80006c2:	b009      	add	sp, #36	; 0x24
 80006c4:	bdf0      	pop	{r4, r5, r6, r7, pc}
 80006c6:	bf00      	nop
 80006c8:	40021000 	.word	0x40021000
 80006cc:	48000400 	.word	0x48000400
 80006d0:	48000800 	.word	0x48000800

080006d4 <MX_I2C1_Init>:
 80006d4:	4812      	ldr	r0, [pc, #72]	; (8000720 <MX_I2C1_Init+0x4c>)
 80006d6:	4a13      	ldr	r2, [pc, #76]	; (8000724 <MX_I2C1_Init+0x50>)
 80006d8:	b508      	push	{r3, lr}
 80006da:	f640 6314 	movw	r3, #3604	; 0xe14
 80006de:	e9c0 2300 	strd	r2, r3, [r0]
 80006e2:	2300      	movs	r3, #0
 80006e4:	2201      	movs	r2, #1
 80006e6:	e9c0 3202 	strd	r3, r2, [r0, #8]
 80006ea:	e9c0 3304 	strd	r3, r3, [r0, #16]
 80006ee:	e9c0 3306 	strd	r3, r3, [r0, #24]
 80006f2:	6203      	str	r3, [r0, #32]
 80006f4:	f001 fcc5 	bl	8002082 <HAL_I2C_Init>
 80006f8:	b108      	cbz	r0, 80006fe <MX_I2C1_Init+0x2a>
 80006fa:	f000 f973 	bl	80009e4 <Error_Handler>
 80006fe:	4808      	ldr	r0, [pc, #32]	; (8000720 <MX_I2C1_Init+0x4c>)
 8000700:	2100      	movs	r1, #0
 8000702:	f001 fda5 	bl	8002250 <HAL_I2CEx_ConfigAnalogFilter>
 8000706:	b108      	cbz	r0, 800070c <MX_I2C1_Init+0x38>
 8000708:	f000 f96c 	bl	80009e4 <Error_Handler>
 800070c:	4804      	ldr	r0, [pc, #16]	; (8000720 <MX_I2C1_Init+0x4c>)
 800070e:	2100      	movs	r1, #0
 8000710:	f001 fdc4 	bl	800229c <HAL_I2CEx_ConfigDigitalFilter>
 8000714:	b118      	cbz	r0, 800071e <MX_I2C1_Init+0x4a>
 8000716:	e8bd 4008 	ldmia.w	sp!, {r3, lr}
 800071a:	f000 b963 	b.w	80009e4 <Error_Handler>
 800071e:	bd08      	pop	{r3, pc}
 8000720:	200000b8 	.word	0x200000b8
 8000724:	40005400 	.word	0x40005400

08000728 <HAL_I2C_MspInit>:
 8000728:	b510      	push	{r4, lr}
 800072a:	b0a2      	sub	sp, #136	; 0x88
 800072c:	4604      	mov	r4, r0
 800072e:	2214      	movs	r2, #20
 8000730:	2100      	movs	r1, #0
 8000732:	a803      	add	r0, sp, #12
 8000734:	f002 ff86 	bl	8003644 <memset>
 8000738:	2268      	movs	r2, #104	; 0x68
 800073a:	2100      	movs	r1, #0
 800073c:	a808      	add	r0, sp, #32
 800073e:	f002 ff81 	bl	8003644 <memset>
 8000742:	6822      	ldr	r2, [r4, #0]
 8000744:	4b17      	ldr	r3, [pc, #92]	; (80007a4 <HAL_I2C_MspInit+0x7c>)
 8000746:	429a      	cmp	r2, r3
 8000748:	d12a      	bne.n	80007a0 <HAL_I2C_MspInit+0x78>
 800074a:	2340      	movs	r3, #64	; 0x40
 800074c:	a808      	add	r0, sp, #32
 800074e:	9308      	str	r3, [sp, #32]
 8000750:	f002 fa70 	bl	8002c34 <HAL_RCCEx_PeriphCLKConfig>
 8000754:	b108      	cbz	r0, 800075a <HAL_I2C_MspInit+0x32>
 8000756:	f000 f945 	bl	80009e4 <Error_Handler>
 800075a:	4c13      	ldr	r4, [pc, #76]	; (80007a8 <HAL_I2C_MspInit+0x80>)
 800075c:	6ce3      	ldr	r3, [r4, #76]	; 0x4c
 800075e:	f043 0301 	orr.w	r3, r3, #1
 8000762:	64e3      	str	r3, [r4, #76]	; 0x4c
 8000764:	6ce3      	ldr	r3, [r4, #76]	; 0x4c
 8000766:	f003 0301 	and.w	r3, r3, #1
 800076a:	9301      	str	r3, [sp, #4]
 800076c:	9b01      	ldr	r3, [sp, #4]
 800076e:	f44f 62c0 	mov.w	r2, #1536	; 0x600
 8000772:	2312      	movs	r3, #18
 8000774:	e9cd 2303 	strd	r2, r3, [sp, #12]
 8000778:	2100      	movs	r1, #0
 800077a:	2303      	movs	r3, #3
 800077c:	e9cd 1305 	strd	r1, r3, [sp, #20]
 8000780:	f04f 4090 	mov.w	r0, #1207959552	; 0x48000000
 8000784:	2304      	movs	r3, #4
 8000786:	a903      	add	r1, sp, #12
 8000788:	9307      	str	r3, [sp, #28]
 800078a:	f001 fa83 	bl	8001c94 <HAL_GPIO_Init>
 800078e:	6da3      	ldr	r3, [r4, #88]	; 0x58
 8000790:	f443 1300 	orr.w	r3, r3, #2097152	; 0x200000
 8000794:	65a3      	str	r3, [r4, #88]	; 0x58
 8000796:	6da3      	ldr	r3, [r4, #88]	; 0x58
 8000798:	f403 1300 	and.w	r3, r3, #2097152	; 0x200000
 800079c:	9302      	str	r3, [sp, #8]
 800079e:	9b02      	ldr	r3, [sp, #8]
 80007a0:	b022      	add	sp, #136	; 0x88
 80007a2:	bd10      	pop	{r4, pc}
 80007a4:	40005400 	.word	0x40005400
 80007a8:	40021000 	.word	0x40021000

080007ac <TEMP_transmitTemperatureData>:
 80007ac:	b51f      	push	{r0, r1, r2, r3, r4, lr}
 80007ae:	4604      	mov	r4, r0
 80007b0:	f002 fe5e 	bl	8003470 <TEMP_getWellTemperatureReading>
 80007b4:	2303      	movs	r3, #3
 80007b6:	2201      	movs	r2, #1
 80007b8:	f88d 3005 	strb.w	r3, [sp, #5]
 80007bc:	f88d 2006 	strb.w	r2, [sp, #6]
 80007c0:	f88d 3004 	strb.w	r3, [sp, #4]
 80007c4:	2234      	movs	r2, #52	; 0x34
 80007c6:	0a03      	lsrs	r3, r0, #8
 80007c8:	f88d 300a 	strb.w	r3, [sp, #10]
 80007cc:	f88d 2007 	strb.w	r2, [sp, #7]
 80007d0:	f88d 4008 	strb.w	r4, [sp, #8]
 80007d4:	f88d 4009 	strb.w	r4, [sp, #9]
 80007d8:	f88d 000b 	strb.w	r0, [sp, #11]
 80007dc:	ab04      	add	r3, sp, #16
 80007de:	e913 0007 	ldmdb	r3, {r0, r1, r2}
 80007e2:	b004      	add	sp, #16
 80007e4:	e8bd 4010 	ldmia.w	sp!, {r4, lr}
 80007e8:	f7ff be0a 	b.w	8000400 <CAN_Transmit_Message>

080007ec <HAL_CAN_RxFifo0MsgPendingCallback>:
 80007ec:	f7ff be46 	b.w	800047c <CAN_Message_Received>

080007f0 <HAL_TIM_PeriodElapsedCallback>:
 80007f0:	b510      	push	{r4, lr}
 80007f2:	4a09      	ldr	r2, [pc, #36]	; (8000818 <HAL_TIM_PeriodElapsedCallback+0x28>)
 80007f4:	7813      	ldrb	r3, [r2, #0]
 80007f6:	3301      	adds	r3, #1
 80007f8:	b2db      	uxtb	r3, r3
 80007fa:	2b3b      	cmp	r3, #59	; 0x3b
 80007fc:	d909      	bls.n	8000812 <HAL_TIM_PeriodElapsedCallback+0x22>
 80007fe:	2300      	movs	r3, #0
 8000800:	7013      	strb	r3, [r2, #0]
 8000802:	2401      	movs	r4, #1
 8000804:	b2e0      	uxtb	r0, r4
 8000806:	3401      	adds	r4, #1
 8000808:	f7ff ffd0 	bl	80007ac <TEMP_transmitTemperatureData>
 800080c:	2c0b      	cmp	r4, #11
 800080e:	d1f9      	bne.n	8000804 <HAL_TIM_PeriodElapsedCallback+0x14>
 8000810:	bd10      	pop	{r4, pc}
 8000812:	7013      	strb	r3, [r2, #0]
 8000814:	e7fc      	b.n	8000810 <HAL_TIM_PeriodElapsedCallback+0x20>
 8000816:	bf00      	nop
 8000818:	20000560 	.word	0x20000560

0800081c <SystemClock_Config>:
 800081c:	b500      	push	{lr}
 800081e:	b097      	sub	sp, #92	; 0x5c
 8000820:	2244      	movs	r2, #68	; 0x44
 8000822:	2100      	movs	r1, #0
 8000824:	a805      	add	r0, sp, #20
 8000826:	f002 ff0d 	bl	8003644 <memset>
 800082a:	2214      	movs	r2, #20
 800082c:	2100      	movs	r1, #0
 800082e:	4668      	mov	r0, sp
 8000830:	f002 ff08 	bl	8003644 <memset>
 8000834:	f44f 7000 	mov.w	r0, #512	; 0x200
 8000838:	f001 fd5e 	bl	80022f8 <HAL_PWREx_ControlVoltageScaling>
 800083c:	b108      	cbz	r0, 8000842 <SystemClock_Config+0x26>
 800083e:	b672      	cpsid	i
 8000840:	e7fe      	b.n	8000840 <SystemClock_Config+0x24>
 8000842:	2360      	movs	r3, #96	; 0x60
 8000844:	2110      	movs	r1, #16
 8000846:	2201      	movs	r2, #1
 8000848:	930d      	str	r3, [sp, #52]	; 0x34
 800084a:	2302      	movs	r3, #2
 800084c:	e9cd 200b 	strd	r2, r0, [sp, #44]	; 0x2c
 8000850:	e9cd 2111 	strd	r2, r1, [sp, #68]	; 0x44
 8000854:	e9cd 320f 	strd	r3, r2, [sp, #60]	; 0x3c
 8000858:	a805      	add	r0, sp, #20
 800085a:	2207      	movs	r2, #7
 800085c:	9105      	str	r1, [sp, #20]
 800085e:	e9cd 2313 	strd	r2, r3, [sp, #76]	; 0x4c
 8000862:	9315      	str	r3, [sp, #84]	; 0x54
 8000864:	f001 fe0e 	bl	8002484 <HAL_RCC_OscConfig>
 8000868:	4601      	mov	r1, r0
 800086a:	b108      	cbz	r0, 8000870 <SystemClock_Config+0x54>
 800086c:	b672      	cpsid	i
 800086e:	e7fe      	b.n	800086e <SystemClock_Config+0x52>
 8000870:	2303      	movs	r3, #3
 8000872:	220f      	movs	r2, #15
 8000874:	e9cd 2300 	strd	r2, r3, [sp]
 8000878:	23a0      	movs	r3, #160	; 0xa0
 800087a:	e9cd 3002 	strd	r3, r0, [sp, #8]
 800087e:	9004      	str	r0, [sp, #16]
 8000880:	4668      	mov	r0, sp
 8000882:	f002 f8a3 	bl	80029cc <HAL_RCC_ClockConfig>
 8000886:	b108      	cbz	r0, 800088c <SystemClock_Config+0x70>
 8000888:	b672      	cpsid	i
 800088a:	e7fe      	b.n	800088a <SystemClock_Config+0x6e>
 800088c:	b017      	add	sp, #92	; 0x5c
 800088e:	f85d fb04 	ldr.w	pc, [sp], #4
	...

08000894 <main>:
 8000894:	b5f0      	push	{r4, r5, r6, r7, lr}
 8000896:	b087      	sub	sp, #28
 8000898:	f000 f9dc 	bl	8000c54 <HAL_Init>
 800089c:	f7ff ffbe 	bl	800081c <SystemClock_Config>
 80008a0:	f7ff feb0 	bl	8000604 <MX_GPIO_Init>
 80008a4:	f7ff fc96 	bl	80001d4 <MX_ADC1_Init>
 80008a8:	f7ff fd32 	bl	8000310 <MX_CAN1_Init>
 80008ac:	f7ff ff12 	bl	80006d4 <MX_I2C1_Init>
 80008b0:	f000 f89a 	bl	80009e8 <MX_SPI3_Init>
 80008b4:	f000 f92a 	bl	8000b0c <MX_TIM2_Init>
 80008b8:	f002 fe32 	bl	8003520 <MAX7300_Init>
 80008bc:	4848      	ldr	r0, [pc, #288]	; (80009e0 <main+0x14c>)
 80008be:	4f48      	ldr	r7, [pc, #288]	; (80009e0 <main+0x14c>)
 80008c0:	f7ff fe4f 	bl	8000562 <CAN_Queue_Init>
 80008c4:	f7ff fd7a 	bl	80003bc <CAN_Init>
 80008c8:	466c      	mov	r4, sp
 80008ca:	2503      	movs	r5, #3
 80008cc:	f002 fe18 	bl	8003500 <MAX6822_Toggle_WDI>
 80008d0:	4638      	mov	r0, r7
 80008d2:	f7ff fe4a 	bl	800056a <CAN_Queue_IsEmpty>
 80008d6:	2800      	cmp	r0, #0
 80008d8:	d1f8      	bne.n	80008cc <main+0x38>
 80008da:	4621      	mov	r1, r4
 80008dc:	4638      	mov	r0, r7
 80008de:	f7ff fe75 	bl	80005cc <CAN_Queue_Dequeue>
 80008e2:	2301      	movs	r3, #1
 80008e4:	f88d 300e 	strb.w	r3, [sp, #14]
 80008e8:	f88d 300f 	strb.w	r3, [sp, #15]
 80008ec:	f89d 3003 	ldrb.w	r3, [sp, #3]
 80008f0:	f88d 500d 	strb.w	r5, [sp, #13]
 80008f4:	3ba0      	subs	r3, #160	; 0xa0
 80008f6:	2b06      	cmp	r3, #6
 80008f8:	d8e8      	bhi.n	80008cc <main+0x38>
 80008fa:	e8df f003 	tbb	[pc, r3]
 80008fe:	1604      	.short	0x1604
 8000900:	56483b2d 	.word	0x56483b2d
 8000904:	63          	.byte	0x63
 8000905:	00          	.byte	0x00
 8000906:	e894 0007 	ldmia.w	r4, {r0, r1, r2}
 800090a:	f7ff fe01 	bl	8000510 <CAN_Send_Default_ACK>
 800090e:	2300      	movs	r3, #0
 8000910:	f88d 300c 	strb.w	r3, [sp, #12]
 8000914:	23a0      	movs	r3, #160	; 0xa0
 8000916:	f88d 3010 	strb.w	r3, [sp, #16]
 800091a:	ab06      	add	r3, sp, #24
 800091c:	e913 0007 	ldmdb	r3, {r0, r1, r2}
 8000920:	f7ff fd6e 	bl	8000400 <CAN_Transmit_Message>
 8000924:	f002 fdf4 	bl	8003510 <MAX6822_Manual_Reset>
 8000928:	e7d0      	b.n	80008cc <main+0x38>
 800092a:	e894 0007 	ldmia.w	r4, {r0, r1, r2}
 800092e:	f7ff fdef 	bl	8000510 <CAN_Send_Default_ACK>
 8000932:	f89d 6004 	ldrb.w	r6, [sp, #4]
 8000936:	4630      	mov	r0, r6
 8000938:	f002 fd8a 	bl	8003450 <LED_enableLED>
 800093c:	230f      	movs	r3, #15
 800093e:	f88d 300c 	strb.w	r3, [sp, #12]
 8000942:	23a1      	movs	r3, #161	; 0xa1
 8000944:	f88d 3010 	strb.w	r3, [sp, #16]
 8000948:	f88d 6011 	strb.w	r6, [sp, #17]
 800094c:	ab06      	add	r3, sp, #24
 800094e:	e913 0007 	ldmdb	r3, {r0, r1, r2}
 8000952:	f7ff fd55 	bl	8000400 <CAN_Transmit_Message>
 8000956:	e7b9      	b.n	80008cc <main+0x38>
 8000958:	e894 0007 	ldmia.w	r4, {r0, r1, r2}
 800095c:	f7ff fdd8 	bl	8000510 <CAN_Send_Default_ACK>
 8000960:	f89d 6004 	ldrb.w	r6, [sp, #4]
 8000964:	4630      	mov	r0, r6
 8000966:	f002 fd7b 	bl	8003460 <LED_disableLED>
 800096a:	2307      	movs	r3, #7
 800096c:	f88d 300c 	strb.w	r3, [sp, #12]
 8000970:	23a2      	movs	r3, #162	; 0xa2
 8000972:	e7e7      	b.n	8000944 <main+0xb0>
 8000974:	e894 0007 	ldmia.w	r4, {r0, r1, r2}
 8000978:	f7ff fdca 	bl	8000510 <CAN_Send_Default_ACK>
 800097c:	f89d 6004 	ldrb.w	r6, [sp, #4]
 8000980:	4630      	mov	r0, r6
 8000982:	f002 fda5 	bl	80034d0 <THERM_enableThermostat>
 8000986:	f88d 500c 	strb.w	r5, [sp, #12]
 800098a:	23a3      	movs	r3, #163	; 0xa3
 800098c:	e7da      	b.n	8000944 <main+0xb0>
 800098e:	e894 0007 	ldmia.w	r4, {r0, r1, r2}
 8000992:	f7ff fdbd 	bl	8000510 <CAN_Send_Default_ACK>
 8000996:	f89d 6004 	ldrb.w	r6, [sp, #4]
 800099a:	4630      	mov	r0, r6
 800099c:	f002 fda4 	bl	80034e8 <THERM_disableThermostat>
 80009a0:	2301      	movs	r3, #1
 80009a2:	f88d 300c 	strb.w	r3, [sp, #12]
 80009a6:	23a4      	movs	r3, #164	; 0xa4
 80009a8:	e7cc      	b.n	8000944 <main+0xb0>
 80009aa:	e894 0007 	ldmia.w	r4, {r0, r1, r2}
 80009ae:	f7ff fdaf 	bl	8000510 <CAN_Send_Default_ACK>
 80009b2:	f89d 6004 	ldrb.w	r6, [sp, #4]
 80009b6:	4630      	mov	r0, r6
 80009b8:	f002 fd3a 	bl	8003430 <HEAT_enableHeater>
 80009bc:	f88d 500c 	strb.w	r5, [sp, #12]
 80009c0:	23a5      	movs	r3, #165	; 0xa5
 80009c2:	e7bf      	b.n	8000944 <main+0xb0>
 80009c4:	e894 0007 	ldmia.w	r4, {r0, r1, r2}
 80009c8:	f7ff fda2 	bl	8000510 <CAN_Send_Default_ACK>
 80009cc:	f89d 6004 	ldrb.w	r6, [sp, #4]
 80009d0:	4630      	mov	r0, r6
 80009d2:	f002 fd35 	bl	8003440 <HEAT_disableHeater>
 80009d6:	2301      	movs	r3, #1
 80009d8:	f88d 300c 	strb.w	r3, [sp, #12]
 80009dc:	23a6      	movs	r3, #166	; 0xa6
 80009de:	e7b1      	b.n	8000944 <main+0xb0>
 80009e0:	2000010c 	.word	0x2000010c

080009e4 <Error_Handler>:
 80009e4:	b672      	cpsid	i
 80009e6:	e7fe      	b.n	80009e6 <Error_Handler+0x2>

080009e8 <MX_SPI3_Init>:
 80009e8:	4810      	ldr	r0, [pc, #64]	; (8000a2c <MX_SPI3_Init+0x44>)
 80009ea:	4a11      	ldr	r2, [pc, #68]	; (8000a30 <MX_SPI3_Init+0x48>)
 80009ec:	b508      	push	{r3, lr}
 80009ee:	f44f 7382 	mov.w	r3, #260	; 0x104
 80009f2:	e9c0 2300 	strd	r2, r3, [r0]
 80009f6:	2300      	movs	r3, #0
 80009f8:	f44f 6270 	mov.w	r2, #3840	; 0xf00
 80009fc:	e9c0 3202 	strd	r3, r2, [r0, #8]
 8000a00:	f44f 7200 	mov.w	r2, #512	; 0x200
 8000a04:	e9c0 2306 	strd	r2, r3, [r0, #24]
 8000a08:	2207      	movs	r2, #7
 8000a0a:	e9c0 3304 	strd	r3, r3, [r0, #16]
 8000a0e:	e9c0 3308 	strd	r3, r3, [r0, #32]
 8000a12:	e9c0 230b 	strd	r2, r3, [r0, #44]	; 0x2c
 8000a16:	6283      	str	r3, [r0, #40]	; 0x28
 8000a18:	2308      	movs	r3, #8
 8000a1a:	6343      	str	r3, [r0, #52]	; 0x34
 8000a1c:	f002 fa98 	bl	8002f50 <HAL_SPI_Init>
 8000a20:	b118      	cbz	r0, 8000a2a <MX_SPI3_Init+0x42>
 8000a22:	e8bd 4008 	ldmia.w	sp!, {r3, lr}
 8000a26:	f7ff bfdd 	b.w	80009e4 <Error_Handler>
 8000a2a:	bd08      	pop	{r3, pc}
 8000a2c:	20000564 	.word	0x20000564
 8000a30:	40003c00 	.word	0x40003c00

08000a34 <HAL_SPI_MspInit>:
 8000a34:	b510      	push	{r4, lr}
 8000a36:	4604      	mov	r4, r0
 8000a38:	b088      	sub	sp, #32
 8000a3a:	2214      	movs	r2, #20
 8000a3c:	2100      	movs	r1, #0
 8000a3e:	a803      	add	r0, sp, #12
 8000a40:	f002 fe00 	bl	8003644 <memset>
 8000a44:	6822      	ldr	r2, [r4, #0]
 8000a46:	4b13      	ldr	r3, [pc, #76]	; (8000a94 <HAL_SPI_MspInit+0x60>)
 8000a48:	429a      	cmp	r2, r3
 8000a4a:	d120      	bne.n	8000a8e <HAL_SPI_MspInit+0x5a>
 8000a4c:	f503 33ea 	add.w	r3, r3, #119808	; 0x1d400
 8000a50:	2103      	movs	r1, #3
 8000a52:	6d9a      	ldr	r2, [r3, #88]	; 0x58
 8000a54:	4810      	ldr	r0, [pc, #64]	; (8000a98 <HAL_SPI_MspInit+0x64>)
 8000a56:	f442 4200 	orr.w	r2, r2, #32768	; 0x8000
 8000a5a:	659a      	str	r2, [r3, #88]	; 0x58
 8000a5c:	6d9a      	ldr	r2, [r3, #88]	; 0x58
 8000a5e:	f402 4200 	and.w	r2, r2, #32768	; 0x8000
 8000a62:	9201      	str	r2, [sp, #4]
 8000a64:	9a01      	ldr	r2, [sp, #4]
 8000a66:	6cda      	ldr	r2, [r3, #76]	; 0x4c
 8000a68:	f042 0204 	orr.w	r2, r2, #4
 8000a6c:	64da      	str	r2, [r3, #76]	; 0x4c
 8000a6e:	6cdb      	ldr	r3, [r3, #76]	; 0x4c
 8000a70:	f003 0304 	and.w	r3, r3, #4
 8000a74:	9302      	str	r3, [sp, #8]
 8000a76:	9b02      	ldr	r3, [sp, #8]
 8000a78:	f44f 52e0 	mov.w	r2, #7168	; 0x1c00
 8000a7c:	2302      	movs	r3, #2
 8000a7e:	e9cd 2303 	strd	r2, r3, [sp, #12]
 8000a82:	2306      	movs	r3, #6
 8000a84:	e9cd 1306 	strd	r1, r3, [sp, #24]
 8000a88:	a903      	add	r1, sp, #12
 8000a8a:	f001 f903 	bl	8001c94 <HAL_GPIO_Init>
 8000a8e:	b008      	add	sp, #32
 8000a90:	bd10      	pop	{r4, pc}
 8000a92:	bf00      	nop
 8000a94:	40003c00 	.word	0x40003c00
 8000a98:	48000800 	.word	0x48000800

08000a9c <HAL_MspInit>:
 8000a9c:	4b0a      	ldr	r3, [pc, #40]	; (8000ac8 <HAL_MspInit+0x2c>)
 8000a9e:	6e1a      	ldr	r2, [r3, #96]	; 0x60
 8000aa0:	f042 0201 	orr.w	r2, r2, #1
 8000aa4:	661a      	str	r2, [r3, #96]	; 0x60
 8000aa6:	6e1a      	ldr	r2, [r3, #96]	; 0x60
 8000aa8:	b082      	sub	sp, #8
 8000aaa:	f002 0201 	and.w	r2, r2, #1
 8000aae:	9200      	str	r2, [sp, #0]
 8000ab0:	9a00      	ldr	r2, [sp, #0]
 8000ab2:	6d9a      	ldr	r2, [r3, #88]	; 0x58
 8000ab4:	f042 5280 	orr.w	r2, r2, #268435456	; 0x10000000
 8000ab8:	659a      	str	r2, [r3, #88]	; 0x58
 8000aba:	6d9b      	ldr	r3, [r3, #88]	; 0x58
 8000abc:	f003 5380 	and.w	r3, r3, #268435456	; 0x10000000
 8000ac0:	9301      	str	r3, [sp, #4]
 8000ac2:	9b01      	ldr	r3, [sp, #4]
 8000ac4:	b002      	add	sp, #8
 8000ac6:	4770      	bx	lr
 8000ac8:	40021000 	.word	0x40021000

08000acc <NMI_Handler>:
 8000acc:	e7fe      	b.n	8000acc <NMI_Handler>

08000ace <HardFault_Handler>:
 8000ace:	e7fe      	b.n	8000ace <HardFault_Handler>

08000ad0 <MemManage_Handler>:
 8000ad0:	e7fe      	b.n	8000ad0 <MemManage_Handler>

08000ad2 <BusFault_Handler>:
 8000ad2:	e7fe      	b.n	8000ad2 <BusFault_Handler>

08000ad4 <UsageFault_Handler>:
 8000ad4:	e7fe      	b.n	8000ad4 <UsageFault_Handler>

08000ad6 <SVC_Handler>:
 8000ad6:	4770      	bx	lr

08000ad8 <DebugMon_Handler>:
 8000ad8:	4770      	bx	lr

08000ada <PendSV_Handler>:
 8000ada:	4770      	bx	lr

08000adc <SysTick_Handler>:
 8000adc:	f000 b8ca 	b.w	8000c74 <HAL_IncTick>

08000ae0 <CAN1_RX0_IRQHandler>:
 8000ae0:	4801      	ldr	r0, [pc, #4]	; (8000ae8 <CAN1_RX0_IRQHandler+0x8>)
 8000ae2:	f000 bf73 	b.w	80019cc <HAL_CAN_IRQHandler>
 8000ae6:	bf00      	nop
 8000ae8:	20000090 	.word	0x20000090

08000aec <TIM2_IRQHandler>:
 8000aec:	4801      	ldr	r0, [pc, #4]	; (8000af4 <TIM2_IRQHandler+0x8>)
 8000aee:	f002 ba9d 	b.w	800302c <HAL_TIM_IRQHandler>
 8000af2:	bf00      	nop
 8000af4:	200005c8 	.word	0x200005c8

08000af8 <SystemInit>:
 8000af8:	4a03      	ldr	r2, [pc, #12]	; (8000b08 <SystemInit+0x10>)
 8000afa:	f8d2 3088 	ldr.w	r3, [r2, #136]	; 0x88
 8000afe:	f443 0370 	orr.w	r3, r3, #15728640	; 0xf00000
 8000b02:	f8c2 3088 	str.w	r3, [r2, #136]	; 0x88
 8000b06:	4770      	bx	lr
 8000b08:	e000ed00 	.word	0xe000ed00

08000b0c <MX_TIM2_Init>:
 8000b0c:	b500      	push	{lr}
 8000b0e:	2210      	movs	r2, #16
 8000b10:	b089      	sub	sp, #36	; 0x24
 8000b12:	eb0d 0002 	add.w	r0, sp, r2
 8000b16:	2100      	movs	r1, #0
 8000b18:	f002 fd94 	bl	8003644 <memset>
 8000b1c:	4814      	ldr	r0, [pc, #80]	; (8000b70 <MX_TIM2_Init+0x64>)
 8000b1e:	2300      	movs	r3, #0
 8000b20:	f04f 4280 	mov.w	r2, #1073741824	; 0x40000000
 8000b24:	e9c0 2300 	strd	r2, r3, [r0]
 8000b28:	4a12      	ldr	r2, [pc, #72]	; (8000b74 <MX_TIM2_Init+0x68>)
 8000b2a:	9303      	str	r3, [sp, #12]
 8000b2c:	e9cd 3301 	strd	r3, r3, [sp, #4]
 8000b30:	e9c0 2303 	strd	r2, r3, [r0, #12]
 8000b34:	6083      	str	r3, [r0, #8]
 8000b36:	6183      	str	r3, [r0, #24]
 8000b38:	f002 fb6a 	bl	8003210 <HAL_TIM_Base_Init>
 8000b3c:	b108      	cbz	r0, 8000b42 <MX_TIM2_Init+0x36>
 8000b3e:	f7ff ff51 	bl	80009e4 <Error_Handler>
 8000b42:	f44f 5380 	mov.w	r3, #4096	; 0x1000
 8000b46:	480a      	ldr	r0, [pc, #40]	; (8000b70 <MX_TIM2_Init+0x64>)
 8000b48:	9304      	str	r3, [sp, #16]
 8000b4a:	a904      	add	r1, sp, #16
 8000b4c:	f002 fb9a 	bl	8003284 <HAL_TIM_ConfigClockSource>
 8000b50:	b108      	cbz	r0, 8000b56 <MX_TIM2_Init+0x4a>
 8000b52:	f7ff ff47 	bl	80009e4 <Error_Handler>
 8000b56:	2300      	movs	r3, #0
 8000b58:	4805      	ldr	r0, [pc, #20]	; (8000b70 <MX_TIM2_Init+0x64>)
 8000b5a:	9301      	str	r3, [sp, #4]
 8000b5c:	a901      	add	r1, sp, #4
 8000b5e:	9303      	str	r3, [sp, #12]
 8000b60:	f002 fc2c 	bl	80033bc <HAL_TIMEx_MasterConfigSynchronization>
 8000b64:	b108      	cbz	r0, 8000b6a <MX_TIM2_Init+0x5e>
 8000b66:	f7ff ff3d 	bl	80009e4 <Error_Handler>
 8000b6a:	b009      	add	sp, #36	; 0x24
 8000b6c:	f85d fb04 	ldr.w	pc, [sp], #4
 8000b70:	200005c8 	.word	0x200005c8
 8000b74:	003d0900 	.word	0x003d0900

08000b78 <HAL_TIM_Base_MspInit>:
 8000b78:	6803      	ldr	r3, [r0, #0]
 8000b7a:	f1b3 4f80 	cmp.w	r3, #1073741824	; 0x40000000
 8000b7e:	b507      	push	{r0, r1, r2, lr}
 8000b80:	d115      	bne.n	8000bae <HAL_TIM_Base_MspInit+0x36>
 8000b82:	f503 3304 	add.w	r3, r3, #135168	; 0x21000
 8000b86:	201c      	movs	r0, #28
 8000b88:	6d9a      	ldr	r2, [r3, #88]	; 0x58
 8000b8a:	f042 0201 	orr.w	r2, r2, #1
 8000b8e:	659a      	str	r2, [r3, #88]	; 0x58
 8000b90:	6d9b      	ldr	r3, [r3, #88]	; 0x58
 8000b92:	2200      	movs	r2, #0
 8000b94:	f003 0301 	and.w	r3, r3, #1
 8000b98:	9301      	str	r3, [sp, #4]
 8000b9a:	4611      	mov	r1, r2
 8000b9c:	9b01      	ldr	r3, [sp, #4]
 8000b9e:	f001 f825 	bl	8001bec <HAL_NVIC_SetPriority>
 8000ba2:	201c      	movs	r0, #28
 8000ba4:	b003      	add	sp, #12
 8000ba6:	f85d eb04 	ldr.w	lr, [sp], #4
 8000baa:	f001 b851 	b.w	8001c50 <HAL_NVIC_EnableIRQ>
 8000bae:	b003      	add	sp, #12
 8000bb0:	f85d fb04 	ldr.w	pc, [sp], #4

08000bb4 <Reset_Handler>:
 8000bb4:	f8df d034 	ldr.w	sp, [pc, #52]	; 8000bec <LoopForever+0x2>
 8000bb8:	f7ff ff9e 	bl	8000af8 <SystemInit>
 8000bbc:	480c      	ldr	r0, [pc, #48]	; (8000bf0 <LoopForever+0x6>)
 8000bbe:	490d      	ldr	r1, [pc, #52]	; (8000bf4 <LoopForever+0xa>)
 8000bc0:	4a0d      	ldr	r2, [pc, #52]	; (8000bf8 <LoopForever+0xe>)
 8000bc2:	2300      	movs	r3, #0
 8000bc4:	e002      	b.n	8000bcc <LoopCopyDataInit>

08000bc6 <CopyDataInit>:
 8000bc6:	58d4      	ldr	r4, [r2, r3]
 8000bc8:	50c4      	str	r4, [r0, r3]
 8000bca:	3304      	adds	r3, #4

08000bcc <LoopCopyDataInit>:
 8000bcc:	18c4      	adds	r4, r0, r3
 8000bce:	428c      	cmp	r4, r1
 8000bd0:	d3f9      	bcc.n	8000bc6 <CopyDataInit>
 8000bd2:	4a0a      	ldr	r2, [pc, #40]	; (8000bfc <LoopForever+0x12>)
 8000bd4:	4c0a      	ldr	r4, [pc, #40]	; (8000c00 <LoopForever+0x16>)
 8000bd6:	2300      	movs	r3, #0
 8000bd8:	e001      	b.n	8000bde <LoopFillZerobss>

08000bda <FillZerobss>:
 8000bda:	6013      	str	r3, [r2, #0]
 8000bdc:	3204      	adds	r2, #4

08000bde <LoopFillZerobss>:
 8000bde:	42a2      	cmp	r2, r4
 8000be0:	d3fb      	bcc.n	8000bda <FillZerobss>
 8000be2:	f002 fd0b 	bl	80035fc <__libc_init_array>
 8000be6:	f7ff fe55 	bl	8000894 <main>

08000bea <LoopForever>:
 8000bea:	e7fe      	b.n	8000bea <LoopForever>
 8000bec:	20028000 	.word	0x20028000
 8000bf0:	20000000 	.word	0x20000000
 8000bf4:	2000000c 	.word	0x2000000c
 8000bf8:	08003710 	.word	0x08003710
 8000bfc:	2000000c 	.word	0x2000000c
 8000c00:	200006b8 	.word	0x200006b8

08000c04 <ADC1_IRQHandler>:
 8000c04:	e7fe      	b.n	8000c04 <ADC1_IRQHandler>
	...

08000c08 <HAL_InitTick>:
 8000c08:	b538      	push	{r3, r4, r5, lr}
 8000c0a:	4b0f      	ldr	r3, [pc, #60]	; (8000c48 <HAL_InitTick+0x40>)
 8000c0c:	4605      	mov	r5, r0
 8000c0e:	7818      	ldrb	r0, [r3, #0]
 8000c10:	b908      	cbnz	r0, 8000c16 <HAL_InitTick+0xe>
 8000c12:	2001      	movs	r0, #1
 8000c14:	bd38      	pop	{r3, r4, r5, pc}
 8000c16:	4a0d      	ldr	r2, [pc, #52]	; (8000c4c <HAL_InitTick+0x44>)
 8000c18:	f44f 737a 	mov.w	r3, #1000	; 0x3e8
 8000c1c:	fbb3 f3f0 	udiv	r3, r3, r0
 8000c20:	6810      	ldr	r0, [r2, #0]
 8000c22:	fbb0 f0f3 	udiv	r0, r0, r3
 8000c26:	f001 f821 	bl	8001c6c <HAL_SYSTICK_Config>
 8000c2a:	4604      	mov	r4, r0
 8000c2c:	2800      	cmp	r0, #0
 8000c2e:	d1f0      	bne.n	8000c12 <HAL_InitTick+0xa>
 8000c30:	2d0f      	cmp	r5, #15
 8000c32:	d8ee      	bhi.n	8000c12 <HAL_InitTick+0xa>
 8000c34:	4602      	mov	r2, r0
 8000c36:	4629      	mov	r1, r5
 8000c38:	f04f 30ff 	mov.w	r0, #4294967295
 8000c3c:	f000 ffd6 	bl	8001bec <HAL_NVIC_SetPriority>
 8000c40:	4b03      	ldr	r3, [pc, #12]	; (8000c50 <HAL_InitTick+0x48>)
 8000c42:	4620      	mov	r0, r4
 8000c44:	601d      	str	r5, [r3, #0]
 8000c46:	e7e5      	b.n	8000c14 <HAL_InitTick+0xc>
 8000c48:	20000004 	.word	0x20000004
 8000c4c:	20000000 	.word	0x20000000
 8000c50:	20000008 	.word	0x20000008

08000c54 <HAL_Init>:
 8000c54:	b510      	push	{r4, lr}
 8000c56:	2003      	movs	r0, #3
 8000c58:	f000 ffb6 	bl	8001bc8 <HAL_NVIC_SetPriorityGrouping>
 8000c5c:	200f      	movs	r0, #15
 8000c5e:	f7ff ffd3 	bl	8000c08 <HAL_InitTick>
 8000c62:	4604      	mov	r4, r0
 8000c64:	b918      	cbnz	r0, 8000c6e <HAL_Init+0x1a>
 8000c66:	f7ff ff19 	bl	8000a9c <HAL_MspInit>
 8000c6a:	4620      	mov	r0, r4
 8000c6c:	bd10      	pop	{r4, pc}
 8000c6e:	2401      	movs	r4, #1
 8000c70:	e7fb      	b.n	8000c6a <HAL_Init+0x16>
	...

08000c74 <HAL_IncTick>:
 8000c74:	4a03      	ldr	r2, [pc, #12]	; (8000c84 <HAL_IncTick+0x10>)
 8000c76:	4b04      	ldr	r3, [pc, #16]	; (8000c88 <HAL_IncTick+0x14>)
 8000c78:	6811      	ldr	r1, [r2, #0]
 8000c7a:	781b      	ldrb	r3, [r3, #0]
 8000c7c:	440b      	add	r3, r1
 8000c7e:	6013      	str	r3, [r2, #0]
 8000c80:	4770      	bx	lr
 8000c82:	bf00      	nop
 8000c84:	20000614 	.word	0x20000614
 8000c88:	20000004 	.word	0x20000004

08000c8c <HAL_GetTick>:
 8000c8c:	4b01      	ldr	r3, [pc, #4]	; (8000c94 <HAL_GetTick+0x8>)
 8000c8e:	6818      	ldr	r0, [r3, #0]
 8000c90:	4770      	bx	lr
 8000c92:	bf00      	nop
 8000c94:	20000614 	.word	0x20000614

08000c98 <LL_ADC_SetChannelSamplingTime>:
 8000c98:	b530      	push	{r4, r5, lr}
 8000c9a:	0dcc      	lsrs	r4, r1, #23
 8000c9c:	f004 0404 	and.w	r4, r4, #4
 8000ca0:	3014      	adds	r0, #20
 8000ca2:	f3c1 5104 	ubfx	r1, r1, #20, #5
 8000ca6:	5823      	ldr	r3, [r4, r0]
 8000ca8:	2507      	movs	r5, #7
 8000caa:	408d      	lsls	r5, r1
 8000cac:	ea23 0305 	bic.w	r3, r3, r5
 8000cb0:	fa02 f101 	lsl.w	r1, r2, r1
 8000cb4:	430b      	orrs	r3, r1
 8000cb6:	5023      	str	r3, [r4, r0]
 8000cb8:	bd30      	pop	{r4, r5, pc}

08000cba <LL_ADC_REG_IsConversionOngoing>:
 8000cba:	6880      	ldr	r0, [r0, #8]
 8000cbc:	f3c0 0080 	ubfx	r0, r0, #2, #1
 8000cc0:	4770      	bx	lr
	...

08000cc4 <HAL_ADC_Init>:
 8000cc4:	b537      	push	{r0, r1, r2, r4, r5, lr}
 8000cc6:	2300      	movs	r3, #0
 8000cc8:	9301      	str	r3, [sp, #4]
 8000cca:	4604      	mov	r4, r0
 8000ccc:	2800      	cmp	r0, #0
 8000cce:	f000 80c1 	beq.w	8000e54 <HAL_ADC_Init+0x190>
 8000cd2:	6d85      	ldr	r5, [r0, #88]	; 0x58
 8000cd4:	b925      	cbnz	r5, 8000ce0 <HAL_ADC_Init+0x1c>
 8000cd6:	f7ff fab9 	bl	800024c <HAL_ADC_MspInit>
 8000cda:	65e5      	str	r5, [r4, #92]	; 0x5c
 8000cdc:	f884 5054 	strb.w	r5, [r4, #84]	; 0x54
 8000ce0:	6820      	ldr	r0, [r4, #0]
 8000ce2:	6883      	ldr	r3, [r0, #8]
 8000ce4:	009b      	lsls	r3, r3, #2
 8000ce6:	bf41      	itttt	mi
 8000ce8:	6883      	ldrmi	r3, [r0, #8]
 8000cea:	f023 4320 	bicmi.w	r3, r3, #2684354560	; 0xa0000000
 8000cee:	f023 033f 	bicmi.w	r3, r3, #63	; 0x3f
 8000cf2:	6083      	strmi	r3, [r0, #8]
 8000cf4:	6883      	ldr	r3, [r0, #8]
 8000cf6:	00dd      	lsls	r5, r3, #3
 8000cf8:	f140 808c 	bpl.w	8000e14 <HAL_ADC_Init+0x150>
 8000cfc:	6883      	ldr	r3, [r0, #8]
 8000cfe:	00d9      	lsls	r1, r3, #3
 8000d00:	f100 809f 	bmi.w	8000e42 <HAL_ADC_Init+0x17e>
 8000d04:	6da3      	ldr	r3, [r4, #88]	; 0x58
 8000d06:	f043 0310 	orr.w	r3, r3, #16
 8000d0a:	65a3      	str	r3, [r4, #88]	; 0x58
 8000d0c:	6de3      	ldr	r3, [r4, #92]	; 0x5c
 8000d0e:	f043 0301 	orr.w	r3, r3, #1
 8000d12:	65e3      	str	r3, [r4, #92]	; 0x5c
 8000d14:	2101      	movs	r1, #1
 8000d16:	f7ff ffd0 	bl	8000cba <LL_ADC_REG_IsConversionOngoing>
 8000d1a:	6da3      	ldr	r3, [r4, #88]	; 0x58
 8000d1c:	f003 0310 	and.w	r3, r3, #16
 8000d20:	4303      	orrs	r3, r0
 8000d22:	6da3      	ldr	r3, [r4, #88]	; 0x58
 8000d24:	f040 8093 	bne.w	8000e4e <HAL_ADC_Init+0x18a>
 8000d28:	f423 7381 	bic.w	r3, r3, #258	; 0x102
 8000d2c:	f043 0302 	orr.w	r3, r3, #2
 8000d30:	6820      	ldr	r0, [r4, #0]
 8000d32:	65a3      	str	r3, [r4, #88]	; 0x58
 8000d34:	6883      	ldr	r3, [r0, #8]
 8000d36:	07da      	lsls	r2, r3, #31
 8000d38:	d40a      	bmi.n	8000d50 <HAL_ADC_Init+0x8c>
 8000d3a:	4b47      	ldr	r3, [pc, #284]	; (8000e58 <HAL_ADC_Init+0x194>)
 8000d3c:	689b      	ldr	r3, [r3, #8]
 8000d3e:	07db      	lsls	r3, r3, #31
 8000d40:	d406      	bmi.n	8000d50 <HAL_ADC_Init+0x8c>
 8000d42:	4a46      	ldr	r2, [pc, #280]	; (8000e5c <HAL_ADC_Init+0x198>)
 8000d44:	6865      	ldr	r5, [r4, #4]
 8000d46:	6893      	ldr	r3, [r2, #8]
 8000d48:	f423 137c 	bic.w	r3, r3, #4128768	; 0x3f0000
 8000d4c:	432b      	orrs	r3, r5
 8000d4e:	6093      	str	r3, [r2, #8]
 8000d50:	68e5      	ldr	r5, [r4, #12]
 8000d52:	6b63      	ldr	r3, [r4, #52]	; 0x34
 8000d54:	f894 2020 	ldrb.w	r2, [r4, #32]
 8000d58:	432b      	orrs	r3, r5
 8000d5a:	68a5      	ldr	r5, [r4, #8]
 8000d5c:	432b      	orrs	r3, r5
 8000d5e:	7e65      	ldrb	r5, [r4, #25]
 8000d60:	2a01      	cmp	r2, #1
 8000d62:	ea43 3345 	orr.w	r3, r3, r5, lsl #13
 8000d66:	ea43 4302 	orr.w	r3, r3, r2, lsl #16
 8000d6a:	bf02      	ittt	eq
 8000d6c:	6a62      	ldreq	r2, [r4, #36]	; 0x24
 8000d6e:	f102 32ff 	addeq.w	r2, r2, #4294967295
 8000d72:	ea43 4342 	orreq.w	r3, r3, r2, lsl #17
 8000d76:	6aa2      	ldr	r2, [r4, #40]	; 0x28
 8000d78:	b122      	cbz	r2, 8000d84 <HAL_ADC_Init+0xc0>
 8000d7a:	6ae5      	ldr	r5, [r4, #44]	; 0x2c
 8000d7c:	f402 7270 	and.w	r2, r2, #960	; 0x3c0
 8000d80:	432a      	orrs	r2, r5
 8000d82:	4313      	orrs	r3, r2
 8000d84:	68c5      	ldr	r5, [r0, #12]
 8000d86:	4a36      	ldr	r2, [pc, #216]	; (8000e60 <HAL_ADC_Init+0x19c>)
 8000d88:	402a      	ands	r2, r5
 8000d8a:	4313      	orrs	r3, r2
 8000d8c:	60c3      	str	r3, [r0, #12]
 8000d8e:	f7ff ff94 	bl	8000cba <LL_ADC_REG_IsConversionOngoing>
 8000d92:	6823      	ldr	r3, [r4, #0]
 8000d94:	689a      	ldr	r2, [r3, #8]
 8000d96:	f002 0208 	and.w	r2, r2, #8
 8000d9a:	4302      	orrs	r2, r0
 8000d9c:	d122      	bne.n	8000de4 <HAL_ADC_Init+0x120>
 8000d9e:	f894 2030 	ldrb.w	r2, [r4, #48]	; 0x30
 8000da2:	7e25      	ldrb	r5, [r4, #24]
 8000da4:	68d8      	ldr	r0, [r3, #12]
 8000da6:	0052      	lsls	r2, r2, #1
 8000da8:	ea42 3285 	orr.w	r2, r2, r5, lsl #14
 8000dac:	6ce5      	ldr	r5, [r4, #76]	; 0x4c
 8000dae:	f420 4080 	bic.w	r0, r0, #16384	; 0x4000
 8000db2:	432a      	orrs	r2, r5
 8000db4:	f020 0006 	bic.w	r0, r0, #6
 8000db8:	4302      	orrs	r2, r0
 8000dba:	60da      	str	r2, [r3, #12]
 8000dbc:	f894 2038 	ldrb.w	r2, [r4, #56]	; 0x38
 8000dc0:	2a01      	cmp	r2, #1
 8000dc2:	d140      	bne.n	8000e46 <HAL_ADC_Init+0x182>
 8000dc4:	e9d4 250f 	ldrd	r2, r5, [r4, #60]	; 0x3c
 8000dc8:	6918      	ldr	r0, [r3, #16]
 8000dca:	f420 60ff 	bic.w	r0, r0, #2040	; 0x7f8
 8000dce:	f020 0004 	bic.w	r0, r0, #4
 8000dd2:	432a      	orrs	r2, r5
 8000dd4:	4302      	orrs	r2, r0
 8000dd6:	6c60      	ldr	r0, [r4, #68]	; 0x44
 8000dd8:	4302      	orrs	r2, r0
 8000dda:	6ca0      	ldr	r0, [r4, #72]	; 0x48
 8000ddc:	4302      	orrs	r2, r0
 8000dde:	f042 0201 	orr.w	r2, r2, #1
 8000de2:	611a      	str	r2, [r3, #16]
 8000de4:	6922      	ldr	r2, [r4, #16]
 8000de6:	2a01      	cmp	r2, #1
 8000de8:	bf05      	ittet	eq
 8000dea:	6b18      	ldreq	r0, [r3, #48]	; 0x30
 8000dec:	69e2      	ldreq	r2, [r4, #28]
 8000dee:	6b1a      	ldrne	r2, [r3, #48]	; 0x30
 8000df0:	f102 32ff 	addeq.w	r2, r2, #4294967295
 8000df4:	bf06      	itte	eq
 8000df6:	f020 000f 	biceq.w	r0, r0, #15
 8000dfa:	4302      	orreq	r2, r0
 8000dfc:	f022 020f 	bicne.w	r2, r2, #15
 8000e00:	631a      	str	r2, [r3, #48]	; 0x30
 8000e02:	6da3      	ldr	r3, [r4, #88]	; 0x58
 8000e04:	f023 0303 	bic.w	r3, r3, #3
 8000e08:	f043 0301 	orr.w	r3, r3, #1
 8000e0c:	65a3      	str	r3, [r4, #88]	; 0x58
 8000e0e:	4608      	mov	r0, r1
 8000e10:	b003      	add	sp, #12
 8000e12:	bd30      	pop	{r4, r5, pc}
 8000e14:	6883      	ldr	r3, [r0, #8]
 8000e16:	4a13      	ldr	r2, [pc, #76]	; (8000e64 <HAL_ADC_Init+0x1a0>)
 8000e18:	f023 4310 	bic.w	r3, r3, #2415919104	; 0x90000000
 8000e1c:	f023 033f 	bic.w	r3, r3, #63	; 0x3f
 8000e20:	f043 5380 	orr.w	r3, r3, #268435456	; 0x10000000
 8000e24:	6083      	str	r3, [r0, #8]
 8000e26:	4b10      	ldr	r3, [pc, #64]	; (8000e68 <HAL_ADC_Init+0x1a4>)
 8000e28:	681b      	ldr	r3, [r3, #0]
 8000e2a:	fbb3 f3f2 	udiv	r3, r3, r2
 8000e2e:	3301      	adds	r3, #1
 8000e30:	005b      	lsls	r3, r3, #1
 8000e32:	9301      	str	r3, [sp, #4]
 8000e34:	9b01      	ldr	r3, [sp, #4]
 8000e36:	2b00      	cmp	r3, #0
 8000e38:	f43f af60 	beq.w	8000cfc <HAL_ADC_Init+0x38>
 8000e3c:	9b01      	ldr	r3, [sp, #4]
 8000e3e:	3b01      	subs	r3, #1
 8000e40:	e7f7      	b.n	8000e32 <HAL_ADC_Init+0x16e>
 8000e42:	2100      	movs	r1, #0
 8000e44:	e767      	b.n	8000d16 <HAL_ADC_Init+0x52>
 8000e46:	691a      	ldr	r2, [r3, #16]
 8000e48:	f022 0201 	bic.w	r2, r2, #1
 8000e4c:	e7c9      	b.n	8000de2 <HAL_ADC_Init+0x11e>
 8000e4e:	f043 0310 	orr.w	r3, r3, #16
 8000e52:	65a3      	str	r3, [r4, #88]	; 0x58
 8000e54:	2101      	movs	r1, #1
 8000e56:	e7da      	b.n	8000e0e <HAL_ADC_Init+0x14a>
 8000e58:	50040000 	.word	0x50040000
 8000e5c:	50040300 	.word	0x50040300
 8000e60:	fff0c007 	.word	0xfff0c007
 8000e64:	00030d40 	.word	0x00030d40
 8000e68:	20000000 	.word	0x20000000

08000e6c <HAL_ADC_PollForConversion>:
 8000e6c:	b5f8      	push	{r3, r4, r5, r6, r7, lr}
 8000e6e:	6945      	ldr	r5, [r0, #20]
 8000e70:	2d08      	cmp	r5, #8
 8000e72:	4604      	mov	r4, r0
 8000e74:	460e      	mov	r6, r1
 8000e76:	d00a      	beq.n	8000e8e <HAL_ADC_PollForConversion+0x22>
 8000e78:	6803      	ldr	r3, [r0, #0]
 8000e7a:	68db      	ldr	r3, [r3, #12]
 8000e7c:	07dd      	lsls	r5, r3, #31
 8000e7e:	d505      	bpl.n	8000e8c <HAL_ADC_PollForConversion+0x20>
 8000e80:	6d83      	ldr	r3, [r0, #88]	; 0x58
 8000e82:	f043 0320 	orr.w	r3, r3, #32
 8000e86:	6583      	str	r3, [r0, #88]	; 0x58
 8000e88:	2001      	movs	r0, #1
 8000e8a:	bdf8      	pop	{r3, r4, r5, r6, r7, pc}
 8000e8c:	2504      	movs	r5, #4
 8000e8e:	f7ff fefd 	bl	8000c8c <HAL_GetTick>
 8000e92:	4607      	mov	r7, r0
 8000e94:	6823      	ldr	r3, [r4, #0]
 8000e96:	681a      	ldr	r2, [r3, #0]
 8000e98:	422a      	tst	r2, r5
 8000e9a:	d01d      	beq.n	8000ed8 <HAL_ADC_PollForConversion+0x6c>
 8000e9c:	6da2      	ldr	r2, [r4, #88]	; 0x58
 8000e9e:	f442 7200 	orr.w	r2, r2, #512	; 0x200
 8000ea2:	65a2      	str	r2, [r4, #88]	; 0x58
 8000ea4:	68da      	ldr	r2, [r3, #12]
 8000ea6:	f412 6f40 	tst.w	r2, #3072	; 0xc00
 8000eaa:	d10f      	bne.n	8000ecc <HAL_ADC_PollForConversion+0x60>
 8000eac:	7e62      	ldrb	r2, [r4, #25]
 8000eae:	b96a      	cbnz	r2, 8000ecc <HAL_ADC_PollForConversion+0x60>
 8000eb0:	681a      	ldr	r2, [r3, #0]
 8000eb2:	0711      	lsls	r1, r2, #28
 8000eb4:	d50a      	bpl.n	8000ecc <HAL_ADC_PollForConversion+0x60>
 8000eb6:	6da2      	ldr	r2, [r4, #88]	; 0x58
 8000eb8:	f422 7280 	bic.w	r2, r2, #256	; 0x100
 8000ebc:	65a2      	str	r2, [r4, #88]	; 0x58
 8000ebe:	6da2      	ldr	r2, [r4, #88]	; 0x58
 8000ec0:	04d2      	lsls	r2, r2, #19
 8000ec2:	bf5e      	ittt	pl
 8000ec4:	6da2      	ldrpl	r2, [r4, #88]	; 0x58
 8000ec6:	f042 0201 	orrpl.w	r2, r2, #1
 8000eca:	65a2      	strpl	r2, [r4, #88]	; 0x58
 8000ecc:	2d08      	cmp	r5, #8
 8000ece:	68d8      	ldr	r0, [r3, #12]
 8000ed0:	d117      	bne.n	8000f02 <HAL_ADC_PollForConversion+0x96>
 8000ed2:	601d      	str	r5, [r3, #0]
 8000ed4:	2000      	movs	r0, #0
 8000ed6:	e7d8      	b.n	8000e8a <HAL_ADC_PollForConversion+0x1e>
 8000ed8:	1c70      	adds	r0, r6, #1
 8000eda:	d0dc      	beq.n	8000e96 <HAL_ADC_PollForConversion+0x2a>
 8000edc:	f7ff fed6 	bl	8000c8c <HAL_GetTick>
 8000ee0:	1bc0      	subs	r0, r0, r7
 8000ee2:	42b0      	cmp	r0, r6
 8000ee4:	d801      	bhi.n	8000eea <HAL_ADC_PollForConversion+0x7e>
 8000ee6:	2e00      	cmp	r6, #0
 8000ee8:	d1d4      	bne.n	8000e94 <HAL_ADC_PollForConversion+0x28>
 8000eea:	6823      	ldr	r3, [r4, #0]
 8000eec:	681b      	ldr	r3, [r3, #0]
 8000eee:	402b      	ands	r3, r5
 8000ef0:	d1d0      	bne.n	8000e94 <HAL_ADC_PollForConversion+0x28>
 8000ef2:	6da2      	ldr	r2, [r4, #88]	; 0x58
 8000ef4:	f884 3054 	strb.w	r3, [r4, #84]	; 0x54
 8000ef8:	f042 0204 	orr.w	r2, r2, #4
 8000efc:	65a2      	str	r2, [r4, #88]	; 0x58
 8000efe:	2003      	movs	r0, #3
 8000f00:	e7c3      	b.n	8000e8a <HAL_ADC_PollForConversion+0x1e>
 8000f02:	f410 4080 	ands.w	r0, r0, #16384	; 0x4000
 8000f06:	d1e5      	bne.n	8000ed4 <HAL_ADC_PollForConversion+0x68>
 8000f08:	220c      	movs	r2, #12
 8000f0a:	601a      	str	r2, [r3, #0]
 8000f0c:	e7bd      	b.n	8000e8a <HAL_ADC_PollForConversion+0x1e>

08000f0e <HAL_ADC_GetValue>:
 8000f0e:	6803      	ldr	r3, [r0, #0]
 8000f10:	6c18      	ldr	r0, [r3, #64]	; 0x40
 8000f12:	4770      	bx	lr

08000f14 <HAL_ADC_ConfigChannel>:
 8000f14:	b5f7      	push	{r0, r1, r2, r4, r5, r6, r7, lr}
 8000f16:	2300      	movs	r3, #0
 8000f18:	9301      	str	r3, [sp, #4]
 8000f1a:	f890 3054 	ldrb.w	r3, [r0, #84]	; 0x54
 8000f1e:	2b01      	cmp	r3, #1
 8000f20:	4605      	mov	r5, r0
 8000f22:	460c      	mov	r4, r1
 8000f24:	f000 81a5 	beq.w	8001272 <HAL_ADC_ConfigChannel+0x35e>
 8000f28:	2301      	movs	r3, #1
 8000f2a:	f880 3054 	strb.w	r3, [r0, #84]	; 0x54
 8000f2e:	6800      	ldr	r0, [r0, #0]
 8000f30:	f7ff fec3 	bl	8000cba <LL_ADC_REG_IsConversionOngoing>
 8000f34:	2800      	cmp	r0, #0
 8000f36:	f040 8196 	bne.w	8001266 <HAL_ADC_ConfigChannel+0x352>
 8000f3a:	684b      	ldr	r3, [r1, #4]
 8000f3c:	2b05      	cmp	r3, #5
 8000f3e:	d809      	bhi.n	8000f54 <HAL_ADC_ConfigChannel+0x40>
 8000f40:	3b02      	subs	r3, #2
 8000f42:	2b03      	cmp	r3, #3
 8000f44:	f200 8094 	bhi.w	8001070 <HAL_ADC_ConfigChannel+0x15c>
 8000f48:	e8df f003 	tbb	[pc, r3]
 8000f4c:	8f8d8b02 	.word	0x8f8d8b02
 8000f50:	230c      	movs	r3, #12
 8000f52:	6063      	str	r3, [r4, #4]
 8000f54:	6862      	ldr	r2, [r4, #4]
 8000f56:	6828      	ldr	r0, [r5, #0]
 8000f58:	6823      	ldr	r3, [r4, #0]
 8000f5a:	0991      	lsrs	r1, r2, #6
 8000f5c:	f001 010c 	and.w	r1, r1, #12
 8000f60:	f100 0730 	add.w	r7, r0, #48	; 0x30
 8000f64:	f002 021f 	and.w	r2, r2, #31
 8000f68:	59ce      	ldr	r6, [r1, r7]
 8000f6a:	f04f 0c1f 	mov.w	ip, #31
 8000f6e:	f3c3 6384 	ubfx	r3, r3, #26, #5
 8000f72:	4093      	lsls	r3, r2
 8000f74:	fa0c f202 	lsl.w	r2, ip, r2
 8000f78:	ea26 0202 	bic.w	r2, r6, r2
 8000f7c:	4313      	orrs	r3, r2
 8000f7e:	51cb      	str	r3, [r1, r7]
 8000f80:	f7ff fe9b 	bl	8000cba <LL_ADC_REG_IsConversionOngoing>
 8000f84:	4601      	mov	r1, r0
 8000f86:	6828      	ldr	r0, [r5, #0]
 8000f88:	6882      	ldr	r2, [r0, #8]
 8000f8a:	f002 0208 	and.w	r2, r2, #8
 8000f8e:	430a      	orrs	r2, r1
 8000f90:	d124      	bne.n	8000fdc <HAL_ADC_ConfigChannel+0xc8>
 8000f92:	68a3      	ldr	r3, [r4, #8]
 8000f94:	6821      	ldr	r1, [r4, #0]
 8000f96:	f1b3 4f00 	cmp.w	r3, #2147483648	; 0x80000000
 8000f9a:	d16b      	bne.n	8001074 <HAL_ADC_ConfigChannel+0x160>
 8000f9c:	f7ff fe7c 	bl	8000c98 <LL_ADC_SetChannelSamplingTime>
 8000fa0:	682a      	ldr	r2, [r5, #0]
 8000fa2:	6953      	ldr	r3, [r2, #20]
 8000fa4:	f043 4300 	orr.w	r3, r3, #2147483648	; 0x80000000
 8000fa8:	6153      	str	r3, [r2, #20]
 8000faa:	6926      	ldr	r6, [r4, #16]
 8000fac:	6828      	ldr	r0, [r5, #0]
 8000fae:	6822      	ldr	r2, [r4, #0]
 8000fb0:	68c1      	ldr	r1, [r0, #12]
 8000fb2:	2e04      	cmp	r6, #4
 8000fb4:	f100 0360 	add.w	r3, r0, #96	; 0x60
 8000fb8:	d064      	beq.n	8001084 <HAL_ADC_ConfigChannel+0x170>
 8000fba:	f3c1 01c1 	ubfx	r1, r1, #3, #2
 8000fbe:	0048      	lsls	r0, r1, #1
 8000fc0:	6961      	ldr	r1, [r4, #20]
 8000fc2:	f853 7026 	ldr.w	r7, [r3, r6, lsl #2]
 8000fc6:	4081      	lsls	r1, r0
 8000fc8:	48ab      	ldr	r0, [pc, #684]	; (8001278 <HAL_ADC_ConfigChannel+0x364>)
 8000fca:	f002 42f8 	and.w	r2, r2, #2080374784	; 0x7c000000
 8000fce:	4038      	ands	r0, r7
 8000fd0:	4310      	orrs	r0, r2
 8000fd2:	4301      	orrs	r1, r0
 8000fd4:	f041 4100 	orr.w	r1, r1, #2147483648	; 0x80000000
 8000fd8:	f843 1026 	str.w	r1, [r3, r6, lsl #2]
 8000fdc:	6828      	ldr	r0, [r5, #0]
 8000fde:	6883      	ldr	r3, [r0, #8]
 8000fe0:	07d9      	lsls	r1, r3, #31
 8000fe2:	d433      	bmi.n	800104c <HAL_ADC_ConfigChannel+0x138>
 8000fe4:	68e7      	ldr	r7, [r4, #12]
 8000fe6:	6823      	ldr	r3, [r4, #0]
 8000fe8:	4aa4      	ldr	r2, [pc, #656]	; (800127c <HAL_ADC_ConfigChannel+0x368>)
 8000fea:	f8d0 10b0 	ldr.w	r1, [r0, #176]	; 0xb0
 8000fee:	f007 0c18 	and.w	ip, r7, #24
 8000ff2:	f3c3 0612 	ubfx	r6, r3, #0, #19
 8000ff6:	fa22 f20c 	lsr.w	r2, r2, ip
 8000ffa:	401a      	ands	r2, r3
 8000ffc:	ea21 0106 	bic.w	r1, r1, r6
 8001000:	430a      	orrs	r2, r1
 8001002:	f8c0 20b0 	str.w	r2, [r0, #176]	; 0xb0
 8001006:	4a9e      	ldr	r2, [pc, #632]	; (8001280 <HAL_ADC_ConfigChannel+0x36c>)
 8001008:	4297      	cmp	r7, r2
 800100a:	d11f      	bne.n	800104c <HAL_ADC_ConfigChannel+0x138>
 800100c:	2e00      	cmp	r6, #0
 800100e:	f040 808e 	bne.w	800112e <HAL_ADC_ConfigChannel+0x21a>
 8001012:	0e9a      	lsrs	r2, r3, #26
 8001014:	3201      	adds	r2, #1
 8001016:	f002 071f 	and.w	r7, r2, #31
 800101a:	2101      	movs	r1, #1
 800101c:	0692      	lsls	r2, r2, #26
 800101e:	2f09      	cmp	r7, #9
 8001020:	f002 42f8 	and.w	r2, r2, #2080374784	; 0x7c000000
 8001024:	fa01 f107 	lsl.w	r1, r1, r7
 8001028:	f200 80b3 	bhi.w	8001192 <HAL_ADC_ConfigChannel+0x27e>
 800102c:	430a      	orrs	r2, r1
 800102e:	2e00      	cmp	r6, #0
 8001030:	f040 8099 	bne.w	8001166 <HAL_ADC_ConfigChannel+0x252>
 8001034:	0e9b      	lsrs	r3, r3, #26
 8001036:	3301      	adds	r3, #1
 8001038:	f003 031f 	and.w	r3, r3, #31
 800103c:	eb03 0343 	add.w	r3, r3, r3, lsl #1
 8001040:	051b      	lsls	r3, r3, #20
 8001042:	ea42 0103 	orr.w	r1, r2, r3
 8001046:	68a2      	ldr	r2, [r4, #8]
 8001048:	f7ff fe26 	bl	8000c98 <LL_ADC_SetChannelSamplingTime>
 800104c:	6821      	ldr	r1, [r4, #0]
 800104e:	4b8d      	ldr	r3, [pc, #564]	; (8001284 <HAL_ADC_ConfigChannel+0x370>)
 8001050:	4219      	tst	r1, r3
 8001052:	f040 80b9 	bne.w	80011c8 <HAL_ADC_ConfigChannel+0x2b4>
 8001056:	2000      	movs	r0, #0
 8001058:	2300      	movs	r3, #0
 800105a:	f885 3054 	strb.w	r3, [r5, #84]	; 0x54
 800105e:	b003      	add	sp, #12
 8001060:	bdf0      	pop	{r4, r5, r6, r7, pc}
 8001062:	2312      	movs	r3, #18
 8001064:	e775      	b.n	8000f52 <HAL_ADC_ConfigChannel+0x3e>
 8001066:	2318      	movs	r3, #24
 8001068:	e773      	b.n	8000f52 <HAL_ADC_ConfigChannel+0x3e>
 800106a:	f44f 7380 	mov.w	r3, #256	; 0x100
 800106e:	e770      	b.n	8000f52 <HAL_ADC_ConfigChannel+0x3e>
 8001070:	2306      	movs	r3, #6
 8001072:	e76e      	b.n	8000f52 <HAL_ADC_ConfigChannel+0x3e>
 8001074:	461a      	mov	r2, r3
 8001076:	f7ff fe0f 	bl	8000c98 <LL_ADC_SetChannelSamplingTime>
 800107a:	682a      	ldr	r2, [r5, #0]
 800107c:	6953      	ldr	r3, [r2, #20]
 800107e:	f023 4300 	bic.w	r3, r3, #2147483648	; 0x80000000
 8001082:	e791      	b.n	8000fa8 <HAL_ADC_ConfigChannel+0x94>
 8001084:	6e01      	ldr	r1, [r0, #96]	; 0x60
 8001086:	6e01      	ldr	r1, [r0, #96]	; 0x60
 8001088:	f3c2 0612 	ubfx	r6, r2, #0, #19
 800108c:	f3c1 6184 	ubfx	r1, r1, #26, #5
 8001090:	2e00      	cmp	r6, #0
 8001092:	d138      	bne.n	8001106 <HAL_ADC_ConfigChannel+0x1f2>
 8001094:	f3c2 6284 	ubfx	r2, r2, #26, #5
 8001098:	4291      	cmp	r1, r2
 800109a:	bf02      	ittt	eq
 800109c:	6e02      	ldreq	r2, [r0, #96]	; 0x60
 800109e:	f022 4200 	biceq.w	r2, r2, #2147483648	; 0x80000000
 80010a2:	6602      	streq	r2, [r0, #96]	; 0x60
 80010a4:	685a      	ldr	r2, [r3, #4]
 80010a6:	6822      	ldr	r2, [r4, #0]
 80010a8:	6859      	ldr	r1, [r3, #4]
 80010aa:	f3c2 0012 	ubfx	r0, r2, #0, #19
 80010ae:	f3c1 6184 	ubfx	r1, r1, #26, #5
 80010b2:	bb68      	cbnz	r0, 8001110 <HAL_ADC_ConfigChannel+0x1fc>
 80010b4:	f3c2 6284 	ubfx	r2, r2, #26, #5
 80010b8:	4291      	cmp	r1, r2
 80010ba:	bf02      	ittt	eq
 80010bc:	685a      	ldreq	r2, [r3, #4]
 80010be:	f022 4200 	biceq.w	r2, r2, #2147483648	; 0x80000000
 80010c2:	605a      	streq	r2, [r3, #4]
 80010c4:	689a      	ldr	r2, [r3, #8]
 80010c6:	6822      	ldr	r2, [r4, #0]
 80010c8:	6899      	ldr	r1, [r3, #8]
 80010ca:	f3c2 0012 	ubfx	r0, r2, #0, #19
 80010ce:	f3c1 6184 	ubfx	r1, r1, #26, #5
 80010d2:	bb10      	cbnz	r0, 800111a <HAL_ADC_ConfigChannel+0x206>
 80010d4:	f3c2 6284 	ubfx	r2, r2, #26, #5
 80010d8:	4291      	cmp	r1, r2
 80010da:	bf02      	ittt	eq
 80010dc:	689a      	ldreq	r2, [r3, #8]
 80010de:	f022 4200 	biceq.w	r2, r2, #2147483648	; 0x80000000
 80010e2:	609a      	streq	r2, [r3, #8]
 80010e4:	68da      	ldr	r2, [r3, #12]
 80010e6:	6822      	ldr	r2, [r4, #0]
 80010e8:	68d9      	ldr	r1, [r3, #12]
 80010ea:	f3c2 0012 	ubfx	r0, r2, #0, #19
 80010ee:	f3c1 6184 	ubfx	r1, r1, #26, #5
 80010f2:	b9b8      	cbnz	r0, 8001124 <HAL_ADC_ConfigChannel+0x210>
 80010f4:	f3c2 6284 	ubfx	r2, r2, #26, #5
 80010f8:	4291      	cmp	r1, r2
 80010fa:	bf02      	ittt	eq
 80010fc:	68da      	ldreq	r2, [r3, #12]
 80010fe:	f022 4200 	biceq.w	r2, r2, #2147483648	; 0x80000000
 8001102:	60da      	streq	r2, [r3, #12]
 8001104:	e76a      	b.n	8000fdc <HAL_ADC_ConfigChannel+0xc8>
 8001106:	fa92 f2a2 	rbit	r2, r2
 800110a:	fab2 f282 	clz	r2, r2
 800110e:	e7c3      	b.n	8001098 <HAL_ADC_ConfigChannel+0x184>
 8001110:	fa92 f2a2 	rbit	r2, r2
 8001114:	fab2 f282 	clz	r2, r2
 8001118:	e7ce      	b.n	80010b8 <HAL_ADC_ConfigChannel+0x1a4>
 800111a:	fa92 f2a2 	rbit	r2, r2
 800111e:	fab2 f282 	clz	r2, r2
 8001122:	e7d9      	b.n	80010d8 <HAL_ADC_ConfigChannel+0x1c4>
 8001124:	fa92 f2a2 	rbit	r2, r2
 8001128:	fab2 f282 	clz	r2, r2
 800112c:	e7e4      	b.n	80010f8 <HAL_ADC_ConfigChannel+0x1e4>
 800112e:	fa93 f2a3 	rbit	r2, r3
 8001132:	b132      	cbz	r2, 8001142 <HAL_ADC_ConfigChannel+0x22e>
 8001134:	fab2 f282 	clz	r2, r2
 8001138:	3201      	adds	r2, #1
 800113a:	f002 021f 	and.w	r2, r2, #31
 800113e:	2a09      	cmp	r2, #9
 8001140:	d816      	bhi.n	8001170 <HAL_ADC_ConfigChannel+0x25c>
 8001142:	fa93 f2a3 	rbit	r2, r3
 8001146:	fab2 f282 	clz	r2, r2
 800114a:	3201      	adds	r2, #1
 800114c:	0692      	lsls	r2, r2, #26
 800114e:	f002 42f8 	and.w	r2, r2, #2080374784	; 0x7c000000
 8001152:	fa93 f1a3 	rbit	r1, r3
 8001156:	fab1 f181 	clz	r1, r1
 800115a:	3101      	adds	r1, #1
 800115c:	f001 071f 	and.w	r7, r1, #31
 8001160:	2101      	movs	r1, #1
 8001162:	40b9      	lsls	r1, r7
 8001164:	e762      	b.n	800102c <HAL_ADC_ConfigChannel+0x118>
 8001166:	fa93 f3a3 	rbit	r3, r3
 800116a:	fab3 f383 	clz	r3, r3
 800116e:	e762      	b.n	8001036 <HAL_ADC_ConfigChannel+0x122>
 8001170:	fa93 f2a3 	rbit	r2, r3
 8001174:	fab2 f282 	clz	r2, r2
 8001178:	3201      	adds	r2, #1
 800117a:	0692      	lsls	r2, r2, #26
 800117c:	f002 42f8 	and.w	r2, r2, #2080374784	; 0x7c000000
 8001180:	fa93 f1a3 	rbit	r1, r3
 8001184:	fab1 f181 	clz	r1, r1
 8001188:	3101      	adds	r1, #1
 800118a:	f001 071f 	and.w	r7, r1, #31
 800118e:	2101      	movs	r1, #1
 8001190:	40b9      	lsls	r1, r7
 8001192:	430a      	orrs	r2, r1
 8001194:	b95e      	cbnz	r6, 80011ae <HAL_ADC_ConfigChannel+0x29a>
 8001196:	0e9e      	lsrs	r6, r3, #26
 8001198:	3601      	adds	r6, #1
 800119a:	f006 061f 	and.w	r6, r6, #31
 800119e:	eb06 0146 	add.w	r1, r6, r6, lsl #1
 80011a2:	391e      	subs	r1, #30
 80011a4:	0509      	lsls	r1, r1, #20
 80011a6:	f041 7100 	orr.w	r1, r1, #33554432	; 0x2000000
 80011aa:	4311      	orrs	r1, r2
 80011ac:	e74b      	b.n	8001046 <HAL_ADC_ConfigChannel+0x132>
 80011ae:	fa93 f1a3 	rbit	r1, r3
 80011b2:	fab1 f181 	clz	r1, r1
 80011b6:	3101      	adds	r1, #1
 80011b8:	f001 031f 	and.w	r3, r1, #31
 80011bc:	f06f 061d 	mvn.w	r6, #29
 80011c0:	2103      	movs	r1, #3
 80011c2:	fb11 6103 	smlabb	r1, r1, r3, r6
 80011c6:	e7ed      	b.n	80011a4 <HAL_ADC_ConfigChannel+0x290>
 80011c8:	4b2f      	ldr	r3, [pc, #188]	; (8001288 <HAL_ADC_ConfigChannel+0x374>)
 80011ca:	4a30      	ldr	r2, [pc, #192]	; (800128c <HAL_ADC_ConfigChannel+0x378>)
 80011cc:	6898      	ldr	r0, [r3, #8]
 80011ce:	4291      	cmp	r1, r2
 80011d0:	f000 74e0 	and.w	r4, r0, #29360128	; 0x1c00000
 80011d4:	d11e      	bne.n	8001214 <HAL_ADC_ConfigChannel+0x300>
 80011d6:	0202      	lsls	r2, r0, #8
 80011d8:	f53f af3d 	bmi.w	8001056 <HAL_ADC_ConfigChannel+0x142>
 80011dc:	6829      	ldr	r1, [r5, #0]
 80011de:	4a2c      	ldr	r2, [pc, #176]	; (8001290 <HAL_ADC_ConfigChannel+0x37c>)
 80011e0:	4291      	cmp	r1, r2
 80011e2:	f47f af38 	bne.w	8001056 <HAL_ADC_ConfigChannel+0x142>
 80011e6:	689a      	ldr	r2, [r3, #8]
 80011e8:	f022 72e0 	bic.w	r2, r2, #29360128	; 0x1c00000
 80011ec:	4322      	orrs	r2, r4
 80011ee:	f442 0200 	orr.w	r2, r2, #8388608	; 0x800000
 80011f2:	609a      	str	r2, [r3, #8]
 80011f4:	4b27      	ldr	r3, [pc, #156]	; (8001294 <HAL_ADC_ConfigChannel+0x380>)
 80011f6:	4a28      	ldr	r2, [pc, #160]	; (8001298 <HAL_ADC_ConfigChannel+0x384>)
 80011f8:	681b      	ldr	r3, [r3, #0]
 80011fa:	fbb3 f2f2 	udiv	r2, r3, r2
 80011fe:	230c      	movs	r3, #12
 8001200:	fb02 3303 	mla	r3, r2, r3, r3
 8001204:	9301      	str	r3, [sp, #4]
 8001206:	9b01      	ldr	r3, [sp, #4]
 8001208:	2b00      	cmp	r3, #0
 800120a:	f43f af24 	beq.w	8001056 <HAL_ADC_ConfigChannel+0x142>
 800120e:	9b01      	ldr	r3, [sp, #4]
 8001210:	3b01      	subs	r3, #1
 8001212:	e7f7      	b.n	8001204 <HAL_ADC_ConfigChannel+0x2f0>
 8001214:	4a21      	ldr	r2, [pc, #132]	; (800129c <HAL_ADC_ConfigChannel+0x388>)
 8001216:	4291      	cmp	r1, r2
 8001218:	d111      	bne.n	800123e <HAL_ADC_ConfigChannel+0x32a>
 800121a:	f010 7080 	ands.w	r0, r0, #16777216	; 0x1000000
 800121e:	f47f af1a 	bne.w	8001056 <HAL_ADC_ConfigChannel+0x142>
 8001222:	6829      	ldr	r1, [r5, #0]
 8001224:	f1a2 42f7 	sub.w	r2, r2, #2071986176	; 0x7b800000
 8001228:	4291      	cmp	r1, r2
 800122a:	f47f af14 	bne.w	8001056 <HAL_ADC_ConfigChannel+0x142>
 800122e:	689a      	ldr	r2, [r3, #8]
 8001230:	f022 72e0 	bic.w	r2, r2, #29360128	; 0x1c00000
 8001234:	4322      	orrs	r2, r4
 8001236:	f042 7280 	orr.w	r2, r2, #16777216	; 0x1000000
 800123a:	609a      	str	r2, [r3, #8]
 800123c:	e70c      	b.n	8001058 <HAL_ADC_ConfigChannel+0x144>
 800123e:	4a18      	ldr	r2, [pc, #96]	; (80012a0 <HAL_ADC_ConfigChannel+0x38c>)
 8001240:	4291      	cmp	r1, r2
 8001242:	f47f af08 	bne.w	8001056 <HAL_ADC_ConfigChannel+0x142>
 8001246:	f410 0080 	ands.w	r0, r0, #4194304	; 0x400000
 800124a:	f47f af04 	bne.w	8001056 <HAL_ADC_ConfigChannel+0x142>
 800124e:	6829      	ldr	r1, [r5, #0]
 8001250:	4a0f      	ldr	r2, [pc, #60]	; (8001290 <HAL_ADC_ConfigChannel+0x37c>)
 8001252:	4291      	cmp	r1, r2
 8001254:	f47f aeff 	bne.w	8001056 <HAL_ADC_ConfigChannel+0x142>
 8001258:	689a      	ldr	r2, [r3, #8]
 800125a:	f022 72e0 	bic.w	r2, r2, #29360128	; 0x1c00000
 800125e:	4322      	orrs	r2, r4
 8001260:	f442 0280 	orr.w	r2, r2, #4194304	; 0x400000
 8001264:	e7e9      	b.n	800123a <HAL_ADC_ConfigChannel+0x326>
 8001266:	6daa      	ldr	r2, [r5, #88]	; 0x58
 8001268:	f042 0220 	orr.w	r2, r2, #32
 800126c:	65aa      	str	r2, [r5, #88]	; 0x58
 800126e:	4618      	mov	r0, r3
 8001270:	e6f2      	b.n	8001058 <HAL_ADC_ConfigChannel+0x144>
 8001272:	2002      	movs	r0, #2
 8001274:	e6f3      	b.n	800105e <HAL_ADC_ConfigChannel+0x14a>
 8001276:	bf00      	nop
 8001278:	03fff000 	.word	0x03fff000
 800127c:	0007ffff 	.word	0x0007ffff
 8001280:	407f0000 	.word	0x407f0000
 8001284:	80080000 	.word	0x80080000
 8001288:	50040300 	.word	0x50040300
 800128c:	c7520000 	.word	0xc7520000
 8001290:	50040000 	.word	0x50040000
 8001294:	20000000 	.word	0x20000000
 8001298:	00030d40 	.word	0x00030d40
 800129c:	cb840000 	.word	0xcb840000
 80012a0:	80000001 	.word	0x80000001

080012a4 <ADC_ConversionStop>:
 80012a4:	b570      	push	{r4, r5, r6, lr}
 80012a6:	4604      	mov	r4, r0
 80012a8:	6800      	ldr	r0, [r0, #0]
 80012aa:	f7ff fd06 	bl	8000cba <LL_ADC_REG_IsConversionOngoing>
 80012ae:	6823      	ldr	r3, [r4, #0]
 80012b0:	689a      	ldr	r2, [r3, #8]
 80012b2:	f002 0208 	and.w	r2, r2, #8
 80012b6:	4302      	orrs	r2, r0
 80012b8:	d101      	bne.n	80012be <ADC_ConversionStop+0x1a>
 80012ba:	2000      	movs	r0, #0
 80012bc:	bd70      	pop	{r4, r5, r6, pc}
 80012be:	68da      	ldr	r2, [r3, #12]
 80012c0:	0190      	lsls	r0, r2, #6
 80012c2:	d52b      	bpl.n	800131c <ADC_ConversionStop+0x78>
 80012c4:	8b20      	ldrh	r0, [r4, #24]
 80012c6:	f240 1201 	movw	r2, #257	; 0x101
 80012ca:	4290      	cmp	r0, r2
 80012cc:	d126      	bne.n	800131c <ADC_ConversionStop+0x78>
 80012ce:	4a28      	ldr	r2, [pc, #160]	; (8001370 <ADC_ConversionStop+0xcc>)
 80012d0:	6819      	ldr	r1, [r3, #0]
 80012d2:	0649      	lsls	r1, r1, #25
 80012d4:	d516      	bpl.n	8001304 <ADC_ConversionStop+0x60>
 80012d6:	2240      	movs	r2, #64	; 0x40
 80012d8:	601a      	str	r2, [r3, #0]
 80012da:	2101      	movs	r1, #1
 80012dc:	4618      	mov	r0, r3
 80012de:	f7ff fcec 	bl	8000cba <LL_ADC_REG_IsConversionOngoing>
 80012e2:	b158      	cbz	r0, 80012fc <ADC_ConversionStop+0x58>
 80012e4:	6822      	ldr	r2, [r4, #0]
 80012e6:	6893      	ldr	r3, [r2, #8]
 80012e8:	079e      	lsls	r6, r3, #30
 80012ea:	d407      	bmi.n	80012fc <ADC_ConversionStop+0x58>
 80012ec:	6893      	ldr	r3, [r2, #8]
 80012ee:	f023 4300 	bic.w	r3, r3, #2147483648	; 0x80000000
 80012f2:	f023 033f 	bic.w	r3, r3, #63	; 0x3f
 80012f6:	f043 0310 	orr.w	r3, r3, #16
 80012fa:	6093      	str	r3, [r2, #8]
 80012fc:	2901      	cmp	r1, #1
 80012fe:	d10f      	bne.n	8001320 <ADC_ConversionStop+0x7c>
 8001300:	2504      	movs	r5, #4
 8001302:	e022      	b.n	800134a <ADC_ConversionStop+0xa6>
 8001304:	3a01      	subs	r2, #1
 8001306:	d1e3      	bne.n	80012d0 <ADC_ConversionStop+0x2c>
 8001308:	6da3      	ldr	r3, [r4, #88]	; 0x58
 800130a:	f043 0310 	orr.w	r3, r3, #16
 800130e:	65a3      	str	r3, [r4, #88]	; 0x58
 8001310:	6de3      	ldr	r3, [r4, #92]	; 0x5c
 8001312:	f043 0301 	orr.w	r3, r3, #1
 8001316:	65e3      	str	r3, [r4, #92]	; 0x5c
 8001318:	2001      	movs	r0, #1
 800131a:	e7cf      	b.n	80012bc <ADC_ConversionStop+0x18>
 800131c:	2902      	cmp	r1, #2
 800131e:	d1dd      	bne.n	80012dc <ADC_ConversionStop+0x38>
 8001320:	6822      	ldr	r2, [r4, #0]
 8001322:	6893      	ldr	r3, [r2, #8]
 8001324:	0718      	lsls	r0, r3, #28
 8001326:	d50a      	bpl.n	800133e <ADC_ConversionStop+0x9a>
 8001328:	6893      	ldr	r3, [r2, #8]
 800132a:	079b      	lsls	r3, r3, #30
 800132c:	d407      	bmi.n	800133e <ADC_ConversionStop+0x9a>
 800132e:	6893      	ldr	r3, [r2, #8]
 8001330:	f023 4300 	bic.w	r3, r3, #2147483648	; 0x80000000
 8001334:	f023 033f 	bic.w	r3, r3, #63	; 0x3f
 8001338:	f043 0320 	orr.w	r3, r3, #32
 800133c:	6093      	str	r3, [r2, #8]
 800133e:	2902      	cmp	r1, #2
 8001340:	d014      	beq.n	800136c <ADC_ConversionStop+0xc8>
 8001342:	2903      	cmp	r1, #3
 8001344:	bf14      	ite	ne
 8001346:	2504      	movne	r5, #4
 8001348:	250c      	moveq	r5, #12
 800134a:	f7ff fc9f 	bl	8000c8c <HAL_GetTick>
 800134e:	4606      	mov	r6, r0
 8001350:	6823      	ldr	r3, [r4, #0]
 8001352:	689b      	ldr	r3, [r3, #8]
 8001354:	422b      	tst	r3, r5
 8001356:	d0b0      	beq.n	80012ba <ADC_ConversionStop+0x16>
 8001358:	f7ff fc98 	bl	8000c8c <HAL_GetTick>
 800135c:	1b80      	subs	r0, r0, r6
 800135e:	2805      	cmp	r0, #5
 8001360:	d9f6      	bls.n	8001350 <ADC_ConversionStop+0xac>
 8001362:	6823      	ldr	r3, [r4, #0]
 8001364:	689b      	ldr	r3, [r3, #8]
 8001366:	422b      	tst	r3, r5
 8001368:	d0f2      	beq.n	8001350 <ADC_ConversionStop+0xac>
 800136a:	e7cd      	b.n	8001308 <ADC_ConversionStop+0x64>
 800136c:	2508      	movs	r5, #8
 800136e:	e7ec      	b.n	800134a <ADC_ConversionStop+0xa6>
 8001370:	a3400001 	.word	0xa3400001

08001374 <ADC_Enable>:
 8001374:	b573      	push	{r0, r1, r4, r5, r6, lr}
 8001376:	2300      	movs	r3, #0
 8001378:	6802      	ldr	r2, [r0, #0]
 800137a:	9301      	str	r3, [sp, #4]
 800137c:	6893      	ldr	r3, [r2, #8]
 800137e:	07dd      	lsls	r5, r3, #31
 8001380:	4604      	mov	r4, r0
 8001382:	d502      	bpl.n	800138a <ADC_Enable+0x16>
 8001384:	2000      	movs	r0, #0
 8001386:	b002      	add	sp, #8
 8001388:	bd70      	pop	{r4, r5, r6, pc}
 800138a:	6891      	ldr	r1, [r2, #8]
 800138c:	4b20      	ldr	r3, [pc, #128]	; (8001410 <ADC_Enable+0x9c>)
 800138e:	4219      	tst	r1, r3
 8001390:	d009      	beq.n	80013a6 <ADC_Enable+0x32>
 8001392:	6da3      	ldr	r3, [r4, #88]	; 0x58
 8001394:	f043 0310 	orr.w	r3, r3, #16
 8001398:	65a3      	str	r3, [r4, #88]	; 0x58
 800139a:	6de3      	ldr	r3, [r4, #92]	; 0x5c
 800139c:	f043 0301 	orr.w	r3, r3, #1
 80013a0:	65e3      	str	r3, [r4, #92]	; 0x5c
 80013a2:	2001      	movs	r0, #1
 80013a4:	e7ef      	b.n	8001386 <ADC_Enable+0x12>
 80013a6:	6893      	ldr	r3, [r2, #8]
 80013a8:	f023 4300 	bic.w	r3, r3, #2147483648	; 0x80000000
 80013ac:	f023 033f 	bic.w	r3, r3, #63	; 0x3f
 80013b0:	f043 0301 	orr.w	r3, r3, #1
 80013b4:	6093      	str	r3, [r2, #8]
 80013b6:	4b17      	ldr	r3, [pc, #92]	; (8001414 <ADC_Enable+0xa0>)
 80013b8:	689b      	ldr	r3, [r3, #8]
 80013ba:	0218      	lsls	r0, r3, #8
 80013bc:	d419      	bmi.n	80013f2 <ADC_Enable+0x7e>
 80013be:	f7ff fc65 	bl	8000c8c <HAL_GetTick>
 80013c2:	4e15      	ldr	r6, [pc, #84]	; (8001418 <ADC_Enable+0xa4>)
 80013c4:	4605      	mov	r5, r0
 80013c6:	6822      	ldr	r2, [r4, #0]
 80013c8:	6813      	ldr	r3, [r2, #0]
 80013ca:	07db      	lsls	r3, r3, #31
 80013cc:	d4da      	bmi.n	8001384 <ADC_Enable+0x10>
 80013ce:	6893      	ldr	r3, [r2, #8]
 80013d0:	07d9      	lsls	r1, r3, #31
 80013d2:	bf5f      	itttt	pl
 80013d4:	6893      	ldrpl	r3, [r2, #8]
 80013d6:	4033      	andpl	r3, r6
 80013d8:	f043 0301 	orrpl.w	r3, r3, #1
 80013dc:	6093      	strpl	r3, [r2, #8]
 80013de:	f7ff fc55 	bl	8000c8c <HAL_GetTick>
 80013e2:	1b40      	subs	r0, r0, r5
 80013e4:	2802      	cmp	r0, #2
 80013e6:	d9ee      	bls.n	80013c6 <ADC_Enable+0x52>
 80013e8:	6823      	ldr	r3, [r4, #0]
 80013ea:	681b      	ldr	r3, [r3, #0]
 80013ec:	07da      	lsls	r2, r3, #31
 80013ee:	d4ea      	bmi.n	80013c6 <ADC_Enable+0x52>
 80013f0:	e7cf      	b.n	8001392 <ADC_Enable+0x1e>
 80013f2:	4b0a      	ldr	r3, [pc, #40]	; (800141c <ADC_Enable+0xa8>)
 80013f4:	4a0a      	ldr	r2, [pc, #40]	; (8001420 <ADC_Enable+0xac>)
 80013f6:	681b      	ldr	r3, [r3, #0]
 80013f8:	fbb3 f2f2 	udiv	r2, r3, r2
 80013fc:	230c      	movs	r3, #12
 80013fe:	fb02 3303 	mla	r3, r2, r3, r3
 8001402:	9301      	str	r3, [sp, #4]
 8001404:	9b01      	ldr	r3, [sp, #4]
 8001406:	2b00      	cmp	r3, #0
 8001408:	d0d9      	beq.n	80013be <ADC_Enable+0x4a>
 800140a:	9b01      	ldr	r3, [sp, #4]
 800140c:	3b01      	subs	r3, #1
 800140e:	e7f8      	b.n	8001402 <ADC_Enable+0x8e>
 8001410:	8000003f 	.word	0x8000003f
 8001414:	50040300 	.word	0x50040300
 8001418:	7fffffc0 	.word	0x7fffffc0
 800141c:	20000000 	.word	0x20000000
 8001420:	00030d40 	.word	0x00030d40

08001424 <HAL_ADC_Start>:
 8001424:	b538      	push	{r3, r4, r5, lr}
 8001426:	4604      	mov	r4, r0
 8001428:	6800      	ldr	r0, [r0, #0]
 800142a:	f7ff fc46 	bl	8000cba <LL_ADC_REG_IsConversionOngoing>
 800142e:	4605      	mov	r5, r0
 8001430:	2800      	cmp	r0, #0
 8001432:	d136      	bne.n	80014a2 <HAL_ADC_Start+0x7e>
 8001434:	f894 3054 	ldrb.w	r3, [r4, #84]	; 0x54
 8001438:	2b01      	cmp	r3, #1
 800143a:	d032      	beq.n	80014a2 <HAL_ADC_Start+0x7e>
 800143c:	2301      	movs	r3, #1
 800143e:	f884 3054 	strb.w	r3, [r4, #84]	; 0x54
 8001442:	4620      	mov	r0, r4
 8001444:	f7ff ff96 	bl	8001374 <ADC_Enable>
 8001448:	bb40      	cbnz	r0, 800149c <HAL_ADC_Start+0x78>
 800144a:	6da3      	ldr	r3, [r4, #88]	; 0x58
 800144c:	f423 6370 	bic.w	r3, r3, #3840	; 0xf00
 8001450:	f023 0301 	bic.w	r3, r3, #1
 8001454:	f443 7380 	orr.w	r3, r3, #256	; 0x100
 8001458:	65a3      	str	r3, [r4, #88]	; 0x58
 800145a:	6da3      	ldr	r3, [r4, #88]	; 0x58
 800145c:	04da      	lsls	r2, r3, #19
 800145e:	bf48      	it	mi
 8001460:	6de3      	ldrmi	r3, [r4, #92]	; 0x5c
 8001462:	6822      	ldr	r2, [r4, #0]
 8001464:	bf52      	itee	pl
 8001466:	65e0      	strpl	r0, [r4, #92]	; 0x5c
 8001468:	f023 0306 	bicmi.w	r3, r3, #6
 800146c:	65e3      	strmi	r3, [r4, #92]	; 0x5c
 800146e:	231c      	movs	r3, #28
 8001470:	6013      	str	r3, [r2, #0]
 8001472:	2300      	movs	r3, #0
 8001474:	f884 3054 	strb.w	r3, [r4, #84]	; 0x54
 8001478:	68d3      	ldr	r3, [r2, #12]
 800147a:	019b      	lsls	r3, r3, #6
 800147c:	bf41      	itttt	mi
 800147e:	6da3      	ldrmi	r3, [r4, #88]	; 0x58
 8001480:	f423 5340 	bicmi.w	r3, r3, #12288	; 0x3000
 8001484:	f443 5380 	orrmi.w	r3, r3, #4096	; 0x1000
 8001488:	65a3      	strmi	r3, [r4, #88]	; 0x58
 800148a:	6893      	ldr	r3, [r2, #8]
 800148c:	f023 4300 	bic.w	r3, r3, #2147483648	; 0x80000000
 8001490:	f023 033f 	bic.w	r3, r3, #63	; 0x3f
 8001494:	f043 0304 	orr.w	r3, r3, #4
 8001498:	6093      	str	r3, [r2, #8]
 800149a:	bd38      	pop	{r3, r4, r5, pc}
 800149c:	f884 5054 	strb.w	r5, [r4, #84]	; 0x54
 80014a0:	e7fb      	b.n	800149a <HAL_ADC_Start+0x76>
 80014a2:	2002      	movs	r0, #2
 80014a4:	e7f9      	b.n	800149a <HAL_ADC_Start+0x76>

080014a6 <ADC_Disable>:
 80014a6:	6802      	ldr	r2, [r0, #0]
 80014a8:	b538      	push	{r3, r4, r5, lr}
 80014aa:	6893      	ldr	r3, [r2, #8]
 80014ac:	6891      	ldr	r1, [r2, #8]
 80014ae:	4604      	mov	r4, r0
 80014b0:	07c8      	lsls	r0, r1, #31
 80014b2:	d401      	bmi.n	80014b8 <ADC_Disable+0x12>
 80014b4:	2000      	movs	r0, #0
 80014b6:	bd38      	pop	{r3, r4, r5, pc}
 80014b8:	0799      	lsls	r1, r3, #30
 80014ba:	d4fb      	bmi.n	80014b4 <ADC_Disable+0xe>
 80014bc:	6893      	ldr	r3, [r2, #8]
 80014be:	f003 030d 	and.w	r3, r3, #13
 80014c2:	2b01      	cmp	r3, #1
 80014c4:	d119      	bne.n	80014fa <ADC_Disable+0x54>
 80014c6:	6893      	ldr	r3, [r2, #8]
 80014c8:	f023 4300 	bic.w	r3, r3, #2147483648	; 0x80000000
 80014cc:	f023 033f 	bic.w	r3, r3, #63	; 0x3f
 80014d0:	f043 0302 	orr.w	r3, r3, #2
 80014d4:	6093      	str	r3, [r2, #8]
 80014d6:	2303      	movs	r3, #3
 80014d8:	6013      	str	r3, [r2, #0]
 80014da:	f7ff fbd7 	bl	8000c8c <HAL_GetTick>
 80014de:	4605      	mov	r5, r0
 80014e0:	6823      	ldr	r3, [r4, #0]
 80014e2:	689b      	ldr	r3, [r3, #8]
 80014e4:	07db      	lsls	r3, r3, #31
 80014e6:	d5e5      	bpl.n	80014b4 <ADC_Disable+0xe>
 80014e8:	f7ff fbd0 	bl	8000c8c <HAL_GetTick>
 80014ec:	1b40      	subs	r0, r0, r5
 80014ee:	2802      	cmp	r0, #2
 80014f0:	d9f6      	bls.n	80014e0 <ADC_Disable+0x3a>
 80014f2:	6823      	ldr	r3, [r4, #0]
 80014f4:	689b      	ldr	r3, [r3, #8]
 80014f6:	07da      	lsls	r2, r3, #31
 80014f8:	d5f2      	bpl.n	80014e0 <ADC_Disable+0x3a>
 80014fa:	6da3      	ldr	r3, [r4, #88]	; 0x58
 80014fc:	f043 0310 	orr.w	r3, r3, #16
 8001500:	65a3      	str	r3, [r4, #88]	; 0x58
 8001502:	6de3      	ldr	r3, [r4, #92]	; 0x5c
 8001504:	f043 0301 	orr.w	r3, r3, #1
 8001508:	65e3      	str	r3, [r4, #92]	; 0x5c
 800150a:	2001      	movs	r0, #1
 800150c:	e7d3      	b.n	80014b6 <ADC_Disable+0x10>

0800150e <HAL_ADC_Stop>:
 800150e:	b510      	push	{r4, lr}
 8001510:	f890 3054 	ldrb.w	r3, [r0, #84]	; 0x54
 8001514:	2b01      	cmp	r3, #1
 8001516:	4604      	mov	r4, r0
 8001518:	d016      	beq.n	8001548 <HAL_ADC_Stop+0x3a>
 800151a:	2301      	movs	r3, #1
 800151c:	f880 3054 	strb.w	r3, [r0, #84]	; 0x54
 8001520:	2103      	movs	r1, #3
 8001522:	f7ff febf 	bl	80012a4 <ADC_ConversionStop>
 8001526:	b958      	cbnz	r0, 8001540 <HAL_ADC_Stop+0x32>
 8001528:	4620      	mov	r0, r4
 800152a:	f7ff ffbc 	bl	80014a6 <ADC_Disable>
 800152e:	b938      	cbnz	r0, 8001540 <HAL_ADC_Stop+0x32>
 8001530:	6da3      	ldr	r3, [r4, #88]	; 0x58
 8001532:	f423 5388 	bic.w	r3, r3, #4352	; 0x1100
 8001536:	f023 0301 	bic.w	r3, r3, #1
 800153a:	f043 0301 	orr.w	r3, r3, #1
 800153e:	65a3      	str	r3, [r4, #88]	; 0x58
 8001540:	2300      	movs	r3, #0
 8001542:	f884 3054 	strb.w	r3, [r4, #84]	; 0x54
 8001546:	bd10      	pop	{r4, pc}
 8001548:	2002      	movs	r0, #2
 800154a:	e7fc      	b.n	8001546 <HAL_ADC_Stop+0x38>

0800154c <HAL_ADCEx_Calibration_Start>:
 800154c:	b573      	push	{r0, r1, r4, r5, r6, lr}
 800154e:	2300      	movs	r3, #0
 8001550:	9301      	str	r3, [sp, #4]
 8001552:	f890 3054 	ldrb.w	r3, [r0, #84]	; 0x54
 8001556:	2b01      	cmp	r3, #1
 8001558:	4604      	mov	r4, r0
 800155a:	460d      	mov	r5, r1
 800155c:	d03e      	beq.n	80015dc <HAL_ADCEx_Calibration_Start+0x90>
 800155e:	2301      	movs	r3, #1
 8001560:	f880 3054 	strb.w	r3, [r0, #84]	; 0x54
 8001564:	f7ff ff9f 	bl	80014a6 <ADC_Disable>
 8001568:	2800      	cmp	r0, #0
 800156a:	d133      	bne.n	80015d4 <HAL_ADCEx_Calibration_Start+0x88>
 800156c:	6da2      	ldr	r2, [r4, #88]	; 0x58
 800156e:	6826      	ldr	r6, [r4, #0]
 8001570:	f422 5288 	bic.w	r2, r2, #4352	; 0x1100
 8001574:	f022 0202 	bic.w	r2, r2, #2
 8001578:	f042 0202 	orr.w	r2, r2, #2
 800157c:	65a2      	str	r2, [r4, #88]	; 0x58
 800157e:	68b3      	ldr	r3, [r6, #8]
 8001580:	f023 4340 	bic.w	r3, r3, #3221225472	; 0xc0000000
 8001584:	f023 033f 	bic.w	r3, r3, #63	; 0x3f
 8001588:	f005 4580 	and.w	r5, r5, #1073741824	; 0x40000000
 800158c:	432b      	orrs	r3, r5
 800158e:	f043 4300 	orr.w	r3, r3, #2147483648	; 0x80000000
 8001592:	60b3      	str	r3, [r6, #8]
 8001594:	68b3      	ldr	r3, [r6, #8]
 8001596:	2b00      	cmp	r3, #0
 8001598:	da12      	bge.n	80015c0 <HAL_ADCEx_Calibration_Start+0x74>
 800159a:	9b01      	ldr	r3, [sp, #4]
 800159c:	3301      	adds	r3, #1
 800159e:	9301      	str	r3, [sp, #4]
 80015a0:	9b01      	ldr	r3, [sp, #4]
 80015a2:	f5b3 2f91 	cmp.w	r3, #296960	; 0x48800
 80015a6:	d3f5      	bcc.n	8001594 <HAL_ADCEx_Calibration_Start+0x48>
 80015a8:	6da3      	ldr	r3, [r4, #88]	; 0x58
 80015aa:	f023 0312 	bic.w	r3, r3, #18
 80015ae:	f043 0310 	orr.w	r3, r3, #16
 80015b2:	65a3      	str	r3, [r4, #88]	; 0x58
 80015b4:	2300      	movs	r3, #0
 80015b6:	f884 3054 	strb.w	r3, [r4, #84]	; 0x54
 80015ba:	2001      	movs	r0, #1
 80015bc:	b002      	add	sp, #8
 80015be:	bd70      	pop	{r4, r5, r6, pc}
 80015c0:	6da3      	ldr	r3, [r4, #88]	; 0x58
 80015c2:	f023 0303 	bic.w	r3, r3, #3
 80015c6:	f043 0301 	orr.w	r3, r3, #1
 80015ca:	65a3      	str	r3, [r4, #88]	; 0x58
 80015cc:	2300      	movs	r3, #0
 80015ce:	f884 3054 	strb.w	r3, [r4, #84]	; 0x54
 80015d2:	e7f3      	b.n	80015bc <HAL_ADCEx_Calibration_Start+0x70>
 80015d4:	6da3      	ldr	r3, [r4, #88]	; 0x58
 80015d6:	f043 0310 	orr.w	r3, r3, #16
 80015da:	e7f6      	b.n	80015ca <HAL_ADCEx_Calibration_Start+0x7e>
 80015dc:	2002      	movs	r0, #2
 80015de:	e7ed      	b.n	80015bc <HAL_ADCEx_Calibration_Start+0x70>

080015e0 <HAL_CAN_Init>:
 80015e0:	b538      	push	{r3, r4, r5, lr}
 80015e2:	4604      	mov	r4, r0
 80015e4:	2800      	cmp	r0, #0
 80015e6:	d06e      	beq.n	80016c6 <HAL_CAN_Init+0xe6>
 80015e8:	f890 3020 	ldrb.w	r3, [r0, #32]
 80015ec:	b90b      	cbnz	r3, 80015f2 <HAL_CAN_Init+0x12>
 80015ee:	f7fe fea9 	bl	8000344 <HAL_CAN_MspInit>
 80015f2:	6822      	ldr	r2, [r4, #0]
 80015f4:	6813      	ldr	r3, [r2, #0]
 80015f6:	f043 0301 	orr.w	r3, r3, #1
 80015fa:	6013      	str	r3, [r2, #0]
 80015fc:	f7ff fb46 	bl	8000c8c <HAL_GetTick>
 8001600:	4605      	mov	r5, r0
 8001602:	6823      	ldr	r3, [r4, #0]
 8001604:	685a      	ldr	r2, [r3, #4]
 8001606:	07d1      	lsls	r1, r2, #31
 8001608:	d551      	bpl.n	80016ae <HAL_CAN_Init+0xce>
 800160a:	681a      	ldr	r2, [r3, #0]
 800160c:	f022 0202 	bic.w	r2, r2, #2
 8001610:	601a      	str	r2, [r3, #0]
 8001612:	f7ff fb3b 	bl	8000c8c <HAL_GetTick>
 8001616:	4605      	mov	r5, r0
 8001618:	6823      	ldr	r3, [r4, #0]
 800161a:	685a      	ldr	r2, [r3, #4]
 800161c:	0792      	lsls	r2, r2, #30
 800161e:	d454      	bmi.n	80016ca <HAL_CAN_Init+0xea>
 8001620:	7e22      	ldrb	r2, [r4, #24]
 8001622:	2a01      	cmp	r2, #1
 8001624:	681a      	ldr	r2, [r3, #0]
 8001626:	bf0c      	ite	eq
 8001628:	f042 0280 	orreq.w	r2, r2, #128	; 0x80
 800162c:	f022 0280 	bicne.w	r2, r2, #128	; 0x80
 8001630:	601a      	str	r2, [r3, #0]
 8001632:	7e62      	ldrb	r2, [r4, #25]
 8001634:	2a01      	cmp	r2, #1
 8001636:	681a      	ldr	r2, [r3, #0]
 8001638:	bf0c      	ite	eq
 800163a:	f042 0240 	orreq.w	r2, r2, #64	; 0x40
 800163e:	f022 0240 	bicne.w	r2, r2, #64	; 0x40
 8001642:	601a      	str	r2, [r3, #0]
 8001644:	7ea2      	ldrb	r2, [r4, #26]
 8001646:	2a01      	cmp	r2, #1
 8001648:	681a      	ldr	r2, [r3, #0]
 800164a:	bf0c      	ite	eq
 800164c:	f042 0220 	orreq.w	r2, r2, #32
 8001650:	f022 0220 	bicne.w	r2, r2, #32
 8001654:	601a      	str	r2, [r3, #0]
 8001656:	7ee2      	ldrb	r2, [r4, #27]
 8001658:	2a01      	cmp	r2, #1
 800165a:	681a      	ldr	r2, [r3, #0]
 800165c:	bf0c      	ite	eq
 800165e:	f022 0210 	biceq.w	r2, r2, #16
 8001662:	f042 0210 	orrne.w	r2, r2, #16
 8001666:	601a      	str	r2, [r3, #0]
 8001668:	7f22      	ldrb	r2, [r4, #28]
 800166a:	2a01      	cmp	r2, #1
 800166c:	681a      	ldr	r2, [r3, #0]
 800166e:	bf0c      	ite	eq
 8001670:	f042 0208 	orreq.w	r2, r2, #8
 8001674:	f022 0208 	bicne.w	r2, r2, #8
 8001678:	601a      	str	r2, [r3, #0]
 800167a:	7f62      	ldrb	r2, [r4, #29]
 800167c:	2a01      	cmp	r2, #1
 800167e:	681a      	ldr	r2, [r3, #0]
 8001680:	bf0c      	ite	eq
 8001682:	f042 0204 	orreq.w	r2, r2, #4
 8001686:	f022 0204 	bicne.w	r2, r2, #4
 800168a:	601a      	str	r2, [r3, #0]
 800168c:	e9d4 2102 	ldrd	r2, r1, [r4, #8]
 8001690:	430a      	orrs	r2, r1
 8001692:	6921      	ldr	r1, [r4, #16]
 8001694:	430a      	orrs	r2, r1
 8001696:	6961      	ldr	r1, [r4, #20]
 8001698:	430a      	orrs	r2, r1
 800169a:	6861      	ldr	r1, [r4, #4]
 800169c:	3901      	subs	r1, #1
 800169e:	430a      	orrs	r2, r1
 80016a0:	61da      	str	r2, [r3, #28]
 80016a2:	2000      	movs	r0, #0
 80016a4:	2301      	movs	r3, #1
 80016a6:	6260      	str	r0, [r4, #36]	; 0x24
 80016a8:	f884 3020 	strb.w	r3, [r4, #32]
 80016ac:	bd38      	pop	{r3, r4, r5, pc}
 80016ae:	f7ff faed 	bl	8000c8c <HAL_GetTick>
 80016b2:	1b40      	subs	r0, r0, r5
 80016b4:	280a      	cmp	r0, #10
 80016b6:	d9a4      	bls.n	8001602 <HAL_CAN_Init+0x22>
 80016b8:	6a63      	ldr	r3, [r4, #36]	; 0x24
 80016ba:	f443 3300 	orr.w	r3, r3, #131072	; 0x20000
 80016be:	6263      	str	r3, [r4, #36]	; 0x24
 80016c0:	2305      	movs	r3, #5
 80016c2:	f884 3020 	strb.w	r3, [r4, #32]
 80016c6:	2001      	movs	r0, #1
 80016c8:	e7f0      	b.n	80016ac <HAL_CAN_Init+0xcc>
 80016ca:	f7ff fadf 	bl	8000c8c <HAL_GetTick>
 80016ce:	1b40      	subs	r0, r0, r5
 80016d0:	280a      	cmp	r0, #10
 80016d2:	d9a1      	bls.n	8001618 <HAL_CAN_Init+0x38>
 80016d4:	e7f0      	b.n	80016b8 <HAL_CAN_Init+0xd8>

080016d6 <HAL_CAN_ConfigFilter>:
 80016d6:	b570      	push	{r4, r5, r6, lr}
 80016d8:	f890 3020 	ldrb.w	r3, [r0, #32]
 80016dc:	3b01      	subs	r3, #1
 80016de:	2b01      	cmp	r3, #1
 80016e0:	d862      	bhi.n	80017a8 <HAL_CAN_ConfigFilter+0xd2>
 80016e2:	6803      	ldr	r3, [r0, #0]
 80016e4:	f8d3 2200 	ldr.w	r2, [r3, #512]	; 0x200
 80016e8:	f042 0201 	orr.w	r2, r2, #1
 80016ec:	f8c3 2200 	str.w	r2, [r3, #512]	; 0x200
 80016f0:	694a      	ldr	r2, [r1, #20]
 80016f2:	f8d3 521c 	ldr.w	r5, [r3, #540]	; 0x21c
 80016f6:	2401      	movs	r4, #1
 80016f8:	f002 001f 	and.w	r0, r2, #31
 80016fc:	fa04 f000 	lsl.w	r0, r4, r0
 8001700:	ea25 0500 	bic.w	r5, r5, r0
 8001704:	f8c3 521c 	str.w	r5, [r3, #540]	; 0x21c
 8001708:	69cd      	ldr	r5, [r1, #28]
 800170a:	43c4      	mvns	r4, r0
 800170c:	bb85      	cbnz	r5, 8001770 <HAL_CAN_ConfigFilter+0x9a>
 800170e:	f8d3 520c 	ldr.w	r5, [r3, #524]	; 0x20c
 8001712:	68ce      	ldr	r6, [r1, #12]
 8001714:	4025      	ands	r5, r4
 8001716:	f8c3 520c 	str.w	r5, [r3, #524]	; 0x20c
 800171a:	888d      	ldrh	r5, [r1, #4]
 800171c:	eb03 02c2 	add.w	r2, r3, r2, lsl #3
 8001720:	ea45 4506 	orr.w	r5, r5, r6, lsl #16
 8001724:	f8c2 5240 	str.w	r5, [r2, #576]	; 0x240
 8001728:	688e      	ldr	r6, [r1, #8]
 800172a:	880d      	ldrh	r5, [r1, #0]
 800172c:	ea45 4506 	orr.w	r5, r5, r6, lsl #16
 8001730:	f8c2 5244 	str.w	r5, [r2, #580]	; 0x244
 8001734:	698a      	ldr	r2, [r1, #24]
 8001736:	bb6a      	cbnz	r2, 8001794 <HAL_CAN_ConfigFilter+0xbe>
 8001738:	f8d3 2204 	ldr.w	r2, [r3, #516]	; 0x204
 800173c:	4022      	ands	r2, r4
 800173e:	f8c3 2204 	str.w	r2, [r3, #516]	; 0x204
 8001742:	690a      	ldr	r2, [r1, #16]
 8001744:	bb52      	cbnz	r2, 800179c <HAL_CAN_ConfigFilter+0xc6>
 8001746:	f8d3 2214 	ldr.w	r2, [r3, #532]	; 0x214
 800174a:	4014      	ands	r4, r2
 800174c:	f8c3 4214 	str.w	r4, [r3, #532]	; 0x214
 8001750:	6a0a      	ldr	r2, [r1, #32]
 8001752:	2a01      	cmp	r2, #1
 8001754:	bf02      	ittt	eq
 8001756:	f8d3 221c 	ldreq.w	r2, [r3, #540]	; 0x21c
 800175a:	4310      	orreq	r0, r2
 800175c:	f8c3 021c 	streq.w	r0, [r3, #540]	; 0x21c
 8001760:	f8d3 2200 	ldr.w	r2, [r3, #512]	; 0x200
 8001764:	f022 0201 	bic.w	r2, r2, #1
 8001768:	f8c3 2200 	str.w	r2, [r3, #512]	; 0x200
 800176c:	2000      	movs	r0, #0
 800176e:	bd70      	pop	{r4, r5, r6, pc}
 8001770:	2d01      	cmp	r5, #1
 8001772:	d1df      	bne.n	8001734 <HAL_CAN_ConfigFilter+0x5e>
 8001774:	f8d3 520c 	ldr.w	r5, [r3, #524]	; 0x20c
 8001778:	680e      	ldr	r6, [r1, #0]
 800177a:	4305      	orrs	r5, r0
 800177c:	f8c3 520c 	str.w	r5, [r3, #524]	; 0x20c
 8001780:	888d      	ldrh	r5, [r1, #4]
 8001782:	eb03 02c2 	add.w	r2, r3, r2, lsl #3
 8001786:	ea45 4506 	orr.w	r5, r5, r6, lsl #16
 800178a:	f8c2 5240 	str.w	r5, [r2, #576]	; 0x240
 800178e:	688e      	ldr	r6, [r1, #8]
 8001790:	898d      	ldrh	r5, [r1, #12]
 8001792:	e7cb      	b.n	800172c <HAL_CAN_ConfigFilter+0x56>
 8001794:	f8d3 2204 	ldr.w	r2, [r3, #516]	; 0x204
 8001798:	4302      	orrs	r2, r0
 800179a:	e7d0      	b.n	800173e <HAL_CAN_ConfigFilter+0x68>
 800179c:	f8d3 2214 	ldr.w	r2, [r3, #532]	; 0x214
 80017a0:	4302      	orrs	r2, r0
 80017a2:	f8c3 2214 	str.w	r2, [r3, #532]	; 0x214
 80017a6:	e7d3      	b.n	8001750 <HAL_CAN_ConfigFilter+0x7a>
 80017a8:	6a43      	ldr	r3, [r0, #36]	; 0x24
 80017aa:	f443 2380 	orr.w	r3, r3, #262144	; 0x40000
 80017ae:	6243      	str	r3, [r0, #36]	; 0x24
 80017b0:	2001      	movs	r0, #1
 80017b2:	e7dc      	b.n	800176e <HAL_CAN_ConfigFilter+0x98>

080017b4 <HAL_CAN_Start>:
 80017b4:	b570      	push	{r4, r5, r6, lr}
 80017b6:	f890 3020 	ldrb.w	r3, [r0, #32]
 80017ba:	2b01      	cmp	r3, #1
 80017bc:	4604      	mov	r4, r0
 80017be:	b2dd      	uxtb	r5, r3
 80017c0:	d120      	bne.n	8001804 <HAL_CAN_Start+0x50>
 80017c2:	6802      	ldr	r2, [r0, #0]
 80017c4:	2302      	movs	r3, #2
 80017c6:	f880 3020 	strb.w	r3, [r0, #32]
 80017ca:	6813      	ldr	r3, [r2, #0]
 80017cc:	f023 0301 	bic.w	r3, r3, #1
 80017d0:	6013      	str	r3, [r2, #0]
 80017d2:	f7ff fa5b 	bl	8000c8c <HAL_GetTick>
 80017d6:	4606      	mov	r6, r0
 80017d8:	6823      	ldr	r3, [r4, #0]
 80017da:	685b      	ldr	r3, [r3, #4]
 80017dc:	f013 0301 	ands.w	r3, r3, #1
 80017e0:	d102      	bne.n	80017e8 <HAL_CAN_Start+0x34>
 80017e2:	6263      	str	r3, [r4, #36]	; 0x24
 80017e4:	461d      	mov	r5, r3
 80017e6:	e00b      	b.n	8001800 <HAL_CAN_Start+0x4c>
 80017e8:	f7ff fa50 	bl	8000c8c <HAL_GetTick>
 80017ec:	1b80      	subs	r0, r0, r6
 80017ee:	280a      	cmp	r0, #10
 80017f0:	d9f2      	bls.n	80017d8 <HAL_CAN_Start+0x24>
 80017f2:	6a63      	ldr	r3, [r4, #36]	; 0x24
 80017f4:	f443 3300 	orr.w	r3, r3, #131072	; 0x20000
 80017f8:	6263      	str	r3, [r4, #36]	; 0x24
 80017fa:	2305      	movs	r3, #5
 80017fc:	f884 3020 	strb.w	r3, [r4, #32]
 8001800:	4628      	mov	r0, r5
 8001802:	bd70      	pop	{r4, r5, r6, pc}
 8001804:	6a43      	ldr	r3, [r0, #36]	; 0x24
 8001806:	f443 2300 	orr.w	r3, r3, #524288	; 0x80000
 800180a:	6243      	str	r3, [r0, #36]	; 0x24
 800180c:	2501      	movs	r5, #1
 800180e:	e7f7      	b.n	8001800 <HAL_CAN_Start+0x4c>

08001810 <HAL_CAN_AddTxMessage>:
 8001810:	b5f0      	push	{r4, r5, r6, r7, lr}
 8001812:	f890 5020 	ldrb.w	r5, [r0, #32]
 8001816:	6806      	ldr	r6, [r0, #0]
 8001818:	3d01      	subs	r5, #1
 800181a:	2d01      	cmp	r5, #1
 800181c:	68b4      	ldr	r4, [r6, #8]
 800181e:	d83d      	bhi.n	800189c <HAL_CAN_AddTxMessage+0x8c>
 8001820:	f014 5fe0 	tst.w	r4, #469762048	; 0x1c000000
 8001824:	f04f 0501 	mov.w	r5, #1
 8001828:	d032      	beq.n	8001890 <HAL_CAN_AddTxMessage+0x80>
 800182a:	f3c4 6401 	ubfx	r4, r4, #24, #2
 800182e:	40a5      	lsls	r5, r4
 8001830:	601d      	str	r5, [r3, #0]
 8001832:	e9d1 0702 	ldrd	r0, r7, [r1, #8]
 8001836:	f104 0318 	add.w	r3, r4, #24
 800183a:	bb20      	cbnz	r0, 8001886 <HAL_CAN_AddTxMessage+0x76>
 800183c:	6808      	ldr	r0, [r1, #0]
 800183e:	ea47 5040 	orr.w	r0, r7, r0, lsl #21
 8001842:	011b      	lsls	r3, r3, #4
 8001844:	50f0      	str	r0, [r6, r3]
 8001846:	eb06 1304 	add.w	r3, r6, r4, lsl #4
 800184a:	690d      	ldr	r5, [r1, #16]
 800184c:	f8c3 5184 	str.w	r5, [r3, #388]	; 0x184
 8001850:	7d09      	ldrb	r1, [r1, #20]
 8001852:	2901      	cmp	r1, #1
 8001854:	bf08      	it	eq
 8001856:	f8d3 1184 	ldreq.w	r1, [r3, #388]	; 0x184
 800185a:	ea4f 1004 	mov.w	r0, r4, lsl #4
 800185e:	bf04      	itt	eq
 8001860:	f441 7180 	orreq.w	r1, r1, #256	; 0x100
 8001864:	f8c3 1184 	streq.w	r1, [r3, #388]	; 0x184
 8001868:	4406      	add	r6, r0
 800186a:	6851      	ldr	r1, [r2, #4]
 800186c:	f8c6 118c 	str.w	r1, [r6, #396]	; 0x18c
 8001870:	6812      	ldr	r2, [r2, #0]
 8001872:	f8c6 2188 	str.w	r2, [r6, #392]	; 0x188
 8001876:	f8d3 2180 	ldr.w	r2, [r3, #384]	; 0x180
 800187a:	f042 0201 	orr.w	r2, r2, #1
 800187e:	f8c3 2180 	str.w	r2, [r3, #384]	; 0x180
 8001882:	2000      	movs	r0, #0
 8001884:	bdf0      	pop	{r4, r5, r6, r7, pc}
 8001886:	684d      	ldr	r5, [r1, #4]
 8001888:	4338      	orrs	r0, r7
 800188a:	ea40 00c5 	orr.w	r0, r0, r5, lsl #3
 800188e:	e7d8      	b.n	8001842 <HAL_CAN_AddTxMessage+0x32>
 8001890:	6a43      	ldr	r3, [r0, #36]	; 0x24
 8001892:	f443 1300 	orr.w	r3, r3, #2097152	; 0x200000
 8001896:	6243      	str	r3, [r0, #36]	; 0x24
 8001898:	2001      	movs	r0, #1
 800189a:	e7f3      	b.n	8001884 <HAL_CAN_AddTxMessage+0x74>
 800189c:	6a43      	ldr	r3, [r0, #36]	; 0x24
 800189e:	f443 2380 	orr.w	r3, r3, #262144	; 0x40000
 80018a2:	e7f8      	b.n	8001896 <HAL_CAN_AddTxMessage+0x86>

080018a4 <HAL_CAN_GetRxMessage>:
 80018a4:	b5f0      	push	{r4, r5, r6, r7, lr}
 80018a6:	f890 4020 	ldrb.w	r4, [r0, #32]
 80018aa:	3c01      	subs	r4, #1
 80018ac:	2c01      	cmp	r4, #1
 80018ae:	d86c      	bhi.n	800198a <HAL_CAN_GetRxMessage+0xe6>
 80018b0:	6806      	ldr	r6, [r0, #0]
 80018b2:	b941      	cbnz	r1, 80018c6 <HAL_CAN_GetRxMessage+0x22>
 80018b4:	68f4      	ldr	r4, [r6, #12]
 80018b6:	07a4      	lsls	r4, r4, #30
 80018b8:	d107      	bne.n	80018ca <HAL_CAN_GetRxMessage+0x26>
 80018ba:	6a43      	ldr	r3, [r0, #36]	; 0x24
 80018bc:	f443 1300 	orr.w	r3, r3, #2097152	; 0x200000
 80018c0:	6243      	str	r3, [r0, #36]	; 0x24
 80018c2:	2001      	movs	r0, #1
 80018c4:	e056      	b.n	8001974 <HAL_CAN_GetRxMessage+0xd0>
 80018c6:	6934      	ldr	r4, [r6, #16]
 80018c8:	e7f5      	b.n	80018b6 <HAL_CAN_GetRxMessage+0x12>
 80018ca:	eb06 1501 	add.w	r5, r6, r1, lsl #4
 80018ce:	010c      	lsls	r4, r1, #4
 80018d0:	f8d5 71b0 	ldr.w	r7, [r5, #432]	; 0x1b0
 80018d4:	f007 0704 	and.w	r7, r7, #4
 80018d8:	6097      	str	r7, [r2, #8]
 80018da:	2f00      	cmp	r7, #0
 80018dc:	d14b      	bne.n	8001976 <HAL_CAN_GetRxMessage+0xd2>
 80018de:	f8d5 71b0 	ldr.w	r7, [r5, #432]	; 0x1b0
 80018e2:	0d7f      	lsrs	r7, r7, #21
 80018e4:	6017      	str	r7, [r2, #0]
 80018e6:	f8d5 71b0 	ldr.w	r7, [r5, #432]	; 0x1b0
 80018ea:	f007 0702 	and.w	r7, r7, #2
 80018ee:	60d7      	str	r7, [r2, #12]
 80018f0:	f8d5 71b4 	ldr.w	r7, [r5, #436]	; 0x1b4
 80018f4:	f007 070f 	and.w	r7, r7, #15
 80018f8:	6117      	str	r7, [r2, #16]
 80018fa:	f8d5 71b4 	ldr.w	r7, [r5, #436]	; 0x1b4
 80018fe:	f8d5 51b4 	ldr.w	r5, [r5, #436]	; 0x1b4
 8001902:	4426      	add	r6, r4
 8001904:	f3c7 2707 	ubfx	r7, r7, #8, #8
 8001908:	0c2d      	lsrs	r5, r5, #16
 800190a:	6197      	str	r7, [r2, #24]
 800190c:	6155      	str	r5, [r2, #20]
 800190e:	f8d6 21b8 	ldr.w	r2, [r6, #440]	; 0x1b8
 8001912:	701a      	strb	r2, [r3, #0]
 8001914:	6802      	ldr	r2, [r0, #0]
 8001916:	4422      	add	r2, r4
 8001918:	f8d2 21b8 	ldr.w	r2, [r2, #440]	; 0x1b8
 800191c:	0a12      	lsrs	r2, r2, #8
 800191e:	705a      	strb	r2, [r3, #1]
 8001920:	6802      	ldr	r2, [r0, #0]
 8001922:	4422      	add	r2, r4
 8001924:	f8d2 21b8 	ldr.w	r2, [r2, #440]	; 0x1b8
 8001928:	0c12      	lsrs	r2, r2, #16
 800192a:	709a      	strb	r2, [r3, #2]
 800192c:	6802      	ldr	r2, [r0, #0]
 800192e:	4422      	add	r2, r4
 8001930:	f8d2 21b8 	ldr.w	r2, [r2, #440]	; 0x1b8
 8001934:	0e12      	lsrs	r2, r2, #24
 8001936:	70da      	strb	r2, [r3, #3]
 8001938:	6802      	ldr	r2, [r0, #0]
 800193a:	4422      	add	r2, r4
 800193c:	f8d2 21bc 	ldr.w	r2, [r2, #444]	; 0x1bc
 8001940:	711a      	strb	r2, [r3, #4]
 8001942:	6802      	ldr	r2, [r0, #0]
 8001944:	4422      	add	r2, r4
 8001946:	f8d2 21bc 	ldr.w	r2, [r2, #444]	; 0x1bc
 800194a:	0a12      	lsrs	r2, r2, #8
 800194c:	715a      	strb	r2, [r3, #5]
 800194e:	6802      	ldr	r2, [r0, #0]
 8001950:	4422      	add	r2, r4
 8001952:	f8d2 21bc 	ldr.w	r2, [r2, #444]	; 0x1bc
 8001956:	0c12      	lsrs	r2, r2, #16
 8001958:	719a      	strb	r2, [r3, #6]
 800195a:	6802      	ldr	r2, [r0, #0]
 800195c:	4422      	add	r2, r4
 800195e:	f8d2 21bc 	ldr.w	r2, [r2, #444]	; 0x1bc
 8001962:	0e12      	lsrs	r2, r2, #24
 8001964:	71da      	strb	r2, [r3, #7]
 8001966:	6803      	ldr	r3, [r0, #0]
 8001968:	b951      	cbnz	r1, 8001980 <HAL_CAN_GetRxMessage+0xdc>
 800196a:	68da      	ldr	r2, [r3, #12]
 800196c:	f042 0220 	orr.w	r2, r2, #32
 8001970:	60da      	str	r2, [r3, #12]
 8001972:	2000      	movs	r0, #0
 8001974:	bdf0      	pop	{r4, r5, r6, r7, pc}
 8001976:	f8d5 71b0 	ldr.w	r7, [r5, #432]	; 0x1b0
 800197a:	08ff      	lsrs	r7, r7, #3
 800197c:	6057      	str	r7, [r2, #4]
 800197e:	e7b2      	b.n	80018e6 <HAL_CAN_GetRxMessage+0x42>
 8001980:	691a      	ldr	r2, [r3, #16]
 8001982:	f042 0220 	orr.w	r2, r2, #32
 8001986:	611a      	str	r2, [r3, #16]
 8001988:	e7f3      	b.n	8001972 <HAL_CAN_GetRxMessage+0xce>
 800198a:	6a43      	ldr	r3, [r0, #36]	; 0x24
 800198c:	f443 2380 	orr.w	r3, r3, #262144	; 0x40000
 8001990:	e796      	b.n	80018c0 <HAL_CAN_GetRxMessage+0x1c>

08001992 <HAL_CAN_ActivateNotification>:
 8001992:	f890 3020 	ldrb.w	r3, [r0, #32]
 8001996:	3b01      	subs	r3, #1
 8001998:	2b01      	cmp	r3, #1
 800199a:	d805      	bhi.n	80019a8 <HAL_CAN_ActivateNotification+0x16>
 800199c:	6802      	ldr	r2, [r0, #0]
 800199e:	6953      	ldr	r3, [r2, #20]
 80019a0:	4319      	orrs	r1, r3
 80019a2:	6151      	str	r1, [r2, #20]
 80019a4:	2000      	movs	r0, #0
 80019a6:	4770      	bx	lr
 80019a8:	6a43      	ldr	r3, [r0, #36]	; 0x24
 80019aa:	f443 2380 	orr.w	r3, r3, #262144	; 0x40000
 80019ae:	6243      	str	r3, [r0, #36]	; 0x24
 80019b0:	2001      	movs	r0, #1
 80019b2:	4770      	bx	lr

080019b4 <HAL_CAN_TxMailbox0CompleteCallback>:
 80019b4:	4770      	bx	lr

080019b6 <HAL_CAN_TxMailbox1CompleteCallback>:
 80019b6:	4770      	bx	lr

080019b8 <HAL_CAN_TxMailbox2CompleteCallback>:
 80019b8:	4770      	bx	lr

080019ba <HAL_CAN_TxMailbox0AbortCallback>:
 80019ba:	4770      	bx	lr

080019bc <HAL_CAN_TxMailbox1AbortCallback>:
 80019bc:	4770      	bx	lr

080019be <HAL_CAN_TxMailbox2AbortCallback>:
 80019be:	4770      	bx	lr

080019c0 <HAL_CAN_RxFifo0FullCallback>:
 80019c0:	4770      	bx	lr

080019c2 <HAL_CAN_RxFifo1MsgPendingCallback>:
 80019c2:	4770      	bx	lr

080019c4 <HAL_CAN_RxFifo1FullCallback>:
 80019c4:	4770      	bx	lr

080019c6 <HAL_CAN_SleepCallback>:
 80019c6:	4770      	bx	lr

080019c8 <HAL_CAN_WakeUpFromRxMsgCallback>:
 80019c8:	4770      	bx	lr

080019ca <HAL_CAN_ErrorCallback>:
 80019ca:	4770      	bx	lr

080019cc <HAL_CAN_IRQHandler>:
 80019cc:	e92d 4ff8 	stmdb	sp!, {r3, r4, r5, r6, r7, r8, r9, sl, fp, lr}
 80019d0:	6803      	ldr	r3, [r0, #0]
 80019d2:	695e      	ldr	r6, [r3, #20]
 80019d4:	f8d3 9004 	ldr.w	r9, [r3, #4]
 80019d8:	689f      	ldr	r7, [r3, #8]
 80019da:	f8d3 b00c 	ldr.w	fp, [r3, #12]
 80019de:	f8d3 a010 	ldr.w	sl, [r3, #16]
 80019e2:	f8d3 8018 	ldr.w	r8, [r3, #24]
 80019e6:	f016 0401 	ands.w	r4, r6, #1
 80019ea:	4605      	mov	r5, r0
 80019ec:	d022      	beq.n	8001a34 <HAL_CAN_IRQHandler+0x68>
 80019ee:	f017 0401 	ands.w	r4, r7, #1
 80019f2:	d007      	beq.n	8001a04 <HAL_CAN_IRQHandler+0x38>
 80019f4:	2201      	movs	r2, #1
 80019f6:	07b9      	lsls	r1, r7, #30
 80019f8:	609a      	str	r2, [r3, #8]
 80019fa:	f140 80a5 	bpl.w	8001b48 <HAL_CAN_IRQHandler+0x17c>
 80019fe:	f7ff ffd9 	bl	80019b4 <HAL_CAN_TxMailbox0CompleteCallback>
 8001a02:	2400      	movs	r4, #0
 8001a04:	05fb      	lsls	r3, r7, #23
 8001a06:	d509      	bpl.n	8001a1c <HAL_CAN_IRQHandler+0x50>
 8001a08:	682b      	ldr	r3, [r5, #0]
 8001a0a:	f44f 7280 	mov.w	r2, #256	; 0x100
 8001a0e:	05b8      	lsls	r0, r7, #22
 8001a10:	609a      	str	r2, [r3, #8]
 8001a12:	f140 80a7 	bpl.w	8001b64 <HAL_CAN_IRQHandler+0x198>
 8001a16:	4628      	mov	r0, r5
 8001a18:	f7ff ffcd 	bl	80019b6 <HAL_CAN_TxMailbox1CompleteCallback>
 8001a1c:	03fb      	lsls	r3, r7, #15
 8001a1e:	d509      	bpl.n	8001a34 <HAL_CAN_IRQHandler+0x68>
 8001a20:	682b      	ldr	r3, [r5, #0]
 8001a22:	f44f 3280 	mov.w	r2, #65536	; 0x10000
 8001a26:	03b8      	lsls	r0, r7, #14
 8001a28:	609a      	str	r2, [r3, #8]
 8001a2a:	f140 80a9 	bpl.w	8001b80 <HAL_CAN_IRQHandler+0x1b4>
 8001a2e:	4628      	mov	r0, r5
 8001a30:	f7ff ffc2 	bl	80019b8 <HAL_CAN_TxMailbox2CompleteCallback>
 8001a34:	0733      	lsls	r3, r6, #28
 8001a36:	d507      	bpl.n	8001a48 <HAL_CAN_IRQHandler+0x7c>
 8001a38:	f01b 0f10 	tst.w	fp, #16
 8001a3c:	bf1f      	itttt	ne
 8001a3e:	682b      	ldrne	r3, [r5, #0]
 8001a40:	2210      	movne	r2, #16
 8001a42:	f444 7400 	orrne.w	r4, r4, #512	; 0x200
 8001a46:	60da      	strne	r2, [r3, #12]
 8001a48:	0777      	lsls	r7, r6, #29
 8001a4a:	d508      	bpl.n	8001a5e <HAL_CAN_IRQHandler+0x92>
 8001a4c:	f01b 0f08 	tst.w	fp, #8
 8001a50:	d005      	beq.n	8001a5e <HAL_CAN_IRQHandler+0x92>
 8001a52:	682b      	ldr	r3, [r5, #0]
 8001a54:	2208      	movs	r2, #8
 8001a56:	60da      	str	r2, [r3, #12]
 8001a58:	4628      	mov	r0, r5
 8001a5a:	f7ff ffb1 	bl	80019c0 <HAL_CAN_RxFifo0FullCallback>
 8001a5e:	07b0      	lsls	r0, r6, #30
 8001a60:	d506      	bpl.n	8001a70 <HAL_CAN_IRQHandler+0xa4>
 8001a62:	682b      	ldr	r3, [r5, #0]
 8001a64:	68db      	ldr	r3, [r3, #12]
 8001a66:	0799      	lsls	r1, r3, #30
 8001a68:	d002      	beq.n	8001a70 <HAL_CAN_IRQHandler+0xa4>
 8001a6a:	4628      	mov	r0, r5
 8001a6c:	f7fe febe 	bl	80007ec <HAL_CAN_RxFifo0MsgPendingCallback>
 8001a70:	0672      	lsls	r2, r6, #25
 8001a72:	d507      	bpl.n	8001a84 <HAL_CAN_IRQHandler+0xb8>
 8001a74:	f01a 0f10 	tst.w	sl, #16
 8001a78:	bf1f      	itttt	ne
 8001a7a:	682b      	ldrne	r3, [r5, #0]
 8001a7c:	2210      	movne	r2, #16
 8001a7e:	f444 6480 	orrne.w	r4, r4, #1024	; 0x400
 8001a82:	611a      	strne	r2, [r3, #16]
 8001a84:	06b3      	lsls	r3, r6, #26
 8001a86:	d508      	bpl.n	8001a9a <HAL_CAN_IRQHandler+0xce>
 8001a88:	f01a 0f08 	tst.w	sl, #8
 8001a8c:	d005      	beq.n	8001a9a <HAL_CAN_IRQHandler+0xce>
 8001a8e:	682b      	ldr	r3, [r5, #0]
 8001a90:	2208      	movs	r2, #8
 8001a92:	611a      	str	r2, [r3, #16]
 8001a94:	4628      	mov	r0, r5
 8001a96:	f7ff ff95 	bl	80019c4 <HAL_CAN_RxFifo1FullCallback>
 8001a9a:	06f7      	lsls	r7, r6, #27
 8001a9c:	d506      	bpl.n	8001aac <HAL_CAN_IRQHandler+0xe0>
 8001a9e:	682b      	ldr	r3, [r5, #0]
 8001aa0:	691b      	ldr	r3, [r3, #16]
 8001aa2:	0798      	lsls	r0, r3, #30
 8001aa4:	d002      	beq.n	8001aac <HAL_CAN_IRQHandler+0xe0>
 8001aa6:	4628      	mov	r0, r5
 8001aa8:	f7ff ff8b 	bl	80019c2 <HAL_CAN_RxFifo1MsgPendingCallback>
 8001aac:	03b1      	lsls	r1, r6, #14
 8001aae:	d508      	bpl.n	8001ac2 <HAL_CAN_IRQHandler+0xf6>
 8001ab0:	f019 0f10 	tst.w	r9, #16
 8001ab4:	d005      	beq.n	8001ac2 <HAL_CAN_IRQHandler+0xf6>
 8001ab6:	682b      	ldr	r3, [r5, #0]
 8001ab8:	2210      	movs	r2, #16
 8001aba:	605a      	str	r2, [r3, #4]
 8001abc:	4628      	mov	r0, r5
 8001abe:	f7ff ff82 	bl	80019c6 <HAL_CAN_SleepCallback>
 8001ac2:	03f2      	lsls	r2, r6, #15
 8001ac4:	d508      	bpl.n	8001ad8 <HAL_CAN_IRQHandler+0x10c>
 8001ac6:	f019 0f08 	tst.w	r9, #8
 8001aca:	d005      	beq.n	8001ad8 <HAL_CAN_IRQHandler+0x10c>
 8001acc:	682b      	ldr	r3, [r5, #0]
 8001ace:	2208      	movs	r2, #8
 8001ad0:	605a      	str	r2, [r3, #4]
 8001ad2:	4628      	mov	r0, r5
 8001ad4:	f7ff ff78 	bl	80019c8 <HAL_CAN_WakeUpFromRxMsgCallback>
 8001ad8:	0433      	lsls	r3, r6, #16
 8001ada:	d52c      	bpl.n	8001b36 <HAL_CAN_IRQHandler+0x16a>
 8001adc:	f019 0f04 	tst.w	r9, #4
 8001ae0:	682a      	ldr	r2, [r5, #0]
 8001ae2:	d026      	beq.n	8001b32 <HAL_CAN_IRQHandler+0x166>
 8001ae4:	05f7      	lsls	r7, r6, #23
 8001ae6:	d504      	bpl.n	8001af2 <HAL_CAN_IRQHandler+0x126>
 8001ae8:	f018 0f01 	tst.w	r8, #1
 8001aec:	bf18      	it	ne
 8001aee:	f044 0401 	orrne.w	r4, r4, #1
 8001af2:	05b0      	lsls	r0, r6, #22
 8001af4:	d504      	bpl.n	8001b00 <HAL_CAN_IRQHandler+0x134>
 8001af6:	f018 0f02 	tst.w	r8, #2
 8001afa:	bf18      	it	ne
 8001afc:	f044 0402 	orrne.w	r4, r4, #2
 8001b00:	0571      	lsls	r1, r6, #21
 8001b02:	d504      	bpl.n	8001b0e <HAL_CAN_IRQHandler+0x142>
 8001b04:	f018 0f04 	tst.w	r8, #4
 8001b08:	bf18      	it	ne
 8001b0a:	f044 0404 	orrne.w	r4, r4, #4
 8001b0e:	0533      	lsls	r3, r6, #20
 8001b10:	d50f      	bpl.n	8001b32 <HAL_CAN_IRQHandler+0x166>
 8001b12:	f018 0370 	ands.w	r3, r8, #112	; 0x70
 8001b16:	d00c      	beq.n	8001b32 <HAL_CAN_IRQHandler+0x166>
 8001b18:	2b40      	cmp	r3, #64	; 0x40
 8001b1a:	d04f      	beq.n	8001bbc <HAL_CAN_IRQHandler+0x1f0>
 8001b1c:	d83e      	bhi.n	8001b9c <HAL_CAN_IRQHandler+0x1d0>
 8001b1e:	2b20      	cmp	r3, #32
 8001b20:	d046      	beq.n	8001bb0 <HAL_CAN_IRQHandler+0x1e4>
 8001b22:	2b30      	cmp	r3, #48	; 0x30
 8001b24:	d047      	beq.n	8001bb6 <HAL_CAN_IRQHandler+0x1ea>
 8001b26:	2b10      	cmp	r3, #16
 8001b28:	d03f      	beq.n	8001baa <HAL_CAN_IRQHandler+0x1de>
 8001b2a:	6993      	ldr	r3, [r2, #24]
 8001b2c:	f023 0370 	bic.w	r3, r3, #112	; 0x70
 8001b30:	6193      	str	r3, [r2, #24]
 8001b32:	2304      	movs	r3, #4
 8001b34:	6053      	str	r3, [r2, #4]
 8001b36:	b12c      	cbz	r4, 8001b44 <HAL_CAN_IRQHandler+0x178>
 8001b38:	6a6b      	ldr	r3, [r5, #36]	; 0x24
 8001b3a:	431c      	orrs	r4, r3
 8001b3c:	626c      	str	r4, [r5, #36]	; 0x24
 8001b3e:	4628      	mov	r0, r5
 8001b40:	f7ff ff43 	bl	80019ca <HAL_CAN_ErrorCallback>
 8001b44:	e8bd 8ff8 	ldmia.w	sp!, {r3, r4, r5, r6, r7, r8, r9, sl, fp, pc}
 8001b48:	077a      	lsls	r2, r7, #29
 8001b4a:	d405      	bmi.n	8001b58 <HAL_CAN_IRQHandler+0x18c>
 8001b4c:	f017 0408 	ands.w	r4, r7, #8
 8001b50:	d105      	bne.n	8001b5e <HAL_CAN_IRQHandler+0x192>
 8001b52:	f7ff ff32 	bl	80019ba <HAL_CAN_TxMailbox0AbortCallback>
 8001b56:	e755      	b.n	8001a04 <HAL_CAN_IRQHandler+0x38>
 8001b58:	f44f 6400 	mov.w	r4, #2048	; 0x800
 8001b5c:	e752      	b.n	8001a04 <HAL_CAN_IRQHandler+0x38>
 8001b5e:	f44f 5480 	mov.w	r4, #4096	; 0x1000
 8001b62:	e74f      	b.n	8001a04 <HAL_CAN_IRQHandler+0x38>
 8001b64:	0579      	lsls	r1, r7, #21
 8001b66:	d502      	bpl.n	8001b6e <HAL_CAN_IRQHandler+0x1a2>
 8001b68:	f444 5400 	orr.w	r4, r4, #8192	; 0x2000
 8001b6c:	e756      	b.n	8001a1c <HAL_CAN_IRQHandler+0x50>
 8001b6e:	053a      	lsls	r2, r7, #20
 8001b70:	d502      	bpl.n	8001b78 <HAL_CAN_IRQHandler+0x1ac>
 8001b72:	f444 4480 	orr.w	r4, r4, #16384	; 0x4000
 8001b76:	e751      	b.n	8001a1c <HAL_CAN_IRQHandler+0x50>
 8001b78:	4628      	mov	r0, r5
 8001b7a:	f7ff ff1f 	bl	80019bc <HAL_CAN_TxMailbox1AbortCallback>
 8001b7e:	e74d      	b.n	8001a1c <HAL_CAN_IRQHandler+0x50>
 8001b80:	0379      	lsls	r1, r7, #13
 8001b82:	d502      	bpl.n	8001b8a <HAL_CAN_IRQHandler+0x1be>
 8001b84:	f444 4400 	orr.w	r4, r4, #32768	; 0x8000
 8001b88:	e754      	b.n	8001a34 <HAL_CAN_IRQHandler+0x68>
 8001b8a:	033a      	lsls	r2, r7, #12
 8001b8c:	d502      	bpl.n	8001b94 <HAL_CAN_IRQHandler+0x1c8>
 8001b8e:	f444 3480 	orr.w	r4, r4, #65536	; 0x10000
 8001b92:	e74f      	b.n	8001a34 <HAL_CAN_IRQHandler+0x68>
 8001b94:	4628      	mov	r0, r5
 8001b96:	f7ff ff12 	bl	80019be <HAL_CAN_TxMailbox2AbortCallback>
 8001b9a:	e74b      	b.n	8001a34 <HAL_CAN_IRQHandler+0x68>
 8001b9c:	2b50      	cmp	r3, #80	; 0x50
 8001b9e:	d010      	beq.n	8001bc2 <HAL_CAN_IRQHandler+0x1f6>
 8001ba0:	2b60      	cmp	r3, #96	; 0x60
 8001ba2:	d1c2      	bne.n	8001b2a <HAL_CAN_IRQHandler+0x15e>
 8001ba4:	f444 7480 	orr.w	r4, r4, #256	; 0x100
 8001ba8:	e7bf      	b.n	8001b2a <HAL_CAN_IRQHandler+0x15e>
 8001baa:	f044 0408 	orr.w	r4, r4, #8
 8001bae:	e7bc      	b.n	8001b2a <HAL_CAN_IRQHandler+0x15e>
 8001bb0:	f044 0410 	orr.w	r4, r4, #16
 8001bb4:	e7b9      	b.n	8001b2a <HAL_CAN_IRQHandler+0x15e>
 8001bb6:	f044 0420 	orr.w	r4, r4, #32
 8001bba:	e7b6      	b.n	8001b2a <HAL_CAN_IRQHandler+0x15e>
 8001bbc:	f044 0440 	orr.w	r4, r4, #64	; 0x40
 8001bc0:	e7b3      	b.n	8001b2a <HAL_CAN_IRQHandler+0x15e>
 8001bc2:	f044 0480 	orr.w	r4, r4, #128	; 0x80
 8001bc6:	e7b0      	b.n	8001b2a <HAL_CAN_IRQHandler+0x15e>

08001bc8 <HAL_NVIC_SetPriorityGrouping>:
 8001bc8:	4907      	ldr	r1, [pc, #28]	; (8001be8 <HAL_NVIC_SetPriorityGrouping+0x20>)
 8001bca:	68ca      	ldr	r2, [r1, #12]
 8001bcc:	f422 62e0 	bic.w	r2, r2, #1792	; 0x700
 8001bd0:	0203      	lsls	r3, r0, #8
 8001bd2:	0412      	lsls	r2, r2, #16
 8001bd4:	f403 63e0 	and.w	r3, r3, #1792	; 0x700
 8001bd8:	0c12      	lsrs	r2, r2, #16
 8001bda:	4313      	orrs	r3, r2
 8001bdc:	f043 63bf 	orr.w	r3, r3, #100139008	; 0x5f80000
 8001be0:	f443 3300 	orr.w	r3, r3, #131072	; 0x20000
 8001be4:	60cb      	str	r3, [r1, #12]
 8001be6:	4770      	bx	lr
 8001be8:	e000ed00 	.word	0xe000ed00

08001bec <HAL_NVIC_SetPriority>:
 8001bec:	4b16      	ldr	r3, [pc, #88]	; (8001c48 <HAL_NVIC_SetPriority+0x5c>)
 8001bee:	b530      	push	{r4, r5, lr}
 8001bf0:	68dc      	ldr	r4, [r3, #12]
 8001bf2:	f3c4 2402 	ubfx	r4, r4, #8, #3
 8001bf6:	f1c4 0507 	rsb	r5, r4, #7
 8001bfa:	1d23      	adds	r3, r4, #4
 8001bfc:	2d04      	cmp	r5, #4
 8001bfe:	bf28      	it	cs
 8001c00:	2504      	movcs	r5, #4
 8001c02:	2b06      	cmp	r3, #6
 8001c04:	f04f 33ff 	mov.w	r3, #4294967295
 8001c08:	bf8c      	ite	hi
 8001c0a:	3c03      	subhi	r4, #3
 8001c0c:	2400      	movls	r4, #0
 8001c0e:	fa03 f505 	lsl.w	r5, r3, r5
 8001c12:	ea21 0105 	bic.w	r1, r1, r5
 8001c16:	40a3      	lsls	r3, r4
 8001c18:	ea22 0203 	bic.w	r2, r2, r3
 8001c1c:	40a1      	lsls	r1, r4
 8001c1e:	2800      	cmp	r0, #0
 8001c20:	ea41 0302 	orr.w	r3, r1, r2
 8001c24:	bfac      	ite	ge
 8001c26:	f100 4060 	addge.w	r0, r0, #3758096384	; 0xe0000000
 8001c2a:	4a08      	ldrlt	r2, [pc, #32]	; (8001c4c <HAL_NVIC_SetPriority+0x60>)
 8001c2c:	ea4f 1303 	mov.w	r3, r3, lsl #4
 8001c30:	bfb8      	it	lt
 8001c32:	f000 000f 	andlt.w	r0, r0, #15
 8001c36:	b2db      	uxtb	r3, r3
 8001c38:	bfaa      	itet	ge
 8001c3a:	f500 4061 	addge.w	r0, r0, #57600	; 0xe100
 8001c3e:	5413      	strblt	r3, [r2, r0]
 8001c40:	f880 3300 	strbge.w	r3, [r0, #768]	; 0x300
 8001c44:	bd30      	pop	{r4, r5, pc}
 8001c46:	bf00      	nop
 8001c48:	e000ed00 	.word	0xe000ed00
 8001c4c:	e000ed14 	.word	0xe000ed14

08001c50 <HAL_NVIC_EnableIRQ>:
 8001c50:	2800      	cmp	r0, #0
 8001c52:	db08      	blt.n	8001c66 <HAL_NVIC_EnableIRQ+0x16>
 8001c54:	2301      	movs	r3, #1
 8001c56:	0942      	lsrs	r2, r0, #5
 8001c58:	f000 001f 	and.w	r0, r0, #31
 8001c5c:	fa03 f000 	lsl.w	r0, r3, r0
 8001c60:	4b01      	ldr	r3, [pc, #4]	; (8001c68 <HAL_NVIC_EnableIRQ+0x18>)
 8001c62:	f843 0022 	str.w	r0, [r3, r2, lsl #2]
 8001c66:	4770      	bx	lr
 8001c68:	e000e100 	.word	0xe000e100

08001c6c <HAL_SYSTICK_Config>:
 8001c6c:	3801      	subs	r0, #1
 8001c6e:	f1b0 7f80 	cmp.w	r0, #16777216	; 0x1000000
 8001c72:	d20b      	bcs.n	8001c8c <HAL_SYSTICK_Config+0x20>
 8001c74:	f04f 23e0 	mov.w	r3, #3758153728	; 0xe000e000
 8001c78:	4a05      	ldr	r2, [pc, #20]	; (8001c90 <HAL_SYSTICK_Config+0x24>)
 8001c7a:	6158      	str	r0, [r3, #20]
 8001c7c:	21f0      	movs	r1, #240	; 0xf0
 8001c7e:	f882 1023 	strb.w	r1, [r2, #35]	; 0x23
 8001c82:	2000      	movs	r0, #0
 8001c84:	2207      	movs	r2, #7
 8001c86:	6198      	str	r0, [r3, #24]
 8001c88:	611a      	str	r2, [r3, #16]
 8001c8a:	4770      	bx	lr
 8001c8c:	2001      	movs	r0, #1
 8001c8e:	4770      	bx	lr
 8001c90:	e000ed00 	.word	0xe000ed00

08001c94 <HAL_GPIO_Init>:
 8001c94:	e92d 4ff7 	stmdb	sp!, {r0, r1, r2, r4, r5, r6, r7, r8, r9, sl, fp, lr}
 8001c98:	f8df 917c 	ldr.w	r9, [pc, #380]	; 8001e18 <HAL_GPIO_Init+0x184>
 8001c9c:	4c5c      	ldr	r4, [pc, #368]	; (8001e10 <HAL_GPIO_Init+0x17c>)
 8001c9e:	2300      	movs	r3, #0
 8001ca0:	680a      	ldr	r2, [r1, #0]
 8001ca2:	fa32 f503 	lsrs.w	r5, r2, r3
 8001ca6:	d102      	bne.n	8001cae <HAL_GPIO_Init+0x1a>
 8001ca8:	b003      	add	sp, #12
 8001caa:	e8bd 8ff0 	ldmia.w	sp!, {r4, r5, r6, r7, r8, r9, sl, fp, pc}
 8001cae:	2501      	movs	r5, #1
 8001cb0:	fa05 fe03 	lsl.w	lr, r5, r3
 8001cb4:	ea1e 0202 	ands.w	r2, lr, r2
 8001cb8:	f000 80a0 	beq.w	8001dfc <HAL_GPIO_Init+0x168>
 8001cbc:	684e      	ldr	r6, [r1, #4]
 8001cbe:	2703      	movs	r7, #3
 8001cc0:	f006 0503 	and.w	r5, r6, #3
 8001cc4:	ea4f 0843 	mov.w	r8, r3, lsl #1
 8001cc8:	fa07 fc08 	lsl.w	ip, r7, r8
 8001ccc:	1e6f      	subs	r7, r5, #1
 8001cce:	2f01      	cmp	r7, #1
 8001cd0:	ea6f 0c0c 	mvn.w	ip, ip
 8001cd4:	d834      	bhi.n	8001d40 <HAL_GPIO_Init+0xac>
 8001cd6:	6887      	ldr	r7, [r0, #8]
 8001cd8:	ea07 0a0c 	and.w	sl, r7, ip
 8001cdc:	68cf      	ldr	r7, [r1, #12]
 8001cde:	fa07 f708 	lsl.w	r7, r7, r8
 8001ce2:	ea47 070a 	orr.w	r7, r7, sl
 8001ce6:	6087      	str	r7, [r0, #8]
 8001ce8:	6847      	ldr	r7, [r0, #4]
 8001cea:	ea27 0e0e 	bic.w	lr, r7, lr
 8001cee:	f3c6 1700 	ubfx	r7, r6, #4, #1
 8001cf2:	409f      	lsls	r7, r3
 8001cf4:	ea47 070e 	orr.w	r7, r7, lr
 8001cf8:	6047      	str	r7, [r0, #4]
 8001cfa:	68c7      	ldr	r7, [r0, #12]
 8001cfc:	ea07 0e0c 	and.w	lr, r7, ip
 8001d00:	688f      	ldr	r7, [r1, #8]
 8001d02:	fa07 f708 	lsl.w	r7, r7, r8
 8001d06:	ea47 070e 	orr.w	r7, r7, lr
 8001d0a:	2d02      	cmp	r5, #2
 8001d0c:	60c7      	str	r7, [r0, #12]
 8001d0e:	d119      	bne.n	8001d44 <HAL_GPIO_Init+0xb0>
 8001d10:	ea4f 0ad3 	mov.w	sl, r3, lsr #3
 8001d14:	eb00 0a8a 	add.w	sl, r0, sl, lsl #2
 8001d18:	f003 0b07 	and.w	fp, r3, #7
 8001d1c:	f8da 7020 	ldr.w	r7, [sl, #32]
 8001d20:	ea4f 0b8b 	mov.w	fp, fp, lsl #2
 8001d24:	f04f 0e0f 	mov.w	lr, #15
 8001d28:	fa0e fe0b 	lsl.w	lr, lr, fp
 8001d2c:	ea27 0e0e 	bic.w	lr, r7, lr
 8001d30:	690f      	ldr	r7, [r1, #16]
 8001d32:	fa07 f70b 	lsl.w	r7, r7, fp
 8001d36:	ea47 070e 	orr.w	r7, r7, lr
 8001d3a:	f8ca 7020 	str.w	r7, [sl, #32]
 8001d3e:	e001      	b.n	8001d44 <HAL_GPIO_Init+0xb0>
 8001d40:	2d03      	cmp	r5, #3
 8001d42:	d1da      	bne.n	8001cfa <HAL_GPIO_Init+0x66>
 8001d44:	6807      	ldr	r7, [r0, #0]
 8001d46:	fa05 f508 	lsl.w	r5, r5, r8
 8001d4a:	ea07 070c 	and.w	r7, r7, ip
 8001d4e:	432f      	orrs	r7, r5
 8001d50:	f416 3f40 	tst.w	r6, #196608	; 0x30000
 8001d54:	6007      	str	r7, [r0, #0]
 8001d56:	d051      	beq.n	8001dfc <HAL_GPIO_Init+0x168>
 8001d58:	f8d9 5060 	ldr.w	r5, [r9, #96]	; 0x60
 8001d5c:	f045 0501 	orr.w	r5, r5, #1
 8001d60:	f8c9 5060 	str.w	r5, [r9, #96]	; 0x60
 8001d64:	f8d9 5060 	ldr.w	r5, [r9, #96]	; 0x60
 8001d68:	f023 0703 	bic.w	r7, r3, #3
 8001d6c:	f107 4780 	add.w	r7, r7, #1073741824	; 0x40000000
 8001d70:	f005 0501 	and.w	r5, r5, #1
 8001d74:	f507 3780 	add.w	r7, r7, #65536	; 0x10000
 8001d78:	9501      	str	r5, [sp, #4]
 8001d7a:	f003 0e03 	and.w	lr, r3, #3
 8001d7e:	9d01      	ldr	r5, [sp, #4]
 8001d80:	68bd      	ldr	r5, [r7, #8]
 8001d82:	ea4f 0e8e 	mov.w	lr, lr, lsl #2
 8001d86:	f04f 0c0f 	mov.w	ip, #15
 8001d8a:	fa0c fc0e 	lsl.w	ip, ip, lr
 8001d8e:	f1b0 4f90 	cmp.w	r0, #1207959552	; 0x48000000
 8001d92:	ea25 0c0c 	bic.w	ip, r5, ip
 8001d96:	d033      	beq.n	8001e00 <HAL_GPIO_Init+0x16c>
 8001d98:	4d1e      	ldr	r5, [pc, #120]	; (8001e14 <HAL_GPIO_Init+0x180>)
 8001d9a:	42a8      	cmp	r0, r5
 8001d9c:	d032      	beq.n	8001e04 <HAL_GPIO_Init+0x170>
 8001d9e:	f505 6580 	add.w	r5, r5, #1024	; 0x400
 8001da2:	42a8      	cmp	r0, r5
 8001da4:	d030      	beq.n	8001e08 <HAL_GPIO_Init+0x174>
 8001da6:	f505 6580 	add.w	r5, r5, #1024	; 0x400
 8001daa:	42a8      	cmp	r0, r5
 8001dac:	d02e      	beq.n	8001e0c <HAL_GPIO_Init+0x178>
 8001dae:	f505 6580 	add.w	r5, r5, #1024	; 0x400
 8001db2:	42a8      	cmp	r0, r5
 8001db4:	bf0c      	ite	eq
 8001db6:	2504      	moveq	r5, #4
 8001db8:	2507      	movne	r5, #7
 8001dba:	fa05 f50e 	lsl.w	r5, r5, lr
 8001dbe:	ea45 050c 	orr.w	r5, r5, ip
 8001dc2:	60bd      	str	r5, [r7, #8]
 8001dc4:	68a5      	ldr	r5, [r4, #8]
 8001dc6:	43d7      	mvns	r7, r2
 8001dc8:	f416 1f80 	tst.w	r6, #1048576	; 0x100000
 8001dcc:	bf0c      	ite	eq
 8001dce:	403d      	andeq	r5, r7
 8001dd0:	4315      	orrne	r5, r2
 8001dd2:	60a5      	str	r5, [r4, #8]
 8001dd4:	68e5      	ldr	r5, [r4, #12]
 8001dd6:	f416 1f00 	tst.w	r6, #2097152	; 0x200000
 8001dda:	bf0c      	ite	eq
 8001ddc:	403d      	andeq	r5, r7
 8001dde:	4315      	orrne	r5, r2
 8001de0:	60e5      	str	r5, [r4, #12]
 8001de2:	6865      	ldr	r5, [r4, #4]
 8001de4:	f416 3f00 	tst.w	r6, #131072	; 0x20000
 8001de8:	bf0c      	ite	eq
 8001dea:	403d      	andeq	r5, r7
 8001dec:	4315      	orrne	r5, r2
 8001dee:	6065      	str	r5, [r4, #4]
 8001df0:	6825      	ldr	r5, [r4, #0]
 8001df2:	03f6      	lsls	r6, r6, #15
 8001df4:	bf54      	ite	pl
 8001df6:	403d      	andpl	r5, r7
 8001df8:	4315      	orrmi	r5, r2
 8001dfa:	6025      	str	r5, [r4, #0]
 8001dfc:	3301      	adds	r3, #1
 8001dfe:	e74f      	b.n	8001ca0 <HAL_GPIO_Init+0xc>
 8001e00:	2500      	movs	r5, #0
 8001e02:	e7da      	b.n	8001dba <HAL_GPIO_Init+0x126>
 8001e04:	2501      	movs	r5, #1
 8001e06:	e7d8      	b.n	8001dba <HAL_GPIO_Init+0x126>
 8001e08:	2502      	movs	r5, #2
 8001e0a:	e7d6      	b.n	8001dba <HAL_GPIO_Init+0x126>
 8001e0c:	2503      	movs	r5, #3
 8001e0e:	e7d4      	b.n	8001dba <HAL_GPIO_Init+0x126>
 8001e10:	40010400 	.word	0x40010400
 8001e14:	48000400 	.word	0x48000400
 8001e18:	40021000 	.word	0x40021000

08001e1c <HAL_GPIO_WritePin>:
 8001e1c:	b10a      	cbz	r2, 8001e22 <HAL_GPIO_WritePin+0x6>
 8001e1e:	6181      	str	r1, [r0, #24]
 8001e20:	4770      	bx	lr
 8001e22:	6281      	str	r1, [r0, #40]	; 0x28
 8001e24:	4770      	bx	lr

08001e26 <HAL_GPIO_TogglePin>:
 8001e26:	6943      	ldr	r3, [r0, #20]
 8001e28:	ea01 0203 	and.w	r2, r1, r3
 8001e2c:	ea21 0103 	bic.w	r1, r1, r3
 8001e30:	ea41 4102 	orr.w	r1, r1, r2, lsl #16
 8001e34:	6181      	str	r1, [r0, #24]
 8001e36:	4770      	bx	lr

08001e38 <I2C_Flush_TXDR>:
 8001e38:	6803      	ldr	r3, [r0, #0]
 8001e3a:	699a      	ldr	r2, [r3, #24]
 8001e3c:	0791      	lsls	r1, r2, #30
 8001e3e:	bf44      	itt	mi
 8001e40:	2200      	movmi	r2, #0
 8001e42:	629a      	strmi	r2, [r3, #40]	; 0x28
 8001e44:	699a      	ldr	r2, [r3, #24]
 8001e46:	07d2      	lsls	r2, r2, #31
 8001e48:	bf5e      	ittt	pl
 8001e4a:	699a      	ldrpl	r2, [r3, #24]
 8001e4c:	f042 0201 	orrpl.w	r2, r2, #1
 8001e50:	619a      	strpl	r2, [r3, #24]
 8001e52:	4770      	bx	lr

08001e54 <I2C_TransferConfig>:
 8001e54:	b530      	push	{r4, r5, lr}
 8001e56:	9d03      	ldr	r5, [sp, #12]
 8001e58:	6804      	ldr	r4, [r0, #0]
 8001e5a:	432b      	orrs	r3, r5
 8001e5c:	ea43 4302 	orr.w	r3, r3, r2, lsl #16
 8001e60:	4a06      	ldr	r2, [pc, #24]	; (8001e7c <I2C_TransferConfig+0x28>)
 8001e62:	6860      	ldr	r0, [r4, #4]
 8001e64:	f3c1 0109 	ubfx	r1, r1, #0, #10
 8001e68:	430b      	orrs	r3, r1
 8001e6a:	ea42 5255 	orr.w	r2, r2, r5, lsr #21
 8001e6e:	f023 4300 	bic.w	r3, r3, #2147483648	; 0x80000000
 8001e72:	ea20 0002 	bic.w	r0, r0, r2
 8001e76:	4303      	orrs	r3, r0
 8001e78:	6063      	str	r3, [r4, #4]
 8001e7a:	bd30      	pop	{r4, r5, pc}
 8001e7c:	03ff63ff 	.word	0x03ff63ff

08001e80 <I2C_IsErrorOccurred>:
 8001e80:	e92d 43f8 	stmdb	sp!, {r3, r4, r5, r6, r7, r8, r9, lr}
 8001e84:	6803      	ldr	r3, [r0, #0]
 8001e86:	699c      	ldr	r4, [r3, #24]
 8001e88:	f014 0410 	ands.w	r4, r4, #16
 8001e8c:	4605      	mov	r5, r0
 8001e8e:	4688      	mov	r8, r1
 8001e90:	4617      	mov	r7, r2
 8001e92:	d079      	beq.n	8001f88 <I2C_IsErrorOccurred+0x108>
 8001e94:	2210      	movs	r2, #16
 8001e96:	61da      	str	r2, [r3, #28]
 8001e98:	2600      	movs	r6, #0
 8001e9a:	f04f 0920 	mov.w	r9, #32
 8001e9e:	682b      	ldr	r3, [r5, #0]
 8001ea0:	699a      	ldr	r2, [r3, #24]
 8001ea2:	0694      	lsls	r4, r2, #26
 8001ea4:	d436      	bmi.n	8001f14 <I2C_IsErrorOccurred+0x94>
 8001ea6:	b10e      	cbz	r6, 8001eac <I2C_IsErrorOccurred+0x2c>
 8001ea8:	2404      	movs	r4, #4
 8001eaa:	e039      	b.n	8001f20 <I2C_IsErrorOccurred+0xa0>
 8001eac:	f1b8 3fff 	cmp.w	r8, #4294967295
 8001eb0:	d0f6      	beq.n	8001ea0 <I2C_IsErrorOccurred+0x20>
 8001eb2:	f7fe feeb 	bl	8000c8c <HAL_GetTick>
 8001eb6:	1bc0      	subs	r0, r0, r7
 8001eb8:	4540      	cmp	r0, r8
 8001eba:	d802      	bhi.n	8001ec2 <I2C_IsErrorOccurred+0x42>
 8001ebc:	f1b8 0f00 	cmp.w	r8, #0
 8001ec0:	d1ed      	bne.n	8001e9e <I2C_IsErrorOccurred+0x1e>
 8001ec2:	682b      	ldr	r3, [r5, #0]
 8001ec4:	6859      	ldr	r1, [r3, #4]
 8001ec6:	f895 2042 	ldrb.w	r2, [r5, #66]	; 0x42
 8001eca:	6998      	ldr	r0, [r3, #24]
 8001ecc:	0400      	lsls	r0, r0, #16
 8001ece:	b2d2      	uxtb	r2, r2
 8001ed0:	d50a      	bpl.n	8001ee8 <I2C_IsErrorOccurred+0x68>
 8001ed2:	0449      	lsls	r1, r1, #17
 8001ed4:	d408      	bmi.n	8001ee8 <I2C_IsErrorOccurred+0x68>
 8001ed6:	2a20      	cmp	r2, #32
 8001ed8:	d006      	beq.n	8001ee8 <I2C_IsErrorOccurred+0x68>
 8001eda:	685a      	ldr	r2, [r3, #4]
 8001edc:	f442 4280 	orr.w	r2, r2, #16384	; 0x4000
 8001ee0:	605a      	str	r2, [r3, #4]
 8001ee2:	f7fe fed3 	bl	8000c8c <HAL_GetTick>
 8001ee6:	4607      	mov	r7, r0
 8001ee8:	682b      	ldr	r3, [r5, #0]
 8001eea:	699c      	ldr	r4, [r3, #24]
 8001eec:	f014 0420 	ands.w	r4, r4, #32
 8001ef0:	d1d5      	bne.n	8001e9e <I2C_IsErrorOccurred+0x1e>
 8001ef2:	f7fe fecb 	bl	8000c8c <HAL_GetTick>
 8001ef6:	1bc0      	subs	r0, r0, r7
 8001ef8:	2819      	cmp	r0, #25
 8001efa:	d9f5      	bls.n	8001ee8 <I2C_IsErrorOccurred+0x68>
 8001efc:	6c6b      	ldr	r3, [r5, #68]	; 0x44
 8001efe:	f885 4040 	strb.w	r4, [r5, #64]	; 0x40
 8001f02:	f043 0320 	orr.w	r3, r3, #32
 8001f06:	646b      	str	r3, [r5, #68]	; 0x44
 8001f08:	2601      	movs	r6, #1
 8001f0a:	f885 9041 	strb.w	r9, [r5, #65]	; 0x41
 8001f0e:	f885 4042 	strb.w	r4, [r5, #66]	; 0x42
 8001f12:	e7e9      	b.n	8001ee8 <I2C_IsErrorOccurred+0x68>
 8001f14:	2e00      	cmp	r6, #0
 8001f16:	d1c7      	bne.n	8001ea8 <I2C_IsErrorOccurred+0x28>
 8001f18:	2220      	movs	r2, #32
 8001f1a:	61da      	str	r2, [r3, #28]
 8001f1c:	2404      	movs	r4, #4
 8001f1e:	2601      	movs	r6, #1
 8001f20:	682b      	ldr	r3, [r5, #0]
 8001f22:	699a      	ldr	r2, [r3, #24]
 8001f24:	05d0      	lsls	r0, r2, #23
 8001f26:	bf41      	itttt	mi
 8001f28:	f44f 7180 	movmi.w	r1, #256	; 0x100
 8001f2c:	61d9      	strmi	r1, [r3, #28]
 8001f2e:	f044 0401 	orrmi.w	r4, r4, #1
 8001f32:	2601      	movmi	r6, #1
 8001f34:	0551      	lsls	r1, r2, #21
 8001f36:	bf41      	itttt	mi
 8001f38:	f44f 6180 	movmi.w	r1, #1024	; 0x400
 8001f3c:	f044 0408 	orrmi.w	r4, r4, #8
 8001f40:	61d9      	strmi	r1, [r3, #28]
 8001f42:	2601      	movmi	r6, #1
 8001f44:	0592      	lsls	r2, r2, #22
 8001f46:	d521      	bpl.n	8001f8c <I2C_IsErrorOccurred+0x10c>
 8001f48:	f44f 7200 	mov.w	r2, #512	; 0x200
 8001f4c:	f044 0402 	orr.w	r4, r4, #2
 8001f50:	61da      	str	r2, [r3, #28]
 8001f52:	4628      	mov	r0, r5
 8001f54:	f7ff ff70 	bl	8001e38 <I2C_Flush_TXDR>
 8001f58:	682a      	ldr	r2, [r5, #0]
 8001f5a:	6853      	ldr	r3, [r2, #4]
 8001f5c:	f023 73ff 	bic.w	r3, r3, #33423360	; 0x1fe0000
 8001f60:	f423 338b 	bic.w	r3, r3, #71168	; 0x11600
 8001f64:	f423 73ff 	bic.w	r3, r3, #510	; 0x1fe
 8001f68:	f023 0301 	bic.w	r3, r3, #1
 8001f6c:	6053      	str	r3, [r2, #4]
 8001f6e:	6c6b      	ldr	r3, [r5, #68]	; 0x44
 8001f70:	431c      	orrs	r4, r3
 8001f72:	2320      	movs	r3, #32
 8001f74:	646c      	str	r4, [r5, #68]	; 0x44
 8001f76:	f885 3041 	strb.w	r3, [r5, #65]	; 0x41
 8001f7a:	2300      	movs	r3, #0
 8001f7c:	f885 3042 	strb.w	r3, [r5, #66]	; 0x42
 8001f80:	f885 3040 	strb.w	r3, [r5, #64]	; 0x40
 8001f84:	2601      	movs	r6, #1
 8001f86:	e003      	b.n	8001f90 <I2C_IsErrorOccurred+0x110>
 8001f88:	4626      	mov	r6, r4
 8001f8a:	e7c9      	b.n	8001f20 <I2C_IsErrorOccurred+0xa0>
 8001f8c:	2e00      	cmp	r6, #0
 8001f8e:	d1e0      	bne.n	8001f52 <I2C_IsErrorOccurred+0xd2>
 8001f90:	4630      	mov	r0, r6
 8001f92:	e8bd 83f8 	ldmia.w	sp!, {r3, r4, r5, r6, r7, r8, r9, pc}

08001f96 <I2C_WaitOnTXISFlagUntilTimeout>:
 8001f96:	b570      	push	{r4, r5, r6, lr}
 8001f98:	4604      	mov	r4, r0
 8001f9a:	460d      	mov	r5, r1
 8001f9c:	4616      	mov	r6, r2
 8001f9e:	6823      	ldr	r3, [r4, #0]
 8001fa0:	699b      	ldr	r3, [r3, #24]
 8001fa2:	079b      	lsls	r3, r3, #30
 8001fa4:	d501      	bpl.n	8001faa <I2C_WaitOnTXISFlagUntilTimeout+0x14>
 8001fa6:	2000      	movs	r0, #0
 8001fa8:	bd70      	pop	{r4, r5, r6, pc}
 8001faa:	4632      	mov	r2, r6
 8001fac:	4629      	mov	r1, r5
 8001fae:	4620      	mov	r0, r4
 8001fb0:	f7ff ff66 	bl	8001e80 <I2C_IsErrorOccurred>
 8001fb4:	b9a0      	cbnz	r0, 8001fe0 <I2C_WaitOnTXISFlagUntilTimeout+0x4a>
 8001fb6:	1c6a      	adds	r2, r5, #1
 8001fb8:	d0f1      	beq.n	8001f9e <I2C_WaitOnTXISFlagUntilTimeout+0x8>
 8001fba:	f7fe fe67 	bl	8000c8c <HAL_GetTick>
 8001fbe:	1b80      	subs	r0, r0, r6
 8001fc0:	42a8      	cmp	r0, r5
 8001fc2:	d801      	bhi.n	8001fc8 <I2C_WaitOnTXISFlagUntilTimeout+0x32>
 8001fc4:	2d00      	cmp	r5, #0
 8001fc6:	d1ea      	bne.n	8001f9e <I2C_WaitOnTXISFlagUntilTimeout+0x8>
 8001fc8:	6c63      	ldr	r3, [r4, #68]	; 0x44
 8001fca:	f043 0320 	orr.w	r3, r3, #32
 8001fce:	6463      	str	r3, [r4, #68]	; 0x44
 8001fd0:	2320      	movs	r3, #32
 8001fd2:	f884 3041 	strb.w	r3, [r4, #65]	; 0x41
 8001fd6:	2300      	movs	r3, #0
 8001fd8:	f884 3042 	strb.w	r3, [r4, #66]	; 0x42
 8001fdc:	f884 3040 	strb.w	r3, [r4, #64]	; 0x40
 8001fe0:	2001      	movs	r0, #1
 8001fe2:	e7e1      	b.n	8001fa8 <I2C_WaitOnTXISFlagUntilTimeout+0x12>

08001fe4 <I2C_WaitOnFlagUntilTimeout>:
 8001fe4:	e92d 41f0 	stmdb	sp!, {r4, r5, r6, r7, r8, lr}
 8001fe8:	9f06      	ldr	r7, [sp, #24]
 8001fea:	4604      	mov	r4, r0
 8001fec:	4688      	mov	r8, r1
 8001fee:	4616      	mov	r6, r2
 8001ff0:	461d      	mov	r5, r3
 8001ff2:	6822      	ldr	r2, [r4, #0]
 8001ff4:	6993      	ldr	r3, [r2, #24]
 8001ff6:	ea38 0303 	bics.w	r3, r8, r3
 8001ffa:	bf0c      	ite	eq
 8001ffc:	2301      	moveq	r3, #1
 8001ffe:	2300      	movne	r3, #0
 8002000:	42b3      	cmp	r3, r6
 8002002:	d001      	beq.n	8002008 <I2C_WaitOnFlagUntilTimeout+0x24>
 8002004:	2000      	movs	r0, #0
 8002006:	e015      	b.n	8002034 <I2C_WaitOnFlagUntilTimeout+0x50>
 8002008:	1c6b      	adds	r3, r5, #1
 800200a:	d0f3      	beq.n	8001ff4 <I2C_WaitOnFlagUntilTimeout+0x10>
 800200c:	f7fe fe3e 	bl	8000c8c <HAL_GetTick>
 8002010:	1bc0      	subs	r0, r0, r7
 8002012:	42a8      	cmp	r0, r5
 8002014:	d801      	bhi.n	800201a <I2C_WaitOnFlagUntilTimeout+0x36>
 8002016:	2d00      	cmp	r5, #0
 8002018:	d1eb      	bne.n	8001ff2 <I2C_WaitOnFlagUntilTimeout+0xe>
 800201a:	6c63      	ldr	r3, [r4, #68]	; 0x44
 800201c:	f043 0320 	orr.w	r3, r3, #32
 8002020:	6463      	str	r3, [r4, #68]	; 0x44
 8002022:	2320      	movs	r3, #32
 8002024:	f884 3041 	strb.w	r3, [r4, #65]	; 0x41
 8002028:	2300      	movs	r3, #0
 800202a:	f884 3042 	strb.w	r3, [r4, #66]	; 0x42
 800202e:	f884 3040 	strb.w	r3, [r4, #64]	; 0x40
 8002032:	2001      	movs	r0, #1
 8002034:	e8bd 81f0 	ldmia.w	sp!, {r4, r5, r6, r7, r8, pc}

08002038 <I2C_WaitOnSTOPFlagUntilTimeout>:
 8002038:	b570      	push	{r4, r5, r6, lr}
 800203a:	4604      	mov	r4, r0
 800203c:	460d      	mov	r5, r1
 800203e:	4616      	mov	r6, r2
 8002040:	6823      	ldr	r3, [r4, #0]
 8002042:	699b      	ldr	r3, [r3, #24]
 8002044:	069b      	lsls	r3, r3, #26
 8002046:	d501      	bpl.n	800204c <I2C_WaitOnSTOPFlagUntilTimeout+0x14>
 8002048:	2000      	movs	r0, #0
 800204a:	bd70      	pop	{r4, r5, r6, pc}
 800204c:	4632      	mov	r2, r6
 800204e:	4629      	mov	r1, r5
 8002050:	4620      	mov	r0, r4
 8002052:	f7ff ff15 	bl	8001e80 <I2C_IsErrorOccurred>
 8002056:	b990      	cbnz	r0, 800207e <I2C_WaitOnSTOPFlagUntilTimeout+0x46>
 8002058:	f7fe fe18 	bl	8000c8c <HAL_GetTick>
 800205c:	1b80      	subs	r0, r0, r6
 800205e:	42a8      	cmp	r0, r5
 8002060:	d801      	bhi.n	8002066 <I2C_WaitOnSTOPFlagUntilTimeout+0x2e>
 8002062:	2d00      	cmp	r5, #0
 8002064:	d1ec      	bne.n	8002040 <I2C_WaitOnSTOPFlagUntilTimeout+0x8>
 8002066:	6c63      	ldr	r3, [r4, #68]	; 0x44
 8002068:	f043 0320 	orr.w	r3, r3, #32
 800206c:	6463      	str	r3, [r4, #68]	; 0x44
 800206e:	2320      	movs	r3, #32
 8002070:	f884 3041 	strb.w	r3, [r4, #65]	; 0x41
 8002074:	2300      	movs	r3, #0
 8002076:	f884 3042 	strb.w	r3, [r4, #66]	; 0x42
 800207a:	f884 3040 	strb.w	r3, [r4, #64]	; 0x40
 800207e:	2001      	movs	r0, #1
 8002080:	e7e3      	b.n	800204a <I2C_WaitOnSTOPFlagUntilTimeout+0x12>

08002082 <HAL_I2C_Init>:
 8002082:	b510      	push	{r4, lr}
 8002084:	4604      	mov	r4, r0
 8002086:	2800      	cmp	r0, #0
 8002088:	d04a      	beq.n	8002120 <HAL_I2C_Init+0x9e>
 800208a:	f890 3041 	ldrb.w	r3, [r0, #65]	; 0x41
 800208e:	f003 02ff 	and.w	r2, r3, #255	; 0xff
 8002092:	b91b      	cbnz	r3, 800209c <HAL_I2C_Init+0x1a>
 8002094:	f880 2040 	strb.w	r2, [r0, #64]	; 0x40
 8002098:	f7fe fb46 	bl	8000728 <HAL_I2C_MspInit>
 800209c:	2324      	movs	r3, #36	; 0x24
 800209e:	f884 3041 	strb.w	r3, [r4, #65]	; 0x41
 80020a2:	6823      	ldr	r3, [r4, #0]
 80020a4:	681a      	ldr	r2, [r3, #0]
 80020a6:	f022 0201 	bic.w	r2, r2, #1
 80020aa:	601a      	str	r2, [r3, #0]
 80020ac:	6862      	ldr	r2, [r4, #4]
 80020ae:	f022 6270 	bic.w	r2, r2, #251658240	; 0xf000000
 80020b2:	611a      	str	r2, [r3, #16]
 80020b4:	689a      	ldr	r2, [r3, #8]
 80020b6:	f422 4200 	bic.w	r2, r2, #32768	; 0x8000
 80020ba:	609a      	str	r2, [r3, #8]
 80020bc:	e9d4 2102 	ldrd	r2, r1, [r4, #8]
 80020c0:	2901      	cmp	r1, #1
 80020c2:	d124      	bne.n	800210e <HAL_I2C_Init+0x8c>
 80020c4:	f442 4200 	orr.w	r2, r2, #32768	; 0x8000
 80020c8:	609a      	str	r2, [r3, #8]
 80020ca:	685a      	ldr	r2, [r3, #4]
 80020cc:	f042 7200 	orr.w	r2, r2, #33554432	; 0x2000000
 80020d0:	f442 4200 	orr.w	r2, r2, #32768	; 0x8000
 80020d4:	605a      	str	r2, [r3, #4]
 80020d6:	68da      	ldr	r2, [r3, #12]
 80020d8:	f422 4200 	bic.w	r2, r2, #32768	; 0x8000
 80020dc:	60da      	str	r2, [r3, #12]
 80020de:	e9d4 2104 	ldrd	r2, r1, [r4, #16]
 80020e2:	430a      	orrs	r2, r1
 80020e4:	69a1      	ldr	r1, [r4, #24]
 80020e6:	ea42 2201 	orr.w	r2, r2, r1, lsl #8
 80020ea:	60da      	str	r2, [r3, #12]
 80020ec:	e9d4 2107 	ldrd	r2, r1, [r4, #28]
 80020f0:	430a      	orrs	r2, r1
 80020f2:	601a      	str	r2, [r3, #0]
 80020f4:	681a      	ldr	r2, [r3, #0]
 80020f6:	f042 0201 	orr.w	r2, r2, #1
 80020fa:	601a      	str	r2, [r3, #0]
 80020fc:	2000      	movs	r0, #0
 80020fe:	2320      	movs	r3, #32
 8002100:	6460      	str	r0, [r4, #68]	; 0x44
 8002102:	f884 3041 	strb.w	r3, [r4, #65]	; 0x41
 8002106:	6320      	str	r0, [r4, #48]	; 0x30
 8002108:	f884 0042 	strb.w	r0, [r4, #66]	; 0x42
 800210c:	bd10      	pop	{r4, pc}
 800210e:	f442 4204 	orr.w	r2, r2, #33792	; 0x8400
 8002112:	2902      	cmp	r1, #2
 8002114:	609a      	str	r2, [r3, #8]
 8002116:	bf04      	itt	eq
 8002118:	f44f 6200 	moveq.w	r2, #2048	; 0x800
 800211c:	605a      	streq	r2, [r3, #4]
 800211e:	e7d4      	b.n	80020ca <HAL_I2C_Init+0x48>
 8002120:	2001      	movs	r0, #1
 8002122:	e7f3      	b.n	800210c <HAL_I2C_Init+0x8a>

08002124 <HAL_I2C_Master_Transmit>:
 8002124:	e92d 47f3 	stmdb	sp!, {r0, r1, r4, r5, r6, r7, r8, r9, sl, lr}
 8002128:	4698      	mov	r8, r3
 800212a:	f890 3041 	ldrb.w	r3, [r0, #65]	; 0x41
 800212e:	9f0a      	ldr	r7, [sp, #40]	; 0x28
 8002130:	2b20      	cmp	r3, #32
 8002132:	4604      	mov	r4, r0
 8002134:	460e      	mov	r6, r1
 8002136:	4691      	mov	r9, r2
 8002138:	f040 8086 	bne.w	8002248 <HAL_I2C_Master_Transmit+0x124>
 800213c:	f890 3040 	ldrb.w	r3, [r0, #64]	; 0x40
 8002140:	2b01      	cmp	r3, #1
 8002142:	f000 8081 	beq.w	8002248 <HAL_I2C_Master_Transmit+0x124>
 8002146:	f04f 0a01 	mov.w	sl, #1
 800214a:	f880 a040 	strb.w	sl, [r0, #64]	; 0x40
 800214e:	f7fe fd9d 	bl	8000c8c <HAL_GetTick>
 8002152:	2319      	movs	r3, #25
 8002154:	4605      	mov	r5, r0
 8002156:	9000      	str	r0, [sp, #0]
 8002158:	4652      	mov	r2, sl
 800215a:	f44f 4100 	mov.w	r1, #32768	; 0x8000
 800215e:	4620      	mov	r0, r4
 8002160:	f7ff ff40 	bl	8001fe4 <I2C_WaitOnFlagUntilTimeout>
 8002164:	b118      	cbz	r0, 800216e <HAL_I2C_Master_Transmit+0x4a>
 8002166:	2001      	movs	r0, #1
 8002168:	b002      	add	sp, #8
 800216a:	e8bd 87f0 	ldmia.w	sp!, {r4, r5, r6, r7, r8, r9, sl, pc}
 800216e:	2321      	movs	r3, #33	; 0x21
 8002170:	f884 3041 	strb.w	r3, [r4, #65]	; 0x41
 8002174:	2310      	movs	r3, #16
 8002176:	f884 3042 	strb.w	r3, [r4, #66]	; 0x42
 800217a:	6460      	str	r0, [r4, #68]	; 0x44
 800217c:	f8a4 802a 	strh.w	r8, [r4, #42]	; 0x2a
 8002180:	8d63      	ldrh	r3, [r4, #42]	; 0x2a
 8002182:	f8c4 9024 	str.w	r9, [r4, #36]	; 0x24
 8002186:	b29b      	uxth	r3, r3
 8002188:	2bff      	cmp	r3, #255	; 0xff
 800218a:	6360      	str	r0, [r4, #52]	; 0x34
 800218c:	4b2f      	ldr	r3, [pc, #188]	; (800224c <HAL_I2C_Master_Transmit+0x128>)
 800218e:	d926      	bls.n	80021de <HAL_I2C_Master_Transmit+0xba>
 8002190:	22ff      	movs	r2, #255	; 0xff
 8002192:	8522      	strh	r2, [r4, #40]	; 0x28
 8002194:	9300      	str	r3, [sp, #0]
 8002196:	f04f 7380 	mov.w	r3, #16777216	; 0x1000000
 800219a:	4631      	mov	r1, r6
 800219c:	4620      	mov	r0, r4
 800219e:	f7ff fe59 	bl	8001e54 <I2C_TransferConfig>
 80021a2:	8d63      	ldrh	r3, [r4, #42]	; 0x2a
 80021a4:	b29b      	uxth	r3, r3
 80021a6:	462a      	mov	r2, r5
 80021a8:	4639      	mov	r1, r7
 80021aa:	4620      	mov	r0, r4
 80021ac:	b9fb      	cbnz	r3, 80021ee <HAL_I2C_Master_Transmit+0xca>
 80021ae:	f7ff ff43 	bl	8002038 <I2C_WaitOnSTOPFlagUntilTimeout>
 80021b2:	2800      	cmp	r0, #0
 80021b4:	d1d7      	bne.n	8002166 <HAL_I2C_Master_Transmit+0x42>
 80021b6:	6823      	ldr	r3, [r4, #0]
 80021b8:	2120      	movs	r1, #32
 80021ba:	61d9      	str	r1, [r3, #28]
 80021bc:	685a      	ldr	r2, [r3, #4]
 80021be:	f022 72ff 	bic.w	r2, r2, #33423360	; 0x1fe0000
 80021c2:	f422 328b 	bic.w	r2, r2, #71168	; 0x11600
 80021c6:	f422 72ff 	bic.w	r2, r2, #510	; 0x1fe
 80021ca:	f022 0201 	bic.w	r2, r2, #1
 80021ce:	605a      	str	r2, [r3, #4]
 80021d0:	f884 1041 	strb.w	r1, [r4, #65]	; 0x41
 80021d4:	f884 0040 	strb.w	r0, [r4, #64]	; 0x40
 80021d8:	f884 0042 	strb.w	r0, [r4, #66]	; 0x42
 80021dc:	e7c4      	b.n	8002168 <HAL_I2C_Master_Transmit+0x44>
 80021de:	8d62      	ldrh	r2, [r4, #42]	; 0x2a
 80021e0:	9300      	str	r3, [sp, #0]
 80021e2:	b292      	uxth	r2, r2
 80021e4:	8522      	strh	r2, [r4, #40]	; 0x28
 80021e6:	f04f 7300 	mov.w	r3, #33554432	; 0x2000000
 80021ea:	b2d2      	uxtb	r2, r2
 80021ec:	e7d5      	b.n	800219a <HAL_I2C_Master_Transmit+0x76>
 80021ee:	f7ff fed2 	bl	8001f96 <I2C_WaitOnTXISFlagUntilTimeout>
 80021f2:	2800      	cmp	r0, #0
 80021f4:	d1b7      	bne.n	8002166 <HAL_I2C_Master_Transmit+0x42>
 80021f6:	6a63      	ldr	r3, [r4, #36]	; 0x24
 80021f8:	6822      	ldr	r2, [r4, #0]
 80021fa:	f813 1b01 	ldrb.w	r1, [r3], #1
 80021fe:	6291      	str	r1, [r2, #40]	; 0x28
 8002200:	6263      	str	r3, [r4, #36]	; 0x24
 8002202:	8d63      	ldrh	r3, [r4, #42]	; 0x2a
 8002204:	8d22      	ldrh	r2, [r4, #40]	; 0x28
 8002206:	3b01      	subs	r3, #1
 8002208:	b29b      	uxth	r3, r3
 800220a:	8563      	strh	r3, [r4, #42]	; 0x2a
 800220c:	8d63      	ldrh	r3, [r4, #42]	; 0x2a
 800220e:	3a01      	subs	r2, #1
 8002210:	b292      	uxth	r2, r2
 8002212:	b29b      	uxth	r3, r3
 8002214:	8522      	strh	r2, [r4, #40]	; 0x28
 8002216:	2b00      	cmp	r3, #0
 8002218:	d0c3      	beq.n	80021a2 <HAL_I2C_Master_Transmit+0x7e>
 800221a:	2a00      	cmp	r2, #0
 800221c:	d1c1      	bne.n	80021a2 <HAL_I2C_Master_Transmit+0x7e>
 800221e:	9500      	str	r5, [sp, #0]
 8002220:	463b      	mov	r3, r7
 8002222:	2180      	movs	r1, #128	; 0x80
 8002224:	4620      	mov	r0, r4
 8002226:	f7ff fedd 	bl	8001fe4 <I2C_WaitOnFlagUntilTimeout>
 800222a:	2800      	cmp	r0, #0
 800222c:	d19b      	bne.n	8002166 <HAL_I2C_Master_Transmit+0x42>
 800222e:	8d63      	ldrh	r3, [r4, #42]	; 0x2a
 8002230:	b29b      	uxth	r3, r3
 8002232:	2bff      	cmp	r3, #255	; 0xff
 8002234:	d903      	bls.n	800223e <HAL_I2C_Master_Transmit+0x11a>
 8002236:	22ff      	movs	r2, #255	; 0xff
 8002238:	8522      	strh	r2, [r4, #40]	; 0x28
 800223a:	9000      	str	r0, [sp, #0]
 800223c:	e7ab      	b.n	8002196 <HAL_I2C_Master_Transmit+0x72>
 800223e:	8d62      	ldrh	r2, [r4, #42]	; 0x2a
 8002240:	9000      	str	r0, [sp, #0]
 8002242:	b292      	uxth	r2, r2
 8002244:	8522      	strh	r2, [r4, #40]	; 0x28
 8002246:	e7ce      	b.n	80021e6 <HAL_I2C_Master_Transmit+0xc2>
 8002248:	2002      	movs	r0, #2
 800224a:	e78d      	b.n	8002168 <HAL_I2C_Master_Transmit+0x44>
 800224c:	80002000 	.word	0x80002000

08002250 <HAL_I2CEx_ConfigAnalogFilter>:
 8002250:	b510      	push	{r4, lr}
 8002252:	f890 3041 	ldrb.w	r3, [r0, #65]	; 0x41
 8002256:	2b20      	cmp	r3, #32
 8002258:	b2dc      	uxtb	r4, r3
 800225a:	d11d      	bne.n	8002298 <HAL_I2CEx_ConfigAnalogFilter+0x48>
 800225c:	f890 3040 	ldrb.w	r3, [r0, #64]	; 0x40
 8002260:	2b01      	cmp	r3, #1
 8002262:	d019      	beq.n	8002298 <HAL_I2CEx_ConfigAnalogFilter+0x48>
 8002264:	2324      	movs	r3, #36	; 0x24
 8002266:	f880 3041 	strb.w	r3, [r0, #65]	; 0x41
 800226a:	6803      	ldr	r3, [r0, #0]
 800226c:	681a      	ldr	r2, [r3, #0]
 800226e:	f022 0201 	bic.w	r2, r2, #1
 8002272:	601a      	str	r2, [r3, #0]
 8002274:	681a      	ldr	r2, [r3, #0]
 8002276:	f422 5280 	bic.w	r2, r2, #4096	; 0x1000
 800227a:	601a      	str	r2, [r3, #0]
 800227c:	681a      	ldr	r2, [r3, #0]
 800227e:	4311      	orrs	r1, r2
 8002280:	6019      	str	r1, [r3, #0]
 8002282:	681a      	ldr	r2, [r3, #0]
 8002284:	f042 0201 	orr.w	r2, r2, #1
 8002288:	601a      	str	r2, [r3, #0]
 800228a:	2300      	movs	r3, #0
 800228c:	f880 4041 	strb.w	r4, [r0, #65]	; 0x41
 8002290:	f880 3040 	strb.w	r3, [r0, #64]	; 0x40
 8002294:	4618      	mov	r0, r3
 8002296:	bd10      	pop	{r4, pc}
 8002298:	2002      	movs	r0, #2
 800229a:	e7fc      	b.n	8002296 <HAL_I2CEx_ConfigAnalogFilter+0x46>

0800229c <HAL_I2CEx_ConfigDigitalFilter>:
 800229c:	b510      	push	{r4, lr}
 800229e:	f890 3041 	ldrb.w	r3, [r0, #65]	; 0x41
 80022a2:	2b20      	cmp	r3, #32
 80022a4:	b2dc      	uxtb	r4, r3
 80022a6:	d11c      	bne.n	80022e2 <HAL_I2CEx_ConfigDigitalFilter+0x46>
 80022a8:	f890 3040 	ldrb.w	r3, [r0, #64]	; 0x40
 80022ac:	2b01      	cmp	r3, #1
 80022ae:	d018      	beq.n	80022e2 <HAL_I2CEx_ConfigDigitalFilter+0x46>
 80022b0:	2324      	movs	r3, #36	; 0x24
 80022b2:	f880 3041 	strb.w	r3, [r0, #65]	; 0x41
 80022b6:	6803      	ldr	r3, [r0, #0]
 80022b8:	681a      	ldr	r2, [r3, #0]
 80022ba:	f022 0201 	bic.w	r2, r2, #1
 80022be:	601a      	str	r2, [r3, #0]
 80022c0:	681a      	ldr	r2, [r3, #0]
 80022c2:	f422 6270 	bic.w	r2, r2, #3840	; 0xf00
 80022c6:	ea42 2101 	orr.w	r1, r2, r1, lsl #8
 80022ca:	6019      	str	r1, [r3, #0]
 80022cc:	681a      	ldr	r2, [r3, #0]
 80022ce:	f042 0201 	orr.w	r2, r2, #1
 80022d2:	601a      	str	r2, [r3, #0]
 80022d4:	2300      	movs	r3, #0
 80022d6:	f880 4041 	strb.w	r4, [r0, #65]	; 0x41
 80022da:	f880 3040 	strb.w	r3, [r0, #64]	; 0x40
 80022de:	4618      	mov	r0, r3
 80022e0:	bd10      	pop	{r4, pc}
 80022e2:	2002      	movs	r0, #2
 80022e4:	e7fc      	b.n	80022e0 <HAL_I2CEx_ConfigDigitalFilter+0x44>
	...

080022e8 <HAL_PWREx_GetVoltageRange>:
 80022e8:	4b02      	ldr	r3, [pc, #8]	; (80022f4 <HAL_PWREx_GetVoltageRange+0xc>)
 80022ea:	6818      	ldr	r0, [r3, #0]
 80022ec:	f400 60c0 	and.w	r0, r0, #1536	; 0x600
 80022f0:	4770      	bx	lr
 80022f2:	bf00      	nop
 80022f4:	40007000 	.word	0x40007000

080022f8 <HAL_PWREx_ControlVoltageScaling>:
 80022f8:	4a17      	ldr	r2, [pc, #92]	; (8002358 <HAL_PWREx_ControlVoltageScaling+0x60>)
 80022fa:	6813      	ldr	r3, [r2, #0]
 80022fc:	f5b0 7f00 	cmp.w	r0, #512	; 0x200
 8002300:	f403 63c0 	and.w	r3, r3, #1536	; 0x600
 8002304:	d11d      	bne.n	8002342 <HAL_PWREx_ControlVoltageScaling+0x4a>
 8002306:	f5b3 7f00 	cmp.w	r3, #512	; 0x200
 800230a:	d101      	bne.n	8002310 <HAL_PWREx_ControlVoltageScaling+0x18>
 800230c:	2000      	movs	r0, #0
 800230e:	4770      	bx	lr
 8002310:	6813      	ldr	r3, [r2, #0]
 8002312:	f423 63c0 	bic.w	r3, r3, #1536	; 0x600
 8002316:	f443 7300 	orr.w	r3, r3, #512	; 0x200
 800231a:	6013      	str	r3, [r2, #0]
 800231c:	4b0f      	ldr	r3, [pc, #60]	; (800235c <HAL_PWREx_ControlVoltageScaling+0x64>)
 800231e:	681b      	ldr	r3, [r3, #0]
 8002320:	2132      	movs	r1, #50	; 0x32
 8002322:	434b      	muls	r3, r1
 8002324:	490e      	ldr	r1, [pc, #56]	; (8002360 <HAL_PWREx_ControlVoltageScaling+0x68>)
 8002326:	fbb3 f3f1 	udiv	r3, r3, r1
 800232a:	3301      	adds	r3, #1
 800232c:	6951      	ldr	r1, [r2, #20]
 800232e:	0549      	lsls	r1, r1, #21
 8002330:	d500      	bpl.n	8002334 <HAL_PWREx_ControlVoltageScaling+0x3c>
 8002332:	b923      	cbnz	r3, 800233e <HAL_PWREx_ControlVoltageScaling+0x46>
 8002334:	6953      	ldr	r3, [r2, #20]
 8002336:	055b      	lsls	r3, r3, #21
 8002338:	d5e8      	bpl.n	800230c <HAL_PWREx_ControlVoltageScaling+0x14>
 800233a:	2003      	movs	r0, #3
 800233c:	4770      	bx	lr
 800233e:	3b01      	subs	r3, #1
 8002340:	e7f4      	b.n	800232c <HAL_PWREx_ControlVoltageScaling+0x34>
 8002342:	f5b3 6f80 	cmp.w	r3, #1024	; 0x400
 8002346:	bf1f      	itttt	ne
 8002348:	6813      	ldrne	r3, [r2, #0]
 800234a:	f423 63c0 	bicne.w	r3, r3, #1536	; 0x600
 800234e:	f443 6380 	orrne.w	r3, r3, #1024	; 0x400
 8002352:	6013      	strne	r3, [r2, #0]
 8002354:	e7da      	b.n	800230c <HAL_PWREx_ControlVoltageScaling+0x14>
 8002356:	bf00      	nop
 8002358:	40007000 	.word	0x40007000
 800235c:	20000000 	.word	0x20000000
 8002360:	000f4240 	.word	0x000f4240

08002364 <RCC_SetFlashLatencyFromMSIRange>:
 8002364:	b537      	push	{r0, r1, r2, r4, r5, lr}
 8002366:	4d1e      	ldr	r5, [pc, #120]	; (80023e0 <RCC_SetFlashLatencyFromMSIRange+0x7c>)
 8002368:	6dab      	ldr	r3, [r5, #88]	; 0x58
 800236a:	00da      	lsls	r2, r3, #3
 800236c:	4604      	mov	r4, r0
 800236e:	d518      	bpl.n	80023a2 <RCC_SetFlashLatencyFromMSIRange+0x3e>
 8002370:	f7ff ffba 	bl	80022e8 <HAL_PWREx_GetVoltageRange>
 8002374:	f5b0 7f00 	cmp.w	r0, #512	; 0x200
 8002378:	d123      	bne.n	80023c2 <RCC_SetFlashLatencyFromMSIRange+0x5e>
 800237a:	2c80      	cmp	r4, #128	; 0x80
 800237c:	d929      	bls.n	80023d2 <RCC_SetFlashLatencyFromMSIRange+0x6e>
 800237e:	2ca0      	cmp	r4, #160	; 0xa0
 8002380:	bf8c      	ite	hi
 8002382:	2002      	movhi	r0, #2
 8002384:	2001      	movls	r0, #1
 8002386:	4a17      	ldr	r2, [pc, #92]	; (80023e4 <RCC_SetFlashLatencyFromMSIRange+0x80>)
 8002388:	6813      	ldr	r3, [r2, #0]
 800238a:	f023 0307 	bic.w	r3, r3, #7
 800238e:	4303      	orrs	r3, r0
 8002390:	6013      	str	r3, [r2, #0]
 8002392:	6813      	ldr	r3, [r2, #0]
 8002394:	f003 0307 	and.w	r3, r3, #7
 8002398:	1a18      	subs	r0, r3, r0
 800239a:	bf18      	it	ne
 800239c:	2001      	movne	r0, #1
 800239e:	b003      	add	sp, #12
 80023a0:	bd30      	pop	{r4, r5, pc}
 80023a2:	6dab      	ldr	r3, [r5, #88]	; 0x58
 80023a4:	f043 5380 	orr.w	r3, r3, #268435456	; 0x10000000
 80023a8:	65ab      	str	r3, [r5, #88]	; 0x58
 80023aa:	6dab      	ldr	r3, [r5, #88]	; 0x58
 80023ac:	f003 5380 	and.w	r3, r3, #268435456	; 0x10000000
 80023b0:	9301      	str	r3, [sp, #4]
 80023b2:	9b01      	ldr	r3, [sp, #4]
 80023b4:	f7ff ff98 	bl	80022e8 <HAL_PWREx_GetVoltageRange>
 80023b8:	6dab      	ldr	r3, [r5, #88]	; 0x58
 80023ba:	f023 5380 	bic.w	r3, r3, #268435456	; 0x10000000
 80023be:	65ab      	str	r3, [r5, #88]	; 0x58
 80023c0:	e7d8      	b.n	8002374 <RCC_SetFlashLatencyFromMSIRange+0x10>
 80023c2:	2c80      	cmp	r4, #128	; 0x80
 80023c4:	d807      	bhi.n	80023d6 <RCC_SetFlashLatencyFromMSIRange+0x72>
 80023c6:	d008      	beq.n	80023da <RCC_SetFlashLatencyFromMSIRange+0x76>
 80023c8:	f1a4 0370 	sub.w	r3, r4, #112	; 0x70
 80023cc:	4258      	negs	r0, r3
 80023ce:	4158      	adcs	r0, r3
 80023d0:	e7d9      	b.n	8002386 <RCC_SetFlashLatencyFromMSIRange+0x22>
 80023d2:	2000      	movs	r0, #0
 80023d4:	e7d7      	b.n	8002386 <RCC_SetFlashLatencyFromMSIRange+0x22>
 80023d6:	2003      	movs	r0, #3
 80023d8:	e7d5      	b.n	8002386 <RCC_SetFlashLatencyFromMSIRange+0x22>
 80023da:	2002      	movs	r0, #2
 80023dc:	e7d3      	b.n	8002386 <RCC_SetFlashLatencyFromMSIRange+0x22>
 80023de:	bf00      	nop
 80023e0:	40021000 	.word	0x40021000
 80023e4:	40022000 	.word	0x40022000

080023e8 <HAL_RCC_GetSysClockFreq>:
 80023e8:	4b22      	ldr	r3, [pc, #136]	; (8002474 <HAL_RCC_GetSysClockFreq+0x8c>)
 80023ea:	689a      	ldr	r2, [r3, #8]
 80023ec:	68d9      	ldr	r1, [r3, #12]
 80023ee:	f012 020c 	ands.w	r2, r2, #12
 80023f2:	d005      	beq.n	8002400 <HAL_RCC_GetSysClockFreq+0x18>
 80023f4:	2a0c      	cmp	r2, #12
 80023f6:	d115      	bne.n	8002424 <HAL_RCC_GetSysClockFreq+0x3c>
 80023f8:	f001 0103 	and.w	r1, r1, #3
 80023fc:	2901      	cmp	r1, #1
 80023fe:	d118      	bne.n	8002432 <HAL_RCC_GetSysClockFreq+0x4a>
 8002400:	6819      	ldr	r1, [r3, #0]
 8002402:	481d      	ldr	r0, [pc, #116]	; (8002478 <HAL_RCC_GetSysClockFreq+0x90>)
 8002404:	0709      	lsls	r1, r1, #28
 8002406:	bf55      	itete	pl
 8002408:	f8d3 1094 	ldrpl.w	r1, [r3, #148]	; 0x94
 800240c:	6819      	ldrmi	r1, [r3, #0]
 800240e:	f3c1 2103 	ubfxpl	r1, r1, #8, #4
 8002412:	f3c1 1103 	ubfxmi	r1, r1, #4, #4
 8002416:	f850 0021 	ldr.w	r0, [r0, r1, lsl #2]
 800241a:	b34a      	cbz	r2, 8002470 <HAL_RCC_GetSysClockFreq+0x88>
 800241c:	2a0c      	cmp	r2, #12
 800241e:	d009      	beq.n	8002434 <HAL_RCC_GetSysClockFreq+0x4c>
 8002420:	2000      	movs	r0, #0
 8002422:	4770      	bx	lr
 8002424:	2a04      	cmp	r2, #4
 8002426:	d022      	beq.n	800246e <HAL_RCC_GetSysClockFreq+0x86>
 8002428:	2a08      	cmp	r2, #8
 800242a:	4814      	ldr	r0, [pc, #80]	; (800247c <HAL_RCC_GetSysClockFreq+0x94>)
 800242c:	bf18      	it	ne
 800242e:	2000      	movne	r0, #0
 8002430:	4770      	bx	lr
 8002432:	2000      	movs	r0, #0
 8002434:	68da      	ldr	r2, [r3, #12]
 8002436:	f002 0203 	and.w	r2, r2, #3
 800243a:	2a02      	cmp	r2, #2
 800243c:	d015      	beq.n	800246a <HAL_RCC_GetSysClockFreq+0x82>
 800243e:	490f      	ldr	r1, [pc, #60]	; (800247c <HAL_RCC_GetSysClockFreq+0x94>)
 8002440:	2a03      	cmp	r2, #3
 8002442:	bf08      	it	eq
 8002444:	4608      	moveq	r0, r1
 8002446:	68d9      	ldr	r1, [r3, #12]
 8002448:	68da      	ldr	r2, [r3, #12]
 800244a:	f3c2 2206 	ubfx	r2, r2, #8, #7
 800244e:	4342      	muls	r2, r0
 8002450:	68d8      	ldr	r0, [r3, #12]
 8002452:	f3c0 6041 	ubfx	r0, r0, #25, #2
 8002456:	f3c1 1102 	ubfx	r1, r1, #4, #3
 800245a:	3001      	adds	r0, #1
 800245c:	3101      	adds	r1, #1
 800245e:	0040      	lsls	r0, r0, #1
 8002460:	fbb2 f2f1 	udiv	r2, r2, r1
 8002464:	fbb2 f0f0 	udiv	r0, r2, r0
 8002468:	4770      	bx	lr
 800246a:	4805      	ldr	r0, [pc, #20]	; (8002480 <HAL_RCC_GetSysClockFreq+0x98>)
 800246c:	e7eb      	b.n	8002446 <HAL_RCC_GetSysClockFreq+0x5e>
 800246e:	4804      	ldr	r0, [pc, #16]	; (8002480 <HAL_RCC_GetSysClockFreq+0x98>)
 8002470:	4770      	bx	lr
 8002472:	bf00      	nop
 8002474:	40021000 	.word	0x40021000
 8002478:	0800367c 	.word	0x0800367c
 800247c:	007a1200 	.word	0x007a1200
 8002480:	00f42400 	.word	0x00f42400

08002484 <HAL_RCC_OscConfig>:
 8002484:	e92d 43f7 	stmdb	sp!, {r0, r1, r2, r4, r5, r6, r7, r8, r9, lr}
 8002488:	4605      	mov	r5, r0
 800248a:	b908      	cbnz	r0, 8002490 <HAL_RCC_OscConfig+0xc>
 800248c:	2001      	movs	r0, #1
 800248e:	e047      	b.n	8002520 <HAL_RCC_OscConfig+0x9c>
 8002490:	4c94      	ldr	r4, [pc, #592]	; (80026e4 <HAL_RCC_OscConfig+0x260>)
 8002492:	6803      	ldr	r3, [r0, #0]
 8002494:	68a6      	ldr	r6, [r4, #8]
 8002496:	68e7      	ldr	r7, [r4, #12]
 8002498:	06db      	lsls	r3, r3, #27
 800249a:	f006 060c 	and.w	r6, r6, #12
 800249e:	f007 0703 	and.w	r7, r7, #3
 80024a2:	d575      	bpl.n	8002590 <HAL_RCC_OscConfig+0x10c>
 80024a4:	b11e      	cbz	r6, 80024ae <HAL_RCC_OscConfig+0x2a>
 80024a6:	2e0c      	cmp	r6, #12
 80024a8:	d154      	bne.n	8002554 <HAL_RCC_OscConfig+0xd0>
 80024aa:	2f01      	cmp	r7, #1
 80024ac:	d152      	bne.n	8002554 <HAL_RCC_OscConfig+0xd0>
 80024ae:	6823      	ldr	r3, [r4, #0]
 80024b0:	0798      	lsls	r0, r3, #30
 80024b2:	d502      	bpl.n	80024ba <HAL_RCC_OscConfig+0x36>
 80024b4:	69ab      	ldr	r3, [r5, #24]
 80024b6:	2b00      	cmp	r3, #0
 80024b8:	d0e8      	beq.n	800248c <HAL_RCC_OscConfig+0x8>
 80024ba:	6823      	ldr	r3, [r4, #0]
 80024bc:	6a28      	ldr	r0, [r5, #32]
 80024be:	0719      	lsls	r1, r3, #28
 80024c0:	bf56      	itet	pl
 80024c2:	f8d4 3094 	ldrpl.w	r3, [r4, #148]	; 0x94
 80024c6:	6823      	ldrmi	r3, [r4, #0]
 80024c8:	091b      	lsrpl	r3, r3, #4
 80024ca:	f003 03f0 	and.w	r3, r3, #240	; 0xf0
 80024ce:	4298      	cmp	r0, r3
 80024d0:	d929      	bls.n	8002526 <HAL_RCC_OscConfig+0xa2>
 80024d2:	f7ff ff47 	bl	8002364 <RCC_SetFlashLatencyFromMSIRange>
 80024d6:	2800      	cmp	r0, #0
 80024d8:	d1d8      	bne.n	800248c <HAL_RCC_OscConfig+0x8>
 80024da:	6823      	ldr	r3, [r4, #0]
 80024dc:	f043 0308 	orr.w	r3, r3, #8
 80024e0:	6023      	str	r3, [r4, #0]
 80024e2:	6823      	ldr	r3, [r4, #0]
 80024e4:	6a2a      	ldr	r2, [r5, #32]
 80024e6:	f023 03f0 	bic.w	r3, r3, #240	; 0xf0
 80024ea:	4313      	orrs	r3, r2
 80024ec:	6023      	str	r3, [r4, #0]
 80024ee:	6863      	ldr	r3, [r4, #4]
 80024f0:	69ea      	ldr	r2, [r5, #28]
 80024f2:	f423 437f 	bic.w	r3, r3, #65280	; 0xff00
 80024f6:	ea43 2302 	orr.w	r3, r3, r2, lsl #8
 80024fa:	6063      	str	r3, [r4, #4]
 80024fc:	f7ff ff74 	bl	80023e8 <HAL_RCC_GetSysClockFreq>
 8002500:	68a3      	ldr	r3, [r4, #8]
 8002502:	4a79      	ldr	r2, [pc, #484]	; (80026e8 <HAL_RCC_OscConfig+0x264>)
 8002504:	f3c3 1303 	ubfx	r3, r3, #4, #4
 8002508:	5cd3      	ldrb	r3, [r2, r3]
 800250a:	f003 031f 	and.w	r3, r3, #31
 800250e:	40d8      	lsrs	r0, r3
 8002510:	4b76      	ldr	r3, [pc, #472]	; (80026ec <HAL_RCC_OscConfig+0x268>)
 8002512:	6018      	str	r0, [r3, #0]
 8002514:	4b76      	ldr	r3, [pc, #472]	; (80026f0 <HAL_RCC_OscConfig+0x26c>)
 8002516:	6818      	ldr	r0, [r3, #0]
 8002518:	f7fe fb76 	bl	8000c08 <HAL_InitTick>
 800251c:	2800      	cmp	r0, #0
 800251e:	d037      	beq.n	8002590 <HAL_RCC_OscConfig+0x10c>
 8002520:	b003      	add	sp, #12
 8002522:	e8bd 83f0 	ldmia.w	sp!, {r4, r5, r6, r7, r8, r9, pc}
 8002526:	6823      	ldr	r3, [r4, #0]
 8002528:	f043 0308 	orr.w	r3, r3, #8
 800252c:	6023      	str	r3, [r4, #0]
 800252e:	6823      	ldr	r3, [r4, #0]
 8002530:	f023 03f0 	bic.w	r3, r3, #240	; 0xf0
 8002534:	4303      	orrs	r3, r0
 8002536:	6023      	str	r3, [r4, #0]
 8002538:	6863      	ldr	r3, [r4, #4]
 800253a:	69ea      	ldr	r2, [r5, #28]
 800253c:	f423 437f 	bic.w	r3, r3, #65280	; 0xff00
 8002540:	ea43 2302 	orr.w	r3, r3, r2, lsl #8
 8002544:	6063      	str	r3, [r4, #4]
 8002546:	2e00      	cmp	r6, #0
 8002548:	d1d8      	bne.n	80024fc <HAL_RCC_OscConfig+0x78>
 800254a:	f7ff ff0b 	bl	8002364 <RCC_SetFlashLatencyFromMSIRange>
 800254e:	2800      	cmp	r0, #0
 8002550:	d0d4      	beq.n	80024fc <HAL_RCC_OscConfig+0x78>
 8002552:	e79b      	b.n	800248c <HAL_RCC_OscConfig+0x8>
 8002554:	69ab      	ldr	r3, [r5, #24]
 8002556:	2b00      	cmp	r3, #0
 8002558:	d03a      	beq.n	80025d0 <HAL_RCC_OscConfig+0x14c>
 800255a:	6823      	ldr	r3, [r4, #0]
 800255c:	f043 0301 	orr.w	r3, r3, #1
 8002560:	6023      	str	r3, [r4, #0]
 8002562:	f7fe fb93 	bl	8000c8c <HAL_GetTick>
 8002566:	4680      	mov	r8, r0
 8002568:	6823      	ldr	r3, [r4, #0]
 800256a:	079a      	lsls	r2, r3, #30
 800256c:	d528      	bpl.n	80025c0 <HAL_RCC_OscConfig+0x13c>
 800256e:	6823      	ldr	r3, [r4, #0]
 8002570:	f043 0308 	orr.w	r3, r3, #8
 8002574:	6023      	str	r3, [r4, #0]
 8002576:	6823      	ldr	r3, [r4, #0]
 8002578:	6a2a      	ldr	r2, [r5, #32]
 800257a:	f023 03f0 	bic.w	r3, r3, #240	; 0xf0
 800257e:	4313      	orrs	r3, r2
 8002580:	6023      	str	r3, [r4, #0]
 8002582:	6863      	ldr	r3, [r4, #4]
 8002584:	69ea      	ldr	r2, [r5, #28]
 8002586:	f423 437f 	bic.w	r3, r3, #65280	; 0xff00
 800258a:	ea43 2302 	orr.w	r3, r3, r2, lsl #8
 800258e:	6063      	str	r3, [r4, #4]
 8002590:	682b      	ldr	r3, [r5, #0]
 8002592:	07d8      	lsls	r0, r3, #31
 8002594:	d42d      	bmi.n	80025f2 <HAL_RCC_OscConfig+0x16e>
 8002596:	682b      	ldr	r3, [r5, #0]
 8002598:	0799      	lsls	r1, r3, #30
 800259a:	d46b      	bmi.n	8002674 <HAL_RCC_OscConfig+0x1f0>
 800259c:	682b      	ldr	r3, [r5, #0]
 800259e:	0718      	lsls	r0, r3, #28
 80025a0:	f100 80a8 	bmi.w	80026f4 <HAL_RCC_OscConfig+0x270>
 80025a4:	682b      	ldr	r3, [r5, #0]
 80025a6:	0759      	lsls	r1, r3, #29
 80025a8:	f100 80ce 	bmi.w	8002748 <HAL_RCC_OscConfig+0x2c4>
 80025ac:	682b      	ldr	r3, [r5, #0]
 80025ae:	0699      	lsls	r1, r3, #26
 80025b0:	f100 8137 	bmi.w	8002822 <HAL_RCC_OscConfig+0x39e>
 80025b4:	6aab      	ldr	r3, [r5, #40]	; 0x28
 80025b6:	2b00      	cmp	r3, #0
 80025b8:	f040 815d 	bne.w	8002876 <HAL_RCC_OscConfig+0x3f2>
 80025bc:	2000      	movs	r0, #0
 80025be:	e7af      	b.n	8002520 <HAL_RCC_OscConfig+0x9c>
 80025c0:	f7fe fb64 	bl	8000c8c <HAL_GetTick>
 80025c4:	eba0 0008 	sub.w	r0, r0, r8
 80025c8:	2802      	cmp	r0, #2
 80025ca:	d9cd      	bls.n	8002568 <HAL_RCC_OscConfig+0xe4>
 80025cc:	2003      	movs	r0, #3
 80025ce:	e7a7      	b.n	8002520 <HAL_RCC_OscConfig+0x9c>
 80025d0:	6823      	ldr	r3, [r4, #0]
 80025d2:	f023 0301 	bic.w	r3, r3, #1
 80025d6:	6023      	str	r3, [r4, #0]
 80025d8:	f7fe fb58 	bl	8000c8c <HAL_GetTick>
 80025dc:	4680      	mov	r8, r0
 80025de:	6823      	ldr	r3, [r4, #0]
 80025e0:	079b      	lsls	r3, r3, #30
 80025e2:	d5d5      	bpl.n	8002590 <HAL_RCC_OscConfig+0x10c>
 80025e4:	f7fe fb52 	bl	8000c8c <HAL_GetTick>
 80025e8:	eba0 0008 	sub.w	r0, r0, r8
 80025ec:	2802      	cmp	r0, #2
 80025ee:	d9f6      	bls.n	80025de <HAL_RCC_OscConfig+0x15a>
 80025f0:	e7ec      	b.n	80025cc <HAL_RCC_OscConfig+0x148>
 80025f2:	2e08      	cmp	r6, #8
 80025f4:	d003      	beq.n	80025fe <HAL_RCC_OscConfig+0x17a>
 80025f6:	2e0c      	cmp	r6, #12
 80025f8:	d108      	bne.n	800260c <HAL_RCC_OscConfig+0x188>
 80025fa:	2f03      	cmp	r7, #3
 80025fc:	d106      	bne.n	800260c <HAL_RCC_OscConfig+0x188>
 80025fe:	6823      	ldr	r3, [r4, #0]
 8002600:	039a      	lsls	r2, r3, #14
 8002602:	d5c8      	bpl.n	8002596 <HAL_RCC_OscConfig+0x112>
 8002604:	686b      	ldr	r3, [r5, #4]
 8002606:	2b00      	cmp	r3, #0
 8002608:	d1c5      	bne.n	8002596 <HAL_RCC_OscConfig+0x112>
 800260a:	e73f      	b.n	800248c <HAL_RCC_OscConfig+0x8>
 800260c:	686b      	ldr	r3, [r5, #4]
 800260e:	f5b3 3f80 	cmp.w	r3, #65536	; 0x10000
 8002612:	d110      	bne.n	8002636 <HAL_RCC_OscConfig+0x1b2>
 8002614:	6823      	ldr	r3, [r4, #0]
 8002616:	f443 3380 	orr.w	r3, r3, #65536	; 0x10000
 800261a:	6023      	str	r3, [r4, #0]
 800261c:	f7fe fb36 	bl	8000c8c <HAL_GetTick>
 8002620:	4680      	mov	r8, r0
 8002622:	6823      	ldr	r3, [r4, #0]
 8002624:	039b      	lsls	r3, r3, #14
 8002626:	d4b6      	bmi.n	8002596 <HAL_RCC_OscConfig+0x112>
 8002628:	f7fe fb30 	bl	8000c8c <HAL_GetTick>
 800262c:	eba0 0008 	sub.w	r0, r0, r8
 8002630:	2864      	cmp	r0, #100	; 0x64
 8002632:	d9f6      	bls.n	8002622 <HAL_RCC_OscConfig+0x19e>
 8002634:	e7ca      	b.n	80025cc <HAL_RCC_OscConfig+0x148>
 8002636:	f5b3 2fa0 	cmp.w	r3, #327680	; 0x50000
 800263a:	d104      	bne.n	8002646 <HAL_RCC_OscConfig+0x1c2>
 800263c:	6823      	ldr	r3, [r4, #0]
 800263e:	f443 2380 	orr.w	r3, r3, #262144	; 0x40000
 8002642:	6023      	str	r3, [r4, #0]
 8002644:	e7e6      	b.n	8002614 <HAL_RCC_OscConfig+0x190>
 8002646:	6822      	ldr	r2, [r4, #0]
 8002648:	f422 3280 	bic.w	r2, r2, #65536	; 0x10000
 800264c:	6022      	str	r2, [r4, #0]
 800264e:	6822      	ldr	r2, [r4, #0]
 8002650:	f422 2280 	bic.w	r2, r2, #262144	; 0x40000
 8002654:	6022      	str	r2, [r4, #0]
 8002656:	2b00      	cmp	r3, #0
 8002658:	d1e0      	bne.n	800261c <HAL_RCC_OscConfig+0x198>
 800265a:	f7fe fb17 	bl	8000c8c <HAL_GetTick>
 800265e:	4680      	mov	r8, r0
 8002660:	6823      	ldr	r3, [r4, #0]
 8002662:	0398      	lsls	r0, r3, #14
 8002664:	d597      	bpl.n	8002596 <HAL_RCC_OscConfig+0x112>
 8002666:	f7fe fb11 	bl	8000c8c <HAL_GetTick>
 800266a:	eba0 0008 	sub.w	r0, r0, r8
 800266e:	2864      	cmp	r0, #100	; 0x64
 8002670:	d9f6      	bls.n	8002660 <HAL_RCC_OscConfig+0x1dc>
 8002672:	e7ab      	b.n	80025cc <HAL_RCC_OscConfig+0x148>
 8002674:	2e04      	cmp	r6, #4
 8002676:	d003      	beq.n	8002680 <HAL_RCC_OscConfig+0x1fc>
 8002678:	2e0c      	cmp	r6, #12
 800267a:	d110      	bne.n	800269e <HAL_RCC_OscConfig+0x21a>
 800267c:	2f02      	cmp	r7, #2
 800267e:	d10e      	bne.n	800269e <HAL_RCC_OscConfig+0x21a>
 8002680:	6823      	ldr	r3, [r4, #0]
 8002682:	0559      	lsls	r1, r3, #21
 8002684:	d503      	bpl.n	800268e <HAL_RCC_OscConfig+0x20a>
 8002686:	68eb      	ldr	r3, [r5, #12]
 8002688:	2b00      	cmp	r3, #0
 800268a:	f43f aeff 	beq.w	800248c <HAL_RCC_OscConfig+0x8>
 800268e:	6863      	ldr	r3, [r4, #4]
 8002690:	692a      	ldr	r2, [r5, #16]
 8002692:	f023 43fe 	bic.w	r3, r3, #2130706432	; 0x7f000000
 8002696:	ea43 6302 	orr.w	r3, r3, r2, lsl #24
 800269a:	6063      	str	r3, [r4, #4]
 800269c:	e77e      	b.n	800259c <HAL_RCC_OscConfig+0x118>
 800269e:	68eb      	ldr	r3, [r5, #12]
 80026a0:	b17b      	cbz	r3, 80026c2 <HAL_RCC_OscConfig+0x23e>
 80026a2:	6823      	ldr	r3, [r4, #0]
 80026a4:	f443 7380 	orr.w	r3, r3, #256	; 0x100
 80026a8:	6023      	str	r3, [r4, #0]
 80026aa:	f7fe faef 	bl	8000c8c <HAL_GetTick>
 80026ae:	4607      	mov	r7, r0
 80026b0:	6823      	ldr	r3, [r4, #0]
 80026b2:	055a      	lsls	r2, r3, #21
 80026b4:	d4eb      	bmi.n	800268e <HAL_RCC_OscConfig+0x20a>
 80026b6:	f7fe fae9 	bl	8000c8c <HAL_GetTick>
 80026ba:	1bc0      	subs	r0, r0, r7
 80026bc:	2802      	cmp	r0, #2
 80026be:	d9f7      	bls.n	80026b0 <HAL_RCC_OscConfig+0x22c>
 80026c0:	e784      	b.n	80025cc <HAL_RCC_OscConfig+0x148>
 80026c2:	6823      	ldr	r3, [r4, #0]
 80026c4:	f423 7380 	bic.w	r3, r3, #256	; 0x100
 80026c8:	6023      	str	r3, [r4, #0]
 80026ca:	f7fe fadf 	bl	8000c8c <HAL_GetTick>
 80026ce:	4607      	mov	r7, r0
 80026d0:	6823      	ldr	r3, [r4, #0]
 80026d2:	055b      	lsls	r3, r3, #21
 80026d4:	f57f af62 	bpl.w	800259c <HAL_RCC_OscConfig+0x118>
 80026d8:	f7fe fad8 	bl	8000c8c <HAL_GetTick>
 80026dc:	1bc0      	subs	r0, r0, r7
 80026de:	2802      	cmp	r0, #2
 80026e0:	d9f6      	bls.n	80026d0 <HAL_RCC_OscConfig+0x24c>
 80026e2:	e773      	b.n	80025cc <HAL_RCC_OscConfig+0x148>
 80026e4:	40021000 	.word	0x40021000
 80026e8:	0800366c 	.word	0x0800366c
 80026ec:	20000000 	.word	0x20000000
 80026f0:	20000008 	.word	0x20000008
 80026f4:	696b      	ldr	r3, [r5, #20]
 80026f6:	b19b      	cbz	r3, 8002720 <HAL_RCC_OscConfig+0x29c>
 80026f8:	f8d4 3094 	ldr.w	r3, [r4, #148]	; 0x94
 80026fc:	f043 0301 	orr.w	r3, r3, #1
 8002700:	f8c4 3094 	str.w	r3, [r4, #148]	; 0x94
 8002704:	f7fe fac2 	bl	8000c8c <HAL_GetTick>
 8002708:	4607      	mov	r7, r0
 800270a:	f8d4 3094 	ldr.w	r3, [r4, #148]	; 0x94
 800270e:	079a      	lsls	r2, r3, #30
 8002710:	f53f af48 	bmi.w	80025a4 <HAL_RCC_OscConfig+0x120>
 8002714:	f7fe faba 	bl	8000c8c <HAL_GetTick>
 8002718:	1bc0      	subs	r0, r0, r7
 800271a:	2802      	cmp	r0, #2
 800271c:	d9f5      	bls.n	800270a <HAL_RCC_OscConfig+0x286>
 800271e:	e755      	b.n	80025cc <HAL_RCC_OscConfig+0x148>
 8002720:	f8d4 3094 	ldr.w	r3, [r4, #148]	; 0x94
 8002724:	f023 0301 	bic.w	r3, r3, #1
 8002728:	f8c4 3094 	str.w	r3, [r4, #148]	; 0x94
 800272c:	f7fe faae 	bl	8000c8c <HAL_GetTick>
 8002730:	4607      	mov	r7, r0
 8002732:	f8d4 3094 	ldr.w	r3, [r4, #148]	; 0x94
 8002736:	079b      	lsls	r3, r3, #30
 8002738:	f57f af34 	bpl.w	80025a4 <HAL_RCC_OscConfig+0x120>
 800273c:	f7fe faa6 	bl	8000c8c <HAL_GetTick>
 8002740:	1bc0      	subs	r0, r0, r7
 8002742:	2802      	cmp	r0, #2
 8002744:	d9f5      	bls.n	8002732 <HAL_RCC_OscConfig+0x2ae>
 8002746:	e741      	b.n	80025cc <HAL_RCC_OscConfig+0x148>
 8002748:	6da3      	ldr	r3, [r4, #88]	; 0x58
 800274a:	00d8      	lsls	r0, r3, #3
 800274c:	d429      	bmi.n	80027a2 <HAL_RCC_OscConfig+0x31e>
 800274e:	6da3      	ldr	r3, [r4, #88]	; 0x58
 8002750:	f043 5380 	orr.w	r3, r3, #268435456	; 0x10000000
 8002754:	65a3      	str	r3, [r4, #88]	; 0x58
 8002756:	6da3      	ldr	r3, [r4, #88]	; 0x58
 8002758:	f003 5380 	and.w	r3, r3, #268435456	; 0x10000000
 800275c:	9301      	str	r3, [sp, #4]
 800275e:	9b01      	ldr	r3, [sp, #4]
 8002760:	f04f 0801 	mov.w	r8, #1
 8002764:	4f96      	ldr	r7, [pc, #600]	; (80029c0 <HAL_RCC_OscConfig+0x53c>)
 8002766:	683b      	ldr	r3, [r7, #0]
 8002768:	05d9      	lsls	r1, r3, #23
 800276a:	d51d      	bpl.n	80027a8 <HAL_RCC_OscConfig+0x324>
 800276c:	68ab      	ldr	r3, [r5, #8]
 800276e:	2b01      	cmp	r3, #1
 8002770:	d12b      	bne.n	80027ca <HAL_RCC_OscConfig+0x346>
 8002772:	f8d4 3090 	ldr.w	r3, [r4, #144]	; 0x90
 8002776:	f043 0301 	orr.w	r3, r3, #1
 800277a:	f8c4 3090 	str.w	r3, [r4, #144]	; 0x90
 800277e:	f7fe fa85 	bl	8000c8c <HAL_GetTick>
 8002782:	f241 3988 	movw	r9, #5000	; 0x1388
 8002786:	4607      	mov	r7, r0
 8002788:	f8d4 3090 	ldr.w	r3, [r4, #144]	; 0x90
 800278c:	079b      	lsls	r3, r3, #30
 800278e:	d542      	bpl.n	8002816 <HAL_RCC_OscConfig+0x392>
 8002790:	f1b8 0f00 	cmp.w	r8, #0
 8002794:	f43f af0a 	beq.w	80025ac <HAL_RCC_OscConfig+0x128>
 8002798:	6da3      	ldr	r3, [r4, #88]	; 0x58
 800279a:	f023 5380 	bic.w	r3, r3, #268435456	; 0x10000000
 800279e:	65a3      	str	r3, [r4, #88]	; 0x58
 80027a0:	e704      	b.n	80025ac <HAL_RCC_OscConfig+0x128>
 80027a2:	f04f 0800 	mov.w	r8, #0
 80027a6:	e7dd      	b.n	8002764 <HAL_RCC_OscConfig+0x2e0>
 80027a8:	683b      	ldr	r3, [r7, #0]
 80027aa:	f443 7380 	orr.w	r3, r3, #256	; 0x100
 80027ae:	603b      	str	r3, [r7, #0]
 80027b0:	f7fe fa6c 	bl	8000c8c <HAL_GetTick>
 80027b4:	4681      	mov	r9, r0
 80027b6:	683b      	ldr	r3, [r7, #0]
 80027b8:	05da      	lsls	r2, r3, #23
 80027ba:	d4d7      	bmi.n	800276c <HAL_RCC_OscConfig+0x2e8>
 80027bc:	f7fe fa66 	bl	8000c8c <HAL_GetTick>
 80027c0:	eba0 0009 	sub.w	r0, r0, r9
 80027c4:	2802      	cmp	r0, #2
 80027c6:	d9f6      	bls.n	80027b6 <HAL_RCC_OscConfig+0x332>
 80027c8:	e700      	b.n	80025cc <HAL_RCC_OscConfig+0x148>
 80027ca:	2b05      	cmp	r3, #5
 80027cc:	d106      	bne.n	80027dc <HAL_RCC_OscConfig+0x358>
 80027ce:	f8d4 3090 	ldr.w	r3, [r4, #144]	; 0x90
 80027d2:	f043 0304 	orr.w	r3, r3, #4
 80027d6:	f8c4 3090 	str.w	r3, [r4, #144]	; 0x90
 80027da:	e7ca      	b.n	8002772 <HAL_RCC_OscConfig+0x2ee>
 80027dc:	f8d4 2090 	ldr.w	r2, [r4, #144]	; 0x90
 80027e0:	f022 0201 	bic.w	r2, r2, #1
 80027e4:	f8c4 2090 	str.w	r2, [r4, #144]	; 0x90
 80027e8:	f8d4 2090 	ldr.w	r2, [r4, #144]	; 0x90
 80027ec:	f022 0204 	bic.w	r2, r2, #4
 80027f0:	f8c4 2090 	str.w	r2, [r4, #144]	; 0x90
 80027f4:	2b00      	cmp	r3, #0
 80027f6:	d1c2      	bne.n	800277e <HAL_RCC_OscConfig+0x2fa>
 80027f8:	f7fe fa48 	bl	8000c8c <HAL_GetTick>
 80027fc:	f241 3988 	movw	r9, #5000	; 0x1388
 8002800:	4607      	mov	r7, r0
 8002802:	f8d4 3090 	ldr.w	r3, [r4, #144]	; 0x90
 8002806:	0798      	lsls	r0, r3, #30
 8002808:	d5c2      	bpl.n	8002790 <HAL_RCC_OscConfig+0x30c>
 800280a:	f7fe fa3f 	bl	8000c8c <HAL_GetTick>
 800280e:	1bc0      	subs	r0, r0, r7
 8002810:	4548      	cmp	r0, r9
 8002812:	d9f6      	bls.n	8002802 <HAL_RCC_OscConfig+0x37e>
 8002814:	e6da      	b.n	80025cc <HAL_RCC_OscConfig+0x148>
 8002816:	f7fe fa39 	bl	8000c8c <HAL_GetTick>
 800281a:	1bc0      	subs	r0, r0, r7
 800281c:	4548      	cmp	r0, r9
 800281e:	d9b3      	bls.n	8002788 <HAL_RCC_OscConfig+0x304>
 8002820:	e6d4      	b.n	80025cc <HAL_RCC_OscConfig+0x148>
 8002822:	6a6b      	ldr	r3, [r5, #36]	; 0x24
 8002824:	b19b      	cbz	r3, 800284e <HAL_RCC_OscConfig+0x3ca>
 8002826:	f8d4 3098 	ldr.w	r3, [r4, #152]	; 0x98
 800282a:	f043 0301 	orr.w	r3, r3, #1
 800282e:	f8c4 3098 	str.w	r3, [r4, #152]	; 0x98
 8002832:	f7fe fa2b 	bl	8000c8c <HAL_GetTick>
 8002836:	4607      	mov	r7, r0
 8002838:	f8d4 3098 	ldr.w	r3, [r4, #152]	; 0x98
 800283c:	079a      	lsls	r2, r3, #30
 800283e:	f53f aeb9 	bmi.w	80025b4 <HAL_RCC_OscConfig+0x130>
 8002842:	f7fe fa23 	bl	8000c8c <HAL_GetTick>
 8002846:	1bc0      	subs	r0, r0, r7
 8002848:	2802      	cmp	r0, #2
 800284a:	d9f5      	bls.n	8002838 <HAL_RCC_OscConfig+0x3b4>
 800284c:	e6be      	b.n	80025cc <HAL_RCC_OscConfig+0x148>
 800284e:	f8d4 3098 	ldr.w	r3, [r4, #152]	; 0x98
 8002852:	f023 0301 	bic.w	r3, r3, #1
 8002856:	f8c4 3098 	str.w	r3, [r4, #152]	; 0x98
 800285a:	f7fe fa17 	bl	8000c8c <HAL_GetTick>
 800285e:	4607      	mov	r7, r0
 8002860:	f8d4 3098 	ldr.w	r3, [r4, #152]	; 0x98
 8002864:	079b      	lsls	r3, r3, #30
 8002866:	f57f aea5 	bpl.w	80025b4 <HAL_RCC_OscConfig+0x130>
 800286a:	f7fe fa0f 	bl	8000c8c <HAL_GetTick>
 800286e:	1bc0      	subs	r0, r0, r7
 8002870:	2802      	cmp	r0, #2
 8002872:	d9f5      	bls.n	8002860 <HAL_RCC_OscConfig+0x3dc>
 8002874:	e6aa      	b.n	80025cc <HAL_RCC_OscConfig+0x148>
 8002876:	2b02      	cmp	r3, #2
 8002878:	f040 8088 	bne.w	800298c <HAL_RCC_OscConfig+0x508>
 800287c:	68e3      	ldr	r3, [r4, #12]
 800287e:	6aea      	ldr	r2, [r5, #44]	; 0x2c
 8002880:	f003 0103 	and.w	r1, r3, #3
 8002884:	4291      	cmp	r1, r2
 8002886:	d122      	bne.n	80028ce <HAL_RCC_OscConfig+0x44a>
 8002888:	6b29      	ldr	r1, [r5, #48]	; 0x30
 800288a:	f003 0270 	and.w	r2, r3, #112	; 0x70
 800288e:	3901      	subs	r1, #1
 8002890:	ebb2 1f01 	cmp.w	r2, r1, lsl #4
 8002894:	d11b      	bne.n	80028ce <HAL_RCC_OscConfig+0x44a>
 8002896:	6b69      	ldr	r1, [r5, #52]	; 0x34
 8002898:	f403 42fe 	and.w	r2, r3, #32512	; 0x7f00
 800289c:	ebb2 2f01 	cmp.w	r2, r1, lsl #8
 80028a0:	d115      	bne.n	80028ce <HAL_RCC_OscConfig+0x44a>
 80028a2:	6ba9      	ldr	r1, [r5, #56]	; 0x38
 80028a4:	f003 4278 	and.w	r2, r3, #4160749568	; 0xf8000000
 80028a8:	ebb2 6fc1 	cmp.w	r2, r1, lsl #27
 80028ac:	d10f      	bne.n	80028ce <HAL_RCC_OscConfig+0x44a>
 80028ae:	6bea      	ldr	r2, [r5, #60]	; 0x3c
 80028b0:	0852      	lsrs	r2, r2, #1
 80028b2:	f403 01c0 	and.w	r1, r3, #6291456	; 0x600000
 80028b6:	3a01      	subs	r2, #1
 80028b8:	ebb1 5f42 	cmp.w	r1, r2, lsl #21
 80028bc:	d107      	bne.n	80028ce <HAL_RCC_OscConfig+0x44a>
 80028be:	6c2a      	ldr	r2, [r5, #64]	; 0x40
 80028c0:	0852      	lsrs	r2, r2, #1
 80028c2:	f003 63c0 	and.w	r3, r3, #100663296	; 0x6000000
 80028c6:	3a01      	subs	r2, #1
 80028c8:	ebb3 6f42 	cmp.w	r3, r2, lsl #25
 80028cc:	d045      	beq.n	800295a <HAL_RCC_OscConfig+0x4d6>
 80028ce:	2e0c      	cmp	r6, #12
 80028d0:	f43f addc 	beq.w	800248c <HAL_RCC_OscConfig+0x8>
 80028d4:	6823      	ldr	r3, [r4, #0]
 80028d6:	015e      	lsls	r6, r3, #5
 80028d8:	f53f add8 	bmi.w	800248c <HAL_RCC_OscConfig+0x8>
 80028dc:	6823      	ldr	r3, [r4, #0]
 80028de:	f023 7380 	bic.w	r3, r3, #16777216	; 0x1000000
 80028e2:	6023      	str	r3, [r4, #0]
 80028e4:	f7fe f9d2 	bl	8000c8c <HAL_GetTick>
 80028e8:	4606      	mov	r6, r0
 80028ea:	6823      	ldr	r3, [r4, #0]
 80028ec:	0198      	lsls	r0, r3, #6
 80028ee:	d42e      	bmi.n	800294e <HAL_RCC_OscConfig+0x4ca>
 80028f0:	68e2      	ldr	r2, [r4, #12]
 80028f2:	4b34      	ldr	r3, [pc, #208]	; (80029c4 <HAL_RCC_OscConfig+0x540>)
 80028f4:	4013      	ands	r3, r2
 80028f6:	6aea      	ldr	r2, [r5, #44]	; 0x2c
 80028f8:	4313      	orrs	r3, r2
 80028fa:	6b6a      	ldr	r2, [r5, #52]	; 0x34
 80028fc:	ea43 2302 	orr.w	r3, r3, r2, lsl #8
 8002900:	6baa      	ldr	r2, [r5, #56]	; 0x38
 8002902:	ea43 63c2 	orr.w	r3, r3, r2, lsl #27
 8002906:	6b2a      	ldr	r2, [r5, #48]	; 0x30
 8002908:	3a01      	subs	r2, #1
 800290a:	ea43 1302 	orr.w	r3, r3, r2, lsl #4
 800290e:	6bea      	ldr	r2, [r5, #60]	; 0x3c
 8002910:	0852      	lsrs	r2, r2, #1
 8002912:	3a01      	subs	r2, #1
 8002914:	ea43 5342 	orr.w	r3, r3, r2, lsl #21
 8002918:	6c2a      	ldr	r2, [r5, #64]	; 0x40
 800291a:	0852      	lsrs	r2, r2, #1
 800291c:	3a01      	subs	r2, #1
 800291e:	ea43 6342 	orr.w	r3, r3, r2, lsl #25
 8002922:	60e3      	str	r3, [r4, #12]
 8002924:	6823      	ldr	r3, [r4, #0]
 8002926:	f043 7380 	orr.w	r3, r3, #16777216	; 0x1000000
 800292a:	6023      	str	r3, [r4, #0]
 800292c:	68e3      	ldr	r3, [r4, #12]
 800292e:	f043 7380 	orr.w	r3, r3, #16777216	; 0x1000000
 8002932:	60e3      	str	r3, [r4, #12]
 8002934:	f7fe f9aa 	bl	8000c8c <HAL_GetTick>
 8002938:	4605      	mov	r5, r0
 800293a:	6823      	ldr	r3, [r4, #0]
 800293c:	0199      	lsls	r1, r3, #6
 800293e:	f53f ae3d 	bmi.w	80025bc <HAL_RCC_OscConfig+0x138>
 8002942:	f7fe f9a3 	bl	8000c8c <HAL_GetTick>
 8002946:	1b40      	subs	r0, r0, r5
 8002948:	2802      	cmp	r0, #2
 800294a:	d9f6      	bls.n	800293a <HAL_RCC_OscConfig+0x4b6>
 800294c:	e63e      	b.n	80025cc <HAL_RCC_OscConfig+0x148>
 800294e:	f7fe f99d 	bl	8000c8c <HAL_GetTick>
 8002952:	1b80      	subs	r0, r0, r6
 8002954:	2802      	cmp	r0, #2
 8002956:	d9c8      	bls.n	80028ea <HAL_RCC_OscConfig+0x466>
 8002958:	e638      	b.n	80025cc <HAL_RCC_OscConfig+0x148>
 800295a:	6823      	ldr	r3, [r4, #0]
 800295c:	019a      	lsls	r2, r3, #6
 800295e:	f53f ae2d 	bmi.w	80025bc <HAL_RCC_OscConfig+0x138>
 8002962:	6823      	ldr	r3, [r4, #0]
 8002964:	f043 7380 	orr.w	r3, r3, #16777216	; 0x1000000
 8002968:	6023      	str	r3, [r4, #0]
 800296a:	68e3      	ldr	r3, [r4, #12]
 800296c:	f043 7380 	orr.w	r3, r3, #16777216	; 0x1000000
 8002970:	60e3      	str	r3, [r4, #12]
 8002972:	f7fe f98b 	bl	8000c8c <HAL_GetTick>
 8002976:	4605      	mov	r5, r0
 8002978:	6823      	ldr	r3, [r4, #0]
 800297a:	019b      	lsls	r3, r3, #6
 800297c:	f53f ae1e 	bmi.w	80025bc <HAL_RCC_OscConfig+0x138>
 8002980:	f7fe f984 	bl	8000c8c <HAL_GetTick>
 8002984:	1b40      	subs	r0, r0, r5
 8002986:	2802      	cmp	r0, #2
 8002988:	d9f6      	bls.n	8002978 <HAL_RCC_OscConfig+0x4f4>
 800298a:	e61f      	b.n	80025cc <HAL_RCC_OscConfig+0x148>
 800298c:	2e0c      	cmp	r6, #12
 800298e:	f43f ad7d 	beq.w	800248c <HAL_RCC_OscConfig+0x8>
 8002992:	6823      	ldr	r3, [r4, #0]
 8002994:	f023 7380 	bic.w	r3, r3, #16777216	; 0x1000000
 8002998:	6023      	str	r3, [r4, #0]
 800299a:	f7fe f977 	bl	8000c8c <HAL_GetTick>
 800299e:	4605      	mov	r5, r0
 80029a0:	6823      	ldr	r3, [r4, #0]
 80029a2:	f013 7300 	ands.w	r3, r3, #33554432	; 0x2000000
 80029a6:	d104      	bne.n	80029b2 <HAL_RCC_OscConfig+0x52e>
 80029a8:	68e1      	ldr	r1, [r4, #12]
 80029aa:	4a07      	ldr	r2, [pc, #28]	; (80029c8 <HAL_RCC_OscConfig+0x544>)
 80029ac:	400a      	ands	r2, r1
 80029ae:	60e2      	str	r2, [r4, #12]
 80029b0:	e604      	b.n	80025bc <HAL_RCC_OscConfig+0x138>
 80029b2:	f7fe f96b 	bl	8000c8c <HAL_GetTick>
 80029b6:	1b40      	subs	r0, r0, r5
 80029b8:	2802      	cmp	r0, #2
 80029ba:	d9f1      	bls.n	80029a0 <HAL_RCC_OscConfig+0x51c>
 80029bc:	e606      	b.n	80025cc <HAL_RCC_OscConfig+0x148>
 80029be:	bf00      	nop
 80029c0:	40007000 	.word	0x40007000
 80029c4:	019d808c 	.word	0x019d808c
 80029c8:	feeefffc 	.word	0xfeeefffc

080029cc <HAL_RCC_ClockConfig>:
 80029cc:	e92d 41f0 	stmdb	sp!, {r4, r5, r6, r7, r8, lr}
 80029d0:	460d      	mov	r5, r1
 80029d2:	4604      	mov	r4, r0
 80029d4:	b910      	cbnz	r0, 80029dc <HAL_RCC_ClockConfig+0x10>
 80029d6:	2001      	movs	r0, #1
 80029d8:	e8bd 81f0 	ldmia.w	sp!, {r4, r5, r6, r7, r8, pc}
 80029dc:	4a4b      	ldr	r2, [pc, #300]	; (8002b0c <HAL_RCC_ClockConfig+0x140>)
 80029de:	6813      	ldr	r3, [r2, #0]
 80029e0:	f003 0307 	and.w	r3, r3, #7
 80029e4:	428b      	cmp	r3, r1
 80029e6:	d32c      	bcc.n	8002a42 <HAL_RCC_ClockConfig+0x76>
 80029e8:	6820      	ldr	r0, [r4, #0]
 80029ea:	0786      	lsls	r6, r0, #30
 80029ec:	d434      	bmi.n	8002a58 <HAL_RCC_ClockConfig+0x8c>
 80029ee:	07c1      	lsls	r1, r0, #31
 80029f0:	d43f      	bmi.n	8002a72 <HAL_RCC_ClockConfig+0xa6>
 80029f2:	6821      	ldr	r1, [r4, #0]
 80029f4:	078a      	lsls	r2, r1, #30
 80029f6:	d468      	bmi.n	8002aca <HAL_RCC_ClockConfig+0xfe>
 80029f8:	4a44      	ldr	r2, [pc, #272]	; (8002b0c <HAL_RCC_ClockConfig+0x140>)
 80029fa:	6813      	ldr	r3, [r2, #0]
 80029fc:	f003 0307 	and.w	r3, r3, #7
 8002a00:	42ab      	cmp	r3, r5
 8002a02:	d86f      	bhi.n	8002ae4 <HAL_RCC_ClockConfig+0x118>
 8002a04:	f011 0f04 	tst.w	r1, #4
 8002a08:	4d41      	ldr	r5, [pc, #260]	; (8002b10 <HAL_RCC_ClockConfig+0x144>)
 8002a0a:	d177      	bne.n	8002afc <HAL_RCC_ClockConfig+0x130>
 8002a0c:	070b      	lsls	r3, r1, #28
 8002a0e:	d506      	bpl.n	8002a1e <HAL_RCC_ClockConfig+0x52>
 8002a10:	68ab      	ldr	r3, [r5, #8]
 8002a12:	6922      	ldr	r2, [r4, #16]
 8002a14:	f423 5360 	bic.w	r3, r3, #14336	; 0x3800
 8002a18:	ea43 03c2 	orr.w	r3, r3, r2, lsl #3
 8002a1c:	60ab      	str	r3, [r5, #8]
 8002a1e:	f7ff fce3 	bl	80023e8 <HAL_RCC_GetSysClockFreq>
 8002a22:	68ab      	ldr	r3, [r5, #8]
 8002a24:	4a3b      	ldr	r2, [pc, #236]	; (8002b14 <HAL_RCC_ClockConfig+0x148>)
 8002a26:	f3c3 1303 	ubfx	r3, r3, #4, #4
 8002a2a:	e8bd 41f0 	ldmia.w	sp!, {r4, r5, r6, r7, r8, lr}
 8002a2e:	5cd3      	ldrb	r3, [r2, r3]
 8002a30:	f003 031f 	and.w	r3, r3, #31
 8002a34:	40d8      	lsrs	r0, r3
 8002a36:	4b38      	ldr	r3, [pc, #224]	; (8002b18 <HAL_RCC_ClockConfig+0x14c>)
 8002a38:	6018      	str	r0, [r3, #0]
 8002a3a:	4b38      	ldr	r3, [pc, #224]	; (8002b1c <HAL_RCC_ClockConfig+0x150>)
 8002a3c:	6818      	ldr	r0, [r3, #0]
 8002a3e:	f7fe b8e3 	b.w	8000c08 <HAL_InitTick>
 8002a42:	6813      	ldr	r3, [r2, #0]
 8002a44:	f023 0307 	bic.w	r3, r3, #7
 8002a48:	430b      	orrs	r3, r1
 8002a4a:	6013      	str	r3, [r2, #0]
 8002a4c:	6813      	ldr	r3, [r2, #0]
 8002a4e:	f003 0307 	and.w	r3, r3, #7
 8002a52:	428b      	cmp	r3, r1
 8002a54:	d1bf      	bne.n	80029d6 <HAL_RCC_ClockConfig+0xa>
 8002a56:	e7c7      	b.n	80029e8 <HAL_RCC_ClockConfig+0x1c>
 8002a58:	4a2d      	ldr	r2, [pc, #180]	; (8002b10 <HAL_RCC_ClockConfig+0x144>)
 8002a5a:	68a6      	ldr	r6, [r4, #8]
 8002a5c:	6891      	ldr	r1, [r2, #8]
 8002a5e:	f001 01f0 	and.w	r1, r1, #240	; 0xf0
 8002a62:	428e      	cmp	r6, r1
 8002a64:	bf81      	itttt	hi
 8002a66:	6893      	ldrhi	r3, [r2, #8]
 8002a68:	f023 03f0 	bichi.w	r3, r3, #240	; 0xf0
 8002a6c:	4333      	orrhi	r3, r6
 8002a6e:	6093      	strhi	r3, [r2, #8]
 8002a70:	e7bd      	b.n	80029ee <HAL_RCC_ClockConfig+0x22>
 8002a72:	6862      	ldr	r2, [r4, #4]
 8002a74:	4e26      	ldr	r6, [pc, #152]	; (8002b10 <HAL_RCC_ClockConfig+0x144>)
 8002a76:	2a03      	cmp	r2, #3
 8002a78:	6833      	ldr	r3, [r6, #0]
 8002a7a:	d11a      	bne.n	8002ab2 <HAL_RCC_ClockConfig+0xe6>
 8002a7c:	f013 7f00 	tst.w	r3, #33554432	; 0x2000000
 8002a80:	d0a9      	beq.n	80029d6 <HAL_RCC_ClockConfig+0xa>
 8002a82:	68b3      	ldr	r3, [r6, #8]
 8002a84:	f023 0303 	bic.w	r3, r3, #3
 8002a88:	4313      	orrs	r3, r2
 8002a8a:	60b3      	str	r3, [r6, #8]
 8002a8c:	f7fe f8fe 	bl	8000c8c <HAL_GetTick>
 8002a90:	f241 3888 	movw	r8, #5000	; 0x1388
 8002a94:	4607      	mov	r7, r0
 8002a96:	68b3      	ldr	r3, [r6, #8]
 8002a98:	6862      	ldr	r2, [r4, #4]
 8002a9a:	f003 030c 	and.w	r3, r3, #12
 8002a9e:	ebb3 0f82 	cmp.w	r3, r2, lsl #2
 8002aa2:	d0a6      	beq.n	80029f2 <HAL_RCC_ClockConfig+0x26>
 8002aa4:	f7fe f8f2 	bl	8000c8c <HAL_GetTick>
 8002aa8:	1bc0      	subs	r0, r0, r7
 8002aaa:	4540      	cmp	r0, r8
 8002aac:	d9f3      	bls.n	8002a96 <HAL_RCC_ClockConfig+0xca>
 8002aae:	2003      	movs	r0, #3
 8002ab0:	e792      	b.n	80029d8 <HAL_RCC_ClockConfig+0xc>
 8002ab2:	2a02      	cmp	r2, #2
 8002ab4:	d102      	bne.n	8002abc <HAL_RCC_ClockConfig+0xf0>
 8002ab6:	f413 3f00 	tst.w	r3, #131072	; 0x20000
 8002aba:	e7e1      	b.n	8002a80 <HAL_RCC_ClockConfig+0xb4>
 8002abc:	b912      	cbnz	r2, 8002ac4 <HAL_RCC_ClockConfig+0xf8>
 8002abe:	f013 0f02 	tst.w	r3, #2
 8002ac2:	e7dd      	b.n	8002a80 <HAL_RCC_ClockConfig+0xb4>
 8002ac4:	f413 6f80 	tst.w	r3, #1024	; 0x400
 8002ac8:	e7da      	b.n	8002a80 <HAL_RCC_ClockConfig+0xb4>
 8002aca:	4a11      	ldr	r2, [pc, #68]	; (8002b10 <HAL_RCC_ClockConfig+0x144>)
 8002acc:	68a6      	ldr	r6, [r4, #8]
 8002ace:	6890      	ldr	r0, [r2, #8]
 8002ad0:	f000 00f0 	and.w	r0, r0, #240	; 0xf0
 8002ad4:	4286      	cmp	r6, r0
 8002ad6:	bf3f      	itttt	cc
 8002ad8:	6893      	ldrcc	r3, [r2, #8]
 8002ada:	f023 03f0 	biccc.w	r3, r3, #240	; 0xf0
 8002ade:	4333      	orrcc	r3, r6
 8002ae0:	6093      	strcc	r3, [r2, #8]
 8002ae2:	e789      	b.n	80029f8 <HAL_RCC_ClockConfig+0x2c>
 8002ae4:	6813      	ldr	r3, [r2, #0]
 8002ae6:	f023 0307 	bic.w	r3, r3, #7
 8002aea:	432b      	orrs	r3, r5
 8002aec:	6013      	str	r3, [r2, #0]
 8002aee:	6813      	ldr	r3, [r2, #0]
 8002af0:	f003 0307 	and.w	r3, r3, #7
 8002af4:	42ab      	cmp	r3, r5
 8002af6:	f47f af6e 	bne.w	80029d6 <HAL_RCC_ClockConfig+0xa>
 8002afa:	e783      	b.n	8002a04 <HAL_RCC_ClockConfig+0x38>
 8002afc:	68ab      	ldr	r3, [r5, #8]
 8002afe:	68e2      	ldr	r2, [r4, #12]
 8002b00:	f423 63e0 	bic.w	r3, r3, #1792	; 0x700
 8002b04:	4313      	orrs	r3, r2
 8002b06:	60ab      	str	r3, [r5, #8]
 8002b08:	e780      	b.n	8002a0c <HAL_RCC_ClockConfig+0x40>
 8002b0a:	bf00      	nop
 8002b0c:	40022000 	.word	0x40022000
 8002b10:	40021000 	.word	0x40021000
 8002b14:	0800366c 	.word	0x0800366c
 8002b18:	20000000 	.word	0x20000000
 8002b1c:	20000008 	.word	0x20000008

08002b20 <RCCEx_PLLSAI1_Config>:
 8002b20:	b5f8      	push	{r3, r4, r5, r6, r7, lr}
 8002b22:	4c43      	ldr	r4, [pc, #268]	; (8002c30 <RCCEx_PLLSAI1_Config+0x110>)
 8002b24:	6803      	ldr	r3, [r0, #0]
 8002b26:	68e2      	ldr	r2, [r4, #12]
 8002b28:	4605      	mov	r5, r0
 8002b2a:	0790      	lsls	r0, r2, #30
 8002b2c:	460e      	mov	r6, r1
 8002b2e:	d039      	beq.n	8002ba4 <RCCEx_PLLSAI1_Config+0x84>
 8002b30:	68e2      	ldr	r2, [r4, #12]
 8002b32:	f002 0203 	and.w	r2, r2, #3
 8002b36:	429a      	cmp	r2, r3
 8002b38:	d177      	bne.n	8002c2a <RCCEx_PLLSAI1_Config+0x10a>
 8002b3a:	2a00      	cmp	r2, #0
 8002b3c:	d075      	beq.n	8002c2a <RCCEx_PLLSAI1_Config+0x10a>
 8002b3e:	68e3      	ldr	r3, [r4, #12]
 8002b40:	686a      	ldr	r2, [r5, #4]
 8002b42:	f3c3 1302 	ubfx	r3, r3, #4, #3
 8002b46:	3301      	adds	r3, #1
 8002b48:	4293      	cmp	r3, r2
 8002b4a:	d16e      	bne.n	8002c2a <RCCEx_PLLSAI1_Config+0x10a>
 8002b4c:	6823      	ldr	r3, [r4, #0]
 8002b4e:	f023 6380 	bic.w	r3, r3, #67108864	; 0x4000000
 8002b52:	6023      	str	r3, [r4, #0]
 8002b54:	f7fe f89a 	bl	8000c8c <HAL_GetTick>
 8002b58:	4607      	mov	r7, r0
 8002b5a:	6823      	ldr	r3, [r4, #0]
 8002b5c:	011a      	lsls	r2, r3, #4
 8002b5e:	d440      	bmi.n	8002be2 <RCCEx_PLLSAI1_Config+0xc2>
 8002b60:	68ab      	ldr	r3, [r5, #8]
 8002b62:	0218      	lsls	r0, r3, #8
 8002b64:	2e00      	cmp	r6, #0
 8002b66:	d043      	beq.n	8002bf0 <RCCEx_PLLSAI1_Config+0xd0>
 8002b68:	2e01      	cmp	r6, #1
 8002b6a:	d14c      	bne.n	8002c06 <RCCEx_PLLSAI1_Config+0xe6>
 8002b6c:	692a      	ldr	r2, [r5, #16]
 8002b6e:	6921      	ldr	r1, [r4, #16]
 8002b70:	0852      	lsrs	r2, r2, #1
 8002b72:	1e53      	subs	r3, r2, #1
 8002b74:	f421 02c0 	bic.w	r2, r1, #6291456	; 0x600000
 8002b78:	f422 42fe 	bic.w	r2, r2, #32512	; 0x7f00
 8002b7c:	4302      	orrs	r2, r0
 8002b7e:	ea42 5243 	orr.w	r2, r2, r3, lsl #21
 8002b82:	6122      	str	r2, [r4, #16]
 8002b84:	6823      	ldr	r3, [r4, #0]
 8002b86:	f043 6380 	orr.w	r3, r3, #67108864	; 0x4000000
 8002b8a:	6023      	str	r3, [r4, #0]
 8002b8c:	f7fe f87e 	bl	8000c8c <HAL_GetTick>
 8002b90:	4606      	mov	r6, r0
 8002b92:	6823      	ldr	r3, [r4, #0]
 8002b94:	011b      	lsls	r3, r3, #4
 8002b96:	d542      	bpl.n	8002c1e <RCCEx_PLLSAI1_Config+0xfe>
 8002b98:	6923      	ldr	r3, [r4, #16]
 8002b9a:	69aa      	ldr	r2, [r5, #24]
 8002b9c:	4313      	orrs	r3, r2
 8002b9e:	6123      	str	r3, [r4, #16]
 8002ba0:	2000      	movs	r0, #0
 8002ba2:	e024      	b.n	8002bee <RCCEx_PLLSAI1_Config+0xce>
 8002ba4:	2b02      	cmp	r3, #2
 8002ba6:	d011      	beq.n	8002bcc <RCCEx_PLLSAI1_Config+0xac>
 8002ba8:	2b03      	cmp	r3, #3
 8002baa:	d013      	beq.n	8002bd4 <RCCEx_PLLSAI1_Config+0xb4>
 8002bac:	2b01      	cmp	r3, #1
 8002bae:	d13c      	bne.n	8002c2a <RCCEx_PLLSAI1_Config+0x10a>
 8002bb0:	6822      	ldr	r2, [r4, #0]
 8002bb2:	f012 0f02 	tst.w	r2, #2
 8002bb6:	d038      	beq.n	8002c2a <RCCEx_PLLSAI1_Config+0x10a>
 8002bb8:	68e0      	ldr	r0, [r4, #12]
 8002bba:	686a      	ldr	r2, [r5, #4]
 8002bbc:	f020 0073 	bic.w	r0, r0, #115	; 0x73
 8002bc0:	3a01      	subs	r2, #1
 8002bc2:	4318      	orrs	r0, r3
 8002bc4:	ea40 1002 	orr.w	r0, r0, r2, lsl #4
 8002bc8:	60e0      	str	r0, [r4, #12]
 8002bca:	e7bf      	b.n	8002b4c <RCCEx_PLLSAI1_Config+0x2c>
 8002bcc:	6822      	ldr	r2, [r4, #0]
 8002bce:	f412 6f80 	tst.w	r2, #1024	; 0x400
 8002bd2:	e7f0      	b.n	8002bb6 <RCCEx_PLLSAI1_Config+0x96>
 8002bd4:	6822      	ldr	r2, [r4, #0]
 8002bd6:	0391      	lsls	r1, r2, #14
 8002bd8:	d4ee      	bmi.n	8002bb8 <RCCEx_PLLSAI1_Config+0x98>
 8002bda:	6822      	ldr	r2, [r4, #0]
 8002bdc:	f412 2f80 	tst.w	r2, #262144	; 0x40000
 8002be0:	e7e9      	b.n	8002bb6 <RCCEx_PLLSAI1_Config+0x96>
 8002be2:	f7fe f853 	bl	8000c8c <HAL_GetTick>
 8002be6:	1bc0      	subs	r0, r0, r7
 8002be8:	2802      	cmp	r0, #2
 8002bea:	d9b6      	bls.n	8002b5a <RCCEx_PLLSAI1_Config+0x3a>
 8002bec:	2003      	movs	r0, #3
 8002bee:	bdf8      	pop	{r3, r4, r5, r6, r7, pc}
 8002bf0:	6922      	ldr	r2, [r4, #16]
 8002bf2:	68eb      	ldr	r3, [r5, #12]
 8002bf4:	ea40 63c3 	orr.w	r3, r0, r3, lsl #27
 8002bf8:	f022 4078 	bic.w	r0, r2, #4160749568	; 0xf8000000
 8002bfc:	f420 40fe 	bic.w	r0, r0, #32512	; 0x7f00
 8002c00:	4303      	orrs	r3, r0
 8002c02:	6123      	str	r3, [r4, #16]
 8002c04:	e7be      	b.n	8002b84 <RCCEx_PLLSAI1_Config+0x64>
 8002c06:	696b      	ldr	r3, [r5, #20]
 8002c08:	6922      	ldr	r2, [r4, #16]
 8002c0a:	085b      	lsrs	r3, r3, #1
 8002c0c:	1e59      	subs	r1, r3, #1
 8002c0e:	f022 63c0 	bic.w	r3, r2, #100663296	; 0x6000000
 8002c12:	f423 43fe 	bic.w	r3, r3, #32512	; 0x7f00
 8002c16:	4303      	orrs	r3, r0
 8002c18:	ea43 6341 	orr.w	r3, r3, r1, lsl #25
 8002c1c:	e7f1      	b.n	8002c02 <RCCEx_PLLSAI1_Config+0xe2>
 8002c1e:	f7fe f835 	bl	8000c8c <HAL_GetTick>
 8002c22:	1b80      	subs	r0, r0, r6
 8002c24:	2802      	cmp	r0, #2
 8002c26:	d9b4      	bls.n	8002b92 <RCCEx_PLLSAI1_Config+0x72>
 8002c28:	e7e0      	b.n	8002bec <RCCEx_PLLSAI1_Config+0xcc>
 8002c2a:	2001      	movs	r0, #1
 8002c2c:	e7df      	b.n	8002bee <RCCEx_PLLSAI1_Config+0xce>
 8002c2e:	bf00      	nop
 8002c30:	40021000 	.word	0x40021000

08002c34 <HAL_RCCEx_PeriphCLKConfig>:
 8002c34:	e92d 43f7 	stmdb	sp!, {r0, r1, r2, r4, r5, r6, r7, r8, r9, lr}
 8002c38:	6805      	ldr	r5, [r0, #0]
 8002c3a:	f415 6500 	ands.w	r5, r5, #2048	; 0x800
 8002c3e:	4604      	mov	r4, r0
 8002c40:	d009      	beq.n	8002c56 <HAL_RCCEx_PeriphCLKConfig+0x22>
 8002c42:	6cc1      	ldr	r1, [r0, #76]	; 0x4c
 8002c44:	f5b1 0f00 	cmp.w	r1, #8388608	; 0x800000
 8002c48:	d035      	beq.n	8002cb6 <HAL_RCCEx_PeriphCLKConfig+0x82>
 8002c4a:	f5b1 0f40 	cmp.w	r1, #12582912	; 0xc00000
 8002c4e:	d037      	beq.n	8002cc0 <HAL_RCCEx_PeriphCLKConfig+0x8c>
 8002c50:	2900      	cmp	r1, #0
 8002c52:	d040      	beq.n	8002cd6 <HAL_RCCEx_PeriphCLKConfig+0xa2>
 8002c54:	2501      	movs	r5, #1
 8002c56:	6823      	ldr	r3, [r4, #0]
 8002c58:	039e      	lsls	r6, r3, #14
 8002c5a:	d551      	bpl.n	8002d00 <HAL_RCCEx_PeriphCLKConfig+0xcc>
 8002c5c:	4eaf      	ldr	r6, [pc, #700]	; (8002f1c <HAL_RCCEx_PeriphCLKConfig+0x2e8>)
 8002c5e:	6db3      	ldr	r3, [r6, #88]	; 0x58
 8002c60:	00d8      	lsls	r0, r3, #3
 8002c62:	d43f      	bmi.n	8002ce4 <HAL_RCCEx_PeriphCLKConfig+0xb0>
 8002c64:	6db3      	ldr	r3, [r6, #88]	; 0x58
 8002c66:	f043 5380 	orr.w	r3, r3, #268435456	; 0x10000000
 8002c6a:	65b3      	str	r3, [r6, #88]	; 0x58
 8002c6c:	6db3      	ldr	r3, [r6, #88]	; 0x58
 8002c6e:	f003 5380 	and.w	r3, r3, #268435456	; 0x10000000
 8002c72:	9301      	str	r3, [sp, #4]
 8002c74:	9b01      	ldr	r3, [sp, #4]
 8002c76:	2701      	movs	r7, #1
 8002c78:	f8df 82a4 	ldr.w	r8, [pc, #676]	; 8002f20 <HAL_RCCEx_PeriphCLKConfig+0x2ec>
 8002c7c:	f8d8 3000 	ldr.w	r3, [r8]
 8002c80:	f443 7380 	orr.w	r3, r3, #256	; 0x100
 8002c84:	f8c8 3000 	str.w	r3, [r8]
 8002c88:	f7fe f800 	bl	8000c8c <HAL_GetTick>
 8002c8c:	4681      	mov	r9, r0
 8002c8e:	f8d8 3000 	ldr.w	r3, [r8]
 8002c92:	05d9      	lsls	r1, r3, #23
 8002c94:	d528      	bpl.n	8002ce8 <HAL_RCCEx_PeriphCLKConfig+0xb4>
 8002c96:	bb75      	cbnz	r5, 8002cf6 <HAL_RCCEx_PeriphCLKConfig+0xc2>
 8002c98:	f8d6 3090 	ldr.w	r3, [r6, #144]	; 0x90
 8002c9c:	f413 7340 	ands.w	r3, r3, #768	; 0x300
 8002ca0:	f040 8106 	bne.w	8002eb0 <HAL_RCCEx_PeriphCLKConfig+0x27c>
 8002ca4:	f8d6 3090 	ldr.w	r3, [r6, #144]	; 0x90
 8002ca8:	6e62      	ldr	r2, [r4, #100]	; 0x64
 8002caa:	f423 7340 	bic.w	r3, r3, #768	; 0x300
 8002cae:	4313      	orrs	r3, r2
 8002cb0:	f8c6 3090 	str.w	r3, [r6, #144]	; 0x90
 8002cb4:	e01f      	b.n	8002cf6 <HAL_RCCEx_PeriphCLKConfig+0xc2>
 8002cb6:	4a99      	ldr	r2, [pc, #612]	; (8002f1c <HAL_RCCEx_PeriphCLKConfig+0x2e8>)
 8002cb8:	68d3      	ldr	r3, [r2, #12]
 8002cba:	f443 3380 	orr.w	r3, r3, #65536	; 0x10000
 8002cbe:	60d3      	str	r3, [r2, #12]
 8002cc0:	4a96      	ldr	r2, [pc, #600]	; (8002f1c <HAL_RCCEx_PeriphCLKConfig+0x2e8>)
 8002cc2:	6ce1      	ldr	r1, [r4, #76]	; 0x4c
 8002cc4:	f8d2 3088 	ldr.w	r3, [r2, #136]	; 0x88
 8002cc8:	f423 0340 	bic.w	r3, r3, #12582912	; 0xc00000
 8002ccc:	430b      	orrs	r3, r1
 8002cce:	f8c2 3088 	str.w	r3, [r2, #136]	; 0x88
 8002cd2:	2500      	movs	r5, #0
 8002cd4:	e7bf      	b.n	8002c56 <HAL_RCCEx_PeriphCLKConfig+0x22>
 8002cd6:	3004      	adds	r0, #4
 8002cd8:	f7ff ff22 	bl	8002b20 <RCCEx_PLLSAI1_Config>
 8002cdc:	4605      	mov	r5, r0
 8002cde:	2800      	cmp	r0, #0
 8002ce0:	d1b9      	bne.n	8002c56 <HAL_RCCEx_PeriphCLKConfig+0x22>
 8002ce2:	e7ed      	b.n	8002cc0 <HAL_RCCEx_PeriphCLKConfig+0x8c>
 8002ce4:	2700      	movs	r7, #0
 8002ce6:	e7c7      	b.n	8002c78 <HAL_RCCEx_PeriphCLKConfig+0x44>
 8002ce8:	f7fd ffd0 	bl	8000c8c <HAL_GetTick>
 8002cec:	eba0 0009 	sub.w	r0, r0, r9
 8002cf0:	2802      	cmp	r0, #2
 8002cf2:	d9cc      	bls.n	8002c8e <HAL_RCCEx_PeriphCLKConfig+0x5a>
 8002cf4:	2503      	movs	r5, #3
 8002cf6:	b11f      	cbz	r7, 8002d00 <HAL_RCCEx_PeriphCLKConfig+0xcc>
 8002cf8:	6db3      	ldr	r3, [r6, #88]	; 0x58
 8002cfa:	f023 5380 	bic.w	r3, r3, #268435456	; 0x10000000
 8002cfe:	65b3      	str	r3, [r6, #88]	; 0x58
 8002d00:	6823      	ldr	r3, [r4, #0]
 8002d02:	07df      	lsls	r7, r3, #31
 8002d04:	d508      	bpl.n	8002d18 <HAL_RCCEx_PeriphCLKConfig+0xe4>
 8002d06:	4985      	ldr	r1, [pc, #532]	; (8002f1c <HAL_RCCEx_PeriphCLKConfig+0x2e8>)
 8002d08:	6a20      	ldr	r0, [r4, #32]
 8002d0a:	f8d1 2088 	ldr.w	r2, [r1, #136]	; 0x88
 8002d0e:	f022 0203 	bic.w	r2, r2, #3
 8002d12:	4302      	orrs	r2, r0
 8002d14:	f8c1 2088 	str.w	r2, [r1, #136]	; 0x88
 8002d18:	079e      	lsls	r6, r3, #30
 8002d1a:	d508      	bpl.n	8002d2e <HAL_RCCEx_PeriphCLKConfig+0xfa>
 8002d1c:	497f      	ldr	r1, [pc, #508]	; (8002f1c <HAL_RCCEx_PeriphCLKConfig+0x2e8>)
 8002d1e:	6a60      	ldr	r0, [r4, #36]	; 0x24
 8002d20:	f8d1 2088 	ldr.w	r2, [r1, #136]	; 0x88
 8002d24:	f022 020c 	bic.w	r2, r2, #12
 8002d28:	4302      	orrs	r2, r0
 8002d2a:	f8c1 2088 	str.w	r2, [r1, #136]	; 0x88
 8002d2e:	0758      	lsls	r0, r3, #29
 8002d30:	d508      	bpl.n	8002d44 <HAL_RCCEx_PeriphCLKConfig+0x110>
 8002d32:	497a      	ldr	r1, [pc, #488]	; (8002f1c <HAL_RCCEx_PeriphCLKConfig+0x2e8>)
 8002d34:	6aa0      	ldr	r0, [r4, #40]	; 0x28
 8002d36:	f8d1 2088 	ldr.w	r2, [r1, #136]	; 0x88
 8002d3a:	f022 0230 	bic.w	r2, r2, #48	; 0x30
 8002d3e:	4302      	orrs	r2, r0
 8002d40:	f8c1 2088 	str.w	r2, [r1, #136]	; 0x88
 8002d44:	0719      	lsls	r1, r3, #28
 8002d46:	d508      	bpl.n	8002d5a <HAL_RCCEx_PeriphCLKConfig+0x126>
 8002d48:	4974      	ldr	r1, [pc, #464]	; (8002f1c <HAL_RCCEx_PeriphCLKConfig+0x2e8>)
 8002d4a:	6ae0      	ldr	r0, [r4, #44]	; 0x2c
 8002d4c:	f8d1 2088 	ldr.w	r2, [r1, #136]	; 0x88
 8002d50:	f022 02c0 	bic.w	r2, r2, #192	; 0xc0
 8002d54:	4302      	orrs	r2, r0
 8002d56:	f8c1 2088 	str.w	r2, [r1, #136]	; 0x88
 8002d5a:	069a      	lsls	r2, r3, #26
 8002d5c:	d508      	bpl.n	8002d70 <HAL_RCCEx_PeriphCLKConfig+0x13c>
 8002d5e:	496f      	ldr	r1, [pc, #444]	; (8002f1c <HAL_RCCEx_PeriphCLKConfig+0x2e8>)
 8002d60:	6b20      	ldr	r0, [r4, #48]	; 0x30
 8002d62:	f8d1 2088 	ldr.w	r2, [r1, #136]	; 0x88
 8002d66:	f422 6240 	bic.w	r2, r2, #3072	; 0xc00
 8002d6a:	4302      	orrs	r2, r0
 8002d6c:	f8c1 2088 	str.w	r2, [r1, #136]	; 0x88
 8002d70:	059f      	lsls	r7, r3, #22
 8002d72:	d508      	bpl.n	8002d86 <HAL_RCCEx_PeriphCLKConfig+0x152>
 8002d74:	4969      	ldr	r1, [pc, #420]	; (8002f1c <HAL_RCCEx_PeriphCLKConfig+0x2e8>)
 8002d76:	6c60      	ldr	r0, [r4, #68]	; 0x44
 8002d78:	f8d1 2088 	ldr.w	r2, [r1, #136]	; 0x88
 8002d7c:	f422 2240 	bic.w	r2, r2, #786432	; 0xc0000
 8002d80:	4302      	orrs	r2, r0
 8002d82:	f8c1 2088 	str.w	r2, [r1, #136]	; 0x88
 8002d86:	055e      	lsls	r6, r3, #21
 8002d88:	d508      	bpl.n	8002d9c <HAL_RCCEx_PeriphCLKConfig+0x168>
 8002d8a:	4964      	ldr	r1, [pc, #400]	; (8002f1c <HAL_RCCEx_PeriphCLKConfig+0x2e8>)
 8002d8c:	6ca0      	ldr	r0, [r4, #72]	; 0x48
 8002d8e:	f8d1 2088 	ldr.w	r2, [r1, #136]	; 0x88
 8002d92:	f422 1240 	bic.w	r2, r2, #3145728	; 0x300000
 8002d96:	4302      	orrs	r2, r0
 8002d98:	f8c1 2088 	str.w	r2, [r1, #136]	; 0x88
 8002d9c:	0658      	lsls	r0, r3, #25
 8002d9e:	d508      	bpl.n	8002db2 <HAL_RCCEx_PeriphCLKConfig+0x17e>
 8002da0:	495e      	ldr	r1, [pc, #376]	; (8002f1c <HAL_RCCEx_PeriphCLKConfig+0x2e8>)
 8002da2:	6b60      	ldr	r0, [r4, #52]	; 0x34
 8002da4:	f8d1 2088 	ldr.w	r2, [r1, #136]	; 0x88
 8002da8:	f422 5240 	bic.w	r2, r2, #12288	; 0x3000
 8002dac:	4302      	orrs	r2, r0
 8002dae:	f8c1 2088 	str.w	r2, [r1, #136]	; 0x88
 8002db2:	0619      	lsls	r1, r3, #24
 8002db4:	d508      	bpl.n	8002dc8 <HAL_RCCEx_PeriphCLKConfig+0x194>
 8002db6:	4959      	ldr	r1, [pc, #356]	; (8002f1c <HAL_RCCEx_PeriphCLKConfig+0x2e8>)
 8002db8:	6ba0      	ldr	r0, [r4, #56]	; 0x38
 8002dba:	f8d1 2088 	ldr.w	r2, [r1, #136]	; 0x88
 8002dbe:	f422 4240 	bic.w	r2, r2, #49152	; 0xc000
 8002dc2:	4302      	orrs	r2, r0
 8002dc4:	f8c1 2088 	str.w	r2, [r1, #136]	; 0x88
 8002dc8:	05da      	lsls	r2, r3, #23
 8002dca:	d508      	bpl.n	8002dde <HAL_RCCEx_PeriphCLKConfig+0x1aa>
 8002dcc:	4953      	ldr	r1, [pc, #332]	; (8002f1c <HAL_RCCEx_PeriphCLKConfig+0x2e8>)
 8002dce:	6be0      	ldr	r0, [r4, #60]	; 0x3c
 8002dd0:	f8d1 2088 	ldr.w	r2, [r1, #136]	; 0x88
 8002dd4:	f422 3240 	bic.w	r2, r2, #196608	; 0x30000
 8002dd8:	4302      	orrs	r2, r0
 8002dda:	f8c1 2088 	str.w	r2, [r1, #136]	; 0x88
 8002dde:	02df      	lsls	r7, r3, #11
 8002de0:	d508      	bpl.n	8002df4 <HAL_RCCEx_PeriphCLKConfig+0x1c0>
 8002de2:	494e      	ldr	r1, [pc, #312]	; (8002f1c <HAL_RCCEx_PeriphCLKConfig+0x2e8>)
 8002de4:	6c20      	ldr	r0, [r4, #64]	; 0x40
 8002de6:	f8d1 209c 	ldr.w	r2, [r1, #156]	; 0x9c
 8002dea:	f022 0203 	bic.w	r2, r2, #3
 8002dee:	4302      	orrs	r2, r0
 8002df0:	f8c1 209c 	str.w	r2, [r1, #156]	; 0x9c
 8002df4:	049e      	lsls	r6, r3, #18
 8002df6:	d50f      	bpl.n	8002e18 <HAL_RCCEx_PeriphCLKConfig+0x1e4>
 8002df8:	4a48      	ldr	r2, [pc, #288]	; (8002f1c <HAL_RCCEx_PeriphCLKConfig+0x2e8>)
 8002dfa:	6d21      	ldr	r1, [r4, #80]	; 0x50
 8002dfc:	f8d2 3088 	ldr.w	r3, [r2, #136]	; 0x88
 8002e00:	f023 6340 	bic.w	r3, r3, #201326592	; 0xc000000
 8002e04:	430b      	orrs	r3, r1
 8002e06:	f1b1 6f00 	cmp.w	r1, #134217728	; 0x8000000
 8002e0a:	f8c2 3088 	str.w	r3, [r2, #136]	; 0x88
 8002e0e:	d179      	bne.n	8002f04 <HAL_RCCEx_PeriphCLKConfig+0x2d0>
 8002e10:	68d3      	ldr	r3, [r2, #12]
 8002e12:	f443 1380 	orr.w	r3, r3, #1048576	; 0x100000
 8002e16:	60d3      	str	r3, [r2, #12]
 8002e18:	6823      	ldr	r3, [r4, #0]
 8002e1a:	0318      	lsls	r0, r3, #12
 8002e1c:	d50f      	bpl.n	8002e3e <HAL_RCCEx_PeriphCLKConfig+0x20a>
 8002e1e:	4a3f      	ldr	r2, [pc, #252]	; (8002f1c <HAL_RCCEx_PeriphCLKConfig+0x2e8>)
 8002e20:	6d61      	ldr	r1, [r4, #84]	; 0x54
 8002e22:	f8d2 3088 	ldr.w	r3, [r2, #136]	; 0x88
 8002e26:	f023 6340 	bic.w	r3, r3, #201326592	; 0xc000000
 8002e2a:	430b      	orrs	r3, r1
 8002e2c:	f1b1 6f00 	cmp.w	r1, #134217728	; 0x8000000
 8002e30:	f8c2 3088 	str.w	r3, [r2, #136]	; 0x88
 8002e34:	d176      	bne.n	8002f24 <HAL_RCCEx_PeriphCLKConfig+0x2f0>
 8002e36:	68d3      	ldr	r3, [r2, #12]
 8002e38:	f443 1380 	orr.w	r3, r3, #1048576	; 0x100000
 8002e3c:	60d3      	str	r3, [r2, #12]
 8002e3e:	6823      	ldr	r3, [r4, #0]
 8002e40:	0359      	lsls	r1, r3, #13
 8002e42:	d50f      	bpl.n	8002e64 <HAL_RCCEx_PeriphCLKConfig+0x230>
 8002e44:	4a35      	ldr	r2, [pc, #212]	; (8002f1c <HAL_RCCEx_PeriphCLKConfig+0x2e8>)
 8002e46:	6da1      	ldr	r1, [r4, #88]	; 0x58
 8002e48:	f8d2 3088 	ldr.w	r3, [r2, #136]	; 0x88
 8002e4c:	f023 6340 	bic.w	r3, r3, #201326592	; 0xc000000
 8002e50:	430b      	orrs	r3, r1
 8002e52:	f1b1 6f00 	cmp.w	r1, #134217728	; 0x8000000
 8002e56:	f8c2 3088 	str.w	r3, [r2, #136]	; 0x88
 8002e5a:	d16e      	bne.n	8002f3a <HAL_RCCEx_PeriphCLKConfig+0x306>
 8002e5c:	68d3      	ldr	r3, [r2, #12]
 8002e5e:	f443 1380 	orr.w	r3, r3, #1048576	; 0x100000
 8002e62:	60d3      	str	r3, [r2, #12]
 8002e64:	6823      	ldr	r3, [r4, #0]
 8002e66:	045a      	lsls	r2, r3, #17
 8002e68:	d512      	bpl.n	8002e90 <HAL_RCCEx_PeriphCLKConfig+0x25c>
 8002e6a:	492c      	ldr	r1, [pc, #176]	; (8002f1c <HAL_RCCEx_PeriphCLKConfig+0x2e8>)
 8002e6c:	6de2      	ldr	r2, [r4, #92]	; 0x5c
 8002e6e:	f8d1 3088 	ldr.w	r3, [r1, #136]	; 0x88
 8002e72:	f023 5340 	bic.w	r3, r3, #805306368	; 0x30000000
 8002e76:	4313      	orrs	r3, r2
 8002e78:	f1b2 5f80 	cmp.w	r2, #268435456	; 0x10000000
 8002e7c:	f8c1 3088 	str.w	r3, [r1, #136]	; 0x88
 8002e80:	d106      	bne.n	8002e90 <HAL_RCCEx_PeriphCLKConfig+0x25c>
 8002e82:	2102      	movs	r1, #2
 8002e84:	1d20      	adds	r0, r4, #4
 8002e86:	f7ff fe4b 	bl	8002b20 <RCCEx_PLLSAI1_Config>
 8002e8a:	2800      	cmp	r0, #0
 8002e8c:	bf18      	it	ne
 8002e8e:	4605      	movne	r5, r0
 8002e90:	6823      	ldr	r3, [r4, #0]
 8002e92:	03db      	lsls	r3, r3, #15
 8002e94:	d508      	bpl.n	8002ea8 <HAL_RCCEx_PeriphCLKConfig+0x274>
 8002e96:	4a21      	ldr	r2, [pc, #132]	; (8002f1c <HAL_RCCEx_PeriphCLKConfig+0x2e8>)
 8002e98:	6e21      	ldr	r1, [r4, #96]	; 0x60
 8002e9a:	f8d2 3088 	ldr.w	r3, [r2, #136]	; 0x88
 8002e9e:	f023 4300 	bic.w	r3, r3, #2147483648	; 0x80000000
 8002ea2:	430b      	orrs	r3, r1
 8002ea4:	f8c2 3088 	str.w	r3, [r2, #136]	; 0x88
 8002ea8:	4628      	mov	r0, r5
 8002eaa:	b003      	add	sp, #12
 8002eac:	e8bd 83f0 	ldmia.w	sp!, {r4, r5, r6, r7, r8, r9, pc}
 8002eb0:	6e62      	ldr	r2, [r4, #100]	; 0x64
 8002eb2:	4293      	cmp	r3, r2
 8002eb4:	f43f aef6 	beq.w	8002ca4 <HAL_RCCEx_PeriphCLKConfig+0x70>
 8002eb8:	f8d6 2090 	ldr.w	r2, [r6, #144]	; 0x90
 8002ebc:	f8d6 3090 	ldr.w	r3, [r6, #144]	; 0x90
 8002ec0:	f443 3380 	orr.w	r3, r3, #65536	; 0x10000
 8002ec4:	f8c6 3090 	str.w	r3, [r6, #144]	; 0x90
 8002ec8:	f8d6 3090 	ldr.w	r3, [r6, #144]	; 0x90
 8002ecc:	f422 7140 	bic.w	r1, r2, #768	; 0x300
 8002ed0:	f423 3380 	bic.w	r3, r3, #65536	; 0x10000
 8002ed4:	07d2      	lsls	r2, r2, #31
 8002ed6:	f8c6 3090 	str.w	r3, [r6, #144]	; 0x90
 8002eda:	f8c6 1090 	str.w	r1, [r6, #144]	; 0x90
 8002ede:	f57f aee1 	bpl.w	8002ca4 <HAL_RCCEx_PeriphCLKConfig+0x70>
 8002ee2:	f7fd fed3 	bl	8000c8c <HAL_GetTick>
 8002ee6:	f241 3988 	movw	r9, #5000	; 0x1388
 8002eea:	4680      	mov	r8, r0
 8002eec:	f8d6 3090 	ldr.w	r3, [r6, #144]	; 0x90
 8002ef0:	079b      	lsls	r3, r3, #30
 8002ef2:	f53f aed7 	bmi.w	8002ca4 <HAL_RCCEx_PeriphCLKConfig+0x70>
 8002ef6:	f7fd fec9 	bl	8000c8c <HAL_GetTick>
 8002efa:	eba0 0008 	sub.w	r0, r0, r8
 8002efe:	4548      	cmp	r0, r9
 8002f00:	d9f4      	bls.n	8002eec <HAL_RCCEx_PeriphCLKConfig+0x2b8>
 8002f02:	e6f7      	b.n	8002cf4 <HAL_RCCEx_PeriphCLKConfig+0xc0>
 8002f04:	f1b1 6f80 	cmp.w	r1, #67108864	; 0x4000000
 8002f08:	d186      	bne.n	8002e18 <HAL_RCCEx_PeriphCLKConfig+0x1e4>
 8002f0a:	2101      	movs	r1, #1
 8002f0c:	1d20      	adds	r0, r4, #4
 8002f0e:	f7ff fe07 	bl	8002b20 <RCCEx_PLLSAI1_Config>
 8002f12:	2800      	cmp	r0, #0
 8002f14:	bf18      	it	ne
 8002f16:	4605      	movne	r5, r0
 8002f18:	e77e      	b.n	8002e18 <HAL_RCCEx_PeriphCLKConfig+0x1e4>
 8002f1a:	bf00      	nop
 8002f1c:	40021000 	.word	0x40021000
 8002f20:	40007000 	.word	0x40007000
 8002f24:	f1b1 6f80 	cmp.w	r1, #67108864	; 0x4000000
 8002f28:	d189      	bne.n	8002e3e <HAL_RCCEx_PeriphCLKConfig+0x20a>
 8002f2a:	2101      	movs	r1, #1
 8002f2c:	1d20      	adds	r0, r4, #4
 8002f2e:	f7ff fdf7 	bl	8002b20 <RCCEx_PLLSAI1_Config>
 8002f32:	2800      	cmp	r0, #0
 8002f34:	bf18      	it	ne
 8002f36:	4605      	movne	r5, r0
 8002f38:	e781      	b.n	8002e3e <HAL_RCCEx_PeriphCLKConfig+0x20a>
 8002f3a:	f1b1 6f80 	cmp.w	r1, #67108864	; 0x4000000
 8002f3e:	d191      	bne.n	8002e64 <HAL_RCCEx_PeriphCLKConfig+0x230>
 8002f40:	2101      	movs	r1, #1
 8002f42:	1d20      	adds	r0, r4, #4
 8002f44:	f7ff fdec 	bl	8002b20 <RCCEx_PLLSAI1_Config>
 8002f48:	2800      	cmp	r0, #0
 8002f4a:	bf18      	it	ne
 8002f4c:	4605      	movne	r5, r0
 8002f4e:	e789      	b.n	8002e64 <HAL_RCCEx_PeriphCLKConfig+0x230>

08002f50 <HAL_SPI_Init>:
 8002f50:	b570      	push	{r4, r5, r6, lr}
 8002f52:	4604      	mov	r4, r0
 8002f54:	2800      	cmp	r0, #0
 8002f56:	d05f      	beq.n	8003018 <HAL_SPI_Init+0xc8>
 8002f58:	6a43      	ldr	r3, [r0, #36]	; 0x24
 8002f5a:	2b00      	cmp	r3, #0
 8002f5c:	d158      	bne.n	8003010 <HAL_SPI_Init+0xc0>
 8002f5e:	6842      	ldr	r2, [r0, #4]
 8002f60:	f5b2 7f82 	cmp.w	r2, #260	; 0x104
 8002f64:	d000      	beq.n	8002f68 <HAL_SPI_Init+0x18>
 8002f66:	61c3      	str	r3, [r0, #28]
 8002f68:	2300      	movs	r3, #0
 8002f6a:	62a3      	str	r3, [r4, #40]	; 0x28
 8002f6c:	f894 305d 	ldrb.w	r3, [r4, #93]	; 0x5d
 8002f70:	f003 02ff 	and.w	r2, r3, #255	; 0xff
 8002f74:	b923      	cbnz	r3, 8002f80 <HAL_SPI_Init+0x30>
 8002f76:	f884 205c 	strb.w	r2, [r4, #92]	; 0x5c
 8002f7a:	4620      	mov	r0, r4
 8002f7c:	f7fd fd5a 	bl	8000a34 <HAL_SPI_MspInit>
 8002f80:	6825      	ldr	r5, [r4, #0]
 8002f82:	68e1      	ldr	r1, [r4, #12]
 8002f84:	2302      	movs	r3, #2
 8002f86:	f884 305d 	strb.w	r3, [r4, #93]	; 0x5d
 8002f8a:	682b      	ldr	r3, [r5, #0]
 8002f8c:	f5b1 6fe0 	cmp.w	r1, #1792	; 0x700
 8002f90:	f023 0340 	bic.w	r3, r3, #64	; 0x40
 8002f94:	602b      	str	r3, [r5, #0]
 8002f96:	f04f 0300 	mov.w	r3, #0
 8002f9a:	d83f      	bhi.n	800301c <HAL_SPI_Init+0xcc>
 8002f9c:	f44f 5080 	mov.w	r0, #4096	; 0x1000
 8002fa0:	d000      	beq.n	8002fa4 <HAL_SPI_Init+0x54>
 8002fa2:	62a3      	str	r3, [r4, #40]	; 0x28
 8002fa4:	6863      	ldr	r3, [r4, #4]
 8002fa6:	68a6      	ldr	r6, [r4, #8]
 8002fa8:	69a2      	ldr	r2, [r4, #24]
 8002faa:	f406 4604 	and.w	r6, r6, #33792	; 0x8400
 8002fae:	f403 7382 	and.w	r3, r3, #260	; 0x104
 8002fb2:	4333      	orrs	r3, r6
 8002fb4:	6926      	ldr	r6, [r4, #16]
 8002fb6:	f006 0602 	and.w	r6, r6, #2
 8002fba:	4333      	orrs	r3, r6
 8002fbc:	6966      	ldr	r6, [r4, #20]
 8002fbe:	f006 0601 	and.w	r6, r6, #1
 8002fc2:	4333      	orrs	r3, r6
 8002fc4:	f402 7600 	and.w	r6, r2, #512	; 0x200
 8002fc8:	4333      	orrs	r3, r6
 8002fca:	69e6      	ldr	r6, [r4, #28]
 8002fcc:	f006 0638 	and.w	r6, r6, #56	; 0x38
 8002fd0:	4333      	orrs	r3, r6
 8002fd2:	6a26      	ldr	r6, [r4, #32]
 8002fd4:	f006 0680 	and.w	r6, r6, #128	; 0x80
 8002fd8:	4333      	orrs	r3, r6
 8002fda:	6aa6      	ldr	r6, [r4, #40]	; 0x28
 8002fdc:	f406 5600 	and.w	r6, r6, #8192	; 0x2000
 8002fe0:	4333      	orrs	r3, r6
 8002fe2:	602b      	str	r3, [r5, #0]
 8002fe4:	6b66      	ldr	r6, [r4, #52]	; 0x34
 8002fe6:	6a63      	ldr	r3, [r4, #36]	; 0x24
 8002fe8:	f006 0608 	and.w	r6, r6, #8
 8002fec:	f003 0310 	and.w	r3, r3, #16
 8002ff0:	4333      	orrs	r3, r6
 8002ff2:	f401 6170 	and.w	r1, r1, #3840	; 0xf00
 8002ff6:	0c12      	lsrs	r2, r2, #16
 8002ff8:	4319      	orrs	r1, r3
 8002ffa:	f002 0204 	and.w	r2, r2, #4
 8002ffe:	430a      	orrs	r2, r1
 8003000:	4310      	orrs	r0, r2
 8003002:	6068      	str	r0, [r5, #4]
 8003004:	2301      	movs	r3, #1
 8003006:	2000      	movs	r0, #0
 8003008:	6620      	str	r0, [r4, #96]	; 0x60
 800300a:	f884 305d 	strb.w	r3, [r4, #93]	; 0x5d
 800300e:	bd70      	pop	{r4, r5, r6, pc}
 8003010:	2300      	movs	r3, #0
 8003012:	e9c0 3304 	strd	r3, r3, [r0, #16]
 8003016:	e7a7      	b.n	8002f68 <HAL_SPI_Init+0x18>
 8003018:	2001      	movs	r0, #1
 800301a:	e7f8      	b.n	800300e <HAL_SPI_Init+0xbe>
 800301c:	4618      	mov	r0, r3
 800301e:	f5b1 6f70 	cmp.w	r1, #3840	; 0xf00
 8003022:	e7bd      	b.n	8002fa0 <HAL_SPI_Init+0x50>

08003024 <HAL_TIM_OC_DelayElapsedCallback>:
 8003024:	4770      	bx	lr

08003026 <HAL_TIM_IC_CaptureCallback>:
 8003026:	4770      	bx	lr

08003028 <HAL_TIM_PWM_PulseFinishedCallback>:
 8003028:	4770      	bx	lr

0800302a <HAL_TIM_TriggerCallback>:
 800302a:	4770      	bx	lr

0800302c <HAL_TIM_IRQHandler>:
 800302c:	6803      	ldr	r3, [r0, #0]
 800302e:	691a      	ldr	r2, [r3, #16]
 8003030:	0791      	lsls	r1, r2, #30
 8003032:	b510      	push	{r4, lr}
 8003034:	4604      	mov	r4, r0
 8003036:	d50f      	bpl.n	8003058 <HAL_TIM_IRQHandler+0x2c>
 8003038:	68da      	ldr	r2, [r3, #12]
 800303a:	0792      	lsls	r2, r2, #30
 800303c:	d50c      	bpl.n	8003058 <HAL_TIM_IRQHandler+0x2c>
 800303e:	f06f 0202 	mvn.w	r2, #2
 8003042:	611a      	str	r2, [r3, #16]
 8003044:	2201      	movs	r2, #1
 8003046:	7702      	strb	r2, [r0, #28]
 8003048:	699b      	ldr	r3, [r3, #24]
 800304a:	0799      	lsls	r1, r3, #30
 800304c:	f000 8085 	beq.w	800315a <HAL_TIM_IRQHandler+0x12e>
 8003050:	f7ff ffe9 	bl	8003026 <HAL_TIM_IC_CaptureCallback>
 8003054:	2300      	movs	r3, #0
 8003056:	7723      	strb	r3, [r4, #28]
 8003058:	6823      	ldr	r3, [r4, #0]
 800305a:	691a      	ldr	r2, [r3, #16]
 800305c:	0752      	lsls	r2, r2, #29
 800305e:	d510      	bpl.n	8003082 <HAL_TIM_IRQHandler+0x56>
 8003060:	68da      	ldr	r2, [r3, #12]
 8003062:	0750      	lsls	r0, r2, #29
 8003064:	d50d      	bpl.n	8003082 <HAL_TIM_IRQHandler+0x56>
 8003066:	f06f 0204 	mvn.w	r2, #4
 800306a:	611a      	str	r2, [r3, #16]
 800306c:	2202      	movs	r2, #2
 800306e:	7722      	strb	r2, [r4, #28]
 8003070:	699b      	ldr	r3, [r3, #24]
 8003072:	f413 7f40 	tst.w	r3, #768	; 0x300
 8003076:	4620      	mov	r0, r4
 8003078:	d075      	beq.n	8003166 <HAL_TIM_IRQHandler+0x13a>
 800307a:	f7ff ffd4 	bl	8003026 <HAL_TIM_IC_CaptureCallback>
 800307e:	2300      	movs	r3, #0
 8003080:	7723      	strb	r3, [r4, #28]
 8003082:	6823      	ldr	r3, [r4, #0]
 8003084:	691a      	ldr	r2, [r3, #16]
 8003086:	0711      	lsls	r1, r2, #28
 8003088:	d50f      	bpl.n	80030aa <HAL_TIM_IRQHandler+0x7e>
 800308a:	68da      	ldr	r2, [r3, #12]
 800308c:	0712      	lsls	r2, r2, #28
 800308e:	d50c      	bpl.n	80030aa <HAL_TIM_IRQHandler+0x7e>
 8003090:	f06f 0208 	mvn.w	r2, #8
 8003094:	611a      	str	r2, [r3, #16]
 8003096:	2204      	movs	r2, #4
 8003098:	7722      	strb	r2, [r4, #28]
 800309a:	69db      	ldr	r3, [r3, #28]
 800309c:	079b      	lsls	r3, r3, #30
 800309e:	4620      	mov	r0, r4
 80030a0:	d067      	beq.n	8003172 <HAL_TIM_IRQHandler+0x146>
 80030a2:	f7ff ffc0 	bl	8003026 <HAL_TIM_IC_CaptureCallback>
 80030a6:	2300      	movs	r3, #0
 80030a8:	7723      	strb	r3, [r4, #28]
 80030aa:	6823      	ldr	r3, [r4, #0]
 80030ac:	691a      	ldr	r2, [r3, #16]
 80030ae:	06d0      	lsls	r0, r2, #27
 80030b0:	d510      	bpl.n	80030d4 <HAL_TIM_IRQHandler+0xa8>
 80030b2:	68da      	ldr	r2, [r3, #12]
 80030b4:	06d1      	lsls	r1, r2, #27
 80030b6:	d50d      	bpl.n	80030d4 <HAL_TIM_IRQHandler+0xa8>
 80030b8:	f06f 0210 	mvn.w	r2, #16
 80030bc:	611a      	str	r2, [r3, #16]
 80030be:	2208      	movs	r2, #8
 80030c0:	7722      	strb	r2, [r4, #28]
 80030c2:	69db      	ldr	r3, [r3, #28]
 80030c4:	f413 7f40 	tst.w	r3, #768	; 0x300
 80030c8:	4620      	mov	r0, r4
 80030ca:	d058      	beq.n	800317e <HAL_TIM_IRQHandler+0x152>
 80030cc:	f7ff ffab 	bl	8003026 <HAL_TIM_IC_CaptureCallback>
 80030d0:	2300      	movs	r3, #0
 80030d2:	7723      	strb	r3, [r4, #28]
 80030d4:	6823      	ldr	r3, [r4, #0]
 80030d6:	691a      	ldr	r2, [r3, #16]
 80030d8:	07d2      	lsls	r2, r2, #31
 80030da:	d508      	bpl.n	80030ee <HAL_TIM_IRQHandler+0xc2>
 80030dc:	68da      	ldr	r2, [r3, #12]
 80030de:	07d0      	lsls	r0, r2, #31
 80030e0:	d505      	bpl.n	80030ee <HAL_TIM_IRQHandler+0xc2>
 80030e2:	f06f 0201 	mvn.w	r2, #1
 80030e6:	611a      	str	r2, [r3, #16]
 80030e8:	4620      	mov	r0, r4
 80030ea:	f7fd fb81 	bl	80007f0 <HAL_TIM_PeriodElapsedCallback>
 80030ee:	6823      	ldr	r3, [r4, #0]
 80030f0:	691a      	ldr	r2, [r3, #16]
 80030f2:	0611      	lsls	r1, r2, #24
 80030f4:	d508      	bpl.n	8003108 <HAL_TIM_IRQHandler+0xdc>
 80030f6:	68da      	ldr	r2, [r3, #12]
 80030f8:	0612      	lsls	r2, r2, #24
 80030fa:	d505      	bpl.n	8003108 <HAL_TIM_IRQHandler+0xdc>
 80030fc:	f06f 0280 	mvn.w	r2, #128	; 0x80
 8003100:	611a      	str	r2, [r3, #16]
 8003102:	4620      	mov	r0, r4
 8003104:	f000 f991 	bl	800342a <HAL_TIMEx_BreakCallback>
 8003108:	6823      	ldr	r3, [r4, #0]
 800310a:	691a      	ldr	r2, [r3, #16]
 800310c:	05d0      	lsls	r0, r2, #23
 800310e:	d508      	bpl.n	8003122 <HAL_TIM_IRQHandler+0xf6>
 8003110:	68da      	ldr	r2, [r3, #12]
 8003112:	0611      	lsls	r1, r2, #24
 8003114:	d505      	bpl.n	8003122 <HAL_TIM_IRQHandler+0xf6>
 8003116:	f46f 7280 	mvn.w	r2, #256	; 0x100
 800311a:	611a      	str	r2, [r3, #16]
 800311c:	4620      	mov	r0, r4
 800311e:	f000 f985 	bl	800342c <HAL_TIMEx_Break2Callback>
 8003122:	6823      	ldr	r3, [r4, #0]
 8003124:	691a      	ldr	r2, [r3, #16]
 8003126:	0652      	lsls	r2, r2, #25
 8003128:	d508      	bpl.n	800313c <HAL_TIM_IRQHandler+0x110>
 800312a:	68da      	ldr	r2, [r3, #12]
 800312c:	0650      	lsls	r0, r2, #25
 800312e:	d505      	bpl.n	800313c <HAL_TIM_IRQHandler+0x110>
 8003130:	f06f 0240 	mvn.w	r2, #64	; 0x40
 8003134:	611a      	str	r2, [r3, #16]
 8003136:	4620      	mov	r0, r4
 8003138:	f7ff ff77 	bl	800302a <HAL_TIM_TriggerCallback>
 800313c:	6823      	ldr	r3, [r4, #0]
 800313e:	691a      	ldr	r2, [r3, #16]
 8003140:	0691      	lsls	r1, r2, #26
 8003142:	d522      	bpl.n	800318a <HAL_TIM_IRQHandler+0x15e>
 8003144:	68da      	ldr	r2, [r3, #12]
 8003146:	0692      	lsls	r2, r2, #26
 8003148:	d51f      	bpl.n	800318a <HAL_TIM_IRQHandler+0x15e>
 800314a:	f06f 0220 	mvn.w	r2, #32
 800314e:	4620      	mov	r0, r4
 8003150:	611a      	str	r2, [r3, #16]
 8003152:	e8bd 4010 	ldmia.w	sp!, {r4, lr}
 8003156:	f000 b967 	b.w	8003428 <HAL_TIMEx_CommutCallback>
 800315a:	f7ff ff63 	bl	8003024 <HAL_TIM_OC_DelayElapsedCallback>
 800315e:	4620      	mov	r0, r4
 8003160:	f7ff ff62 	bl	8003028 <HAL_TIM_PWM_PulseFinishedCallback>
 8003164:	e776      	b.n	8003054 <HAL_TIM_IRQHandler+0x28>
 8003166:	f7ff ff5d 	bl	8003024 <HAL_TIM_OC_DelayElapsedCallback>
 800316a:	4620      	mov	r0, r4
 800316c:	f7ff ff5c 	bl	8003028 <HAL_TIM_PWM_PulseFinishedCallback>
 8003170:	e785      	b.n	800307e <HAL_TIM_IRQHandler+0x52>
 8003172:	f7ff ff57 	bl	8003024 <HAL_TIM_OC_DelayElapsedCallback>
 8003176:	4620      	mov	r0, r4
 8003178:	f7ff ff56 	bl	8003028 <HAL_TIM_PWM_PulseFinishedCallback>
 800317c:	e793      	b.n	80030a6 <HAL_TIM_IRQHandler+0x7a>
 800317e:	f7ff ff51 	bl	8003024 <HAL_TIM_OC_DelayElapsedCallback>
 8003182:	4620      	mov	r0, r4
 8003184:	f7ff ff50 	bl	8003028 <HAL_TIM_PWM_PulseFinishedCallback>
 8003188:	e7a2      	b.n	80030d0 <HAL_TIM_IRQHandler+0xa4>
 800318a:	bd10      	pop	{r4, pc}

0800318c <TIM_Base_SetConfig>:
 800318c:	4a1d      	ldr	r2, [pc, #116]	; (8003204 <TIM_Base_SetConfig+0x78>)
 800318e:	6803      	ldr	r3, [r0, #0]
 8003190:	4290      	cmp	r0, r2
 8003192:	b510      	push	{r4, lr}
 8003194:	d005      	beq.n	80031a2 <TIM_Base_SetConfig+0x16>
 8003196:	f1b0 4f80 	cmp.w	r0, #1073741824	; 0x40000000
 800319a:	d002      	beq.n	80031a2 <TIM_Base_SetConfig+0x16>
 800319c:	4c1a      	ldr	r4, [pc, #104]	; (8003208 <TIM_Base_SetConfig+0x7c>)
 800319e:	42a0      	cmp	r0, r4
 80031a0:	d10c      	bne.n	80031bc <TIM_Base_SetConfig+0x30>
 80031a2:	684c      	ldr	r4, [r1, #4]
 80031a4:	f023 0370 	bic.w	r3, r3, #112	; 0x70
 80031a8:	4290      	cmp	r0, r2
 80031aa:	ea43 0304 	orr.w	r3, r3, r4
 80031ae:	d00c      	beq.n	80031ca <TIM_Base_SetConfig+0x3e>
 80031b0:	f1b0 4f80 	cmp.w	r0, #1073741824	; 0x40000000
 80031b4:	d009      	beq.n	80031ca <TIM_Base_SetConfig+0x3e>
 80031b6:	4a14      	ldr	r2, [pc, #80]	; (8003208 <TIM_Base_SetConfig+0x7c>)
 80031b8:	4290      	cmp	r0, r2
 80031ba:	d006      	beq.n	80031ca <TIM_Base_SetConfig+0x3e>
 80031bc:	4a13      	ldr	r2, [pc, #76]	; (800320c <TIM_Base_SetConfig+0x80>)
 80031be:	4290      	cmp	r0, r2
 80031c0:	d003      	beq.n	80031ca <TIM_Base_SetConfig+0x3e>
 80031c2:	f502 6280 	add.w	r2, r2, #1024	; 0x400
 80031c6:	4290      	cmp	r0, r2
 80031c8:	d103      	bne.n	80031d2 <TIM_Base_SetConfig+0x46>
 80031ca:	68ca      	ldr	r2, [r1, #12]
 80031cc:	f423 7340 	bic.w	r3, r3, #768	; 0x300
 80031d0:	4313      	orrs	r3, r2
 80031d2:	694a      	ldr	r2, [r1, #20]
 80031d4:	f023 0380 	bic.w	r3, r3, #128	; 0x80
 80031d8:	4313      	orrs	r3, r2
 80031da:	6003      	str	r3, [r0, #0]
 80031dc:	688b      	ldr	r3, [r1, #8]
 80031de:	62c3      	str	r3, [r0, #44]	; 0x2c
 80031e0:	680b      	ldr	r3, [r1, #0]
 80031e2:	6283      	str	r3, [r0, #40]	; 0x28
 80031e4:	4b07      	ldr	r3, [pc, #28]	; (8003204 <TIM_Base_SetConfig+0x78>)
 80031e6:	4298      	cmp	r0, r3
 80031e8:	d007      	beq.n	80031fa <TIM_Base_SetConfig+0x6e>
 80031ea:	f503 53a0 	add.w	r3, r3, #5120	; 0x1400
 80031ee:	4298      	cmp	r0, r3
 80031f0:	d003      	beq.n	80031fa <TIM_Base_SetConfig+0x6e>
 80031f2:	f503 6380 	add.w	r3, r3, #1024	; 0x400
 80031f6:	4298      	cmp	r0, r3
 80031f8:	d101      	bne.n	80031fe <TIM_Base_SetConfig+0x72>
 80031fa:	690b      	ldr	r3, [r1, #16]
 80031fc:	6303      	str	r3, [r0, #48]	; 0x30
 80031fe:	2301      	movs	r3, #1
 8003200:	6143      	str	r3, [r0, #20]
 8003202:	bd10      	pop	{r4, pc}
 8003204:	40012c00 	.word	0x40012c00
 8003208:	40000400 	.word	0x40000400
 800320c:	40014000 	.word	0x40014000

08003210 <HAL_TIM_Base_Init>:
 8003210:	b510      	push	{r4, lr}
 8003212:	4604      	mov	r4, r0
 8003214:	b350      	cbz	r0, 800326c <HAL_TIM_Base_Init+0x5c>
 8003216:	f890 303d 	ldrb.w	r3, [r0, #61]	; 0x3d
 800321a:	f003 02ff 	and.w	r2, r3, #255	; 0xff
 800321e:	b91b      	cbnz	r3, 8003228 <HAL_TIM_Base_Init+0x18>
 8003220:	f880 203c 	strb.w	r2, [r0, #60]	; 0x3c
 8003224:	f7fd fca8 	bl	8000b78 <HAL_TIM_Base_MspInit>
 8003228:	2302      	movs	r3, #2
 800322a:	6820      	ldr	r0, [r4, #0]
 800322c:	f884 303d 	strb.w	r3, [r4, #61]	; 0x3d
 8003230:	1d21      	adds	r1, r4, #4
 8003232:	f7ff ffab 	bl	800318c <TIM_Base_SetConfig>
 8003236:	2301      	movs	r3, #1
 8003238:	f884 3048 	strb.w	r3, [r4, #72]	; 0x48
 800323c:	2000      	movs	r0, #0
 800323e:	f884 303e 	strb.w	r3, [r4, #62]	; 0x3e
 8003242:	f884 303f 	strb.w	r3, [r4, #63]	; 0x3f
 8003246:	f884 3040 	strb.w	r3, [r4, #64]	; 0x40
 800324a:	f884 3041 	strb.w	r3, [r4, #65]	; 0x41
 800324e:	f884 3042 	strb.w	r3, [r4, #66]	; 0x42
 8003252:	f884 3043 	strb.w	r3, [r4, #67]	; 0x43
 8003256:	f884 3044 	strb.w	r3, [r4, #68]	; 0x44
 800325a:	f884 3045 	strb.w	r3, [r4, #69]	; 0x45
 800325e:	f884 3046 	strb.w	r3, [r4, #70]	; 0x46
 8003262:	f884 3047 	strb.w	r3, [r4, #71]	; 0x47
 8003266:	f884 303d 	strb.w	r3, [r4, #61]	; 0x3d
 800326a:	bd10      	pop	{r4, pc}
 800326c:	2001      	movs	r0, #1
 800326e:	e7fc      	b.n	800326a <HAL_TIM_Base_Init+0x5a>

08003270 <TIM_ETR_SetConfig>:
 8003270:	b510      	push	{r4, lr}
 8003272:	6884      	ldr	r4, [r0, #8]
 8003274:	4311      	orrs	r1, r2
 8003276:	f424 447f 	bic.w	r4, r4, #65280	; 0xff00
 800327a:	ea41 2303 	orr.w	r3, r1, r3, lsl #8
 800327e:	4323      	orrs	r3, r4
 8003280:	6083      	str	r3, [r0, #8]
 8003282:	bd10      	pop	{r4, pc}

08003284 <HAL_TIM_ConfigClockSource>:
 8003284:	b570      	push	{r4, r5, r6, lr}
 8003286:	f890 303c 	ldrb.w	r3, [r0, #60]	; 0x3c
 800328a:	2b01      	cmp	r3, #1
 800328c:	4604      	mov	r4, r0
 800328e:	f04f 0302 	mov.w	r3, #2
 8003292:	f000 808f 	beq.w	80033b4 <HAL_TIM_ConfigClockSource+0x130>
 8003296:	2201      	movs	r2, #1
 8003298:	f880 303d 	strb.w	r3, [r0, #61]	; 0x3d
 800329c:	f880 203c 	strb.w	r2, [r0, #60]	; 0x3c
 80032a0:	6800      	ldr	r0, [r0, #0]
 80032a2:	4b45      	ldr	r3, [pc, #276]	; (80033b8 <HAL_TIM_ConfigClockSource+0x134>)
 80032a4:	6885      	ldr	r5, [r0, #8]
 80032a6:	402b      	ands	r3, r5
 80032a8:	6083      	str	r3, [r0, #8]
 80032aa:	680b      	ldr	r3, [r1, #0]
 80032ac:	2b60      	cmp	r3, #96	; 0x60
 80032ae:	d052      	beq.n	8003356 <HAL_TIM_ConfigClockSource+0xd2>
 80032b0:	d833      	bhi.n	800331a <HAL_TIM_ConfigClockSource+0x96>
 80032b2:	2b40      	cmp	r3, #64	; 0x40
 80032b4:	d067      	beq.n	8003386 <HAL_TIM_ConfigClockSource+0x102>
 80032b6:	d816      	bhi.n	80032e6 <HAL_TIM_ConfigClockSource+0x62>
 80032b8:	2b20      	cmp	r3, #32
 80032ba:	d00d      	beq.n	80032d8 <HAL_TIM_ConfigClockSource+0x54>
 80032bc:	d80a      	bhi.n	80032d4 <HAL_TIM_ConfigClockSource+0x50>
 80032be:	f033 0110 	bics.w	r1, r3, #16
 80032c2:	d009      	beq.n	80032d8 <HAL_TIM_ConfigClockSource+0x54>
 80032c4:	2301      	movs	r3, #1
 80032c6:	f884 303d 	strb.w	r3, [r4, #61]	; 0x3d
 80032ca:	2300      	movs	r3, #0
 80032cc:	f884 303c 	strb.w	r3, [r4, #60]	; 0x3c
 80032d0:	4610      	mov	r0, r2
 80032d2:	bd70      	pop	{r4, r5, r6, pc}
 80032d4:	2b30      	cmp	r3, #48	; 0x30
 80032d6:	d1f5      	bne.n	80032c4 <HAL_TIM_ConfigClockSource+0x40>
 80032d8:	6882      	ldr	r2, [r0, #8]
 80032da:	f022 0270 	bic.w	r2, r2, #112	; 0x70
 80032de:	4313      	orrs	r3, r2
 80032e0:	f043 0307 	orr.w	r3, r3, #7
 80032e4:	e017      	b.n	8003316 <HAL_TIM_ConfigClockSource+0x92>
 80032e6:	2b50      	cmp	r3, #80	; 0x50
 80032e8:	d1ec      	bne.n	80032c4 <HAL_TIM_ConfigClockSource+0x40>
 80032ea:	684a      	ldr	r2, [r1, #4]
 80032ec:	68ce      	ldr	r6, [r1, #12]
 80032ee:	6a01      	ldr	r1, [r0, #32]
 80032f0:	6a05      	ldr	r5, [r0, #32]
 80032f2:	f025 0501 	bic.w	r5, r5, #1
 80032f6:	6205      	str	r5, [r0, #32]
 80032f8:	6983      	ldr	r3, [r0, #24]
 80032fa:	f021 010a 	bic.w	r1, r1, #10
 80032fe:	f023 03f0 	bic.w	r3, r3, #240	; 0xf0
 8003302:	ea43 1306 	orr.w	r3, r3, r6, lsl #4
 8003306:	430a      	orrs	r2, r1
 8003308:	6183      	str	r3, [r0, #24]
 800330a:	6202      	str	r2, [r0, #32]
 800330c:	6883      	ldr	r3, [r0, #8]
 800330e:	f023 0370 	bic.w	r3, r3, #112	; 0x70
 8003312:	f043 0357 	orr.w	r3, r3, #87	; 0x57
 8003316:	6083      	str	r3, [r0, #8]
 8003318:	e011      	b.n	800333e <HAL_TIM_ConfigClockSource+0xba>
 800331a:	f5b3 5f80 	cmp.w	r3, #4096	; 0x1000
 800331e:	d00e      	beq.n	800333e <HAL_TIM_ConfigClockSource+0xba>
 8003320:	f5b3 5f00 	cmp.w	r3, #8192	; 0x2000
 8003324:	d00d      	beq.n	8003342 <HAL_TIM_ConfigClockSource+0xbe>
 8003326:	2b70      	cmp	r3, #112	; 0x70
 8003328:	d1cc      	bne.n	80032c4 <HAL_TIM_ConfigClockSource+0x40>
 800332a:	68cb      	ldr	r3, [r1, #12]
 800332c:	e9d1 2101 	ldrd	r2, r1, [r1, #4]
 8003330:	f7ff ff9e 	bl	8003270 <TIM_ETR_SetConfig>
 8003334:	6822      	ldr	r2, [r4, #0]
 8003336:	6893      	ldr	r3, [r2, #8]
 8003338:	f043 0377 	orr.w	r3, r3, #119	; 0x77
 800333c:	6093      	str	r3, [r2, #8]
 800333e:	2200      	movs	r2, #0
 8003340:	e7c0      	b.n	80032c4 <HAL_TIM_ConfigClockSource+0x40>
 8003342:	68cb      	ldr	r3, [r1, #12]
 8003344:	e9d1 2101 	ldrd	r2, r1, [r1, #4]
 8003348:	f7ff ff92 	bl	8003270 <TIM_ETR_SetConfig>
 800334c:	6822      	ldr	r2, [r4, #0]
 800334e:	6893      	ldr	r3, [r2, #8]
 8003350:	f443 4380 	orr.w	r3, r3, #16384	; 0x4000
 8003354:	e7f2      	b.n	800333c <HAL_TIM_ConfigClockSource+0xb8>
 8003356:	684d      	ldr	r5, [r1, #4]
 8003358:	68ce      	ldr	r6, [r1, #12]
 800335a:	6a01      	ldr	r1, [r0, #32]
 800335c:	f021 0110 	bic.w	r1, r1, #16
 8003360:	6201      	str	r1, [r0, #32]
 8003362:	6982      	ldr	r2, [r0, #24]
 8003364:	6a03      	ldr	r3, [r0, #32]
 8003366:	f422 4270 	bic.w	r2, r2, #61440	; 0xf000
 800336a:	f023 03a0 	bic.w	r3, r3, #160	; 0xa0
 800336e:	ea43 1305 	orr.w	r3, r3, r5, lsl #4
 8003372:	ea42 3206 	orr.w	r2, r2, r6, lsl #12
 8003376:	6182      	str	r2, [r0, #24]
 8003378:	6203      	str	r3, [r0, #32]
 800337a:	6883      	ldr	r3, [r0, #8]
 800337c:	f023 0370 	bic.w	r3, r3, #112	; 0x70
 8003380:	f043 0367 	orr.w	r3, r3, #103	; 0x67
 8003384:	e7c7      	b.n	8003316 <HAL_TIM_ConfigClockSource+0x92>
 8003386:	684a      	ldr	r2, [r1, #4]
 8003388:	68ce      	ldr	r6, [r1, #12]
 800338a:	6a01      	ldr	r1, [r0, #32]
 800338c:	6a05      	ldr	r5, [r0, #32]
 800338e:	f025 0501 	bic.w	r5, r5, #1
 8003392:	6205      	str	r5, [r0, #32]
 8003394:	6983      	ldr	r3, [r0, #24]
 8003396:	f021 010a 	bic.w	r1, r1, #10
 800339a:	f023 03f0 	bic.w	r3, r3, #240	; 0xf0
 800339e:	ea43 1306 	orr.w	r3, r3, r6, lsl #4
 80033a2:	430a      	orrs	r2, r1
 80033a4:	6183      	str	r3, [r0, #24]
 80033a6:	6202      	str	r2, [r0, #32]
 80033a8:	6883      	ldr	r3, [r0, #8]
 80033aa:	f023 0370 	bic.w	r3, r3, #112	; 0x70
 80033ae:	f043 0347 	orr.w	r3, r3, #71	; 0x47
 80033b2:	e7b0      	b.n	8003316 <HAL_TIM_ConfigClockSource+0x92>
 80033b4:	461a      	mov	r2, r3
 80033b6:	e78b      	b.n	80032d0 <HAL_TIM_ConfigClockSource+0x4c>
 80033b8:	fffe0088 	.word	0xfffe0088

080033bc <HAL_TIMEx_MasterConfigSynchronization>:
 80033bc:	b570      	push	{r4, r5, r6, lr}
 80033be:	f890 303c 	ldrb.w	r3, [r0, #60]	; 0x3c
 80033c2:	2b01      	cmp	r3, #1
 80033c4:	f04f 0302 	mov.w	r3, #2
 80033c8:	d027      	beq.n	800341a <HAL_TIMEx_MasterConfigSynchronization+0x5e>
 80033ca:	f880 303d 	strb.w	r3, [r0, #61]	; 0x3d
 80033ce:	4d14      	ldr	r5, [pc, #80]	; (8003420 <HAL_TIMEx_MasterConfigSynchronization+0x64>)
 80033d0:	6803      	ldr	r3, [r0, #0]
 80033d2:	685a      	ldr	r2, [r3, #4]
 80033d4:	689c      	ldr	r4, [r3, #8]
 80033d6:	42ab      	cmp	r3, r5
 80033d8:	bf02      	ittt	eq
 80033da:	684e      	ldreq	r6, [r1, #4]
 80033dc:	f422 0270 	biceq.w	r2, r2, #15728640	; 0xf00000
 80033e0:	4332      	orreq	r2, r6
 80033e2:	680e      	ldr	r6, [r1, #0]
 80033e4:	f022 0270 	bic.w	r2, r2, #112	; 0x70
 80033e8:	4332      	orrs	r2, r6
 80033ea:	42ab      	cmp	r3, r5
 80033ec:	605a      	str	r2, [r3, #4]
 80033ee:	d009      	beq.n	8003404 <HAL_TIMEx_MasterConfigSynchronization+0x48>
 80033f0:	f1b3 4f80 	cmp.w	r3, #1073741824	; 0x40000000
 80033f4:	d006      	beq.n	8003404 <HAL_TIMEx_MasterConfigSynchronization+0x48>
 80033f6:	4a0b      	ldr	r2, [pc, #44]	; (8003424 <HAL_TIMEx_MasterConfigSynchronization+0x68>)
 80033f8:	4293      	cmp	r3, r2
 80033fa:	d003      	beq.n	8003404 <HAL_TIMEx_MasterConfigSynchronization+0x48>
 80033fc:	f502 329e 	add.w	r2, r2, #80896	; 0x13c00
 8003400:	4293      	cmp	r3, r2
 8003402:	d104      	bne.n	800340e <HAL_TIMEx_MasterConfigSynchronization+0x52>
 8003404:	6889      	ldr	r1, [r1, #8]
 8003406:	f024 0280 	bic.w	r2, r4, #128	; 0x80
 800340a:	430a      	orrs	r2, r1
 800340c:	609a      	str	r2, [r3, #8]
 800340e:	2301      	movs	r3, #1
 8003410:	f880 303d 	strb.w	r3, [r0, #61]	; 0x3d
 8003414:	2300      	movs	r3, #0
 8003416:	f880 303c 	strb.w	r3, [r0, #60]	; 0x3c
 800341a:	4618      	mov	r0, r3
 800341c:	bd70      	pop	{r4, r5, r6, pc}
 800341e:	bf00      	nop
 8003420:	40012c00 	.word	0x40012c00
 8003424:	40000400 	.word	0x40000400

08003428 <HAL_TIMEx_CommutCallback>:
 8003428:	4770      	bx	lr

0800342a <HAL_TIMEx_BreakCallback>:
 800342a:	4770      	bx	lr

0800342c <HAL_TIMEx_Break2Callback>:
 800342c:	4770      	bx	lr
	...

08003430 <HEAT_enableHeater>:
 8003430:	4b02      	ldr	r3, [pc, #8]	; (800343c <HEAT_enableHeater+0xc>)
 8003432:	2101      	movs	r1, #1
 8003434:	5c18      	ldrb	r0, [r3, r0]
 8003436:	f000 b8c5 	b.w	80035c4 <MAX7300_setPin>
 800343a:	bf00      	nop
 800343c:	080036ac 	.word	0x080036ac

08003440 <HEAT_disableHeater>:
 8003440:	4b02      	ldr	r3, [pc, #8]	; (800344c <HEAT_disableHeater+0xc>)
 8003442:	2100      	movs	r1, #0
 8003444:	5c18      	ldrb	r0, [r3, r0]
 8003446:	f000 b8bd 	b.w	80035c4 <MAX7300_setPin>
 800344a:	bf00      	nop
 800344c:	080036ac 	.word	0x080036ac

08003450 <LED_enableLED>:
 8003450:	4b02      	ldr	r3, [pc, #8]	; (800345c <LED_enableLED+0xc>)
 8003452:	2101      	movs	r1, #1
 8003454:	5c18      	ldrb	r0, [r3, r0]
 8003456:	f000 b8b5 	b.w	80035c4 <MAX7300_setPin>
 800345a:	bf00      	nop
 800345c:	080036b7 	.word	0x080036b7

08003460 <LED_disableLED>:
 8003460:	4b02      	ldr	r3, [pc, #8]	; (800346c <LED_disableLED+0xc>)
 8003462:	2100      	movs	r1, #0
 8003464:	5c18      	ldrb	r0, [r3, r0]
 8003466:	f000 b8ad 	b.w	80035c4 <MAX7300_setPin>
 800346a:	bf00      	nop
 800346c:	080036b7 	.word	0x080036b7

08003470 <TEMP_getWellTemperatureReading>:
 8003470:	b510      	push	{r4, lr}
 8003472:	b086      	sub	sp, #24
 8003474:	2300      	movs	r3, #0
 8003476:	9305      	str	r3, [sp, #20]
 8003478:	4b13      	ldr	r3, [pc, #76]	; (80034c8 <TEMP_getWellTemperatureReading+0x58>)
 800347a:	f853 3020 	ldr.w	r3, [r3, r0, lsl #2]
 800347e:	9300      	str	r3, [sp, #0]
 8003480:	2206      	movs	r2, #6
 8003482:	2307      	movs	r3, #7
 8003484:	e9cd 2301 	strd	r2, r3, [sp, #4]
 8003488:	247f      	movs	r4, #127	; 0x7f
 800348a:	2304      	movs	r3, #4
 800348c:	4669      	mov	r1, sp
 800348e:	480f      	ldr	r0, [pc, #60]	; (80034cc <TEMP_getWellTemperatureReading+0x5c>)
 8003490:	e9cd 4303 	strd	r4, r3, [sp, #12]
 8003494:	f7fd fd3e 	bl	8000f14 <HAL_ADC_ConfigChannel>
 8003498:	480c      	ldr	r0, [pc, #48]	; (80034cc <TEMP_getWellTemperatureReading+0x5c>)
 800349a:	4621      	mov	r1, r4
 800349c:	f7fe f856 	bl	800154c <HAL_ADCEx_Calibration_Start>
 80034a0:	480a      	ldr	r0, [pc, #40]	; (80034cc <TEMP_getWellTemperatureReading+0x5c>)
 80034a2:	f7fd ffbf 	bl	8001424 <HAL_ADC_Start>
 80034a6:	4809      	ldr	r0, [pc, #36]	; (80034cc <TEMP_getWellTemperatureReading+0x5c>)
 80034a8:	2101      	movs	r1, #1
 80034aa:	f7fd fcdf 	bl	8000e6c <HAL_ADC_PollForConversion>
 80034ae:	2800      	cmp	r0, #0
 80034b0:	d1f9      	bne.n	80034a6 <TEMP_getWellTemperatureReading+0x36>
 80034b2:	4806      	ldr	r0, [pc, #24]	; (80034cc <TEMP_getWellTemperatureReading+0x5c>)
 80034b4:	f7fd fd2b 	bl	8000f0e <HAL_ADC_GetValue>
 80034b8:	4604      	mov	r4, r0
 80034ba:	4804      	ldr	r0, [pc, #16]	; (80034cc <TEMP_getWellTemperatureReading+0x5c>)
 80034bc:	f7fe f827 	bl	800150e <HAL_ADC_Stop>
 80034c0:	f3c4 000b 	ubfx	r0, r4, #0, #12
 80034c4:	b006      	add	sp, #24
 80034c6:	bd10      	pop	{r4, pc}
 80034c8:	080036c4 	.word	0x080036c4
 80034cc:	20000028 	.word	0x20000028

080034d0 <THERM_enableThermostat>:
 80034d0:	4b03      	ldr	r3, [pc, #12]	; (80034e0 <THERM_enableThermostat+0x10>)
 80034d2:	2201      	movs	r2, #1
 80034d4:	f833 1010 	ldrh.w	r1, [r3, r0, lsl #1]
 80034d8:	4802      	ldr	r0, [pc, #8]	; (80034e4 <THERM_enableThermostat+0x14>)
 80034da:	f7fe bc9f 	b.w	8001e1c <HAL_GPIO_WritePin>
 80034de:	bf00      	nop
 80034e0:	080036f0 	.word	0x080036f0
 80034e4:	48000400 	.word	0x48000400

080034e8 <THERM_disableThermostat>:
 80034e8:	4b03      	ldr	r3, [pc, #12]	; (80034f8 <THERM_disableThermostat+0x10>)
 80034ea:	2200      	movs	r2, #0
 80034ec:	f833 1010 	ldrh.w	r1, [r3, r0, lsl #1]
 80034f0:	4802      	ldr	r0, [pc, #8]	; (80034fc <THERM_disableThermostat+0x14>)
 80034f2:	f7fe bc93 	b.w	8001e1c <HAL_GPIO_WritePin>
 80034f6:	bf00      	nop
 80034f8:	080036f0 	.word	0x080036f0
 80034fc:	48000400 	.word	0x48000400

08003500 <MAX6822_Toggle_WDI>:
 8003500:	4802      	ldr	r0, [pc, #8]	; (800350c <MAX6822_Toggle_WDI+0xc>)
 8003502:	f44f 7100 	mov.w	r1, #512	; 0x200
 8003506:	f7fe bc8e 	b.w	8001e26 <HAL_GPIO_TogglePin>
 800350a:	bf00      	nop
 800350c:	48000800 	.word	0x48000800

08003510 <MAX6822_Manual_Reset>:
 8003510:	4802      	ldr	r0, [pc, #8]	; (800351c <MAX6822_Manual_Reset+0xc>)
 8003512:	2200      	movs	r2, #0
 8003514:	f44f 7180 	mov.w	r1, #256	; 0x100
 8003518:	f7fe bc80 	b.w	8001e1c <HAL_GPIO_WritePin>
 800351c:	48000800 	.word	0x48000800

08003520 <MAX7300_Init>:
 8003520:	e92d 41f3 	stmdb	sp!, {r0, r1, r4, r5, r6, r7, r8, lr}
 8003524:	4a23      	ldr	r2, [pc, #140]	; (80035b4 <MAX7300_Init+0x94>)
 8003526:	232c      	movs	r3, #44	; 0x2c
 8003528:	f802 3b01 	strb.w	r3, [r2], #1
 800352c:	3301      	adds	r3, #1
 800352e:	2b40      	cmp	r3, #64	; 0x40
 8003530:	d1fa      	bne.n	8003528 <MAX7300_Init+0x8>
 8003532:	4c21      	ldr	r4, [pc, #132]	; (80035b8 <MAX7300_Init+0x98>)
 8003534:	4821      	ldr	r0, [pc, #132]	; (80035bc <MAX7300_Init+0x9c>)
 8003536:	4e22      	ldr	r6, [pc, #136]	; (80035c0 <MAX7300_Init+0xa0>)
 8003538:	250a      	movs	r5, #10
 800353a:	2304      	movs	r3, #4
 800353c:	2701      	movs	r7, #1
 800353e:	7023      	strb	r3, [r4, #0]
 8003540:	9500      	str	r5, [sp, #0]
 8003542:	2302      	movs	r3, #2
 8003544:	4622      	mov	r2, r4
 8003546:	2180      	movs	r1, #128	; 0x80
 8003548:	7067      	strb	r7, [r4, #1]
 800354a:	f7fe fdeb 	bl	8002124 <HAL_I2C_Master_Transmit>
 800354e:	4620      	mov	r0, r4
 8003550:	7b33      	ldrb	r3, [r6, #12]
 8003552:	f800 3b0c 	strb.w	r3, [r0], #12
 8003556:	4639      	mov	r1, r7
 8003558:	2214      	movs	r2, #20
 800355a:	f000 f873 	bl	8003644 <memset>
 800355e:	9500      	str	r5, [sp, #0]
 8003560:	2315      	movs	r3, #21
 8003562:	4622      	mov	r2, r4
 8003564:	2180      	movs	r1, #128	; 0x80
 8003566:	4815      	ldr	r0, [pc, #84]	; (80035bc <MAX7300_Init+0x9c>)
 8003568:	4f14      	ldr	r7, [pc, #80]	; (80035bc <MAX7300_Init+0x9c>)
 800356a:	f7fe fddb 	bl	8002124 <HAL_I2C_Master_Transmit>
 800356e:	230b      	movs	r3, #11
 8003570:	7023      	strb	r3, [r4, #0]
 8003572:	2355      	movs	r3, #85	; 0x55
 8003574:	7063      	strb	r3, [r4, #1]
 8003576:	70a3      	strb	r3, [r4, #2]
 8003578:	70e3      	strb	r3, [r4, #3]
 800357a:	7123      	strb	r3, [r4, #4]
 800357c:	9500      	str	r5, [sp, #0]
 800357e:	480f      	ldr	r0, [pc, #60]	; (80035bc <MAX7300_Init+0x9c>)
 8003580:	2305      	movs	r3, #5
 8003582:	4622      	mov	r2, r4
 8003584:	2180      	movs	r1, #128	; 0x80
 8003586:	f7fe fdcd 	bl	8002124 <HAL_I2C_Master_Transmit>
 800358a:	250c      	movs	r5, #12
 800358c:	f04f 0800 	mov.w	r8, #0
 8003590:	5d73      	ldrb	r3, [r6, r5]
 8003592:	7023      	strb	r3, [r4, #0]
 8003594:	230a      	movs	r3, #10
 8003596:	9300      	str	r3, [sp, #0]
 8003598:	4622      	mov	r2, r4
 800359a:	2302      	movs	r3, #2
 800359c:	2180      	movs	r1, #128	; 0x80
 800359e:	4638      	mov	r0, r7
 80035a0:	3501      	adds	r5, #1
 80035a2:	f884 8001 	strb.w	r8, [r4, #1]
 80035a6:	f7fe fdbd 	bl	8002124 <HAL_I2C_Master_Transmit>
 80035aa:	2d20      	cmp	r5, #32
 80035ac:	d1f0      	bne.n	8003590 <MAX7300_Init+0x70>
 80035ae:	b002      	add	sp, #8
 80035b0:	e8bd 81f0 	ldmia.w	sp!, {r4, r5, r6, r7, r8, pc}
 80035b4:	20000624 	.word	0x20000624
 80035b8:	20000638 	.word	0x20000638
 80035bc:	200000b8 	.word	0x200000b8
 80035c0:	20000618 	.word	0x20000618

080035c4 <MAX7300_setPin>:
 80035c4:	f1a0 030c 	sub.w	r3, r0, #12
 80035c8:	2b13      	cmp	r3, #19
 80035ca:	b507      	push	{r0, r1, r2, lr}
 80035cc:	d80d      	bhi.n	80035ea <MAX7300_setPin+0x26>
 80035ce:	2901      	cmp	r1, #1
 80035d0:	d80b      	bhi.n	80035ea <MAX7300_setPin+0x26>
 80035d2:	4b07      	ldr	r3, [pc, #28]	; (80035f0 <MAX7300_setPin+0x2c>)
 80035d4:	4a07      	ldr	r2, [pc, #28]	; (80035f4 <MAX7300_setPin+0x30>)
 80035d6:	5c1b      	ldrb	r3, [r3, r0]
 80035d8:	7013      	strb	r3, [r2, #0]
 80035da:	230a      	movs	r3, #10
 80035dc:	7051      	strb	r1, [r2, #1]
 80035de:	4806      	ldr	r0, [pc, #24]	; (80035f8 <MAX7300_setPin+0x34>)
 80035e0:	9300      	str	r3, [sp, #0]
 80035e2:	2180      	movs	r1, #128	; 0x80
 80035e4:	2302      	movs	r3, #2
 80035e6:	f7fe fd9d 	bl	8002124 <HAL_I2C_Master_Transmit>
 80035ea:	b003      	add	sp, #12
 80035ec:	f85d fb04 	ldr.w	pc, [sp], #4
 80035f0:	20000618 	.word	0x20000618
 80035f4:	20000638 	.word	0x20000638
 80035f8:	200000b8 	.word	0x200000b8

080035fc <__libc_init_array>:
 80035fc:	b570      	push	{r4, r5, r6, lr}
 80035fe:	4d0d      	ldr	r5, [pc, #52]	; (8003634 <__libc_init_array+0x38>)
 8003600:	4c0d      	ldr	r4, [pc, #52]	; (8003638 <__libc_init_array+0x3c>)
 8003602:	1b64      	subs	r4, r4, r5
 8003604:	10a4      	asrs	r4, r4, #2
 8003606:	2600      	movs	r6, #0
 8003608:	42a6      	cmp	r6, r4
 800360a:	d109      	bne.n	8003620 <__libc_init_array+0x24>
 800360c:	4d0b      	ldr	r5, [pc, #44]	; (800363c <__libc_init_array+0x40>)
 800360e:	4c0c      	ldr	r4, [pc, #48]	; (8003640 <__libc_init_array+0x44>)
 8003610:	f000 f820 	bl	8003654 <_init>
 8003614:	1b64      	subs	r4, r4, r5
 8003616:	10a4      	asrs	r4, r4, #2
 8003618:	2600      	movs	r6, #0
 800361a:	42a6      	cmp	r6, r4
 800361c:	d105      	bne.n	800362a <__libc_init_array+0x2e>
 800361e:	bd70      	pop	{r4, r5, r6, pc}
 8003620:	f855 3b04 	ldr.w	r3, [r5], #4
 8003624:	4798      	blx	r3
 8003626:	3601      	adds	r6, #1
 8003628:	e7ee      	b.n	8003608 <__libc_init_array+0xc>
 800362a:	f855 3b04 	ldr.w	r3, [r5], #4
 800362e:	4798      	blx	r3
 8003630:	3601      	adds	r6, #1
 8003632:	e7f2      	b.n	800361a <__libc_init_array+0x1e>
 8003634:	08003708 	.word	0x08003708
 8003638:	08003708 	.word	0x08003708
 800363c:	08003708 	.word	0x08003708
 8003640:	0800370c 	.word	0x0800370c

08003644 <memset>:
 8003644:	4402      	add	r2, r0
 8003646:	4603      	mov	r3, r0
 8003648:	4293      	cmp	r3, r2
 800364a:	d100      	bne.n	800364e <memset+0xa>
 800364c:	4770      	bx	lr
 800364e:	f803 1b01 	strb.w	r1, [r3], #1
 8003652:	e7f9      	b.n	8003648 <memset+0x4>

08003654 <_init>:
 8003654:	b5f8      	push	{r3, r4, r5, r6, r7, lr}
 8003656:	bf00      	nop
 8003658:	bcf8      	pop	{r3, r4, r5, r6, r7}
 800365a:	bc08      	pop	{r3}
 800365c:	469e      	mov	lr, r3
 800365e:	4770      	bx	lr

08003660 <_fini>:
 8003660:	b5f8      	push	{r3, r4, r5, r6, r7, lr}
 8003662:	bf00      	nop
 8003664:	bcf8      	pop	{r3, r4, r5, r6, r7}
 8003666:	bc08      	pop	{r3}
 8003668:	469e      	mov	lr, r3
 800366a:	4770      	bx	lr
