
Payload PCB.elf:     file format elf32-littlearm

Sections:
Idx Name          Size      VMA       LMA       File off  Algn
  0 .isr_vector   00000194  08000000  08000000  00010000  2**0
                  CONTENTS, ALLOC, LOAD, READONLY, DATA
  1 .text         00002b50  08000194  08000194  00010194  2**2
                  CONTENTS, ALLOC, LOAD, READONLY, CODE
  2 .rodata       0000006c  08002ce4  08002ce4  00012ce4  2**2
                  CONTENTS, ALLOC, LOAD, READONLY, DATA
  3 .ARM.extab    00000000  08002d50  08002d50  0002000c  2**0
                  CONTENTS
  4 .ARM          00000000  08002d50  08002d50  0002000c  2**0
                  CONTENTS
  5 .preinit_array 00000000  08002d50  08002d50  0002000c  2**0
                  CONTENTS, ALLOC, LOAD, DATA
  6 .init_array   00000004  08002d50  08002d50  00012d50  2**2
                  CONTENTS, ALLOC, LOAD, DATA
  7 .fini_array   00000004  08002d54  08002d54  00012d54  2**2
                  CONTENTS, ALLOC, LOAD, DATA
  8 .data         0000000c  20000000  08002d58  00020000  2**2
                  CONTENTS, ALLOC, LOAD, DATA
  9 .bss          0000065c  2000000c  08002d64  0002000c  2**2
                  ALLOC
 10 ._user_heap_stack 00000600  20000668  08002d64  00020668  2**0
                  ALLOC
 11 .ARM.attributes 00000030  00000000  00000000  0002000c  2**0
                  CONTENTS, READONLY
 12 .comment      00000050  00000000  00000000  0002003c  2**0
                  CONTENTS, READONLY
 13 .debug_frame  0000004c  00000000  00000000  0002008c  2**2
                  CONTENTS, READONLY, DEBUGGING, OCTETS

Disassembly of section .text:

08000194 <__do_global_dtors_aux>:
 8000194:	b510      	push	{r4, lr}
 8000196:	4c05      	ldr	r4, [pc, #20]	; (80001ac <__do_global_dtors_aux+0x18>)
 8000198:	7823      	ldrb	r3, [r4, #0]
 800019a:	b933      	cbnz	r3, 80001aa <__do_global_dtors_aux+0x16>
 800019c:	4b04      	ldr	r3, [pc, #16]	; (80001b0 <__do_global_dtors_aux+0x1c>)
 800019e:	b113      	cbz	r3, 80001a6 <__do_global_dtors_aux+0x12>
 80001a0:	4804      	ldr	r0, [pc, #16]	; (80001b4 <__do_global_dtors_aux+0x20>)
 80001a2:	f3af 8000 	nop.w
 80001a6:	2301      	movs	r3, #1
 80001a8:	7023      	strb	r3, [r4, #0]
 80001aa:	bd10      	pop	{r4, pc}
 80001ac:	2000000c 	.word	0x2000000c
 80001b0:	00000000 	.word	0x00000000
 80001b4:	08002ccc 	.word	0x08002ccc

080001b8 <frame_dummy>:
 80001b8:	b508      	push	{r3, lr}
 80001ba:	4b03      	ldr	r3, [pc, #12]	; (80001c8 <frame_dummy+0x10>)
 80001bc:	b11b      	cbz	r3, 80001c6 <frame_dummy+0xe>
 80001be:	4903      	ldr	r1, [pc, #12]	; (80001cc <frame_dummy+0x14>)
 80001c0:	4803      	ldr	r0, [pc, #12]	; (80001d0 <frame_dummy+0x18>)
 80001c2:	f3af 8000 	nop.w
 80001c6:	bd08      	pop	{r3, pc}
 80001c8:	00000000 	.word	0x00000000
 80001cc:	20000010 	.word	0x20000010
 80001d0:	08002ccc 	.word	0x08002ccc

080001d4 <MX_ADC1_Init>:
 80001d4:	b57f      	push	{r0, r1, r2, r3, r4, r5, r6, lr}
 80001d6:	2218      	movs	r2, #24
 80001d8:	2100      	movs	r1, #0
 80001da:	4668      	mov	r0, sp
 80001dc:	f002 fd6e 	bl	8002cbc <memset>
 80001e0:	4817      	ldr	r0, [pc, #92]	; (8000240 <MX_ADC1_Init+0x6c>)
 80001e2:	4918      	ldr	r1, [pc, #96]	; (8000244 <MX_ADC1_Init+0x70>)
 80001e4:	2300      	movs	r3, #0
 80001e6:	2204      	movs	r2, #4
 80001e8:	6142      	str	r2, [r0, #20]
 80001ea:	8303      	strh	r3, [r0, #24]
 80001ec:	2201      	movs	r2, #1
 80001ee:	e9c0 1300 	strd	r1, r3, [r0]
 80001f2:	e9c0 3302 	strd	r3, r3, [r0, #8]
 80001f6:	e9c0 330a 	strd	r3, r3, [r0, #40]	; 0x28
 80001fa:	6103      	str	r3, [r0, #16]
 80001fc:	61c2      	str	r2, [r0, #28]
 80001fe:	f880 3020 	strb.w	r3, [r0, #32]
 8000202:	f880 3030 	strb.w	r3, [r0, #48]	; 0x30
 8000206:	6343      	str	r3, [r0, #52]	; 0x34
 8000208:	f880 3038 	strb.w	r3, [r0, #56]	; 0x38
 800020c:	f000 fcbe 	bl	8000b8c <HAL_ADC_Init>
 8000210:	b108      	cbz	r0, 8000216 <MX_ADC1_Init+0x42>
 8000212:	f000 fba5 	bl	8000960 <Error_Handler>
 8000216:	4a0c      	ldr	r2, [pc, #48]	; (8000248 <MX_ADC1_Init+0x74>)
 8000218:	4809      	ldr	r0, [pc, #36]	; (8000240 <MX_ADC1_Init+0x6c>)
 800021a:	2306      	movs	r3, #6
 800021c:	e9cd 2300 	strd	r2, r3, [sp]
 8000220:	2300      	movs	r3, #0
 8000222:	227f      	movs	r2, #127	; 0x7f
 8000224:	e9cd 3202 	strd	r3, r2, [sp, #8]
 8000228:	4669      	mov	r1, sp
 800022a:	2204      	movs	r2, #4
 800022c:	e9cd 2304 	strd	r2, r3, [sp, #16]
 8000230:	f000 fd80 	bl	8000d34 <HAL_ADC_ConfigChannel>
 8000234:	b108      	cbz	r0, 800023a <MX_ADC1_Init+0x66>
 8000236:	f000 fb93 	bl	8000960 <Error_Handler>
 800023a:	b007      	add	sp, #28
 800023c:	f85d fb04 	ldr.w	pc, [sp], #4
 8000240:	20000028 	.word	0x20000028
 8000244:	50040000 	.word	0x50040000
 8000248:	04300002 	.word	0x04300002

0800024c <HAL_ADC_MspInit>:
 800024c:	b530      	push	{r4, r5, lr}
 800024e:	b0a3      	sub	sp, #140	; 0x8c
 8000250:	4604      	mov	r4, r0
 8000252:	2214      	movs	r2, #20
 8000254:	2100      	movs	r1, #0
 8000256:	a803      	add	r0, sp, #12
 8000258:	f002 fd30 	bl	8002cbc <memset>
 800025c:	2268      	movs	r2, #104	; 0x68
 800025e:	2100      	movs	r1, #0
 8000260:	a808      	add	r0, sp, #32
 8000262:	f002 fd2b 	bl	8002cbc <memset>
 8000266:	6822      	ldr	r2, [r4, #0]
 8000268:	4b26      	ldr	r3, [pc, #152]	; (8000304 <HAL_ADC_MspInit+0xb8>)
 800026a:	429a      	cmp	r2, r3
 800026c:	d147      	bne.n	80002fe <HAL_ADC_MspInit+0xb2>
 800026e:	f44f 4380 	mov.w	r3, #16384	; 0x4000
 8000272:	9308      	str	r3, [sp, #32]
 8000274:	f04f 5380 	mov.w	r3, #268435456	; 0x10000000
 8000278:	931f      	str	r3, [sp, #124]	; 0x7c
 800027a:	2301      	movs	r3, #1
 800027c:	2010      	movs	r0, #16
 800027e:	e9cd 3309 	strd	r3, r3, [sp, #36]	; 0x24
 8000282:	2307      	movs	r3, #7
 8000284:	e9cd 030b 	strd	r0, r3, [sp, #44]	; 0x2c
 8000288:	2302      	movs	r3, #2
 800028a:	e9cd 330d 	strd	r3, r3, [sp, #52]	; 0x34
 800028e:	a808      	add	r0, sp, #32
 8000290:	f04f 7380 	mov.w	r3, #16777216	; 0x1000000
 8000294:	930f      	str	r3, [sp, #60]	; 0x3c
 8000296:	f002 fa3f 	bl	8002718 <HAL_RCCEx_PeriphCLKConfig>
 800029a:	b108      	cbz	r0, 80002a0 <HAL_ADC_MspInit+0x54>
 800029c:	f000 fb60 	bl	8000960 <Error_Handler>
 80002a0:	4b19      	ldr	r3, [pc, #100]	; (8000308 <HAL_ADC_MspInit+0xbc>)
 80002a2:	481a      	ldr	r0, [pc, #104]	; (800030c <HAL_ADC_MspInit+0xc0>)
 80002a4:	6cda      	ldr	r2, [r3, #76]	; 0x4c
 80002a6:	f442 5200 	orr.w	r2, r2, #8192	; 0x2000
 80002aa:	64da      	str	r2, [r3, #76]	; 0x4c
 80002ac:	6cda      	ldr	r2, [r3, #76]	; 0x4c
 80002ae:	f402 5200 	and.w	r2, r2, #8192	; 0x2000
 80002b2:	9200      	str	r2, [sp, #0]
 80002b4:	9a00      	ldr	r2, [sp, #0]
 80002b6:	6cda      	ldr	r2, [r3, #76]	; 0x4c
 80002b8:	f042 0204 	orr.w	r2, r2, #4
 80002bc:	64da      	str	r2, [r3, #76]	; 0x4c
 80002be:	6cda      	ldr	r2, [r3, #76]	; 0x4c
 80002c0:	f002 0204 	and.w	r2, r2, #4
 80002c4:	9201      	str	r2, [sp, #4]
 80002c6:	9a01      	ldr	r2, [sp, #4]
 80002c8:	6cda      	ldr	r2, [r3, #76]	; 0x4c
 80002ca:	f042 0201 	orr.w	r2, r2, #1
 80002ce:	64da      	str	r2, [r3, #76]	; 0x4c
 80002d0:	6cdb      	ldr	r3, [r3, #76]	; 0x4c
 80002d2:	f003 0301 	and.w	r3, r3, #1
 80002d6:	9302      	str	r3, [sp, #8]
 80002d8:	9b02      	ldr	r3, [sp, #8]
 80002da:	250b      	movs	r5, #11
 80002dc:	230f      	movs	r3, #15
 80002de:	2400      	movs	r4, #0
 80002e0:	a903      	add	r1, sp, #12
 80002e2:	e9cd 3503 	strd	r3, r5, [sp, #12]
 80002e6:	9405      	str	r4, [sp, #20]
 80002e8:	f001 fa46 	bl	8001778 <HAL_GPIO_Init>
 80002ec:	233f      	movs	r3, #63	; 0x3f
 80002ee:	a903      	add	r1, sp, #12
 80002f0:	f04f 4090 	mov.w	r0, #1207959552	; 0x48000000
 80002f4:	e9cd 3503 	strd	r3, r5, [sp, #12]
 80002f8:	9405      	str	r4, [sp, #20]
 80002fa:	f001 fa3d 	bl	8001778 <HAL_GPIO_Init>
 80002fe:	b023      	add	sp, #140	; 0x8c
 8000300:	bd30      	pop	{r4, r5, pc}
 8000302:	bf00      	nop
 8000304:	50040000 	.word	0x50040000
 8000308:	40021000 	.word	0x40021000
 800030c:	48000800 	.word	0x48000800

08000310 <MX_CAN1_Init>:
 8000310:	480a      	ldr	r0, [pc, #40]	; (800033c <MX_CAN1_Init+0x2c>)
 8000312:	4a0b      	ldr	r2, [pc, #44]	; (8000340 <MX_CAN1_Init+0x30>)
 8000314:	b508      	push	{r3, lr}
 8000316:	2310      	movs	r3, #16
 8000318:	e9c0 2300 	strd	r2, r3, [r0]
 800031c:	2300      	movs	r3, #0
 800031e:	6183      	str	r3, [r0, #24]
 8000320:	8383      	strh	r3, [r0, #28]
 8000322:	e9c0 3302 	strd	r3, r3, [r0, #8]
 8000326:	e9c0 3304 	strd	r3, r3, [r0, #16]
 800032a:	f000 fecb 	bl	80010c4 <HAL_CAN_Init>
 800032e:	b118      	cbz	r0, 8000338 <MX_CAN1_Init+0x28>
 8000330:	e8bd 4008 	ldmia.w	sp!, {r3, lr}
 8000334:	f000 bb14 	b.w	8000960 <Error_Handler>
 8000338:	bd08      	pop	{r3, pc}
 800033a:	bf00      	nop
 800033c:	20000090 	.word	0x20000090
 8000340:	40006400 	.word	0x40006400

08000344 <HAL_CAN_MspInit>:
 8000344:	b510      	push	{r4, lr}
 8000346:	4604      	mov	r4, r0
 8000348:	b088      	sub	sp, #32
 800034a:	2214      	movs	r2, #20
 800034c:	2100      	movs	r1, #0
 800034e:	a803      	add	r0, sp, #12
 8000350:	f002 fcb4 	bl	8002cbc <memset>
 8000354:	6822      	ldr	r2, [r4, #0]
 8000356:	4b17      	ldr	r3, [pc, #92]	; (80003b4 <HAL_CAN_MspInit+0x70>)
 8000358:	429a      	cmp	r2, r3
 800035a:	d128      	bne.n	80003ae <HAL_CAN_MspInit+0x6a>
 800035c:	f503 33d6 	add.w	r3, r3, #109568	; 0x1ac00
 8000360:	2103      	movs	r1, #3
 8000362:	6d9a      	ldr	r2, [r3, #88]	; 0x58
 8000364:	4814      	ldr	r0, [pc, #80]	; (80003b8 <HAL_CAN_MspInit+0x74>)
 8000366:	f042 7200 	orr.w	r2, r2, #33554432	; 0x2000000
 800036a:	659a      	str	r2, [r3, #88]	; 0x58
 800036c:	6d9a      	ldr	r2, [r3, #88]	; 0x58
 800036e:	f002 7200 	and.w	r2, r2, #33554432	; 0x2000000
 8000372:	9201      	str	r2, [sp, #4]
 8000374:	9a01      	ldr	r2, [sp, #4]
 8000376:	6cda      	ldr	r2, [r3, #76]	; 0x4c
 8000378:	f042 0202 	orr.w	r2, r2, #2
 800037c:	64da      	str	r2, [r3, #76]	; 0x4c
 800037e:	6cdb      	ldr	r3, [r3, #76]	; 0x4c
 8000380:	f003 0302 	and.w	r3, r3, #2
 8000384:	9302      	str	r3, [sp, #8]
 8000386:	f44f 5240 	mov.w	r2, #12288	; 0x3000
 800038a:	9b02      	ldr	r3, [sp, #8]
 800038c:	2302      	movs	r3, #2
 800038e:	e9cd 2303 	strd	r2, r3, [sp, #12]
 8000392:	230a      	movs	r3, #10
 8000394:	e9cd 1306 	strd	r1, r3, [sp, #24]
 8000398:	a903      	add	r1, sp, #12
 800039a:	f001 f9ed 	bl	8001778 <HAL_GPIO_Init>
 800039e:	2200      	movs	r2, #0
 80003a0:	2014      	movs	r0, #20
 80003a2:	4611      	mov	r1, r2
 80003a4:	f001 f994 	bl	80016d0 <HAL_NVIC_SetPriority>
 80003a8:	2014      	movs	r0, #20
 80003aa:	f001 f9c3 	bl	8001734 <HAL_NVIC_EnableIRQ>
 80003ae:	b008      	add	sp, #32
 80003b0:	bd10      	pop	{r4, pc}
 80003b2:	bf00      	nop
 80003b4:	40006400 	.word	0x40006400
 80003b8:	48000400 	.word	0x48000400

080003bc <CAN_Init>:
 80003bc:	b500      	push	{lr}
 80003be:	b08b      	sub	sp, #44	; 0x2c
 80003c0:	2300      	movs	r3, #0
 80003c2:	e9cd 3300 	strd	r3, r3, [sp]
 80003c6:	e9cd 3302 	strd	r3, r3, [sp, #8]
 80003ca:	e9cd 3304 	strd	r3, r3, [sp, #16]
 80003ce:	9306      	str	r3, [sp, #24]
 80003d0:	2301      	movs	r3, #1
 80003d2:	e9cd 3307 	strd	r3, r3, [sp, #28]
 80003d6:	4809      	ldr	r0, [pc, #36]	; (80003fc <CAN_Init+0x40>)
 80003d8:	230e      	movs	r3, #14
 80003da:	4669      	mov	r1, sp
 80003dc:	9309      	str	r3, [sp, #36]	; 0x24
 80003de:	f000 feec 	bl	80011ba <HAL_CAN_ConfigFilter>
 80003e2:	b938      	cbnz	r0, 80003f4 <CAN_Init+0x38>
 80003e4:	4805      	ldr	r0, [pc, #20]	; (80003fc <CAN_Init+0x40>)
 80003e6:	f000 ff57 	bl	8001298 <HAL_CAN_Start>
 80003ea:	b918      	cbnz	r0, 80003f4 <CAN_Init+0x38>
 80003ec:	4803      	ldr	r0, [pc, #12]	; (80003fc <CAN_Init+0x40>)
 80003ee:	2102      	movs	r1, #2
 80003f0:	f001 f841 	bl	8001476 <HAL_CAN_ActivateNotification>
 80003f4:	b00b      	add	sp, #44	; 0x2c
 80003f6:	f85d fb04 	ldr.w	pc, [sp], #4
 80003fa:	bf00      	nop
 80003fc:	20000090 	.word	0x20000090

08000400 <CAN_Transmit_Message>:
 8000400:	b500      	push	{lr}
 8000402:	b08f      	sub	sp, #60	; 0x3c
 8000404:	ab01      	add	r3, sp, #4
 8000406:	e883 0007 	stmia.w	r3, {r0, r1, r2}
 800040a:	f89d 2004 	ldrb.w	r2, [sp, #4]
 800040e:	f89d 3006 	ldrb.w	r3, [sp, #6]
 8000412:	4819      	ldr	r0, [pc, #100]	; (8000478 <CAN_Transmit_Message+0x78>)
 8000414:	ea43 1302 	orr.w	r3, r3, r2, lsl #4
 8000418:	f89d 2007 	ldrb.w	r2, [sp, #7]
 800041c:	f88d 2018 	strb.w	r2, [sp, #24]
 8000420:	f89d 2008 	ldrb.w	r2, [sp, #8]
 8000424:	f88d 2019 	strb.w	r2, [sp, #25]
 8000428:	f89d 2009 	ldrb.w	r2, [sp, #9]
 800042c:	f88d 201a 	strb.w	r2, [sp, #26]
 8000430:	f89d 200a 	ldrb.w	r2, [sp, #10]
 8000434:	f88d 201b 	strb.w	r2, [sp, #27]
 8000438:	f89d 200b 	ldrb.w	r2, [sp, #11]
 800043c:	f88d 201c 	strb.w	r2, [sp, #28]
 8000440:	f043 0308 	orr.w	r3, r3, #8
 8000444:	f89d 200c 	ldrb.w	r2, [sp, #12]
 8000448:	f88d 201d 	strb.w	r2, [sp, #29]
 800044c:	9308      	str	r3, [sp, #32]
 800044e:	f89d 200d 	ldrb.w	r2, [sp, #13]
 8000452:	f88d 201e 	strb.w	r2, [sp, #30]
 8000456:	2300      	movs	r3, #0
 8000458:	f89d 200e 	ldrb.w	r2, [sp, #14]
 800045c:	f88d 201f 	strb.w	r2, [sp, #31]
 8000460:	e9cd 330a 	strd	r3, r3, [sp, #40]	; 0x28
 8000464:	2308      	movs	r3, #8
 8000466:	930c      	str	r3, [sp, #48]	; 0x30
 8000468:	aa06      	add	r2, sp, #24
 800046a:	ab05      	add	r3, sp, #20
 800046c:	a908      	add	r1, sp, #32
 800046e:	f000 ff41 	bl	80012f4 <HAL_CAN_AddTxMessage>
 8000472:	b00f      	add	sp, #60	; 0x3c
 8000474:	f85d fb04 	ldr.w	pc, [sp], #4
 8000478:	20000090 	.word	0x20000090

0800047c <CAN_Message_Received>:
 800047c:	b510      	push	{r4, lr}
 800047e:	b08c      	sub	sp, #48	; 0x30
 8000480:	4821      	ldr	r0, [pc, #132]	; (8000508 <CAN_Message_Received+0x8c>)
 8000482:	466b      	mov	r3, sp
 8000484:	aa05      	add	r2, sp, #20
 8000486:	2100      	movs	r1, #0
 8000488:	f000 ff7e 	bl	8001388 <HAL_CAN_GetRxMessage>
 800048c:	4604      	mov	r4, r0
 800048e:	bbc0      	cbnz	r0, 8000502 <CAN_Message_Received+0x86>
 8000490:	9b05      	ldr	r3, [sp, #20]
 8000492:	f003 0203 	and.w	r2, r3, #3
 8000496:	2a02      	cmp	r2, #2
 8000498:	d133      	bne.n	8000502 <CAN_Message_Received+0x86>
 800049a:	f3c3 0381 	ubfx	r3, r3, #2, #2
 800049e:	f88d 3009 	strb.w	r3, [sp, #9]
 80004a2:	2302      	movs	r3, #2
 80004a4:	f88d 300a 	strb.w	r3, [sp, #10]
 80004a8:	f89d 3000 	ldrb.w	r3, [sp]
 80004ac:	f88d 300b 	strb.w	r3, [sp, #11]
 80004b0:	f89d 3001 	ldrb.w	r3, [sp, #1]
 80004b4:	f88d 300c 	strb.w	r3, [sp, #12]
 80004b8:	f89d 3002 	ldrb.w	r3, [sp, #2]
 80004bc:	f88d 300d 	strb.w	r3, [sp, #13]
 80004c0:	f89d 3003 	ldrb.w	r3, [sp, #3]
 80004c4:	9a08      	ldr	r2, [sp, #32]
 80004c6:	f88d 300e 	strb.w	r3, [sp, #14]
 80004ca:	f89d 3004 	ldrb.w	r3, [sp, #4]
 80004ce:	f88d 300f 	strb.w	r3, [sp, #15]
 80004d2:	f89d 3005 	ldrb.w	r3, [sp, #5]
 80004d6:	f88d 3010 	strb.w	r3, [sp, #16]
 80004da:	2a02      	cmp	r2, #2
 80004dc:	f89d 3006 	ldrb.w	r3, [sp, #6]
 80004e0:	bf18      	it	ne
 80004e2:	f89d 201b 	ldrbne.w	r2, [sp, #27]
 80004e6:	f88d 3011 	strb.w	r3, [sp, #17]
 80004ea:	bf08      	it	eq
 80004ec:	227f      	moveq	r2, #127	; 0x7f
 80004ee:	f89d 3007 	ldrb.w	r3, [sp, #7]
 80004f2:	4806      	ldr	r0, [pc, #24]	; (800050c <CAN_Message_Received+0x90>)
 80004f4:	f88d 2008 	strb.w	r2, [sp, #8]
 80004f8:	a902      	add	r1, sp, #8
 80004fa:	f88d 3012 	strb.w	r3, [sp, #18]
 80004fe:	f000 f846 	bl	800058e <CAN_Queue_Enqueue>
 8000502:	4620      	mov	r0, r4
 8000504:	b00c      	add	sp, #48	; 0x30
 8000506:	bd10      	pop	{r4, pc}
 8000508:	20000090 	.word	0x20000090
 800050c:	2000010c 	.word	0x2000010c

08000510 <CAN_Send_Default_ACK>:
 8000510:	b088      	sub	sp, #32
 8000512:	ab01      	add	r3, sp, #4
 8000514:	e883 0007 	stmia.w	r3, {r0, r1, r2}
 8000518:	f89d 3004 	ldrb.w	r3, [sp, #4]
 800051c:	f88d 3014 	strb.w	r3, [sp, #20]
 8000520:	2302      	movs	r3, #2
 8000522:	f88d 3015 	strb.w	r3, [sp, #21]
 8000526:	f89d 3005 	ldrb.w	r3, [sp, #5]
 800052a:	f88d 3016 	strb.w	r3, [sp, #22]
 800052e:	2301      	movs	r3, #1
 8000530:	f88d 3017 	strb.w	r3, [sp, #23]
 8000534:	f89d 3007 	ldrb.w	r3, [sp, #7]
 8000538:	f88d 3018 	strb.w	r3, [sp, #24]
 800053c:	2300      	movs	r3, #0
 800053e:	f88d 3019 	strb.w	r3, [sp, #25]
 8000542:	f88d 301a 	strb.w	r3, [sp, #26]
 8000546:	f88d 301b 	strb.w	r3, [sp, #27]
 800054a:	f88d 301c 	strb.w	r3, [sp, #28]
 800054e:	f88d 301d 	strb.w	r3, [sp, #29]
 8000552:	f88d 301e 	strb.w	r3, [sp, #30]
 8000556:	ab08      	add	r3, sp, #32
 8000558:	e913 0007 	ldmdb	r3, {r0, r1, r2}
 800055c:	b008      	add	sp, #32
 800055e:	f7ff bf4f 	b.w	8000400 <CAN_Transmit_Message>

08000562 <CAN_Queue_Init>:
 8000562:	2300      	movs	r3, #0
 8000564:	e9c0 3300 	strd	r3, r3, [r0]
 8000568:	4770      	bx	lr

0800056a <CAN_Queue_IsEmpty>:
 800056a:	e9d0 2000 	ldrd	r2, r0, [r0]
 800056e:	1a13      	subs	r3, r2, r0
 8000570:	4258      	negs	r0, r3
 8000572:	4158      	adcs	r0, r3
 8000574:	4770      	bx	lr

08000576 <CAN_Queue_IsFull>:
 8000576:	6843      	ldr	r3, [r0, #4]
 8000578:	6800      	ldr	r0, [r0, #0]
 800057a:	2264      	movs	r2, #100	; 0x64
 800057c:	3301      	adds	r3, #1
 800057e:	fbb3 f1f2 	udiv	r1, r3, r2
 8000582:	fb02 3311 	mls	r3, r2, r1, r3
 8000586:	1a1b      	subs	r3, r3, r0
 8000588:	4258      	negs	r0, r3
 800058a:	4158      	adcs	r0, r3
 800058c:	4770      	bx	lr

0800058e <CAN_Queue_Enqueue>:
 800058e:	b538      	push	{r3, r4, r5, lr}
 8000590:	4604      	mov	r4, r0
 8000592:	460d      	mov	r5, r1
 8000594:	f7ff ffef 	bl	8000576 <CAN_Queue_IsFull>
 8000598:	b9b0      	cbnz	r0, 80005c8 <CAN_Queue_Enqueue+0x3a>
 800059a:	6863      	ldr	r3, [r4, #4]
 800059c:	6829      	ldr	r1, [r5, #0]
 800059e:	220b      	movs	r2, #11
 80005a0:	4353      	muls	r3, r2
 80005a2:	3308      	adds	r3, #8
 80005a4:	18e2      	adds	r2, r4, r3
 80005a6:	50e1      	str	r1, [r4, r3]
 80005a8:	6869      	ldr	r1, [r5, #4]
 80005aa:	6051      	str	r1, [r2, #4]
 80005ac:	892b      	ldrh	r3, [r5, #8]
 80005ae:	8113      	strh	r3, [r2, #8]
 80005b0:	7aab      	ldrb	r3, [r5, #10]
 80005b2:	7293      	strb	r3, [r2, #10]
 80005b4:	6863      	ldr	r3, [r4, #4]
 80005b6:	2264      	movs	r2, #100	; 0x64
 80005b8:	3301      	adds	r3, #1
 80005ba:	fbb3 f1f2 	udiv	r1, r3, r2
 80005be:	fb02 3311 	mls	r3, r2, r1, r3
 80005c2:	6063      	str	r3, [r4, #4]
 80005c4:	2001      	movs	r0, #1
 80005c6:	bd38      	pop	{r3, r4, r5, pc}
 80005c8:	2000      	movs	r0, #0
 80005ca:	e7fc      	b.n	80005c6 <CAN_Queue_Enqueue+0x38>

080005cc <CAN_Queue_Dequeue>:
 80005cc:	e9d0 3200 	ldrd	r3, r2, [r0]
 80005d0:	4293      	cmp	r3, r2
 80005d2:	d015      	beq.n	8000600 <CAN_Queue_Dequeue+0x34>
 80005d4:	220b      	movs	r2, #11
 80005d6:	4353      	muls	r3, r2
 80005d8:	3308      	adds	r3, #8
 80005da:	18c2      	adds	r2, r0, r3
 80005dc:	58c3      	ldr	r3, [r0, r3]
 80005de:	600b      	str	r3, [r1, #0]
 80005e0:	6853      	ldr	r3, [r2, #4]
 80005e2:	604b      	str	r3, [r1, #4]
 80005e4:	8913      	ldrh	r3, [r2, #8]
 80005e6:	810b      	strh	r3, [r1, #8]
 80005e8:	7a93      	ldrb	r3, [r2, #10]
 80005ea:	728b      	strb	r3, [r1, #10]
 80005ec:	6803      	ldr	r3, [r0, #0]
 80005ee:	2264      	movs	r2, #100	; 0x64
 80005f0:	3301      	adds	r3, #1
 80005f2:	fbb3 f1f2 	udiv	r1, r3, r2
 80005f6:	fb02 3311 	mls	r3, r2, r1, r3
 80005fa:	6003      	str	r3, [r0, #0]
 80005fc:	2001      	movs	r0, #1
 80005fe:	4770      	bx	lr
 8000600:	2000      	movs	r0, #0
 8000602:	4770      	bx	lr

08000604 <MX_GPIO_Init>:
 8000604:	b5f0      	push	{r4, r5, r6, r7, lr}
 8000606:	b089      	sub	sp, #36	; 0x24
 8000608:	2214      	movs	r2, #20
 800060a:	2100      	movs	r1, #0
 800060c:	a803      	add	r0, sp, #12
 800060e:	f002 fb55 	bl	8002cbc <memset>
 8000612:	4b2d      	ldr	r3, [pc, #180]	; (80006c8 <MX_GPIO_Init+0xc4>)
 8000614:	4f2d      	ldr	r7, [pc, #180]	; (80006cc <MX_GPIO_Init+0xc8>)
 8000616:	6cda      	ldr	r2, [r3, #76]	; 0x4c
 8000618:	4e2d      	ldr	r6, [pc, #180]	; (80006d0 <MX_GPIO_Init+0xcc>)
 800061a:	f042 0204 	orr.w	r2, r2, #4
 800061e:	64da      	str	r2, [r3, #76]	; 0x4c
 8000620:	6cda      	ldr	r2, [r3, #76]	; 0x4c
 8000622:	f002 0204 	and.w	r2, r2, #4
 8000626:	9200      	str	r2, [sp, #0]
 8000628:	9a00      	ldr	r2, [sp, #0]
 800062a:	6cda      	ldr	r2, [r3, #76]	; 0x4c
 800062c:	f042 0201 	orr.w	r2, r2, #1
 8000630:	64da      	str	r2, [r3, #76]	; 0x4c
 8000632:	6cda      	ldr	r2, [r3, #76]	; 0x4c
 8000634:	f002 0201 	and.w	r2, r2, #1
 8000638:	9201      	str	r2, [sp, #4]
 800063a:	9a01      	ldr	r2, [sp, #4]
 800063c:	6cda      	ldr	r2, [r3, #76]	; 0x4c
 800063e:	f042 0202 	orr.w	r2, r2, #2
 8000642:	64da      	str	r2, [r3, #76]	; 0x4c
 8000644:	6cdb      	ldr	r3, [r3, #76]	; 0x4c
 8000646:	f003 0302 	and.w	r3, r3, #2
 800064a:	9302      	str	r3, [sp, #8]
 800064c:	4638      	mov	r0, r7
 800064e:	2200      	movs	r2, #0
 8000650:	f240 71f7 	movw	r1, #2039	; 0x7f7
 8000654:	9b02      	ldr	r3, [sp, #8]
 8000656:	f001 f953 	bl	8001900 <HAL_GPIO_WritePin>
 800065a:	4630      	mov	r0, r6
 800065c:	2201      	movs	r2, #1
 800065e:	f44f 7180 	mov.w	r1, #256	; 0x100
 8000662:	f001 f94d 	bl	8001900 <HAL_GPIO_WritePin>
 8000666:	4630      	mov	r0, r6
 8000668:	2200      	movs	r2, #0
 800066a:	f44f 7100 	mov.w	r1, #512	; 0x200
 800066e:	f001 f947 	bl	8001900 <HAL_GPIO_WritePin>
 8000672:	2200      	movs	r2, #0
 8000674:	f44f 7180 	mov.w	r1, #256	; 0x100
 8000678:	f04f 4090 	mov.w	r0, #1207959552	; 0x48000000
 800067c:	f001 f940 	bl	8001900 <HAL_GPIO_WritePin>
 8000680:	2501      	movs	r5, #1
 8000682:	2400      	movs	r4, #0
 8000684:	f240 73f7 	movw	r3, #2039	; 0x7f7
 8000688:	a903      	add	r1, sp, #12
 800068a:	4638      	mov	r0, r7
 800068c:	e9cd 3503 	strd	r3, r5, [sp, #12]
 8000690:	e9cd 4405 	strd	r4, r4, [sp, #20]
 8000694:	f001 f870 	bl	8001778 <HAL_GPIO_Init>
 8000698:	f44f 7340 	mov.w	r3, #768	; 0x300
 800069c:	a903      	add	r1, sp, #12
 800069e:	4630      	mov	r0, r6
 80006a0:	e9cd 3503 	strd	r3, r5, [sp, #12]
 80006a4:	e9cd 4405 	strd	r4, r4, [sp, #20]
 80006a8:	f001 f866 	bl	8001778 <HAL_GPIO_Init>
 80006ac:	f44f 7380 	mov.w	r3, #256	; 0x100
 80006b0:	a903      	add	r1, sp, #12
 80006b2:	f04f 4090 	mov.w	r0, #1207959552	; 0x48000000
 80006b6:	e9cd 3503 	strd	r3, r5, [sp, #12]
 80006ba:	e9cd 4405 	strd	r4, r4, [sp, #20]
 80006be:	f001 f85b 	bl	8001778 <HAL_GPIO_Init>
 80006c2:	b009      	add	sp, #36	; 0x24
 80006c4:	bdf0      	pop	{r4, r5, r6, r7, pc}
 80006c6:	bf00      	nop
 80006c8:	40021000 	.word	0x40021000
 80006cc:	48000400 	.word	0x48000400
 80006d0:	48000800 	.word	0x48000800

080006d4 <MX_I2C1_Init>:
 80006d4:	4812      	ldr	r0, [pc, #72]	; (8000720 <MX_I2C1_Init+0x4c>)
 80006d6:	4a13      	ldr	r2, [pc, #76]	; (8000724 <MX_I2C1_Init+0x50>)
 80006d8:	b508      	push	{r3, lr}
 80006da:	f640 6314 	movw	r3, #3604	; 0xe14
 80006de:	e9c0 2300 	strd	r2, r3, [r0]
 80006e2:	2300      	movs	r3, #0
 80006e4:	2201      	movs	r2, #1
 80006e6:	e9c0 3202 	strd	r3, r2, [r0, #8]
 80006ea:	e9c0 3304 	strd	r3, r3, [r0, #16]
 80006ee:	e9c0 3306 	strd	r3, r3, [r0, #24]
 80006f2:	6203      	str	r3, [r0, #32]
 80006f4:	f001 fa37 	bl	8001b66 <HAL_I2C_Init>
 80006f8:	b108      	cbz	r0, 80006fe <MX_I2C1_Init+0x2a>
 80006fa:	f000 f931 	bl	8000960 <Error_Handler>
 80006fe:	4808      	ldr	r0, [pc, #32]	; (8000720 <MX_I2C1_Init+0x4c>)
 8000700:	2100      	movs	r1, #0
 8000702:	f001 fb17 	bl	8001d34 <HAL_I2CEx_ConfigAnalogFilter>
 8000706:	b108      	cbz	r0, 800070c <MX_I2C1_Init+0x38>
 8000708:	f000 f92a 	bl	8000960 <Error_Handler>
 800070c:	4804      	ldr	r0, [pc, #16]	; (8000720 <MX_I2C1_Init+0x4c>)
 800070e:	2100      	movs	r1, #0
 8000710:	f001 fb36 	bl	8001d80 <HAL_I2CEx_ConfigDigitalFilter>
 8000714:	b118      	cbz	r0, 800071e <MX_I2C1_Init+0x4a>
 8000716:	e8bd 4008 	ldmia.w	sp!, {r3, lr}
 800071a:	f000 b921 	b.w	8000960 <Error_Handler>
 800071e:	bd08      	pop	{r3, pc}
 8000720:	200000b8 	.word	0x200000b8
 8000724:	40005400 	.word	0x40005400

08000728 <HAL_I2C_MspInit>:
 8000728:	b510      	push	{r4, lr}
 800072a:	b0a2      	sub	sp, #136	; 0x88
 800072c:	4604      	mov	r4, r0
 800072e:	2214      	movs	r2, #20
 8000730:	2100      	movs	r1, #0
 8000732:	a803      	add	r0, sp, #12
 8000734:	f002 fac2 	bl	8002cbc <memset>
 8000738:	2268      	movs	r2, #104	; 0x68
 800073a:	2100      	movs	r1, #0
 800073c:	a808      	add	r0, sp, #32
 800073e:	f002 fabd 	bl	8002cbc <memset>
 8000742:	6822      	ldr	r2, [r4, #0]
 8000744:	4b17      	ldr	r3, [pc, #92]	; (80007a4 <HAL_I2C_MspInit+0x7c>)
 8000746:	429a      	cmp	r2, r3
 8000748:	d12a      	bne.n	80007a0 <HAL_I2C_MspInit+0x78>
 800074a:	2340      	movs	r3, #64	; 0x40
 800074c:	a808      	add	r0, sp, #32
 800074e:	9308      	str	r3, [sp, #32]
 8000750:	f001 ffe2 	bl	8002718 <HAL_RCCEx_PeriphCLKConfig>
 8000754:	b108      	cbz	r0, 800075a <HAL_I2C_MspInit+0x32>
 8000756:	f000 f903 	bl	8000960 <Error_Handler>
 800075a:	4c13      	ldr	r4, [pc, #76]	; (80007a8 <HAL_I2C_MspInit+0x80>)
 800075c:	6ce3      	ldr	r3, [r4, #76]	; 0x4c
 800075e:	f043 0301 	orr.w	r3, r3, #1
 8000762:	64e3      	str	r3, [r4, #76]	; 0x4c
 8000764:	6ce3      	ldr	r3, [r4, #76]	; 0x4c
 8000766:	f003 0301 	and.w	r3, r3, #1
 800076a:	9301      	str	r3, [sp, #4]
 800076c:	9b01      	ldr	r3, [sp, #4]
 800076e:	f44f 62c0 	mov.w	r2, #1536	; 0x600
 8000772:	2312      	movs	r3, #18
 8000774:	e9cd 2303 	strd	r2, r3, [sp, #12]
 8000778:	2100      	movs	r1, #0
 800077a:	2303      	movs	r3, #3
 800077c:	e9cd 1305 	strd	r1, r3, [sp, #20]
 8000780:	f04f 4090 	mov.w	r0, #1207959552	; 0x48000000
 8000784:	2304      	movs	r3, #4
 8000786:	a903      	add	r1, sp, #12
 8000788:	9307      	str	r3, [sp, #28]
 800078a:	f000 fff5 	bl	8001778 <HAL_GPIO_Init>
 800078e:	6da3      	ldr	r3, [r4, #88]	; 0x58
 8000790:	f443 1300 	orr.w	r3, r3, #2097152	; 0x200000
 8000794:	65a3      	str	r3, [r4, #88]	; 0x58
 8000796:	6da3      	ldr	r3, [r4, #88]	; 0x58
 8000798:	f403 1300 	and.w	r3, r3, #2097152	; 0x200000
 800079c:	9302      	str	r3, [sp, #8]
 800079e:	9b02      	ldr	r3, [sp, #8]
 80007a0:	b022      	add	sp, #136	; 0x88
 80007a2:	bd10      	pop	{r4, pc}
 80007a4:	40005400 	.word	0x40005400
 80007a8:	40021000 	.word	0x40021000

080007ac <HAL_CAN_RxFifo0MsgPendingCallback>:
 80007ac:	f7ff be66 	b.w	800047c <CAN_Message_Received>

080007b0 <SystemClock_Config>:
 80007b0:	b500      	push	{lr}
 80007b2:	b097      	sub	sp, #92	; 0x5c
 80007b4:	2244      	movs	r2, #68	; 0x44
 80007b6:	2100      	movs	r1, #0
 80007b8:	a805      	add	r0, sp, #20
 80007ba:	f002 fa7f 	bl	8002cbc <memset>
 80007be:	2214      	movs	r2, #20
 80007c0:	2100      	movs	r1, #0
 80007c2:	4668      	mov	r0, sp
 80007c4:	f002 fa7a 	bl	8002cbc <memset>
 80007c8:	f44f 7000 	mov.w	r0, #512	; 0x200
 80007cc:	f001 fb06 	bl	8001ddc <HAL_PWREx_ControlVoltageScaling>
 80007d0:	b108      	cbz	r0, 80007d6 <SystemClock_Config+0x26>
 80007d2:	b672      	cpsid	i
 80007d4:	e7fe      	b.n	80007d4 <SystemClock_Config+0x24>
 80007d6:	2310      	movs	r3, #16
 80007d8:	9305      	str	r3, [sp, #20]
 80007da:	2301      	movs	r3, #1
 80007dc:	e9cd 300b 	strd	r3, r0, [sp, #44]	; 0x2c
 80007e0:	900f      	str	r0, [sp, #60]	; 0x3c
 80007e2:	2360      	movs	r3, #96	; 0x60
 80007e4:	a805      	add	r0, sp, #20
 80007e6:	930d      	str	r3, [sp, #52]	; 0x34
 80007e8:	f001 fbbe 	bl	8001f68 <HAL_RCC_OscConfig>
 80007ec:	4601      	mov	r1, r0
 80007ee:	b108      	cbz	r0, 80007f4 <SystemClock_Config+0x44>
 80007f0:	b672      	cpsid	i
 80007f2:	e7fe      	b.n	80007f2 <SystemClock_Config+0x42>
 80007f4:	230f      	movs	r3, #15
 80007f6:	e9cd 3000 	strd	r3, r0, [sp]
 80007fa:	e9cd 0002 	strd	r0, r0, [sp, #8]
 80007fe:	9004      	str	r0, [sp, #16]
 8000800:	4668      	mov	r0, sp
 8000802:	f001 fe55 	bl	80024b0 <HAL_RCC_ClockConfig>
 8000806:	b108      	cbz	r0, 800080c <SystemClock_Config+0x5c>
 8000808:	b672      	cpsid	i
 800080a:	e7fe      	b.n	800080a <SystemClock_Config+0x5a>
 800080c:	b017      	add	sp, #92	; 0x5c
 800080e:	f85d fb04 	ldr.w	pc, [sp], #4
	...

08000814 <main>:
 8000814:	b5f0      	push	{r4, r5, r6, r7, lr}
 8000816:	b087      	sub	sp, #28
 8000818:	f000 f980 	bl	8000b1c <HAL_Init>
 800081c:	f7ff ffc8 	bl	80007b0 <SystemClock_Config>
 8000820:	f7ff fef0 	bl	8000604 <MX_GPIO_Init>
 8000824:	f7ff fcd6 	bl	80001d4 <MX_ADC1_Init>
 8000828:	f7ff fd72 	bl	8000310 <MX_CAN1_Init>
 800082c:	f7ff ff52 	bl	80006d4 <MX_I2C1_Init>
 8000830:	f000 f898 	bl	8000964 <MX_SPI3_Init>
 8000834:	f002 f9b0 	bl	8002b98 <MAX7300_Init>
 8000838:	4848      	ldr	r0, [pc, #288]	; (800095c <main+0x148>)
 800083a:	4f48      	ldr	r7, [pc, #288]	; (800095c <main+0x148>)
 800083c:	f7ff fe91 	bl	8000562 <CAN_Queue_Init>
 8000840:	f7ff fdbc 	bl	80003bc <CAN_Init>
 8000844:	466c      	mov	r4, sp
 8000846:	2503      	movs	r5, #3
 8000848:	f002 f996 	bl	8002b78 <MAX6822_Toggle_WDI>
 800084c:	4638      	mov	r0, r7
 800084e:	f7ff fe8c 	bl	800056a <CAN_Queue_IsEmpty>
 8000852:	2800      	cmp	r0, #0
 8000854:	d1f8      	bne.n	8000848 <main+0x34>
 8000856:	4621      	mov	r1, r4
 8000858:	4638      	mov	r0, r7
 800085a:	f7ff feb7 	bl	80005cc <CAN_Queue_Dequeue>
 800085e:	2301      	movs	r3, #1
 8000860:	f88d 300e 	strb.w	r3, [sp, #14]
 8000864:	f88d 300f 	strb.w	r3, [sp, #15]
 8000868:	f89d 3003 	ldrb.w	r3, [sp, #3]
 800086c:	f88d 500d 	strb.w	r5, [sp, #13]
 8000870:	3ba0      	subs	r3, #160	; 0xa0
 8000872:	2b06      	cmp	r3, #6
 8000874:	d8e8      	bhi.n	8000848 <main+0x34>
 8000876:	e8df f003 	tbb	[pc, r3]
 800087a:	1604      	.short	0x1604
 800087c:	56483b2d 	.word	0x56483b2d
 8000880:	63          	.byte	0x63
 8000881:	00          	.byte	0x00
 8000882:	e894 0007 	ldmia.w	r4, {r0, r1, r2}
 8000886:	f7ff fe43 	bl	8000510 <CAN_Send_Default_ACK>
 800088a:	2300      	movs	r3, #0
 800088c:	f88d 300c 	strb.w	r3, [sp, #12]
 8000890:	23a0      	movs	r3, #160	; 0xa0
 8000892:	f88d 3010 	strb.w	r3, [sp, #16]
 8000896:	ab06      	add	r3, sp, #24
 8000898:	e913 0007 	ldmdb	r3, {r0, r1, r2}
 800089c:	f7ff fdb0 	bl	8000400 <CAN_Transmit_Message>
 80008a0:	f002 f972 	bl	8002b88 <MAX6822_Manual_Reset>
 80008a4:	e7d0      	b.n	8000848 <main+0x34>
 80008a6:	e894 0007 	ldmia.w	r4, {r0, r1, r2}
 80008aa:	f7ff fe31 	bl	8000510 <CAN_Send_Default_ACK>
 80008ae:	f89d 6004 	ldrb.w	r6, [sp, #4]
 80008b2:	4630      	mov	r0, r6
 80008b4:	f002 f938 	bl	8002b28 <LED_enableLED>
 80008b8:	230f      	movs	r3, #15
 80008ba:	f88d 300c 	strb.w	r3, [sp, #12]
 80008be:	23a1      	movs	r3, #161	; 0xa1
 80008c0:	f88d 3010 	strb.w	r3, [sp, #16]
 80008c4:	f88d 6011 	strb.w	r6, [sp, #17]
 80008c8:	ab06      	add	r3, sp, #24
 80008ca:	e913 0007 	ldmdb	r3, {r0, r1, r2}
 80008ce:	f7ff fd97 	bl	8000400 <CAN_Transmit_Message>
 80008d2:	e7b9      	b.n	8000848 <main+0x34>
 80008d4:	e894 0007 	ldmia.w	r4, {r0, r1, r2}
 80008d8:	f7ff fe1a 	bl	8000510 <CAN_Send_Default_ACK>
 80008dc:	f89d 6004 	ldrb.w	r6, [sp, #4]
 80008e0:	4630      	mov	r0, r6
 80008e2:	f002 f929 	bl	8002b38 <LED_disableLED>
 80008e6:	2307      	movs	r3, #7
 80008e8:	f88d 300c 	strb.w	r3, [sp, #12]
 80008ec:	23a2      	movs	r3, #162	; 0xa2
 80008ee:	e7e7      	b.n	80008c0 <main+0xac>
 80008f0:	e894 0007 	ldmia.w	r4, {r0, r1, r2}
 80008f4:	f7ff fe0c 	bl	8000510 <CAN_Send_Default_ACK>
 80008f8:	f89d 6004 	ldrb.w	r6, [sp, #4]
 80008fc:	4630      	mov	r0, r6
 80008fe:	f002 f923 	bl	8002b48 <THERM_enableThermostat>
 8000902:	f88d 500c 	strb.w	r5, [sp, #12]
 8000906:	23a3      	movs	r3, #163	; 0xa3
 8000908:	e7da      	b.n	80008c0 <main+0xac>
 800090a:	e894 0007 	ldmia.w	r4, {r0, r1, r2}
 800090e:	f7ff fdff 	bl	8000510 <CAN_Send_Default_ACK>
 8000912:	f89d 6004 	ldrb.w	r6, [sp, #4]
 8000916:	4630      	mov	r0, r6
 8000918:	f002 f922 	bl	8002b60 <THERM_disableThermostat>
 800091c:	2301      	movs	r3, #1
 800091e:	f88d 300c 	strb.w	r3, [sp, #12]
 8000922:	23a4      	movs	r3, #164	; 0xa4
 8000924:	e7cc      	b.n	80008c0 <main+0xac>
 8000926:	e894 0007 	ldmia.w	r4, {r0, r1, r2}
 800092a:	f7ff fdf1 	bl	8000510 <CAN_Send_Default_ACK>
 800092e:	f89d 6004 	ldrb.w	r6, [sp, #4]
 8000932:	4630      	mov	r0, r6
 8000934:	f002 f8e8 	bl	8002b08 <HEAT_enableHeater>
 8000938:	f88d 500c 	strb.w	r5, [sp, #12]
 800093c:	23a5      	movs	r3, #165	; 0xa5
 800093e:	e7bf      	b.n	80008c0 <main+0xac>
 8000940:	e894 0007 	ldmia.w	r4, {r0, r1, r2}
 8000944:	f7ff fde4 	bl	8000510 <CAN_Send_Default_ACK>
 8000948:	f89d 6004 	ldrb.w	r6, [sp, #4]
 800094c:	4630      	mov	r0, r6
 800094e:	f002 f8e3 	bl	8002b18 <HEAT_disableHeater>
 8000952:	2301      	movs	r3, #1
 8000954:	f88d 300c 	strb.w	r3, [sp, #12]
 8000958:	23a6      	movs	r3, #166	; 0xa6
 800095a:	e7b1      	b.n	80008c0 <main+0xac>
 800095c:	2000010c 	.word	0x2000010c

08000960 <Error_Handler>:
 8000960:	b672      	cpsid	i
 8000962:	e7fe      	b.n	8000962 <Error_Handler+0x2>

08000964 <MX_SPI3_Init>:
 8000964:	4810      	ldr	r0, [pc, #64]	; (80009a8 <MX_SPI3_Init+0x44>)
 8000966:	4a11      	ldr	r2, [pc, #68]	; (80009ac <MX_SPI3_Init+0x48>)
 8000968:	b508      	push	{r3, lr}
 800096a:	f44f 7382 	mov.w	r3, #260	; 0x104
 800096e:	e9c0 2300 	strd	r2, r3, [r0]
 8000972:	2300      	movs	r3, #0
 8000974:	f44f 6270 	mov.w	r2, #3840	; 0xf00
 8000978:	e9c0 3202 	strd	r3, r2, [r0, #8]
 800097c:	f44f 7200 	mov.w	r2, #512	; 0x200
 8000980:	e9c0 2306 	strd	r2, r3, [r0, #24]
 8000984:	2207      	movs	r2, #7
 8000986:	e9c0 3304 	strd	r3, r3, [r0, #16]
 800098a:	e9c0 3308 	strd	r3, r3, [r0, #32]
 800098e:	e9c0 230b 	strd	r2, r3, [r0, #44]	; 0x2c
 8000992:	6283      	str	r3, [r0, #40]	; 0x28
 8000994:	2308      	movs	r3, #8
 8000996:	6343      	str	r3, [r0, #52]	; 0x34
 8000998:	f002 f84c 	bl	8002a34 <HAL_SPI_Init>
 800099c:	b118      	cbz	r0, 80009a6 <MX_SPI3_Init+0x42>
 800099e:	e8bd 4008 	ldmia.w	sp!, {r3, lr}
 80009a2:	f7ff bfdd 	b.w	8000960 <Error_Handler>
 80009a6:	bd08      	pop	{r3, pc}
 80009a8:	20000560 	.word	0x20000560
 80009ac:	40003c00 	.word	0x40003c00

080009b0 <HAL_SPI_MspInit>:
 80009b0:	b510      	push	{r4, lr}
 80009b2:	4604      	mov	r4, r0
 80009b4:	b088      	sub	sp, #32
 80009b6:	2214      	movs	r2, #20
 80009b8:	2100      	movs	r1, #0
 80009ba:	a803      	add	r0, sp, #12
 80009bc:	f002 f97e 	bl	8002cbc <memset>
 80009c0:	6822      	ldr	r2, [r4, #0]
 80009c2:	4b13      	ldr	r3, [pc, #76]	; (8000a10 <HAL_SPI_MspInit+0x60>)
 80009c4:	429a      	cmp	r2, r3
 80009c6:	d120      	bne.n	8000a0a <HAL_SPI_MspInit+0x5a>
 80009c8:	f503 33ea 	add.w	r3, r3, #119808	; 0x1d400
 80009cc:	2103      	movs	r1, #3
 80009ce:	6d9a      	ldr	r2, [r3, #88]	; 0x58
 80009d0:	4810      	ldr	r0, [pc, #64]	; (8000a14 <HAL_SPI_MspInit+0x64>)
 80009d2:	f442 4200 	orr.w	r2, r2, #32768	; 0x8000
 80009d6:	659a      	str	r2, [r3, #88]	; 0x58
 80009d8:	6d9a      	ldr	r2, [r3, #88]	; 0x58
 80009da:	f402 4200 	and.w	r2, r2, #32768	; 0x8000
 80009de:	9201      	str	r2, [sp, #4]
 80009e0:	9a01      	ldr	r2, [sp, #4]
 80009e2:	6cda      	ldr	r2, [r3, #76]	; 0x4c
 80009e4:	f042 0204 	orr.w	r2, r2, #4
 80009e8:	64da      	str	r2, [r3, #76]	; 0x4c
 80009ea:	6cdb      	ldr	r3, [r3, #76]	; 0x4c
 80009ec:	f003 0304 	and.w	r3, r3, #4
 80009f0:	9302      	str	r3, [sp, #8]
 80009f2:	9b02      	ldr	r3, [sp, #8]
 80009f4:	f44f 52e0 	mov.w	r2, #7168	; 0x1c00
 80009f8:	2302      	movs	r3, #2
 80009fa:	e9cd 2303 	strd	r2, r3, [sp, #12]
 80009fe:	2306      	movs	r3, #6
 8000a00:	e9cd 1306 	strd	r1, r3, [sp, #24]
 8000a04:	a903      	add	r1, sp, #12
 8000a06:	f000 feb7 	bl	8001778 <HAL_GPIO_Init>
 8000a0a:	b008      	add	sp, #32
 8000a0c:	bd10      	pop	{r4, pc}
 8000a0e:	bf00      	nop
 8000a10:	40003c00 	.word	0x40003c00
 8000a14:	48000800 	.word	0x48000800

08000a18 <HAL_MspInit>:
 8000a18:	4b0a      	ldr	r3, [pc, #40]	; (8000a44 <HAL_MspInit+0x2c>)
 8000a1a:	6e1a      	ldr	r2, [r3, #96]	; 0x60
 8000a1c:	f042 0201 	orr.w	r2, r2, #1
 8000a20:	661a      	str	r2, [r3, #96]	; 0x60
 8000a22:	6e1a      	ldr	r2, [r3, #96]	; 0x60
 8000a24:	b082      	sub	sp, #8
 8000a26:	f002 0201 	and.w	r2, r2, #1
 8000a2a:	9200      	str	r2, [sp, #0]
 8000a2c:	9a00      	ldr	r2, [sp, #0]
 8000a2e:	6d9a      	ldr	r2, [r3, #88]	; 0x58
 8000a30:	f042 5280 	orr.w	r2, r2, #268435456	; 0x10000000
 8000a34:	659a      	str	r2, [r3, #88]	; 0x58
 8000a36:	6d9b      	ldr	r3, [r3, #88]	; 0x58
 8000a38:	f003 5380 	and.w	r3, r3, #268435456	; 0x10000000
 8000a3c:	9301      	str	r3, [sp, #4]
 8000a3e:	9b01      	ldr	r3, [sp, #4]
 8000a40:	b002      	add	sp, #8
 8000a42:	4770      	bx	lr
 8000a44:	40021000 	.word	0x40021000

08000a48 <NMI_Handler>:
 8000a48:	e7fe      	b.n	8000a48 <NMI_Handler>

08000a4a <HardFault_Handler>:
 8000a4a:	e7fe      	b.n	8000a4a <HardFault_Handler>

08000a4c <MemManage_Handler>:
 8000a4c:	e7fe      	b.n	8000a4c <MemManage_Handler>

08000a4e <BusFault_Handler>:
 8000a4e:	e7fe      	b.n	8000a4e <BusFault_Handler>

08000a50 <UsageFault_Handler>:
 8000a50:	e7fe      	b.n	8000a50 <UsageFault_Handler>

08000a52 <SVC_Handler>:
 8000a52:	4770      	bx	lr

08000a54 <DebugMon_Handler>:
 8000a54:	4770      	bx	lr

08000a56 <PendSV_Handler>:
 8000a56:	4770      	bx	lr

08000a58 <SysTick_Handler>:
 8000a58:	f000 b870 	b.w	8000b3c <HAL_IncTick>

08000a5c <CAN1_RX0_IRQHandler>:
 8000a5c:	4801      	ldr	r0, [pc, #4]	; (8000a64 <CAN1_RX0_IRQHandler+0x8>)
 8000a5e:	f000 bd27 	b.w	80014b0 <HAL_CAN_IRQHandler>
 8000a62:	bf00      	nop
 8000a64:	20000090 	.word	0x20000090

08000a68 <SystemInit>:
 8000a68:	4a03      	ldr	r2, [pc, #12]	; (8000a78 <SystemInit+0x10>)
 8000a6a:	f8d2 3088 	ldr.w	r3, [r2, #136]	; 0x88
 8000a6e:	f443 0370 	orr.w	r3, r3, #15728640	; 0xf00000
 8000a72:	f8c2 3088 	str.w	r3, [r2, #136]	; 0x88
 8000a76:	4770      	bx	lr
 8000a78:	e000ed00 	.word	0xe000ed00

08000a7c <Reset_Handler>:
 8000a7c:	f8df d034 	ldr.w	sp, [pc, #52]	; 8000ab4 <LoopForever+0x2>
 8000a80:	f7ff fff2 	bl	8000a68 <SystemInit>
 8000a84:	480c      	ldr	r0, [pc, #48]	; (8000ab8 <LoopForever+0x6>)
 8000a86:	490d      	ldr	r1, [pc, #52]	; (8000abc <LoopForever+0xa>)
 8000a88:	4a0d      	ldr	r2, [pc, #52]	; (8000ac0 <LoopForever+0xe>)
 8000a8a:	2300      	movs	r3, #0
 8000a8c:	e002      	b.n	8000a94 <LoopCopyDataInit>

08000a8e <CopyDataInit>:
 8000a8e:	58d4      	ldr	r4, [r2, r3]
 8000a90:	50c4      	str	r4, [r0, r3]
 8000a92:	3304      	adds	r3, #4

08000a94 <LoopCopyDataInit>:
 8000a94:	18c4      	adds	r4, r0, r3
 8000a96:	428c      	cmp	r4, r1
 8000a98:	d3f9      	bcc.n	8000a8e <CopyDataInit>
 8000a9a:	4a0a      	ldr	r2, [pc, #40]	; (8000ac4 <LoopForever+0x12>)
 8000a9c:	4c0a      	ldr	r4, [pc, #40]	; (8000ac8 <LoopForever+0x16>)
 8000a9e:	2300      	movs	r3, #0
 8000aa0:	e001      	b.n	8000aa6 <LoopFillZerobss>

08000aa2 <FillZerobss>:
 8000aa2:	6013      	str	r3, [r2, #0]
 8000aa4:	3204      	adds	r2, #4

08000aa6 <LoopFillZerobss>:
 8000aa6:	42a2      	cmp	r2, r4
 8000aa8:	d3fb      	bcc.n	8000aa2 <FillZerobss>
 8000aaa:	f002 f8e3 	bl	8002c74 <__libc_init_array>
 8000aae:	f7ff feb1 	bl	8000814 <main>

08000ab2 <LoopForever>:
 8000ab2:	e7fe      	b.n	8000ab2 <LoopForever>
 8000ab4:	20028000 	.word	0x20028000
 8000ab8:	20000000 	.word	0x20000000
 8000abc:	2000000c 	.word	0x2000000c
 8000ac0:	08002d58 	.word	0x08002d58
 8000ac4:	2000000c 	.word	0x2000000c
 8000ac8:	20000668 	.word	0x20000668

08000acc <ADC1_IRQHandler>:
 8000acc:	e7fe      	b.n	8000acc <ADC1_IRQHandler>
	...

08000ad0 <HAL_InitTick>:
 8000ad0:	b538      	push	{r3, r4, r5, lr}
 8000ad2:	4b0f      	ldr	r3, [pc, #60]	; (8000b10 <HAL_InitTick+0x40>)
 8000ad4:	4605      	mov	r5, r0
 8000ad6:	7818      	ldrb	r0, [r3, #0]
 8000ad8:	b908      	cbnz	r0, 8000ade <HAL_InitTick+0xe>
 8000ada:	2001      	movs	r0, #1
 8000adc:	bd38      	pop	{r3, r4, r5, pc}
 8000ade:	4a0d      	ldr	r2, [pc, #52]	; (8000b14 <HAL_InitTick+0x44>)
 8000ae0:	f44f 737a 	mov.w	r3, #1000	; 0x3e8
 8000ae4:	fbb3 f3f0 	udiv	r3, r3, r0
 8000ae8:	6810      	ldr	r0, [r2, #0]
 8000aea:	fbb0 f0f3 	udiv	r0, r0, r3
 8000aee:	f000 fe2f 	bl	8001750 <HAL_SYSTICK_Config>
 8000af2:	4604      	mov	r4, r0
 8000af4:	2800      	cmp	r0, #0
 8000af6:	d1f0      	bne.n	8000ada <HAL_InitTick+0xa>
 8000af8:	2d0f      	cmp	r5, #15
 8000afa:	d8ee      	bhi.n	8000ada <HAL_InitTick+0xa>
 8000afc:	4602      	mov	r2, r0
 8000afe:	4629      	mov	r1, r5
 8000b00:	f04f 30ff 	mov.w	r0, #4294967295
 8000b04:	f000 fde4 	bl	80016d0 <HAL_NVIC_SetPriority>
 8000b08:	4b03      	ldr	r3, [pc, #12]	; (8000b18 <HAL_InitTick+0x48>)
 8000b0a:	4620      	mov	r0, r4
 8000b0c:	601d      	str	r5, [r3, #0]
 8000b0e:	e7e5      	b.n	8000adc <HAL_InitTick+0xc>
 8000b10:	20000004 	.word	0x20000004
 8000b14:	20000000 	.word	0x20000000
 8000b18:	20000008 	.word	0x20000008

08000b1c <HAL_Init>:
 8000b1c:	b510      	push	{r4, lr}
 8000b1e:	2003      	movs	r0, #3
 8000b20:	f000 fdc4 	bl	80016ac <HAL_NVIC_SetPriorityGrouping>
 8000b24:	200f      	movs	r0, #15
 8000b26:	f7ff ffd3 	bl	8000ad0 <HAL_InitTick>
 8000b2a:	4604      	mov	r4, r0
 8000b2c:	b918      	cbnz	r0, 8000b36 <HAL_Init+0x1a>
 8000b2e:	f7ff ff73 	bl	8000a18 <HAL_MspInit>
 8000b32:	4620      	mov	r0, r4
 8000b34:	bd10      	pop	{r4, pc}
 8000b36:	2401      	movs	r4, #1
 8000b38:	e7fb      	b.n	8000b32 <HAL_Init+0x16>
	...

08000b3c <HAL_IncTick>:
 8000b3c:	4a03      	ldr	r2, [pc, #12]	; (8000b4c <HAL_IncTick+0x10>)
 8000b3e:	4b04      	ldr	r3, [pc, #16]	; (8000b50 <HAL_IncTick+0x14>)
 8000b40:	6811      	ldr	r1, [r2, #0]
 8000b42:	781b      	ldrb	r3, [r3, #0]
 8000b44:	440b      	add	r3, r1
 8000b46:	6013      	str	r3, [r2, #0]
 8000b48:	4770      	bx	lr
 8000b4a:	bf00      	nop
 8000b4c:	200005c4 	.word	0x200005c4
 8000b50:	20000004 	.word	0x20000004

08000b54 <HAL_GetTick>:
 8000b54:	4b01      	ldr	r3, [pc, #4]	; (8000b5c <HAL_GetTick+0x8>)
 8000b56:	6818      	ldr	r0, [r3, #0]
 8000b58:	4770      	bx	lr
 8000b5a:	bf00      	nop
 8000b5c:	200005c4 	.word	0x200005c4

08000b60 <LL_ADC_SetChannelSamplingTime>:
 8000b60:	b530      	push	{r4, r5, lr}
 8000b62:	0dcc      	lsrs	r4, r1, #23
 8000b64:	f004 0404 	and.w	r4, r4, #4
 8000b68:	3014      	adds	r0, #20
 8000b6a:	f3c1 5104 	ubfx	r1, r1, #20, #5
 8000b6e:	5823      	ldr	r3, [r4, r0]
 8000b70:	2507      	movs	r5, #7
 8000b72:	408d      	lsls	r5, r1
 8000b74:	ea23 0305 	bic.w	r3, r3, r5
 8000b78:	fa02 f101 	lsl.w	r1, r2, r1
 8000b7c:	430b      	orrs	r3, r1
 8000b7e:	5023      	str	r3, [r4, r0]
 8000b80:	bd30      	pop	{r4, r5, pc}

08000b82 <LL_ADC_REG_IsConversionOngoing>:
 8000b82:	6880      	ldr	r0, [r0, #8]
 8000b84:	f3c0 0080 	ubfx	r0, r0, #2, #1
 8000b88:	4770      	bx	lr
	...

08000b8c <HAL_ADC_Init>:
 8000b8c:	b537      	push	{r0, r1, r2, r4, r5, lr}
 8000b8e:	2300      	movs	r3, #0
 8000b90:	9301      	str	r3, [sp, #4]
 8000b92:	4604      	mov	r4, r0
 8000b94:	2800      	cmp	r0, #0
 8000b96:	f000 80c1 	beq.w	8000d1c <HAL_ADC_Init+0x190>
 8000b9a:	6d85      	ldr	r5, [r0, #88]	; 0x58
 8000b9c:	b925      	cbnz	r5, 8000ba8 <HAL_ADC_Init+0x1c>
 8000b9e:	f7ff fb55 	bl	800024c <HAL_ADC_MspInit>
 8000ba2:	65e5      	str	r5, [r4, #92]	; 0x5c
 8000ba4:	f884 5054 	strb.w	r5, [r4, #84]	; 0x54
 8000ba8:	6820      	ldr	r0, [r4, #0]
 8000baa:	6883      	ldr	r3, [r0, #8]
 8000bac:	009b      	lsls	r3, r3, #2
 8000bae:	bf41      	itttt	mi
 8000bb0:	6883      	ldrmi	r3, [r0, #8]
 8000bb2:	f023 4320 	bicmi.w	r3, r3, #2684354560	; 0xa0000000
 8000bb6:	f023 033f 	bicmi.w	r3, r3, #63	; 0x3f
 8000bba:	6083      	strmi	r3, [r0, #8]
 8000bbc:	6883      	ldr	r3, [r0, #8]
 8000bbe:	00dd      	lsls	r5, r3, #3
 8000bc0:	f140 808c 	bpl.w	8000cdc <HAL_ADC_Init+0x150>
 8000bc4:	6883      	ldr	r3, [r0, #8]
 8000bc6:	00d9      	lsls	r1, r3, #3
 8000bc8:	f100 809f 	bmi.w	8000d0a <HAL_ADC_Init+0x17e>
 8000bcc:	6da3      	ldr	r3, [r4, #88]	; 0x58
 8000bce:	f043 0310 	orr.w	r3, r3, #16
 8000bd2:	65a3      	str	r3, [r4, #88]	; 0x58
 8000bd4:	6de3      	ldr	r3, [r4, #92]	; 0x5c
 8000bd6:	f043 0301 	orr.w	r3, r3, #1
 8000bda:	65e3      	str	r3, [r4, #92]	; 0x5c
 8000bdc:	2101      	movs	r1, #1
 8000bde:	f7ff ffd0 	bl	8000b82 <LL_ADC_REG_IsConversionOngoing>
 8000be2:	6da3      	ldr	r3, [r4, #88]	; 0x58
 8000be4:	f003 0310 	and.w	r3, r3, #16
 8000be8:	4303      	orrs	r3, r0
 8000bea:	6da3      	ldr	r3, [r4, #88]	; 0x58
 8000bec:	f040 8093 	bne.w	8000d16 <HAL_ADC_Init+0x18a>
 8000bf0:	f423 7381 	bic.w	r3, r3, #258	; 0x102
 8000bf4:	f043 0302 	orr.w	r3, r3, #2
 8000bf8:	6820      	ldr	r0, [r4, #0]
 8000bfa:	65a3      	str	r3, [r4, #88]	; 0x58
 8000bfc:	6883      	ldr	r3, [r0, #8]
 8000bfe:	07da      	lsls	r2, r3, #31
 8000c00:	d40a      	bmi.n	8000c18 <HAL_ADC_Init+0x8c>
 8000c02:	4b47      	ldr	r3, [pc, #284]	; (8000d20 <HAL_ADC_Init+0x194>)
 8000c04:	689b      	ldr	r3, [r3, #8]
 8000c06:	07db      	lsls	r3, r3, #31
 8000c08:	d406      	bmi.n	8000c18 <HAL_ADC_Init+0x8c>
 8000c0a:	4a46      	ldr	r2, [pc, #280]	; (8000d24 <HAL_ADC_Init+0x198>)
 8000c0c:	6865      	ldr	r5, [r4, #4]
 8000c0e:	6893      	ldr	r3, [r2, #8]
 8000c10:	f423 137c 	bic.w	r3, r3, #4128768	; 0x3f0000
 8000c14:	432b      	orrs	r3, r5
 8000c16:	6093      	str	r3, [r2, #8]
 8000c18:	68e5      	ldr	r5, [r4, #12]
 8000c1a:	6b63      	ldr	r3, [r4, #52]	; 0x34
 8000c1c:	f894 2020 	ldrb.w	r2, [r4, #32]
 8000c20:	432b      	orrs	r3, r5
 8000c22:	68a5      	ldr	r5, [r4, #8]
 8000c24:	432b      	orrs	r3, r5
 8000c26:	7e65      	ldrb	r5, [r4, #25]
 8000c28:	2a01      	cmp	r2, #1
 8000c2a:	ea43 3345 	orr.w	r3, r3, r5, lsl #13
 8000c2e:	ea43 4302 	orr.w	r3, r3, r2, lsl #16
 8000c32:	bf02      	ittt	eq
 8000c34:	6a62      	ldreq	r2, [r4, #36]	; 0x24
 8000c36:	f102 32ff 	addeq.w	r2, r2, #4294967295
 8000c3a:	ea43 4342 	orreq.w	r3, r3, r2, lsl #17
 8000c3e:	6aa2      	ldr	r2, [r4, #40]	; 0x28
 8000c40:	b122      	cbz	r2, 8000c4c <HAL_ADC_Init+0xc0>
 8000c42:	6ae5      	ldr	r5, [r4, #44]	; 0x2c
 8000c44:	f402 7270 	and.w	r2, r2, #960	; 0x3c0
 8000c48:	432a      	orrs	r2, r5
 8000c4a:	4313      	orrs	r3, r2
 8000c4c:	68c5      	ldr	r5, [r0, #12]
 8000c4e:	4a36      	ldr	r2, [pc, #216]	; (8000d28 <HAL_ADC_Init+0x19c>)
 8000c50:	402a      	ands	r2, r5
 8000c52:	4313      	orrs	r3, r2
 8000c54:	60c3      	str	r3, [r0, #12]
 8000c56:	f7ff ff94 	bl	8000b82 <LL_ADC_REG_IsConversionOngoing>
 8000c5a:	6823      	ldr	r3, [r4, #0]
 8000c5c:	689a      	ldr	r2, [r3, #8]
 8000c5e:	f002 0208 	and.w	r2, r2, #8
 8000c62:	4302      	orrs	r2, r0
 8000c64:	d122      	bne.n	8000cac <HAL_ADC_Init+0x120>
 8000c66:	f894 2030 	ldrb.w	r2, [r4, #48]	; 0x30
 8000c6a:	7e25      	ldrb	r5, [r4, #24]
 8000c6c:	68d8      	ldr	r0, [r3, #12]
 8000c6e:	0052      	lsls	r2, r2, #1
 8000c70:	ea42 3285 	orr.w	r2, r2, r5, lsl #14
 8000c74:	6ce5      	ldr	r5, [r4, #76]	; 0x4c
 8000c76:	f420 4080 	bic.w	r0, r0, #16384	; 0x4000
 8000c7a:	432a      	orrs	r2, r5
 8000c7c:	f020 0006 	bic.w	r0, r0, #6
 8000c80:	4302      	orrs	r2, r0
 8000c82:	60da      	str	r2, [r3, #12]
 8000c84:	f894 2038 	ldrb.w	r2, [r4, #56]	; 0x38
 8000c88:	2a01      	cmp	r2, #1
 8000c8a:	d140      	bne.n	8000d0e <HAL_ADC_Init+0x182>
 8000c8c:	e9d4 250f 	ldrd	r2, r5, [r4, #60]	; 0x3c
 8000c90:	6918      	ldr	r0, [r3, #16]
 8000c92:	f420 60ff 	bic.w	r0, r0, #2040	; 0x7f8
 8000c96:	f020 0004 	bic.w	r0, r0, #4
 8000c9a:	432a      	orrs	r2, r5
 8000c9c:	4302      	orrs	r2, r0
 8000c9e:	6c60      	ldr	r0, [r4, #68]	; 0x44
 8000ca0:	4302      	orrs	r2, r0
 8000ca2:	6ca0      	ldr	r0, [r4, #72]	; 0x48
 8000ca4:	4302      	orrs	r2, r0
 8000ca6:	f042 0201 	orr.w	r2, r2, #1
 8000caa:	611a      	str	r2, [r3, #16]
 8000cac:	6922      	ldr	r2, [r4, #16]
 8000cae:	2a01      	cmp	r2, #1
 8000cb0:	bf05      	ittet	eq
 8000cb2:	6b18      	ldreq	r0, [r3, #48]	; 0x30
 8000cb4:	69e2      	ldreq	r2, [r4, #28]
 8000cb6:	6b1a      	ldrne	r2, [r3, #48]	; 0x30
 8000cb8:	f102 32ff 	addeq.w	r2, r2, #4294967295
 8000cbc:	bf06      	itte	eq
 8000cbe:	f020 000f 	biceq.w	r0, r0, #15
 8000cc2:	4302      	orreq	r2, r0
 8000cc4:	f022 020f 	bicne.w	r2, r2, #15
 8000cc8:	631a      	str	r2, [r3, #48]	; 0x30
 8000cca:	6da3      	ldr	r3, [r4, #88]	; 0x58
 8000ccc:	f023 0303 	bic.w	r3, r3, #3
 8000cd0:	f043 0301 	orr.w	r3, r3, #1
 8000cd4:	65a3      	str	r3, [r4, #88]	; 0x58
 8000cd6:	4608      	mov	r0, r1
 8000cd8:	b003      	add	sp, #12
 8000cda:	bd30      	pop	{r4, r5, pc}
 8000cdc:	6883      	ldr	r3, [r0, #8]
 8000cde:	4a13      	ldr	r2, [pc, #76]	; (8000d2c <HAL_ADC_Init+0x1a0>)
 8000ce0:	f023 4310 	bic.w	r3, r3, #2415919104	; 0x90000000
 8000ce4:	f023 033f 	bic.w	r3, r3, #63	; 0x3f
 8000ce8:	f043 5380 	orr.w	r3, r3, #268435456	; 0x10000000
 8000cec:	6083      	str	r3, [r0, #8]
 8000cee:	4b10      	ldr	r3, [pc, #64]	; (8000d30 <HAL_ADC_Init+0x1a4>)
 8000cf0:	681b      	ldr	r3, [r3, #0]
 8000cf2:	fbb3 f3f2 	udiv	r3, r3, r2
 8000cf6:	3301      	adds	r3, #1
 8000cf8:	005b      	lsls	r3, r3, #1
 8000cfa:	9301      	str	r3, [sp, #4]
 8000cfc:	9b01      	ldr	r3, [sp, #4]
 8000cfe:	2b00      	cmp	r3, #0
 8000d00:	f43f af60 	beq.w	8000bc4 <HAL_ADC_Init+0x38>
 8000d04:	9b01      	ldr	r3, [sp, #4]
 8000d06:	3b01      	subs	r3, #1
 8000d08:	e7f7      	b.n	8000cfa <HAL_ADC_Init+0x16e>
 8000d0a:	2100      	movs	r1, #0
 8000d0c:	e767      	b.n	8000bde <HAL_ADC_Init+0x52>
 8000d0e:	691a      	ldr	r2, [r3, #16]
 8000d10:	f022 0201 	bic.w	r2, r2, #1
 8000d14:	e7c9      	b.n	8000caa <HAL_ADC_Init+0x11e>
 8000d16:	f043 0310 	orr.w	r3, r3, #16
 8000d1a:	65a3      	str	r3, [r4, #88]	; 0x58
 8000d1c:	2101      	movs	r1, #1
 8000d1e:	e7da      	b.n	8000cd6 <HAL_ADC_Init+0x14a>
 8000d20:	50040000 	.word	0x50040000
 8000d24:	50040300 	.word	0x50040300
 8000d28:	fff0c007 	.word	0xfff0c007
 8000d2c:	00030d40 	.word	0x00030d40
 8000d30:	20000000 	.word	0x20000000

08000d34 <HAL_ADC_ConfigChannel>:
 8000d34:	b5f7      	push	{r0, r1, r2, r4, r5, r6, r7, lr}
 8000d36:	2300      	movs	r3, #0
 8000d38:	9301      	str	r3, [sp, #4]
 8000d3a:	f890 3054 	ldrb.w	r3, [r0, #84]	; 0x54
 8000d3e:	2b01      	cmp	r3, #1
 8000d40:	4605      	mov	r5, r0
 8000d42:	460c      	mov	r4, r1
 8000d44:	f000 81a5 	beq.w	8001092 <HAL_ADC_ConfigChannel+0x35e>
 8000d48:	2301      	movs	r3, #1
 8000d4a:	f880 3054 	strb.w	r3, [r0, #84]	; 0x54
 8000d4e:	6800      	ldr	r0, [r0, #0]
 8000d50:	f7ff ff17 	bl	8000b82 <LL_ADC_REG_IsConversionOngoing>
 8000d54:	2800      	cmp	r0, #0
 8000d56:	f040 8196 	bne.w	8001086 <HAL_ADC_ConfigChannel+0x352>
 8000d5a:	684b      	ldr	r3, [r1, #4]
 8000d5c:	2b05      	cmp	r3, #5
 8000d5e:	d809      	bhi.n	8000d74 <HAL_ADC_ConfigChannel+0x40>
 8000d60:	3b02      	subs	r3, #2
 8000d62:	2b03      	cmp	r3, #3
 8000d64:	f200 8094 	bhi.w	8000e90 <HAL_ADC_ConfigChannel+0x15c>
 8000d68:	e8df f003 	tbb	[pc, r3]
 8000d6c:	8f8d8b02 	.word	0x8f8d8b02
 8000d70:	230c      	movs	r3, #12
 8000d72:	6063      	str	r3, [r4, #4]
 8000d74:	6862      	ldr	r2, [r4, #4]
 8000d76:	6828      	ldr	r0, [r5, #0]
 8000d78:	6823      	ldr	r3, [r4, #0]
 8000d7a:	0991      	lsrs	r1, r2, #6
 8000d7c:	f001 010c 	and.w	r1, r1, #12
 8000d80:	f100 0730 	add.w	r7, r0, #48	; 0x30
 8000d84:	f002 021f 	and.w	r2, r2, #31
 8000d88:	59ce      	ldr	r6, [r1, r7]
 8000d8a:	f04f 0c1f 	mov.w	ip, #31
 8000d8e:	f3c3 6384 	ubfx	r3, r3, #26, #5
 8000d92:	4093      	lsls	r3, r2
 8000d94:	fa0c f202 	lsl.w	r2, ip, r2
 8000d98:	ea26 0202 	bic.w	r2, r6, r2
 8000d9c:	4313      	orrs	r3, r2
 8000d9e:	51cb      	str	r3, [r1, r7]
 8000da0:	f7ff feef 	bl	8000b82 <LL_ADC_REG_IsConversionOngoing>
 8000da4:	4601      	mov	r1, r0
 8000da6:	6828      	ldr	r0, [r5, #0]
 8000da8:	6882      	ldr	r2, [r0, #8]
 8000daa:	f002 0208 	and.w	r2, r2, #8
 8000dae:	430a      	orrs	r2, r1
 8000db0:	d124      	bne.n	8000dfc <HAL_ADC_ConfigChannel+0xc8>
 8000db2:	68a3      	ldr	r3, [r4, #8]
 8000db4:	6821      	ldr	r1, [r4, #0]
 8000db6:	f1b3 4f00 	cmp.w	r3, #2147483648	; 0x80000000
 8000dba:	d16b      	bne.n	8000e94 <HAL_ADC_ConfigChannel+0x160>
 8000dbc:	f7ff fed0 	bl	8000b60 <LL_ADC_SetChannelSamplingTime>
 8000dc0:	682a      	ldr	r2, [r5, #0]
 8000dc2:	6953      	ldr	r3, [r2, #20]
 8000dc4:	f043 4300 	orr.w	r3, r3, #2147483648	; 0x80000000
 8000dc8:	6153      	str	r3, [r2, #20]
 8000dca:	6926      	ldr	r6, [r4, #16]
 8000dcc:	6828      	ldr	r0, [r5, #0]
 8000dce:	6822      	ldr	r2, [r4, #0]
 8000dd0:	68c1      	ldr	r1, [r0, #12]
 8000dd2:	2e04      	cmp	r6, #4
 8000dd4:	f100 0360 	add.w	r3, r0, #96	; 0x60
 8000dd8:	d064      	beq.n	8000ea4 <HAL_ADC_ConfigChannel+0x170>
 8000dda:	f3c1 01c1 	ubfx	r1, r1, #3, #2
 8000dde:	0048      	lsls	r0, r1, #1
 8000de0:	6961      	ldr	r1, [r4, #20]
 8000de2:	f853 7026 	ldr.w	r7, [r3, r6, lsl #2]
 8000de6:	4081      	lsls	r1, r0
 8000de8:	48ab      	ldr	r0, [pc, #684]	; (8001098 <HAL_ADC_ConfigChannel+0x364>)
 8000dea:	f002 42f8 	and.w	r2, r2, #2080374784	; 0x7c000000
 8000dee:	4038      	ands	r0, r7
 8000df0:	4310      	orrs	r0, r2
 8000df2:	4301      	orrs	r1, r0
 8000df4:	f041 4100 	orr.w	r1, r1, #2147483648	; 0x80000000
 8000df8:	f843 1026 	str.w	r1, [r3, r6, lsl #2]
 8000dfc:	6828      	ldr	r0, [r5, #0]
 8000dfe:	6883      	ldr	r3, [r0, #8]
 8000e00:	07d9      	lsls	r1, r3, #31
 8000e02:	d433      	bmi.n	8000e6c <HAL_ADC_ConfigChannel+0x138>
 8000e04:	68e7      	ldr	r7, [r4, #12]
 8000e06:	6823      	ldr	r3, [r4, #0]
 8000e08:	4aa4      	ldr	r2, [pc, #656]	; (800109c <HAL_ADC_ConfigChannel+0x368>)
 8000e0a:	f8d0 10b0 	ldr.w	r1, [r0, #176]	; 0xb0
 8000e0e:	f007 0c18 	and.w	ip, r7, #24
 8000e12:	f3c3 0612 	ubfx	r6, r3, #0, #19
 8000e16:	fa22 f20c 	lsr.w	r2, r2, ip
 8000e1a:	401a      	ands	r2, r3
 8000e1c:	ea21 0106 	bic.w	r1, r1, r6
 8000e20:	430a      	orrs	r2, r1
 8000e22:	f8c0 20b0 	str.w	r2, [r0, #176]	; 0xb0
 8000e26:	4a9e      	ldr	r2, [pc, #632]	; (80010a0 <HAL_ADC_ConfigChannel+0x36c>)
 8000e28:	4297      	cmp	r7, r2
 8000e2a:	d11f      	bne.n	8000e6c <HAL_ADC_ConfigChannel+0x138>
 8000e2c:	2e00      	cmp	r6, #0
 8000e2e:	f040 808e 	bne.w	8000f4e <HAL_ADC_ConfigChannel+0x21a>
 8000e32:	0e9a      	lsrs	r2, r3, #26
 8000e34:	3201      	adds	r2, #1
 8000e36:	f002 071f 	and.w	r7, r2, #31
 8000e3a:	2101      	movs	r1, #1
 8000e3c:	0692      	lsls	r2, r2, #26
 8000e3e:	2f09      	cmp	r7, #9
 8000e40:	f002 42f8 	and.w	r2, r2, #2080374784	; 0x7c000000
 8000e44:	fa01 f107 	lsl.w	r1, r1, r7
 8000e48:	f200 80b3 	bhi.w	8000fb2 <HAL_ADC_ConfigChannel+0x27e>
 8000e4c:	430a      	orrs	r2, r1
 8000e4e:	2e00      	cmp	r6, #0
 8000e50:	f040 8099 	bne.w	8000f86 <HAL_ADC_ConfigChannel+0x252>
 8000e54:	0e9b      	lsrs	r3, r3, #26
 8000e56:	3301      	adds	r3, #1
 8000e58:	f003 031f 	and.w	r3, r3, #31
 8000e5c:	eb03 0343 	add.w	r3, r3, r3, lsl #1
 8000e60:	051b      	lsls	r3, r3, #20
 8000e62:	ea42 0103 	orr.w	r1, r2, r3
 8000e66:	68a2      	ldr	r2, [r4, #8]
 8000e68:	f7ff fe7a 	bl	8000b60 <LL_ADC_SetChannelSamplingTime>
 8000e6c:	6821      	ldr	r1, [r4, #0]
 8000e6e:	4b8d      	ldr	r3, [pc, #564]	; (80010a4 <HAL_ADC_ConfigChannel+0x370>)
 8000e70:	4219      	tst	r1, r3
 8000e72:	f040 80b9 	bne.w	8000fe8 <HAL_ADC_ConfigChannel+0x2b4>
 8000e76:	2000      	movs	r0, #0
 8000e78:	2300      	movs	r3, #0
 8000e7a:	f885 3054 	strb.w	r3, [r5, #84]	; 0x54
 8000e7e:	b003      	add	sp, #12
 8000e80:	bdf0      	pop	{r4, r5, r6, r7, pc}
 8000e82:	2312      	movs	r3, #18
 8000e84:	e775      	b.n	8000d72 <HAL_ADC_ConfigChannel+0x3e>
 8000e86:	2318      	movs	r3, #24
 8000e88:	e773      	b.n	8000d72 <HAL_ADC_ConfigChannel+0x3e>
 8000e8a:	f44f 7380 	mov.w	r3, #256	; 0x100
 8000e8e:	e770      	b.n	8000d72 <HAL_ADC_ConfigChannel+0x3e>
 8000e90:	2306      	movs	r3, #6
 8000e92:	e76e      	b.n	8000d72 <HAL_ADC_ConfigChannel+0x3e>
 8000e94:	461a      	mov	r2, r3
 8000e96:	f7ff fe63 	bl	8000b60 <LL_ADC_SetChannelSamplingTime>
 8000e9a:	682a      	ldr	r2, [r5, #0]
 8000e9c:	6953      	ldr	r3, [r2, #20]
 8000e9e:	f023 4300 	bic.w	r3, r3, #2147483648	; 0x80000000
 8000ea2:	e791      	b.n	8000dc8 <HAL_ADC_ConfigChannel+0x94>
 8000ea4:	6e01      	ldr	r1, [r0, #96]	; 0x60
 8000ea6:	6e01      	ldr	r1, [r0, #96]	; 0x60
 8000ea8:	f3c2 0612 	ubfx	r6, r2, #0, #19
 8000eac:	f3c1 6184 	ubfx	r1, r1, #26, #5
 8000eb0:	2e00      	cmp	r6, #0
 8000eb2:	d138      	bne.n	8000f26 <HAL_ADC_ConfigChannel+0x1f2>
 8000eb4:	f3c2 6284 	ubfx	r2, r2, #26, #5
 8000eb8:	4291      	cmp	r1, r2
 8000eba:	bf02      	ittt	eq
 8000ebc:	6e02      	ldreq	r2, [r0, #96]	; 0x60
 8000ebe:	f022 4200 	biceq.w	r2, r2, #2147483648	; 0x80000000
 8000ec2:	6602      	streq	r2, [r0, #96]	; 0x60
 8000ec4:	685a      	ldr	r2, [r3, #4]
 8000ec6:	6822      	ldr	r2, [r4, #0]
 8000ec8:	6859      	ldr	r1, [r3, #4]
 8000eca:	f3c2 0012 	ubfx	r0, r2, #0, #19
 8000ece:	f3c1 6184 	ubfx	r1, r1, #26, #5
 8000ed2:	bb68      	cbnz	r0, 8000f30 <HAL_ADC_ConfigChannel+0x1fc>
 8000ed4:	f3c2 6284 	ubfx	r2, r2, #26, #5
 8000ed8:	4291      	cmp	r1, r2
 8000eda:	bf02      	ittt	eq
 8000edc:	685a      	ldreq	r2, [r3, #4]
 8000ede:	f022 4200 	biceq.w	r2, r2, #2147483648	; 0x80000000
 8000ee2:	605a      	streq	r2, [r3, #4]
 8000ee4:	689a      	ldr	r2, [r3, #8]
 8000ee6:	6822      	ldr	r2, [r4, #0]
 8000ee8:	6899      	ldr	r1, [r3, #8]
 8000eea:	f3c2 0012 	ubfx	r0, r2, #0, #19
 8000eee:	f3c1 6184 	ubfx	r1, r1, #26, #5
 8000ef2:	bb10      	cbnz	r0, 8000f3a <HAL_ADC_ConfigChannel+0x206>
 8000ef4:	f3c2 6284 	ubfx	r2, r2, #26, #5
 8000ef8:	4291      	cmp	r1, r2
 8000efa:	bf02      	ittt	eq
 8000efc:	689a      	ldreq	r2, [r3, #8]
 8000efe:	f022 4200 	biceq.w	r2, r2, #2147483648	; 0x80000000
 8000f02:	609a      	streq	r2, [r3, #8]
 8000f04:	68da      	ldr	r2, [r3, #12]
 8000f06:	6822      	ldr	r2, [r4, #0]
 8000f08:	68d9      	ldr	r1, [r3, #12]
 8000f0a:	f3c2 0012 	ubfx	r0, r2, #0, #19
 8000f0e:	f3c1 6184 	ubfx	r1, r1, #26, #5
 8000f12:	b9b8      	cbnz	r0, 8000f44 <HAL_ADC_ConfigChannel+0x210>
 8000f14:	f3c2 6284 	ubfx	r2, r2, #26, #5
 8000f18:	4291      	cmp	r1, r2
 8000f1a:	bf02      	ittt	eq
 8000f1c:	68da      	ldreq	r2, [r3, #12]
 8000f1e:	f022 4200 	biceq.w	r2, r2, #2147483648	; 0x80000000
 8000f22:	60da      	streq	r2, [r3, #12]
 8000f24:	e76a      	b.n	8000dfc <HAL_ADC_ConfigChannel+0xc8>
 8000f26:	fa92 f2a2 	rbit	r2, r2
 8000f2a:	fab2 f282 	clz	r2, r2
 8000f2e:	e7c3      	b.n	8000eb8 <HAL_ADC_ConfigChannel+0x184>
 8000f30:	fa92 f2a2 	rbit	r2, r2
 8000f34:	fab2 f282 	clz	r2, r2
 8000f38:	e7ce      	b.n	8000ed8 <HAL_ADC_ConfigChannel+0x1a4>
 8000f3a:	fa92 f2a2 	rbit	r2, r2
 8000f3e:	fab2 f282 	clz	r2, r2
 8000f42:	e7d9      	b.n	8000ef8 <HAL_ADC_ConfigChannel+0x1c4>
 8000f44:	fa92 f2a2 	rbit	r2, r2
 8000f48:	fab2 f282 	clz	r2, r2
 8000f4c:	e7e4      	b.n	8000f18 <HAL_ADC_ConfigChannel+0x1e4>
 8000f4e:	fa93 f2a3 	rbit	r2, r3
 8000f52:	b132      	cbz	r2, 8000f62 <HAL_ADC_ConfigChannel+0x22e>
 8000f54:	fab2 f282 	clz	r2, r2
 8000f58:	3201      	adds	r2, #1
 8000f5a:	f002 021f 	and.w	r2, r2, #31
 8000f5e:	2a09      	cmp	r2, #9
 8000f60:	d816      	bhi.n	8000f90 <HAL_ADC_ConfigChannel+0x25c>
 8000f62:	fa93 f2a3 	rbit	r2, r3
 8000f66:	fab2 f282 	clz	r2, r2
 8000f6a:	3201      	adds	r2, #1
 8000f6c:	0692      	lsls	r2, r2, #26
 8000f6e:	f002 42f8 	and.w	r2, r2, #2080374784	; 0x7c000000
 8000f72:	fa93 f1a3 	rbit	r1, r3
 8000f76:	fab1 f181 	clz	r1, r1
 8000f7a:	3101      	adds	r1, #1
 8000f7c:	f001 071f 	and.w	r7, r1, #31
 8000f80:	2101      	movs	r1, #1
 8000f82:	40b9      	lsls	r1, r7
 8000f84:	e762      	b.n	8000e4c <HAL_ADC_ConfigChannel+0x118>
 8000f86:	fa93 f3a3 	rbit	r3, r3
 8000f8a:	fab3 f383 	clz	r3, r3
 8000f8e:	e762      	b.n	8000e56 <HAL_ADC_ConfigChannel+0x122>
 8000f90:	fa93 f2a3 	rbit	r2, r3
 8000f94:	fab2 f282 	clz	r2, r2
 8000f98:	3201      	adds	r2, #1
 8000f9a:	0692      	lsls	r2, r2, #26
 8000f9c:	f002 42f8 	and.w	r2, r2, #2080374784	; 0x7c000000
 8000fa0:	fa93 f1a3 	rbit	r1, r3
 8000fa4:	fab1 f181 	clz	r1, r1
 8000fa8:	3101      	adds	r1, #1
 8000faa:	f001 071f 	and.w	r7, r1, #31
 8000fae:	2101      	movs	r1, #1
 8000fb0:	40b9      	lsls	r1, r7
 8000fb2:	430a      	orrs	r2, r1
 8000fb4:	b95e      	cbnz	r6, 8000fce <HAL_ADC_ConfigChannel+0x29a>
 8000fb6:	0e9e      	lsrs	r6, r3, #26
 8000fb8:	3601      	adds	r6, #1
 8000fba:	f006 061f 	and.w	r6, r6, #31
 8000fbe:	eb06 0146 	add.w	r1, r6, r6, lsl #1
 8000fc2:	391e      	subs	r1, #30
 8000fc4:	0509      	lsls	r1, r1, #20
 8000fc6:	f041 7100 	orr.w	r1, r1, #33554432	; 0x2000000
 8000fca:	4311      	orrs	r1, r2
 8000fcc:	e74b      	b.n	8000e66 <HAL_ADC_ConfigChannel+0x132>
 8000fce:	fa93 f1a3 	rbit	r1, r3
 8000fd2:	fab1 f181 	clz	r1, r1
 8000fd6:	3101      	adds	r1, #1
 8000fd8:	f001 031f 	and.w	r3, r1, #31
 8000fdc:	f06f 061d 	mvn.w	r6, #29
 8000fe0:	2103      	movs	r1, #3
 8000fe2:	fb11 6103 	smlabb	r1, r1, r3, r6
 8000fe6:	e7ed      	b.n	8000fc4 <HAL_ADC_ConfigChannel+0x290>
 8000fe8:	4b2f      	ldr	r3, [pc, #188]	; (80010a8 <HAL_ADC_ConfigChannel+0x374>)
 8000fea:	4a30      	ldr	r2, [pc, #192]	; (80010ac <HAL_ADC_ConfigChannel+0x378>)
 8000fec:	6898      	ldr	r0, [r3, #8]
 8000fee:	4291      	cmp	r1, r2
 8000ff0:	f000 74e0 	and.w	r4, r0, #29360128	; 0x1c00000
 8000ff4:	d11e      	bne.n	8001034 <HAL_ADC_ConfigChannel+0x300>
 8000ff6:	0202      	lsls	r2, r0, #8
 8000ff8:	f53f af3d 	bmi.w	8000e76 <HAL_ADC_ConfigChannel+0x142>
 8000ffc:	6829      	ldr	r1, [r5, #0]
 8000ffe:	4a2c      	ldr	r2, [pc, #176]	; (80010b0 <HAL_ADC_ConfigChannel+0x37c>)
 8001000:	4291      	cmp	r1, r2
 8001002:	f47f af38 	bne.w	8000e76 <HAL_ADC_ConfigChannel+0x142>
 8001006:	689a      	ldr	r2, [r3, #8]
 8001008:	f022 72e0 	bic.w	r2, r2, #29360128	; 0x1c00000
 800100c:	4322      	orrs	r2, r4
 800100e:	f442 0200 	orr.w	r2, r2, #8388608	; 0x800000
 8001012:	609a      	str	r2, [r3, #8]
 8001014:	4b27      	ldr	r3, [pc, #156]	; (80010b4 <HAL_ADC_ConfigChannel+0x380>)
 8001016:	4a28      	ldr	r2, [pc, #160]	; (80010b8 <HAL_ADC_ConfigChannel+0x384>)
 8001018:	681b      	ldr	r3, [r3, #0]
 800101a:	fbb3 f2f2 	udiv	r2, r3, r2
 800101e:	230c      	movs	r3, #12
 8001020:	fb02 3303 	mla	r3, r2, r3, r3
 8001024:	9301      	str	r3, [sp, #4]
 8001026:	9b01      	ldr	r3, [sp, #4]
 8001028:	2b00      	cmp	r3, #0
 800102a:	f43f af24 	beq.w	8000e76 <HAL_ADC_ConfigChannel+0x142>
 800102e:	9b01      	ldr	r3, [sp, #4]
 8001030:	3b01      	subs	r3, #1
 8001032:	e7f7      	b.n	8001024 <HAL_ADC_ConfigChannel+0x2f0>
 8001034:	4a21      	ldr	r2, [pc, #132]	; (80010bc <HAL_ADC_ConfigChannel+0x388>)
 8001036:	4291      	cmp	r1, r2
 8001038:	d111      	bne.n	800105e <HAL_ADC_ConfigChannel+0x32a>
 800103a:	f010 7080 	ands.w	r0, r0, #16777216	; 0x1000000
 800103e:	f47f af1a 	bne.w	8000e76 <HAL_ADC_ConfigChannel+0x142>
 8001042:	6829      	ldr	r1, [r5, #0]
 8001044:	f1a2 42f7 	sub.w	r2, r2, #2071986176	; 0x7b800000
 8001048:	4291      	cmp	r1, r2
 800104a:	f47f af14 	bne.w	8000e76 <HAL_ADC_ConfigChannel+0x142>
 800104e:	689a      	ldr	r2, [r3, #8]
 8001050:	f022 72e0 	bic.w	r2, r2, #29360128	; 0x1c00000
 8001054:	4322      	orrs	r2, r4
 8001056:	f042 7280 	orr.w	r2, r2, #16777216	; 0x1000000
 800105a:	609a      	str	r2, [r3, #8]
 800105c:	e70c      	b.n	8000e78 <HAL_ADC_ConfigChannel+0x144>
 800105e:	4a18      	ldr	r2, [pc, #96]	; (80010c0 <HAL_ADC_ConfigChannel+0x38c>)
 8001060:	4291      	cmp	r1, r2
 8001062:	f47f af08 	bne.w	8000e76 <HAL_ADC_ConfigChannel+0x142>
 8001066:	f410 0080 	ands.w	r0, r0, #4194304	; 0x400000
 800106a:	f47f af04 	bne.w	8000e76 <HAL_ADC_ConfigChannel+0x142>
 800106e:	6829      	ldr	r1, [r5, #0]
 8001070:	4a0f      	ldr	r2, [pc, #60]	; (80010b0 <HAL_ADC_ConfigChannel+0x37c>)
 8001072:	4291      	cmp	r1, r2
 8001074:	f47f aeff 	bne.w	8000e76 <HAL_ADC_ConfigChannel+0x142>
 8001078:	689a      	ldr	r2, [r3, #8]
 800107a:	f022 72e0 	bic.w	r2, r2, #29360128	; 0x1c00000
 800107e:	4322      	orrs	r2, r4
 8001080:	f442 0280 	orr.w	r2, r2, #4194304	; 0x400000
 8001084:	e7e9      	b.n	800105a <HAL_ADC_ConfigChannel+0x326>
 8001086:	6daa      	ldr	r2, [r5, #88]	; 0x58
 8001088:	f042 0220 	orr.w	r2, r2, #32
 800108c:	65aa      	str	r2, [r5, #88]	; 0x58
 800108e:	4618      	mov	r0, r3
 8001090:	e6f2      	b.n	8000e78 <HAL_ADC_ConfigChannel+0x144>
 8001092:	2002      	movs	r0, #2
 8001094:	e6f3      	b.n	8000e7e <HAL_ADC_ConfigChannel+0x14a>
 8001096:	bf00      	nop
 8001098:	03fff000 	.word	0x03fff000
 800109c:	0007ffff 	.word	0x0007ffff
 80010a0:	407f0000 	.word	0x407f0000
 80010a4:	80080000 	.word	0x80080000
 80010a8:	50040300 	.word	0x50040300
 80010ac:	c7520000 	.word	0xc7520000
 80010b0:	50040000 	.word	0x50040000
 80010b4:	20000000 	.word	0x20000000
 80010b8:	00030d40 	.word	0x00030d40
 80010bc:	cb840000 	.word	0xcb840000
 80010c0:	80000001 	.word	0x80000001

080010c4 <HAL_CAN_Init>:
 80010c4:	b538      	push	{r3, r4, r5, lr}
 80010c6:	4604      	mov	r4, r0
 80010c8:	2800      	cmp	r0, #0
 80010ca:	d06e      	beq.n	80011aa <HAL_CAN_Init+0xe6>
 80010cc:	f890 3020 	ldrb.w	r3, [r0, #32]
 80010d0:	b90b      	cbnz	r3, 80010d6 <HAL_CAN_Init+0x12>
 80010d2:	f7ff f937 	bl	8000344 <HAL_CAN_MspInit>
 80010d6:	6822      	ldr	r2, [r4, #0]
 80010d8:	6813      	ldr	r3, [r2, #0]
 80010da:	f043 0301 	orr.w	r3, r3, #1
 80010de:	6013      	str	r3, [r2, #0]
 80010e0:	f7ff fd38 	bl	8000b54 <HAL_GetTick>
 80010e4:	4605      	mov	r5, r0
 80010e6:	6823      	ldr	r3, [r4, #0]
 80010e8:	685a      	ldr	r2, [r3, #4]
 80010ea:	07d1      	lsls	r1, r2, #31
 80010ec:	d551      	bpl.n	8001192 <HAL_CAN_Init+0xce>
 80010ee:	681a      	ldr	r2, [r3, #0]
 80010f0:	f022 0202 	bic.w	r2, r2, #2
 80010f4:	601a      	str	r2, [r3, #0]
 80010f6:	f7ff fd2d 	bl	8000b54 <HAL_GetTick>
 80010fa:	4605      	mov	r5, r0
 80010fc:	6823      	ldr	r3, [r4, #0]
 80010fe:	685a      	ldr	r2, [r3, #4]
 8001100:	0792      	lsls	r2, r2, #30
 8001102:	d454      	bmi.n	80011ae <HAL_CAN_Init+0xea>
 8001104:	7e22      	ldrb	r2, [r4, #24]
 8001106:	2a01      	cmp	r2, #1
 8001108:	681a      	ldr	r2, [r3, #0]
 800110a:	bf0c      	ite	eq
 800110c:	f042 0280 	orreq.w	r2, r2, #128	; 0x80
 8001110:	f022 0280 	bicne.w	r2, r2, #128	; 0x80
 8001114:	601a      	str	r2, [r3, #0]
 8001116:	7e62      	ldrb	r2, [r4, #25]
 8001118:	2a01      	cmp	r2, #1
 800111a:	681a      	ldr	r2, [r3, #0]
 800111c:	bf0c      	ite	eq
 800111e:	f042 0240 	orreq.w	r2, r2, #64	; 0x40
 8001122:	f022 0240 	bicne.w	r2, r2, #64	; 0x40
 8001126:	601a      	str	r2, [r3, #0]
 8001128:	7ea2      	ldrb	r2, [r4, #26]
 800112a:	2a01      	cmp	r2, #1
 800112c:	681a      	ldr	r2, [r3, #0]
 800112e:	bf0c      	ite	eq
 8001130:	f042 0220 	orreq.w	r2, r2, #32
 8001134:	f022 0220 	bicne.w	r2, r2, #32
 8001138:	601a      	str	r2, [r3, #0]
 800113a:	7ee2      	ldrb	r2, [r4, #27]
 800113c:	2a01      	cmp	r2, #1
 800113e:	681a      	ldr	r2, [r3, #0]
 8001140:	bf0c      	ite	eq
 8001142:	f022 0210 	biceq.w	r2, r2, #16
 8001146:	f042 0210 	orrne.w	r2, r2, #16
 800114a:	601a      	str	r2, [r3, #0]
 800114c:	7f22      	ldrb	r2, [r4, #28]
 800114e:	2a01      	cmp	r2, #1
 8001150:	681a      	ldr	r2, [r3, #0]
 8001152:	bf0c      	ite	eq
 8001154:	f042 0208 	orreq.w	r2, r2, #8
 8001158:	f022 0208 	bicne.w	r2, r2, #8
 800115c:	601a      	str	r2, [r3, #0]
 800115e:	7f62      	ldrb	r2, [r4, #29]
 8001160:	2a01      	cmp	r2, #1
 8001162:	681a      	ldr	r2, [r3, #0]
 8001164:	bf0c      	ite	eq
 8001166:	f042 0204 	orreq.w	r2, r2, #4
 800116a:	f022 0204 	bicne.w	r2, r2, #4
 800116e:	601a      	str	r2, [r3, #0]
 8001170:	e9d4 2102 	ldrd	r2, r1, [r4, #8]
 8001174:	430a      	orrs	r2, r1
 8001176:	6921      	ldr	r1, [r4, #16]
 8001178:	430a      	orrs	r2, r1
 800117a:	6961      	ldr	r1, [r4, #20]
 800117c:	430a      	orrs	r2, r1
 800117e:	6861      	ldr	r1, [r4, #4]
 8001180:	3901      	subs	r1, #1
 8001182:	430a      	orrs	r2, r1
 8001184:	61da      	str	r2, [r3, #28]
 8001186:	2000      	movs	r0, #0
 8001188:	2301      	movs	r3, #1
 800118a:	6260      	str	r0, [r4, #36]	; 0x24
 800118c:	f884 3020 	strb.w	r3, [r4, #32]
 8001190:	bd38      	pop	{r3, r4, r5, pc}
 8001192:	f7ff fcdf 	bl	8000b54 <HAL_GetTick>
 8001196:	1b40      	subs	r0, r0, r5
 8001198:	280a      	cmp	r0, #10
 800119a:	d9a4      	bls.n	80010e6 <HAL_CAN_Init+0x22>
 800119c:	6a63      	ldr	r3, [r4, #36]	; 0x24
 800119e:	f443 3300 	orr.w	r3, r3, #131072	; 0x20000
 80011a2:	6263      	str	r3, [r4, #36]	; 0x24
 80011a4:	2305      	movs	r3, #5
 80011a6:	f884 3020 	strb.w	r3, [r4, #32]
 80011aa:	2001      	movs	r0, #1
 80011ac:	e7f0      	b.n	8001190 <HAL_CAN_Init+0xcc>
 80011ae:	f7ff fcd1 	bl	8000b54 <HAL_GetTick>
 80011b2:	1b40      	subs	r0, r0, r5
 80011b4:	280a      	cmp	r0, #10
 80011b6:	d9a1      	bls.n	80010fc <HAL_CAN_Init+0x38>
 80011b8:	e7f0      	b.n	800119c <HAL_CAN_Init+0xd8>

080011ba <HAL_CAN_ConfigFilter>:
 80011ba:	b570      	push	{r4, r5, r6, lr}
 80011bc:	f890 3020 	ldrb.w	r3, [r0, #32]
 80011c0:	3b01      	subs	r3, #1
 80011c2:	2b01      	cmp	r3, #1
 80011c4:	d862      	bhi.n	800128c <HAL_CAN_ConfigFilter+0xd2>
 80011c6:	6803      	ldr	r3, [r0, #0]
 80011c8:	f8d3 2200 	ldr.w	r2, [r3, #512]	; 0x200
 80011cc:	f042 0201 	orr.w	r2, r2, #1
 80011d0:	f8c3 2200 	str.w	r2, [r3, #512]	; 0x200
 80011d4:	694a      	ldr	r2, [r1, #20]
 80011d6:	f8d3 521c 	ldr.w	r5, [r3, #540]	; 0x21c
 80011da:	2401      	movs	r4, #1
 80011dc:	f002 001f 	and.w	r0, r2, #31
 80011e0:	fa04 f000 	lsl.w	r0, r4, r0
 80011e4:	ea25 0500 	bic.w	r5, r5, r0
 80011e8:	f8c3 521c 	str.w	r5, [r3, #540]	; 0x21c
 80011ec:	69cd      	ldr	r5, [r1, #28]
 80011ee:	43c4      	mvns	r4, r0
 80011f0:	bb85      	cbnz	r5, 8001254 <HAL_CAN_ConfigFilter+0x9a>
 80011f2:	f8d3 520c 	ldr.w	r5, [r3, #524]	; 0x20c
 80011f6:	68ce      	ldr	r6, [r1, #12]
 80011f8:	4025      	ands	r5, r4
 80011fa:	f8c3 520c 	str.w	r5, [r3, #524]	; 0x20c
 80011fe:	888d      	ldrh	r5, [r1, #4]
 8001200:	eb03 02c2 	add.w	r2, r3, r2, lsl #3
 8001204:	ea45 4506 	orr.w	r5, r5, r6, lsl #16
 8001208:	f8c2 5240 	str.w	r5, [r2, #576]	; 0x240
 800120c:	688e      	ldr	r6, [r1, #8]
 800120e:	880d      	ldrh	r5, [r1, #0]
 8001210:	ea45 4506 	orr.w	r5, r5, r6, lsl #16
 8001214:	f8c2 5244 	str.w	r5, [r2, #580]	; 0x244
 8001218:	698a      	ldr	r2, [r1, #24]
 800121a:	bb6a      	cbnz	r2, 8001278 <HAL_CAN_ConfigFilter+0xbe>
 800121c:	f8d3 2204 	ldr.w	r2, [r3, #516]	; 0x204
 8001220:	4022      	ands	r2, r4
 8001222:	f8c3 2204 	str.w	r2, [r3, #516]	; 0x204
 8001226:	690a      	ldr	r2, [r1, #16]
 8001228:	bb52      	cbnz	r2, 8001280 <HAL_CAN_ConfigFilter+0xc6>
 800122a:	f8d3 2214 	ldr.w	r2, [r3, #532]	; 0x214
 800122e:	4014      	ands	r4, r2
 8001230:	f8c3 4214 	str.w	r4, [r3, #532]	; 0x214
 8001234:	6a0a      	ldr	r2, [r1, #32]
 8001236:	2a01      	cmp	r2, #1
 8001238:	bf02      	ittt	eq
 800123a:	f8d3 221c 	ldreq.w	r2, [r3, #540]	; 0x21c
 800123e:	4310      	orreq	r0, r2
 8001240:	f8c3 021c 	streq.w	r0, [r3, #540]	; 0x21c
 8001244:	f8d3 2200 	ldr.w	r2, [r3, #512]	; 0x200
 8001248:	f022 0201 	bic.w	r2, r2, #1
 800124c:	f8c3 2200 	str.w	r2, [r3, #512]	; 0x200
 8001250:	2000      	movs	r0, #0
 8001252:	bd70      	pop	{r4, r5, r6, pc}
 8001254:	2d01      	cmp	r5, #1
 8001256:	d1df      	bne.n	8001218 <HAL_CAN_ConfigFilter+0x5e>
 8001258:	f8d3 520c 	ldr.w	r5, [r3, #524]	; 0x20c
 800125c:	680e      	ldr	r6, [r1, #0]
 800125e:	4305      	orrs	r5, r0
 8001260:	f8c3 520c 	str.w	r5, [r3, #524]	; 0x20c
 8001264:	888d      	ldrh	r5, [r1, #4]
 8001266:	eb03 02c2 	add.w	r2, r3, r2, lsl #3
 800126a:	ea45 4506 	orr.w	r5, r5, r6, lsl #16
 800126e:	f8c2 5240 	str.w	r5, [r2, #576]	; 0x240
 8001272:	688e      	ldr	r6, [r1, #8]
 8001274:	898d      	ldrh	r5, [r1, #12]
 8001276:	e7cb      	b.n	8001210 <HAL_CAN_ConfigFilter+0x56>
 8001278:	f8d3 2204 	ldr.w	r2, [r3, #516]	; 0x204
 800127c:	4302      	orrs	r2, r0
 800127e:	e7d0      	b.n	8001222 <HAL_CAN_ConfigFilter+0x68>
 8001280:	f8d3 2214 	ldr.w	r2, [r3, #532]	; 0x214
 8001284:	4302      	orrs	r2, r0
 8001286:	f8c3 2214 	str.w	r2, [r3, #532]	; 0x214
 800128a:	e7d3      	b.n	8001234 <HAL_CAN_ConfigFilter+0x7a>
 800128c:	6a43      	ldr	r3, [r0, #36]	; 0x24
 800128e:	f443 2380 	orr.w	r3, r3, #262144	; 0x40000
 8001292:	6243      	str	r3, [r0, #36]	; 0x24
 8001294:	2001      	movs	r0, #1
 8001296:	e7dc      	b.n	8001252 <HAL_CAN_ConfigFilter+0x98>

08001298 <HAL_CAN_Start>:
 8001298:	b570      	push	{r4, r5, r6, lr}
 800129a:	f890 3020 	ldrb.w	r3, [r0, #32]
 800129e:	2b01      	cmp	r3, #1
 80012a0:	4604      	mov	r4, r0
 80012a2:	b2dd      	uxtb	r5, r3
 80012a4:	d120      	bne.n	80012e8 <HAL_CAN_Start+0x50>
 80012a6:	6802      	ldr	r2, [r0, #0]
 80012a8:	2302      	movs	r3, #2
 80012aa:	f880 3020 	strb.w	r3, [r0, #32]
 80012ae:	6813      	ldr	r3, [r2, #0]
 80012b0:	f023 0301 	bic.w	r3, r3, #1
 80012b4:	6013      	str	r3, [r2, #0]
 80012b6:	f7ff fc4d 	bl	8000b54 <HAL_GetTick>
 80012ba:	4606      	mov	r6, r0
 80012bc:	6823      	ldr	r3, [r4, #0]
 80012be:	685b      	ldr	r3, [r3, #4]
 80012c0:	f013 0301 	ands.w	r3, r3, #1
 80012c4:	d102      	bne.n	80012cc <HAL_CAN_Start+0x34>
 80012c6:	6263      	str	r3, [r4, #36]	; 0x24
 80012c8:	461d      	mov	r5, r3
 80012ca:	e00b      	b.n	80012e4 <HAL_CAN_Start+0x4c>
 80012cc:	f7ff fc42 	bl	8000b54 <HAL_GetTick>
 80012d0:	1b80      	subs	r0, r0, r6
 80012d2:	280a      	cmp	r0, #10
 80012d4:	d9f2      	bls.n	80012bc <HAL_CAN_Start+0x24>
 80012d6:	6a63      	ldr	r3, [r4, #36]	; 0x24
 80012d8:	f443 3300 	orr.w	r3, r3, #131072	; 0x20000
 80012dc:	6263      	str	r3, [r4, #36]	; 0x24
 80012de:	2305      	movs	r3, #5
 80012e0:	f884 3020 	strb.w	r3, [r4, #32]
 80012e4:	4628      	mov	r0, r5
 80012e6:	bd70      	pop	{r4, r5, r6, pc}
 80012e8:	6a43      	ldr	r3, [r0, #36]	; 0x24
 80012ea:	f443 2300 	orr.w	r3, r3, #524288	; 0x80000
 80012ee:	6243      	str	r3, [r0, #36]	; 0x24
 80012f0:	2501      	movs	r5, #1
 80012f2:	e7f7      	b.n	80012e4 <HAL_CAN_Start+0x4c>

080012f4 <HAL_CAN_AddTxMessage>:
 80012f4:	b5f0      	push	{r4, r5, r6, r7, lr}
 80012f6:	f890 5020 	ldrb.w	r5, [r0, #32]
 80012fa:	6806      	ldr	r6, [r0, #0]
 80012fc:	3d01      	subs	r5, #1
 80012fe:	2d01      	cmp	r5, #1
 8001300:	68b4      	ldr	r4, [r6, #8]
 8001302:	d83d      	bhi.n	8001380 <HAL_CAN_AddTxMessage+0x8c>
 8001304:	f014 5fe0 	tst.w	r4, #469762048	; 0x1c000000
 8001308:	f04f 0501 	mov.w	r5, #1
 800130c:	d032      	beq.n	8001374 <HAL_CAN_AddTxMessage+0x80>
 800130e:	f3c4 6401 	ubfx	r4, r4, #24, #2
 8001312:	40a5      	lsls	r5, r4
 8001314:	601d      	str	r5, [r3, #0]
 8001316:	e9d1 0702 	ldrd	r0, r7, [r1, #8]
 800131a:	f104 0318 	add.w	r3, r4, #24
 800131e:	bb20      	cbnz	r0, 800136a <HAL_CAN_AddTxMessage+0x76>
 8001320:	6808      	ldr	r0, [r1, #0]
 8001322:	ea47 5040 	orr.w	r0, r7, r0, lsl #21
 8001326:	011b      	lsls	r3, r3, #4
 8001328:	50f0      	str	r0, [r6, r3]
 800132a:	eb06 1304 	add.w	r3, r6, r4, lsl #4
 800132e:	690d      	ldr	r5, [r1, #16]
 8001330:	f8c3 5184 	str.w	r5, [r3, #388]	; 0x184
 8001334:	7d09      	ldrb	r1, [r1, #20]
 8001336:	2901      	cmp	r1, #1
 8001338:	bf08      	it	eq
 800133a:	f8d3 1184 	ldreq.w	r1, [r3, #388]	; 0x184
 800133e:	ea4f 1004 	mov.w	r0, r4, lsl #4
 8001342:	bf04      	itt	eq
 8001344:	f441 7180 	orreq.w	r1, r1, #256	; 0x100
 8001348:	f8c3 1184 	streq.w	r1, [r3, #388]	; 0x184
 800134c:	4406      	add	r6, r0
 800134e:	6851      	ldr	r1, [r2, #4]
 8001350:	f8c6 118c 	str.w	r1, [r6, #396]	; 0x18c
 8001354:	6812      	ldr	r2, [r2, #0]
 8001356:	f8c6 2188 	str.w	r2, [r6, #392]	; 0x188
 800135a:	f8d3 2180 	ldr.w	r2, [r3, #384]	; 0x180
 800135e:	f042 0201 	orr.w	r2, r2, #1
 8001362:	f8c3 2180 	str.w	r2, [r3, #384]	; 0x180
 8001366:	2000      	movs	r0, #0
 8001368:	bdf0      	pop	{r4, r5, r6, r7, pc}
 800136a:	684d      	ldr	r5, [r1, #4]
 800136c:	4338      	orrs	r0, r7
 800136e:	ea40 00c5 	orr.w	r0, r0, r5, lsl #3
 8001372:	e7d8      	b.n	8001326 <HAL_CAN_AddTxMessage+0x32>
 8001374:	6a43      	ldr	r3, [r0, #36]	; 0x24
 8001376:	f443 1300 	orr.w	r3, r3, #2097152	; 0x200000
 800137a:	6243      	str	r3, [r0, #36]	; 0x24
 800137c:	2001      	movs	r0, #1
 800137e:	e7f3      	b.n	8001368 <HAL_CAN_AddTxMessage+0x74>
 8001380:	6a43      	ldr	r3, [r0, #36]	; 0x24
 8001382:	f443 2380 	orr.w	r3, r3, #262144	; 0x40000
 8001386:	e7f8      	b.n	800137a <HAL_CAN_AddTxMessage+0x86>

08001388 <HAL_CAN_GetRxMessage>:
 8001388:	b5f0      	push	{r4, r5, r6, r7, lr}
 800138a:	f890 4020 	ldrb.w	r4, [r0, #32]
 800138e:	3c01      	subs	r4, #1
 8001390:	2c01      	cmp	r4, #1
 8001392:	d86c      	bhi.n	800146e <HAL_CAN_GetRxMessage+0xe6>
 8001394:	6806      	ldr	r6, [r0, #0]
 8001396:	b941      	cbnz	r1, 80013aa <HAL_CAN_GetRxMessage+0x22>
 8001398:	68f4      	ldr	r4, [r6, #12]
 800139a:	07a4      	lsls	r4, r4, #30
 800139c:	d107      	bne.n	80013ae <HAL_CAN_GetRxMessage+0x26>
 800139e:	6a43      	ldr	r3, [r0, #36]	; 0x24
 80013a0:	f443 1300 	orr.w	r3, r3, #2097152	; 0x200000
 80013a4:	6243      	str	r3, [r0, #36]	; 0x24
 80013a6:	2001      	movs	r0, #1
 80013a8:	e056      	b.n	8001458 <HAL_CAN_GetRxMessage+0xd0>
 80013aa:	6934      	ldr	r4, [r6, #16]
 80013ac:	e7f5      	b.n	800139a <HAL_CAN_GetRxMessage+0x12>
 80013ae:	eb06 1501 	add.w	r5, r6, r1, lsl #4
 80013b2:	010c      	lsls	r4, r1, #4
 80013b4:	f8d5 71b0 	ldr.w	r7, [r5, #432]	; 0x1b0
 80013b8:	f007 0704 	and.w	r7, r7, #4
 80013bc:	6097      	str	r7, [r2, #8]
 80013be:	2f00      	cmp	r7, #0
 80013c0:	d14b      	bne.n	800145a <HAL_CAN_GetRxMessage+0xd2>
 80013c2:	f8d5 71b0 	ldr.w	r7, [r5, #432]	; 0x1b0
 80013c6:	0d7f      	lsrs	r7, r7, #21
 80013c8:	6017      	str	r7, [r2, #0]
 80013ca:	f8d5 71b0 	ldr.w	r7, [r5, #432]	; 0x1b0
 80013ce:	f007 0702 	and.w	r7, r7, #2
 80013d2:	60d7      	str	r7, [r2, #12]
 80013d4:	f8d5 71b4 	ldr.w	r7, [r5, #436]	; 0x1b4
 80013d8:	f007 070f 	and.w	r7, r7, #15
 80013dc:	6117      	str	r7, [r2, #16]
 80013de:	f8d5 71b4 	ldr.w	r7, [r5, #436]	; 0x1b4
 80013e2:	f8d5 51b4 	ldr.w	r5, [r5, #436]	; 0x1b4
 80013e6:	4426      	add	r6, r4
 80013e8:	f3c7 2707 	ubfx	r7, r7, #8, #8
 80013ec:	0c2d      	lsrs	r5, r5, #16
 80013ee:	6197      	str	r7, [r2, #24]
 80013f0:	6155      	str	r5, [r2, #20]
 80013f2:	f8d6 21b8 	ldr.w	r2, [r6, #440]	; 0x1b8
 80013f6:	701a      	strb	r2, [r3, #0]
 80013f8:	6802      	ldr	r2, [r0, #0]
 80013fa:	4422      	add	r2, r4
 80013fc:	f8d2 21b8 	ldr.w	r2, [r2, #440]	; 0x1b8
 8001400:	0a12      	lsrs	r2, r2, #8
 8001402:	705a      	strb	r2, [r3, #1]
 8001404:	6802      	ldr	r2, [r0, #0]
 8001406:	4422      	add	r2, r4
 8001408:	f8d2 21b8 	ldr.w	r2, [r2, #440]	; 0x1b8
 800140c:	0c12      	lsrs	r2, r2, #16
 800140e:	709a      	strb	r2, [r3, #2]
 8001410:	6802      	ldr	r2, [r0, #0]
 8001412:	4422      	add	r2, r4
 8001414:	f8d2 21b8 	ldr.w	r2, [r2, #440]	; 0x1b8
 8001418:	0e12      	lsrs	r2, r2, #24
 800141a:	70da      	strb	r2, [r3, #3]
 800141c:	6802      	ldr	r2, [r0, #0]
 800141e:	4422      	add	r2, r4
 8001420:	f8d2 21bc 	ldr.w	r2, [r2, #444]	; 0x1bc
 8001424:	711a      	strb	r2, [r3, #4]
 8001426:	6802      	ldr	r2, [r0, #0]
 8001428:	4422      	add	r2, r4
 800142a:	f8d2 21bc 	ldr.w	r2, [r2, #444]	; 0x1bc
 800142e:	0a12      	lsrs	r2, r2, #8
 8001430:	715a      	strb	r2, [r3, #5]
 8001432:	6802      	ldr	r2, [r0, #0]
 8001434:	4422      	add	r2, r4
 8001436:	f8d2 21bc 	ldr.w	r2, [r2, #444]	; 0x1bc
 800143a:	0c12      	lsrs	r2, r2, #16
 800143c:	719a      	strb	r2, [r3, #6]
 800143e:	6802      	ldr	r2, [r0, #0]
 8001440:	4422      	add	r2, r4
 8001442:	f8d2 21bc 	ldr.w	r2, [r2, #444]	; 0x1bc
 8001446:	0e12      	lsrs	r2, r2, #24
 8001448:	71da      	strb	r2, [r3, #7]
 800144a:	6803      	ldr	r3, [r0, #0]
 800144c:	b951      	cbnz	r1, 8001464 <HAL_CAN_GetRxMessage+0xdc>
 800144e:	68da      	ldr	r2, [r3, #12]
 8001450:	f042 0220 	orr.w	r2, r2, #32
 8001454:	60da      	str	r2, [r3, #12]
 8001456:	2000      	movs	r0, #0
 8001458:	bdf0      	pop	{r4, r5, r6, r7, pc}
 800145a:	f8d5 71b0 	ldr.w	r7, [r5, #432]	; 0x1b0
 800145e:	08ff      	lsrs	r7, r7, #3
 8001460:	6057      	str	r7, [r2, #4]
 8001462:	e7b2      	b.n	80013ca <HAL_CAN_GetRxMessage+0x42>
 8001464:	691a      	ldr	r2, [r3, #16]
 8001466:	f042 0220 	orr.w	r2, r2, #32
 800146a:	611a      	str	r2, [r3, #16]
 800146c:	e7f3      	b.n	8001456 <HAL_CAN_GetRxMessage+0xce>
 800146e:	6a43      	ldr	r3, [r0, #36]	; 0x24
 8001470:	f443 2380 	orr.w	r3, r3, #262144	; 0x40000
 8001474:	e796      	b.n	80013a4 <HAL_CAN_GetRxMessage+0x1c>

08001476 <HAL_CAN_ActivateNotification>:
 8001476:	f890 3020 	ldrb.w	r3, [r0, #32]
 800147a:	3b01      	subs	r3, #1
 800147c:	2b01      	cmp	r3, #1
 800147e:	d805      	bhi.n	800148c <HAL_CAN_ActivateNotification+0x16>
 8001480:	6802      	ldr	r2, [r0, #0]
 8001482:	6953      	ldr	r3, [r2, #20]
 8001484:	4319      	orrs	r1, r3
 8001486:	6151      	str	r1, [r2, #20]
 8001488:	2000      	movs	r0, #0
 800148a:	4770      	bx	lr
 800148c:	6a43      	ldr	r3, [r0, #36]	; 0x24
 800148e:	f443 2380 	orr.w	r3, r3, #262144	; 0x40000
 8001492:	6243      	str	r3, [r0, #36]	; 0x24
 8001494:	2001      	movs	r0, #1
 8001496:	4770      	bx	lr

08001498 <HAL_CAN_TxMailbox0CompleteCallback>:
 8001498:	4770      	bx	lr

0800149a <HAL_CAN_TxMailbox1CompleteCallback>:
 800149a:	4770      	bx	lr

0800149c <HAL_CAN_TxMailbox2CompleteCallback>:
 800149c:	4770      	bx	lr

0800149e <HAL_CAN_TxMailbox0AbortCallback>:
 800149e:	4770      	bx	lr

080014a0 <HAL_CAN_TxMailbox1AbortCallback>:
 80014a0:	4770      	bx	lr

080014a2 <HAL_CAN_TxMailbox2AbortCallback>:
 80014a2:	4770      	bx	lr

080014a4 <HAL_CAN_RxFifo0FullCallback>:
 80014a4:	4770      	bx	lr

080014a6 <HAL_CAN_RxFifo1MsgPendingCallback>:
 80014a6:	4770      	bx	lr

080014a8 <HAL_CAN_RxFifo1FullCallback>:
 80014a8:	4770      	bx	lr

080014aa <HAL_CAN_SleepCallback>:
 80014aa:	4770      	bx	lr

080014ac <HAL_CAN_WakeUpFromRxMsgCallback>:
 80014ac:	4770      	bx	lr

080014ae <HAL_CAN_ErrorCallback>:
 80014ae:	4770      	bx	lr

080014b0 <HAL_CAN_IRQHandler>:
 80014b0:	e92d 4ff8 	stmdb	sp!, {r3, r4, r5, r6, r7, r8, r9, sl, fp, lr}
 80014b4:	6803      	ldr	r3, [r0, #0]
 80014b6:	695e      	ldr	r6, [r3, #20]
 80014b8:	f8d3 9004 	ldr.w	r9, [r3, #4]
 80014bc:	689f      	ldr	r7, [r3, #8]
 80014be:	f8d3 b00c 	ldr.w	fp, [r3, #12]
 80014c2:	f8d3 a010 	ldr.w	sl, [r3, #16]
 80014c6:	f8d3 8018 	ldr.w	r8, [r3, #24]
 80014ca:	f016 0401 	ands.w	r4, r6, #1
 80014ce:	4605      	mov	r5, r0
 80014d0:	d022      	beq.n	8001518 <HAL_CAN_IRQHandler+0x68>
 80014d2:	f017 0401 	ands.w	r4, r7, #1
 80014d6:	d007      	beq.n	80014e8 <HAL_CAN_IRQHandler+0x38>
 80014d8:	2201      	movs	r2, #1
 80014da:	07b9      	lsls	r1, r7, #30
 80014dc:	609a      	str	r2, [r3, #8]
 80014de:	f140 80a5 	bpl.w	800162c <HAL_CAN_IRQHandler+0x17c>
 80014e2:	f7ff ffd9 	bl	8001498 <HAL_CAN_TxMailbox0CompleteCallback>
 80014e6:	2400      	movs	r4, #0
 80014e8:	05fb      	lsls	r3, r7, #23
 80014ea:	d509      	bpl.n	8001500 <HAL_CAN_IRQHandler+0x50>
 80014ec:	682b      	ldr	r3, [r5, #0]
 80014ee:	f44f 7280 	mov.w	r2, #256	; 0x100
 80014f2:	05b8      	lsls	r0, r7, #22
 80014f4:	609a      	str	r2, [r3, #8]
 80014f6:	f140 80a7 	bpl.w	8001648 <HAL_CAN_IRQHandler+0x198>
 80014fa:	4628      	mov	r0, r5
 80014fc:	f7ff ffcd 	bl	800149a <HAL_CAN_TxMailbox1CompleteCallback>
 8001500:	03fb      	lsls	r3, r7, #15
 8001502:	d509      	bpl.n	8001518 <HAL_CAN_IRQHandler+0x68>
 8001504:	682b      	ldr	r3, [r5, #0]
 8001506:	f44f 3280 	mov.w	r2, #65536	; 0x10000
 800150a:	03b8      	lsls	r0, r7, #14
 800150c:	609a      	str	r2, [r3, #8]
 800150e:	f140 80a9 	bpl.w	8001664 <HAL_CAN_IRQHandler+0x1b4>
 8001512:	4628      	mov	r0, r5
 8001514:	f7ff ffc2 	bl	800149c <HAL_CAN_TxMailbox2CompleteCallback>
 8001518:	0733      	lsls	r3, r6, #28
 800151a:	d507      	bpl.n	800152c <HAL_CAN_IRQHandler+0x7c>
 800151c:	f01b 0f10 	tst.w	fp, #16
 8001520:	bf1f      	itttt	ne
 8001522:	682b      	ldrne	r3, [r5, #0]
 8001524:	2210      	movne	r2, #16
 8001526:	f444 7400 	orrne.w	r4, r4, #512	; 0x200
 800152a:	60da      	strne	r2, [r3, #12]
 800152c:	0777      	lsls	r7, r6, #29
 800152e:	d508      	bpl.n	8001542 <HAL_CAN_IRQHandler+0x92>
 8001530:	f01b 0f08 	tst.w	fp, #8
 8001534:	d005      	beq.n	8001542 <HAL_CAN_IRQHandler+0x92>
 8001536:	682b      	ldr	r3, [r5, #0]
 8001538:	2208      	movs	r2, #8
 800153a:	60da      	str	r2, [r3, #12]
 800153c:	4628      	mov	r0, r5
 800153e:	f7ff ffb1 	bl	80014a4 <HAL_CAN_RxFifo0FullCallback>
 8001542:	07b0      	lsls	r0, r6, #30
 8001544:	d506      	bpl.n	8001554 <HAL_CAN_IRQHandler+0xa4>
 8001546:	682b      	ldr	r3, [r5, #0]
 8001548:	68db      	ldr	r3, [r3, #12]
 800154a:	0799      	lsls	r1, r3, #30
 800154c:	d002      	beq.n	8001554 <HAL_CAN_IRQHandler+0xa4>
 800154e:	4628      	mov	r0, r5
 8001550:	f7ff f92c 	bl	80007ac <HAL_CAN_RxFifo0MsgPendingCallback>
 8001554:	0672      	lsls	r2, r6, #25
 8001556:	d507      	bpl.n	8001568 <HAL_CAN_IRQHandler+0xb8>
 8001558:	f01a 0f10 	tst.w	sl, #16
 800155c:	bf1f      	itttt	ne
 800155e:	682b      	ldrne	r3, [r5, #0]
 8001560:	2210      	movne	r2, #16
 8001562:	f444 6480 	orrne.w	r4, r4, #1024	; 0x400
 8001566:	611a      	strne	r2, [r3, #16]
 8001568:	06b3      	lsls	r3, r6, #26
 800156a:	d508      	bpl.n	800157e <HAL_CAN_IRQHandler+0xce>
 800156c:	f01a 0f08 	tst.w	sl, #8
 8001570:	d005      	beq.n	800157e <HAL_CAN_IRQHandler+0xce>
 8001572:	682b      	ldr	r3, [r5, #0]
 8001574:	2208      	movs	r2, #8
 8001576:	611a      	str	r2, [r3, #16]
 8001578:	4628      	mov	r0, r5
 800157a:	f7ff ff95 	bl	80014a8 <HAL_CAN_RxFifo1FullCallback>
 800157e:	06f7      	lsls	r7, r6, #27
 8001580:	d506      	bpl.n	8001590 <HAL_CAN_IRQHandler+0xe0>
 8001582:	682b      	ldr	r3, [r5, #0]
 8001584:	691b      	ldr	r3, [r3, #16]
 8001586:	0798      	lsls	r0, r3, #30
 8001588:	d002      	beq.n	8001590 <HAL_CAN_IRQHandler+0xe0>
 800158a:	4628      	mov	r0, r5
 800158c:	f7ff ff8b 	bl	80014a6 <HAL_CAN_RxFifo1MsgPendingCallback>
 8001590:	03b1      	lsls	r1, r6, #14
 8001592:	d508      	bpl.n	80015a6 <HAL_CAN_IRQHandler+0xf6>
 8001594:	f019 0f10 	tst.w	r9, #16
 8001598:	d005      	beq.n	80015a6 <HAL_CAN_IRQHandler+0xf6>
 800159a:	682b      	ldr	r3, [r5, #0]
 800159c:	2210      	movs	r2, #16
 800159e:	605a      	str	r2, [r3, #4]
 80015a0:	4628      	mov	r0, r5
 80015a2:	f7ff ff82 	bl	80014aa <HAL_CAN_SleepCallback>
 80015a6:	03f2      	lsls	r2, r6, #15
 80015a8:	d508      	bpl.n	80015bc <HAL_CAN_IRQHandler+0x10c>
 80015aa:	f019 0f08 	tst.w	r9, #8
 80015ae:	d005      	beq.n	80015bc <HAL_CAN_IRQHandler+0x10c>
 80015b0:	682b      	ldr	r3, [r5, #0]
 80015b2:	2208      	movs	r2, #8
 80015b4:	605a      	str	r2, [r3, #4]
 80015b6:	4628      	mov	r0, r5
 80015b8:	f7ff ff78 	bl	80014ac <HAL_CAN_WakeUpFromRxMsgCallback>
 80015bc:	0433      	lsls	r3, r6, #16
 80015be:	d52c      	bpl.n	800161a <HAL_CAN_IRQHandler+0x16a>
 80015c0:	f019 0f04 	tst.w	r9, #4
 80015c4:	682a      	ldr	r2, [r5, #0]
 80015c6:	d026      	beq.n	8001616 <HAL_CAN_IRQHandler+0x166>
 80015c8:	05f7      	lsls	r7, r6, #23
 80015ca:	d504      	bpl.n	80015d6 <HAL_CAN_IRQHandler+0x126>
 80015cc:	f018 0f01 	tst.w	r8, #1
 80015d0:	bf18      	it	ne
 80015d2:	f044 0401 	orrne.w	r4, r4, #1
 80015d6:	05b0      	lsls	r0, r6, #22
 80015d8:	d504      	bpl.n	80015e4 <HAL_CAN_IRQHandler+0x134>
 80015da:	f018 0f02 	tst.w	r8, #2
 80015de:	bf18      	it	ne
 80015e0:	f044 0402 	orrne.w	r4, r4, #2
 80015e4:	0571      	lsls	r1, r6, #21
 80015e6:	d504      	bpl.n	80015f2 <HAL_CAN_IRQHandler+0x142>
 80015e8:	f018 0f04 	tst.w	r8, #4
 80015ec:	bf18      	it	ne
 80015ee:	f044 0404 	orrne.w	r4, r4, #4
 80015f2:	0533      	lsls	r3, r6, #20
 80015f4:	d50f      	bpl.n	8001616 <HAL_CAN_IRQHandler+0x166>
 80015f6:	f018 0370 	ands.w	r3, r8, #112	; 0x70
 80015fa:	d00c      	beq.n	8001616 <HAL_CAN_IRQHandler+0x166>
 80015fc:	2b40      	cmp	r3, #64	; 0x40
 80015fe:	d04f      	beq.n	80016a0 <HAL_CAN_IRQHandler+0x1f0>
 8001600:	d83e      	bhi.n	8001680 <HAL_CAN_IRQHandler+0x1d0>
 8001602:	2b20      	cmp	r3, #32
 8001604:	d046      	beq.n	8001694 <HAL_CAN_IRQHandler+0x1e4>
 8001606:	2b30      	cmp	r3, #48	; 0x30
 8001608:	d047      	beq.n	800169a <HAL_CAN_IRQHandler+0x1ea>
 800160a:	2b10      	cmp	r3, #16
 800160c:	d03f      	beq.n	800168e <HAL_CAN_IRQHandler+0x1de>
 800160e:	6993      	ldr	r3, [r2, #24]
 8001610:	f023 0370 	bic.w	r3, r3, #112	; 0x70
 8001614:	6193      	str	r3, [r2, #24]
 8001616:	2304      	movs	r3, #4
 8001618:	6053      	str	r3, [r2, #4]
 800161a:	b12c      	cbz	r4, 8001628 <HAL_CAN_IRQHandler+0x178>
 800161c:	6a6b      	ldr	r3, [r5, #36]	; 0x24
 800161e:	431c      	orrs	r4, r3
 8001620:	626c      	str	r4, [r5, #36]	; 0x24
 8001622:	4628      	mov	r0, r5
 8001624:	f7ff ff43 	bl	80014ae <HAL_CAN_ErrorCallback>
 8001628:	e8bd 8ff8 	ldmia.w	sp!, {r3, r4, r5, r6, r7, r8, r9, sl, fp, pc}
 800162c:	077a      	lsls	r2, r7, #29
 800162e:	d405      	bmi.n	800163c <HAL_CAN_IRQHandler+0x18c>
 8001630:	f017 0408 	ands.w	r4, r7, #8
 8001634:	d105      	bne.n	8001642 <HAL_CAN_IRQHandler+0x192>
 8001636:	f7ff ff32 	bl	800149e <HAL_CAN_TxMailbox0AbortCallback>
 800163a:	e755      	b.n	80014e8 <HAL_CAN_IRQHandler+0x38>
 800163c:	f44f 6400 	mov.w	r4, #2048	; 0x800
 8001640:	e752      	b.n	80014e8 <HAL_CAN_IRQHandler+0x38>
 8001642:	f44f 5480 	mov.w	r4, #4096	; 0x1000
 8001646:	e74f      	b.n	80014e8 <HAL_CAN_IRQHandler+0x38>
 8001648:	0579      	lsls	r1, r7, #21
 800164a:	d502      	bpl.n	8001652 <HAL_CAN_IRQHandler+0x1a2>
 800164c:	f444 5400 	orr.w	r4, r4, #8192	; 0x2000
 8001650:	e756      	b.n	8001500 <HAL_CAN_IRQHandler+0x50>
 8001652:	053a      	lsls	r2, r7, #20
 8001654:	d502      	bpl.n	800165c <HAL_CAN_IRQHandler+0x1ac>
 8001656:	f444 4480 	orr.w	r4, r4, #16384	; 0x4000
 800165a:	e751      	b.n	8001500 <HAL_CAN_IRQHandler+0x50>
 800165c:	4628      	mov	r0, r5
 800165e:	f7ff ff1f 	bl	80014a0 <HAL_CAN_TxMailbox1AbortCallback>
 8001662:	e74d      	b.n	8001500 <HAL_CAN_IRQHandler+0x50>
 8001664:	0379      	lsls	r1, r7, #13
 8001666:	d502      	bpl.n	800166e <HAL_CAN_IRQHandler+0x1be>
 8001668:	f444 4400 	orr.w	r4, r4, #32768	; 0x8000
 800166c:	e754      	b.n	8001518 <HAL_CAN_IRQHandler+0x68>
 800166e:	033a      	lsls	r2, r7, #12
 8001670:	d502      	bpl.n	8001678 <HAL_CAN_IRQHandler+0x1c8>
 8001672:	f444 3480 	orr.w	r4, r4, #65536	; 0x10000
 8001676:	e74f      	b.n	8001518 <HAL_CAN_IRQHandler+0x68>
 8001678:	4628      	mov	r0, r5
 800167a:	f7ff ff12 	bl	80014a2 <HAL_CAN_TxMailbox2AbortCallback>
 800167e:	e74b      	b.n	8001518 <HAL_CAN_IRQHandler+0x68>
 8001680:	2b50      	cmp	r3, #80	; 0x50
 8001682:	d010      	beq.n	80016a6 <HAL_CAN_IRQHandler+0x1f6>
 8001684:	2b60      	cmp	r3, #96	; 0x60
 8001686:	d1c2      	bne.n	800160e <HAL_CAN_IRQHandler+0x15e>
 8001688:	f444 7480 	orr.w	r4, r4, #256	; 0x100
 800168c:	e7bf      	b.n	800160e <HAL_CAN_IRQHandler+0x15e>
 800168e:	f044 0408 	orr.w	r4, r4, #8
 8001692:	e7bc      	b.n	800160e <HAL_CAN_IRQHandler+0x15e>
 8001694:	f044 0410 	orr.w	r4, r4, #16
 8001698:	e7b9      	b.n	800160e <HAL_CAN_IRQHandler+0x15e>
 800169a:	f044 0420 	orr.w	r4, r4, #32
 800169e:	e7b6      	b.n	800160e <HAL_CAN_IRQHandler+0x15e>
 80016a0:	f044 0440 	orr.w	r4, r4, #64	; 0x40
 80016a4:	e7b3      	b.n	800160e <HAL_CAN_IRQHandler+0x15e>
 80016a6:	f044 0480 	orr.w	r4, r4, #128	; 0x80
 80016aa:	e7b0      	b.n	800160e <HAL_CAN_IRQHandler+0x15e>

080016ac <HAL_NVIC_SetPriorityGrouping>:
 80016ac:	4907      	ldr	r1, [pc, #28]	; (80016cc <HAL_NVIC_SetPriorityGrouping+0x20>)
 80016ae:	68ca      	ldr	r2, [r1, #12]
 80016b0:	f422 62e0 	bic.w	r2, r2, #1792	; 0x700
 80016b4:	0203      	lsls	r3, r0, #8
 80016b6:	0412      	lsls	r2, r2, #16
 80016b8:	f403 63e0 	and.w	r3, r3, #1792	; 0x700
 80016bc:	0c12      	lsrs	r2, r2, #16
 80016be:	4313      	orrs	r3, r2
 80016c0:	f043 63bf 	orr.w	r3, r3, #100139008	; 0x5f80000
 80016c4:	f443 3300 	orr.w	r3, r3, #131072	; 0x20000
 80016c8:	60cb      	str	r3, [r1, #12]
 80016ca:	4770      	bx	lr
 80016cc:	e000ed00 	.word	0xe000ed00

080016d0 <HAL_NVIC_SetPriority>:
 80016d0:	4b16      	ldr	r3, [pc, #88]	; (800172c <HAL_NVIC_SetPriority+0x5c>)
 80016d2:	b530      	push	{r4, r5, lr}
 80016d4:	68dc      	ldr	r4, [r3, #12]
 80016d6:	f3c4 2402 	ubfx	r4, r4, #8, #3
 80016da:	f1c4 0507 	rsb	r5, r4, #7
 80016de:	1d23      	adds	r3, r4, #4
 80016e0:	2d04      	cmp	r5, #4
 80016e2:	bf28      	it	cs
 80016e4:	2504      	movcs	r5, #4
 80016e6:	2b06      	cmp	r3, #6
 80016e8:	f04f 33ff 	mov.w	r3, #4294967295
 80016ec:	bf8c      	ite	hi
 80016ee:	3c03      	subhi	r4, #3
 80016f0:	2400      	movls	r4, #0
 80016f2:	fa03 f505 	lsl.w	r5, r3, r5
 80016f6:	ea21 0105 	bic.w	r1, r1, r5
 80016fa:	40a3      	lsls	r3, r4
 80016fc:	ea22 0203 	bic.w	r2, r2, r3
 8001700:	40a1      	lsls	r1, r4
 8001702:	2800      	cmp	r0, #0
 8001704:	ea41 0302 	orr.w	r3, r1, r2
 8001708:	bfac      	ite	ge
 800170a:	f100 4060 	addge.w	r0, r0, #3758096384	; 0xe0000000
 800170e:	4a08      	ldrlt	r2, [pc, #32]	; (8001730 <HAL_NVIC_SetPriority+0x60>)
 8001710:	ea4f 1303 	mov.w	r3, r3, lsl #4
 8001714:	bfb8      	it	lt
 8001716:	f000 000f 	andlt.w	r0, r0, #15
 800171a:	b2db      	uxtb	r3, r3
 800171c:	bfaa      	itet	ge
 800171e:	f500 4061 	addge.w	r0, r0, #57600	; 0xe100
 8001722:	5413      	strblt	r3, [r2, r0]
 8001724:	f880 3300 	strbge.w	r3, [r0, #768]	; 0x300
 8001728:	bd30      	pop	{r4, r5, pc}
 800172a:	bf00      	nop
 800172c:	e000ed00 	.word	0xe000ed00
 8001730:	e000ed14 	.word	0xe000ed14

08001734 <HAL_NVIC_EnableIRQ>:
 8001734:	2800      	cmp	r0, #0
 8001736:	db08      	blt.n	800174a <HAL_NVIC_EnableIRQ+0x16>
 8001738:	2301      	movs	r3, #1
 800173a:	0942      	lsrs	r2, r0, #5
 800173c:	f000 001f 	and.w	r0, r0, #31
 8001740:	fa03 f000 	lsl.w	r0, r3, r0
 8001744:	4b01      	ldr	r3, [pc, #4]	; (800174c <HAL_NVIC_EnableIRQ+0x18>)
 8001746:	f843 0022 	str.w	r0, [r3, r2, lsl #2]
 800174a:	4770      	bx	lr
 800174c:	e000e100 	.word	0xe000e100

08001750 <HAL_SYSTICK_Config>:
 8001750:	3801      	subs	r0, #1
 8001752:	f1b0 7f80 	cmp.w	r0, #16777216	; 0x1000000
 8001756:	d20b      	bcs.n	8001770 <HAL_SYSTICK_Config+0x20>
 8001758:	f04f 23e0 	mov.w	r3, #3758153728	; 0xe000e000
 800175c:	4a05      	ldr	r2, [pc, #20]	; (8001774 <HAL_SYSTICK_Config+0x24>)
 800175e:	6158      	str	r0, [r3, #20]
 8001760:	21f0      	movs	r1, #240	; 0xf0
 8001762:	f882 1023 	strb.w	r1, [r2, #35]	; 0x23
 8001766:	2000      	movs	r0, #0
 8001768:	2207      	movs	r2, #7
 800176a:	6198      	str	r0, [r3, #24]
 800176c:	611a      	str	r2, [r3, #16]
 800176e:	4770      	bx	lr
 8001770:	2001      	movs	r0, #1
 8001772:	4770      	bx	lr
 8001774:	e000ed00 	.word	0xe000ed00

08001778 <HAL_GPIO_Init>:
 8001778:	e92d 4ff7 	stmdb	sp!, {r0, r1, r2, r4, r5, r6, r7, r8, r9, sl, fp, lr}
 800177c:	f8df 917c 	ldr.w	r9, [pc, #380]	; 80018fc <HAL_GPIO_Init+0x184>
 8001780:	4c5c      	ldr	r4, [pc, #368]	; (80018f4 <HAL_GPIO_Init+0x17c>)
 8001782:	2300      	movs	r3, #0
 8001784:	680a      	ldr	r2, [r1, #0]
 8001786:	fa32 f503 	lsrs.w	r5, r2, r3
 800178a:	d102      	bne.n	8001792 <HAL_GPIO_Init+0x1a>
 800178c:	b003      	add	sp, #12
 800178e:	e8bd 8ff0 	ldmia.w	sp!, {r4, r5, r6, r7, r8, r9, sl, fp, pc}
 8001792:	2501      	movs	r5, #1
 8001794:	fa05 fe03 	lsl.w	lr, r5, r3
 8001798:	ea1e 0202 	ands.w	r2, lr, r2
 800179c:	f000 80a0 	beq.w	80018e0 <HAL_GPIO_Init+0x168>
 80017a0:	684e      	ldr	r6, [r1, #4]
 80017a2:	2703      	movs	r7, #3
 80017a4:	f006 0503 	and.w	r5, r6, #3
 80017a8:	ea4f 0843 	mov.w	r8, r3, lsl #1
 80017ac:	fa07 fc08 	lsl.w	ip, r7, r8
 80017b0:	1e6f      	subs	r7, r5, #1
 80017b2:	2f01      	cmp	r7, #1
 80017b4:	ea6f 0c0c 	mvn.w	ip, ip
 80017b8:	d834      	bhi.n	8001824 <HAL_GPIO_Init+0xac>
 80017ba:	6887      	ldr	r7, [r0, #8]
 80017bc:	ea07 0a0c 	and.w	sl, r7, ip
 80017c0:	68cf      	ldr	r7, [r1, #12]
 80017c2:	fa07 f708 	lsl.w	r7, r7, r8
 80017c6:	ea47 070a 	orr.w	r7, r7, sl
 80017ca:	6087      	str	r7, [r0, #8]
 80017cc:	6847      	ldr	r7, [r0, #4]
 80017ce:	ea27 0e0e 	bic.w	lr, r7, lr
 80017d2:	f3c6 1700 	ubfx	r7, r6, #4, #1
 80017d6:	409f      	lsls	r7, r3
 80017d8:	ea47 070e 	orr.w	r7, r7, lr
 80017dc:	6047      	str	r7, [r0, #4]
 80017de:	68c7      	ldr	r7, [r0, #12]
 80017e0:	ea07 0e0c 	and.w	lr, r7, ip
 80017e4:	688f      	ldr	r7, [r1, #8]
 80017e6:	fa07 f708 	lsl.w	r7, r7, r8
 80017ea:	ea47 070e 	orr.w	r7, r7, lr
 80017ee:	2d02      	cmp	r5, #2
 80017f0:	60c7      	str	r7, [r0, #12]
 80017f2:	d119      	bne.n	8001828 <HAL_GPIO_Init+0xb0>
 80017f4:	ea4f 0ad3 	mov.w	sl, r3, lsr #3
 80017f8:	eb00 0a8a 	add.w	sl, r0, sl, lsl #2
 80017fc:	f003 0b07 	and.w	fp, r3, #7
 8001800:	f8da 7020 	ldr.w	r7, [sl, #32]
 8001804:	ea4f 0b8b 	mov.w	fp, fp, lsl #2
 8001808:	f04f 0e0f 	mov.w	lr, #15
 800180c:	fa0e fe0b 	lsl.w	lr, lr, fp
 8001810:	ea27 0e0e 	bic.w	lr, r7, lr
 8001814:	690f      	ldr	r7, [r1, #16]
 8001816:	fa07 f70b 	lsl.w	r7, r7, fp
 800181a:	ea47 070e 	orr.w	r7, r7, lr
 800181e:	f8ca 7020 	str.w	r7, [sl, #32]
 8001822:	e001      	b.n	8001828 <HAL_GPIO_Init+0xb0>
 8001824:	2d03      	cmp	r5, #3
 8001826:	d1da      	bne.n	80017de <HAL_GPIO_Init+0x66>
 8001828:	6807      	ldr	r7, [r0, #0]
 800182a:	fa05 f508 	lsl.w	r5, r5, r8
 800182e:	ea07 070c 	and.w	r7, r7, ip
 8001832:	432f      	orrs	r7, r5
 8001834:	f416 3f40 	tst.w	r6, #196608	; 0x30000
 8001838:	6007      	str	r7, [r0, #0]
 800183a:	d051      	beq.n	80018e0 <HAL_GPIO_Init+0x168>
 800183c:	f8d9 5060 	ldr.w	r5, [r9, #96]	; 0x60
 8001840:	f045 0501 	orr.w	r5, r5, #1
 8001844:	f8c9 5060 	str.w	r5, [r9, #96]	; 0x60
 8001848:	f8d9 5060 	ldr.w	r5, [r9, #96]	; 0x60
 800184c:	f023 0703 	bic.w	r7, r3, #3
 8001850:	f107 4780 	add.w	r7, r7, #1073741824	; 0x40000000
 8001854:	f005 0501 	and.w	r5, r5, #1
 8001858:	f507 3780 	add.w	r7, r7, #65536	; 0x10000
 800185c:	9501      	str	r5, [sp, #4]
 800185e:	f003 0e03 	and.w	lr, r3, #3
 8001862:	9d01      	ldr	r5, [sp, #4]
 8001864:	68bd      	ldr	r5, [r7, #8]
 8001866:	ea4f 0e8e 	mov.w	lr, lr, lsl #2
 800186a:	f04f 0c0f 	mov.w	ip, #15
 800186e:	fa0c fc0e 	lsl.w	ip, ip, lr
 8001872:	f1b0 4f90 	cmp.w	r0, #1207959552	; 0x48000000
 8001876:	ea25 0c0c 	bic.w	ip, r5, ip
 800187a:	d033      	beq.n	80018e4 <HAL_GPIO_Init+0x16c>
 800187c:	4d1e      	ldr	r5, [pc, #120]	; (80018f8 <HAL_GPIO_Init+0x180>)
 800187e:	42a8      	cmp	r0, r5
 8001880:	d032      	beq.n	80018e8 <HAL_GPIO_Init+0x170>
 8001882:	f505 6580 	add.w	r5, r5, #1024	; 0x400
 8001886:	42a8      	cmp	r0, r5
 8001888:	d030      	beq.n	80018ec <HAL_GPIO_Init+0x174>
 800188a:	f505 6580 	add.w	r5, r5, #1024	; 0x400
 800188e:	42a8      	cmp	r0, r5
 8001890:	d02e      	beq.n	80018f0 <HAL_GPIO_Init+0x178>
 8001892:	f505 6580 	add.w	r5, r5, #1024	; 0x400
 8001896:	42a8      	cmp	r0, r5
 8001898:	bf0c      	ite	eq
 800189a:	2504      	moveq	r5, #4
 800189c:	2507      	movne	r5, #7
 800189e:	fa05 f50e 	lsl.w	r5, r5, lr
 80018a2:	ea45 050c 	orr.w	r5, r5, ip
 80018a6:	60bd      	str	r5, [r7, #8]
 80018a8:	68a5      	ldr	r5, [r4, #8]
 80018aa:	43d7      	mvns	r7, r2
 80018ac:	f416 1f80 	tst.w	r6, #1048576	; 0x100000
 80018b0:	bf0c      	ite	eq
 80018b2:	403d      	andeq	r5, r7
 80018b4:	4315      	orrne	r5, r2
 80018b6:	60a5      	str	r5, [r4, #8]
 80018b8:	68e5      	ldr	r5, [r4, #12]
 80018ba:	f416 1f00 	tst.w	r6, #2097152	; 0x200000
 80018be:	bf0c      	ite	eq
 80018c0:	403d      	andeq	r5, r7
 80018c2:	4315      	orrne	r5, r2
 80018c4:	60e5      	str	r5, [r4, #12]
 80018c6:	6865      	ldr	r5, [r4, #4]
 80018c8:	f416 3f00 	tst.w	r6, #131072	; 0x20000
 80018cc:	bf0c      	ite	eq
 80018ce:	403d      	andeq	r5, r7
 80018d0:	4315      	orrne	r5, r2
 80018d2:	6065      	str	r5, [r4, #4]
 80018d4:	6825      	ldr	r5, [r4, #0]
 80018d6:	03f6      	lsls	r6, r6, #15
 80018d8:	bf54      	ite	pl
 80018da:	403d      	andpl	r5, r7
 80018dc:	4315      	orrmi	r5, r2
 80018de:	6025      	str	r5, [r4, #0]
 80018e0:	3301      	adds	r3, #1
 80018e2:	e74f      	b.n	8001784 <HAL_GPIO_Init+0xc>
 80018e4:	2500      	movs	r5, #0
 80018e6:	e7da      	b.n	800189e <HAL_GPIO_Init+0x126>
 80018e8:	2501      	movs	r5, #1
 80018ea:	e7d8      	b.n	800189e <HAL_GPIO_Init+0x126>
 80018ec:	2502      	movs	r5, #2
 80018ee:	e7d6      	b.n	800189e <HAL_GPIO_Init+0x126>
 80018f0:	2503      	movs	r5, #3
 80018f2:	e7d4      	b.n	800189e <HAL_GPIO_Init+0x126>
 80018f4:	40010400 	.word	0x40010400
 80018f8:	48000400 	.word	0x48000400
 80018fc:	40021000 	.word	0x40021000

08001900 <HAL_GPIO_WritePin>:
 8001900:	b10a      	cbz	r2, 8001906 <HAL_GPIO_WritePin+0x6>
 8001902:	6181      	str	r1, [r0, #24]
 8001904:	4770      	bx	lr
 8001906:	6281      	str	r1, [r0, #40]	; 0x28
 8001908:	4770      	bx	lr

0800190a <HAL_GPIO_TogglePin>:
 800190a:	6943      	ldr	r3, [r0, #20]
 800190c:	ea01 0203 	and.w	r2, r1, r3
 8001910:	ea21 0103 	bic.w	r1, r1, r3
 8001914:	ea41 4102 	orr.w	r1, r1, r2, lsl #16
 8001918:	6181      	str	r1, [r0, #24]
 800191a:	4770      	bx	lr

0800191c <I2C_Flush_TXDR>:
 800191c:	6803      	ldr	r3, [r0, #0]
 800191e:	699a      	ldr	r2, [r3, #24]
 8001920:	0791      	lsls	r1, r2, #30
 8001922:	bf44      	itt	mi
 8001924:	2200      	movmi	r2, #0
 8001926:	629a      	strmi	r2, [r3, #40]	; 0x28
 8001928:	699a      	ldr	r2, [r3, #24]
 800192a:	07d2      	lsls	r2, r2, #31
 800192c:	bf5e      	ittt	pl
 800192e:	699a      	ldrpl	r2, [r3, #24]
 8001930:	f042 0201 	orrpl.w	r2, r2, #1
 8001934:	619a      	strpl	r2, [r3, #24]
 8001936:	4770      	bx	lr

08001938 <I2C_TransferConfig>:
 8001938:	b530      	push	{r4, r5, lr}
 800193a:	9d03      	ldr	r5, [sp, #12]
 800193c:	6804      	ldr	r4, [r0, #0]
 800193e:	432b      	orrs	r3, r5
 8001940:	ea43 4302 	orr.w	r3, r3, r2, lsl #16
 8001944:	4a06      	ldr	r2, [pc, #24]	; (8001960 <I2C_TransferConfig+0x28>)
 8001946:	6860      	ldr	r0, [r4, #4]
 8001948:	f3c1 0109 	ubfx	r1, r1, #0, #10
 800194c:	430b      	orrs	r3, r1
 800194e:	ea42 5255 	orr.w	r2, r2, r5, lsr #21
 8001952:	f023 4300 	bic.w	r3, r3, #2147483648	; 0x80000000
 8001956:	ea20 0002 	bic.w	r0, r0, r2
 800195a:	4303      	orrs	r3, r0
 800195c:	6063      	str	r3, [r4, #4]
 800195e:	bd30      	pop	{r4, r5, pc}
 8001960:	03ff63ff 	.word	0x03ff63ff

08001964 <I2C_IsErrorOccurred>:
 8001964:	e92d 43f8 	stmdb	sp!, {r3, r4, r5, r6, r7, r8, r9, lr}
 8001968:	6803      	ldr	r3, [r0, #0]
 800196a:	699c      	ldr	r4, [r3, #24]
 800196c:	f014 0410 	ands.w	r4, r4, #16
 8001970:	4605      	mov	r5, r0
 8001972:	4688      	mov	r8, r1
 8001974:	4617      	mov	r7, r2
 8001976:	d079      	beq.n	8001a6c <I2C_IsErrorOccurred+0x108>
 8001978:	2210      	movs	r2, #16
 800197a:	61da      	str	r2, [r3, #28]
 800197c:	2600      	movs	r6, #0
 800197e:	f04f 0920 	mov.w	r9, #32
 8001982:	682b      	ldr	r3, [r5, #0]
 8001984:	699a      	ldr	r2, [r3, #24]
 8001986:	0694      	lsls	r4, r2, #26
 8001988:	d436      	bmi.n	80019f8 <I2C_IsErrorOccurred+0x94>
 800198a:	b10e      	cbz	r6, 8001990 <I2C_IsErrorOccurred+0x2c>
 800198c:	2404      	movs	r4, #4
 800198e:	e039      	b.n	8001a04 <I2C_IsErrorOccurred+0xa0>
 8001990:	f1b8 3fff 	cmp.w	r8, #4294967295
 8001994:	d0f6      	beq.n	8001984 <I2C_IsErrorOccurred+0x20>
 8001996:	f7ff f8dd 	bl	8000b54 <HAL_GetTick>
 800199a:	1bc0      	subs	r0, r0, r7
 800199c:	4540      	cmp	r0, r8
 800199e:	d802      	bhi.n	80019a6 <I2C_IsErrorOccurred+0x42>
 80019a0:	f1b8 0f00 	cmp.w	r8, #0
 80019a4:	d1ed      	bne.n	8001982 <I2C_IsErrorOccurred+0x1e>
 80019a6:	682b      	ldr	r3, [r5, #0]
 80019a8:	6859      	ldr	r1, [r3, #4]
 80019aa:	f895 2042 	ldrb.w	r2, [r5, #66]	; 0x42
 80019ae:	6998      	ldr	r0, [r3, #24]
 80019b0:	0400      	lsls	r0, r0, #16
 80019b2:	b2d2      	uxtb	r2, r2
 80019b4:	d50a      	bpl.n	80019cc <I2C_IsErrorOccurred+0x68>
 80019b6:	0449      	lsls	r1, r1, #17
 80019b8:	d408      	bmi.n	80019cc <I2C_IsErrorOccurred+0x68>
 80019ba:	2a20      	cmp	r2, #32
 80019bc:	d006      	beq.n	80019cc <I2C_IsErrorOccurred+0x68>
 80019be:	685a      	ldr	r2, [r3, #4]
 80019c0:	f442 4280 	orr.w	r2, r2, #16384	; 0x4000
 80019c4:	605a      	str	r2, [r3, #4]
 80019c6:	f7ff f8c5 	bl	8000b54 <HAL_GetTick>
 80019ca:	4607      	mov	r7, r0
 80019cc:	682b      	ldr	r3, [r5, #0]
 80019ce:	699c      	ldr	r4, [r3, #24]
 80019d0:	f014 0420 	ands.w	r4, r4, #32
 80019d4:	d1d5      	bne.n	8001982 <I2C_IsErrorOccurred+0x1e>
 80019d6:	f7ff f8bd 	bl	8000b54 <HAL_GetTick>
 80019da:	1bc0      	subs	r0, r0, r7
 80019dc:	2819      	cmp	r0, #25
 80019de:	d9f5      	bls.n	80019cc <I2C_IsErrorOccurred+0x68>
 80019e0:	6c6b      	ldr	r3, [r5, #68]	; 0x44
 80019e2:	f885 4040 	strb.w	r4, [r5, #64]	; 0x40
 80019e6:	f043 0320 	orr.w	r3, r3, #32
 80019ea:	646b      	str	r3, [r5, #68]	; 0x44
 80019ec:	2601      	movs	r6, #1
 80019ee:	f885 9041 	strb.w	r9, [r5, #65]	; 0x41
 80019f2:	f885 4042 	strb.w	r4, [r5, #66]	; 0x42
 80019f6:	e7e9      	b.n	80019cc <I2C_IsErrorOccurred+0x68>
 80019f8:	2e00      	cmp	r6, #0
 80019fa:	d1c7      	bne.n	800198c <I2C_IsErrorOccurred+0x28>
 80019fc:	2220      	movs	r2, #32
 80019fe:	61da      	str	r2, [r3, #28]
 8001a00:	2404      	movs	r4, #4
 8001a02:	2601      	movs	r6, #1
 8001a04:	682b      	ldr	r3, [r5, #0]
 8001a06:	699a      	ldr	r2, [r3, #24]
 8001a08:	05d0      	lsls	r0, r2, #23
 8001a0a:	bf41      	itttt	mi
 8001a0c:	f44f 7180 	movmi.w	r1, #256	; 0x100
 8001a10:	61d9      	strmi	r1, [r3, #28]
 8001a12:	f044 0401 	orrmi.w	r4, r4, #1
 8001a16:	2601      	movmi	r6, #1
 8001a18:	0551      	lsls	r1, r2, #21
 8001a1a:	bf41      	itttt	mi
 8001a1c:	f44f 6180 	movmi.w	r1, #1024	; 0x400
 8001a20:	f044 0408 	orrmi.w	r4, r4, #8
 8001a24:	61d9      	strmi	r1, [r3, #28]
 8001a26:	2601      	movmi	r6, #1
 8001a28:	0592      	lsls	r2, r2, #22
 8001a2a:	d521      	bpl.n	8001a70 <I2C_IsErrorOccurred+0x10c>
 8001a2c:	f44f 7200 	mov.w	r2, #512	; 0x200
 8001a30:	f044 0402 	orr.w	r4, r4, #2
 8001a34:	61da      	str	r2, [r3, #28]
 8001a36:	4628      	mov	r0, r5
 8001a38:	f7ff ff70 	bl	800191c <I2C_Flush_TXDR>
 8001a3c:	682a      	ldr	r2, [r5, #0]
 8001a3e:	6853      	ldr	r3, [r2, #4]
 8001a40:	f023 73ff 	bic.w	r3, r3, #33423360	; 0x1fe0000
 8001a44:	f423 338b 	bic.w	r3, r3, #71168	; 0x11600
 8001a48:	f423 73ff 	bic.w	r3, r3, #510	; 0x1fe
 8001a4c:	f023 0301 	bic.w	r3, r3, #1
 8001a50:	6053      	str	r3, [r2, #4]
 8001a52:	6c6b      	ldr	r3, [r5, #68]	; 0x44
 8001a54:	431c      	orrs	r4, r3
 8001a56:	2320      	movs	r3, #32
 8001a58:	646c      	str	r4, [r5, #68]	; 0x44
 8001a5a:	f885 3041 	strb.w	r3, [r5, #65]	; 0x41
 8001a5e:	2300      	movs	r3, #0
 8001a60:	f885 3042 	strb.w	r3, [r5, #66]	; 0x42
 8001a64:	f885 3040 	strb.w	r3, [r5, #64]	; 0x40
 8001a68:	2601      	movs	r6, #1
 8001a6a:	e003      	b.n	8001a74 <I2C_IsErrorOccurred+0x110>
 8001a6c:	4626      	mov	r6, r4
 8001a6e:	e7c9      	b.n	8001a04 <I2C_IsErrorOccurred+0xa0>
 8001a70:	2e00      	cmp	r6, #0
 8001a72:	d1e0      	bne.n	8001a36 <I2C_IsErrorOccurred+0xd2>
 8001a74:	4630      	mov	r0, r6
 8001a76:	e8bd 83f8 	ldmia.w	sp!, {r3, r4, r5, r6, r7, r8, r9, pc}

08001a7a <I2C_WaitOnTXISFlagUntilTimeout>:
 8001a7a:	b570      	push	{r4, r5, r6, lr}
 8001a7c:	4604      	mov	r4, r0
 8001a7e:	460d      	mov	r5, r1
 8001a80:	4616      	mov	r6, r2
 8001a82:	6823      	ldr	r3, [r4, #0]
 8001a84:	699b      	ldr	r3, [r3, #24]
 8001a86:	079b      	lsls	r3, r3, #30
 8001a88:	d501      	bpl.n	8001a8e <I2C_WaitOnTXISFlagUntilTimeout+0x14>
 8001a8a:	2000      	movs	r0, #0
 8001a8c:	bd70      	pop	{r4, r5, r6, pc}
 8001a8e:	4632      	mov	r2, r6
 8001a90:	4629      	mov	r1, r5
 8001a92:	4620      	mov	r0, r4
 8001a94:	f7ff ff66 	bl	8001964 <I2C_IsErrorOccurred>
 8001a98:	b9a0      	cbnz	r0, 8001ac4 <I2C_WaitOnTXISFlagUntilTimeout+0x4a>
 8001a9a:	1c6a      	adds	r2, r5, #1
 8001a9c:	d0f1      	beq.n	8001a82 <I2C_WaitOnTXISFlagUntilTimeout+0x8>
 8001a9e:	f7ff f859 	bl	8000b54 <HAL_GetTick>
 8001aa2:	1b80      	subs	r0, r0, r6
 8001aa4:	42a8      	cmp	r0, r5
 8001aa6:	d801      	bhi.n	8001aac <I2C_WaitOnTXISFlagUntilTimeout+0x32>
 8001aa8:	2d00      	cmp	r5, #0
 8001aaa:	d1ea      	bne.n	8001a82 <I2C_WaitOnTXISFlagUntilTimeout+0x8>
 8001aac:	6c63      	ldr	r3, [r4, #68]	; 0x44
 8001aae:	f043 0320 	orr.w	r3, r3, #32
 8001ab2:	6463      	str	r3, [r4, #68]	; 0x44
 8001ab4:	2320      	movs	r3, #32
 8001ab6:	f884 3041 	strb.w	r3, [r4, #65]	; 0x41
 8001aba:	2300      	movs	r3, #0
 8001abc:	f884 3042 	strb.w	r3, [r4, #66]	; 0x42
 8001ac0:	f884 3040 	strb.w	r3, [r4, #64]	; 0x40
 8001ac4:	2001      	movs	r0, #1
 8001ac6:	e7e1      	b.n	8001a8c <I2C_WaitOnTXISFlagUntilTimeout+0x12>

08001ac8 <I2C_WaitOnFlagUntilTimeout>:
 8001ac8:	e92d 41f0 	stmdb	sp!, {r4, r5, r6, r7, r8, lr}
 8001acc:	9f06      	ldr	r7, [sp, #24]
 8001ace:	4604      	mov	r4, r0
 8001ad0:	4688      	mov	r8, r1
 8001ad2:	4616      	mov	r6, r2
 8001ad4:	461d      	mov	r5, r3
 8001ad6:	6822      	ldr	r2, [r4, #0]
 8001ad8:	6993      	ldr	r3, [r2, #24]
 8001ada:	ea38 0303 	bics.w	r3, r8, r3
 8001ade:	bf0c      	ite	eq
 8001ae0:	2301      	moveq	r3, #1
 8001ae2:	2300      	movne	r3, #0
 8001ae4:	42b3      	cmp	r3, r6
 8001ae6:	d001      	beq.n	8001aec <I2C_WaitOnFlagUntilTimeout+0x24>
 8001ae8:	2000      	movs	r0, #0
 8001aea:	e015      	b.n	8001b18 <I2C_WaitOnFlagUntilTimeout+0x50>
 8001aec:	1c6b      	adds	r3, r5, #1
 8001aee:	d0f3      	beq.n	8001ad8 <I2C_WaitOnFlagUntilTimeout+0x10>
 8001af0:	f7ff f830 	bl	8000b54 <HAL_GetTick>
 8001af4:	1bc0      	subs	r0, r0, r7
 8001af6:	42a8      	cmp	r0, r5
 8001af8:	d801      	bhi.n	8001afe <I2C_WaitOnFlagUntilTimeout+0x36>
 8001afa:	2d00      	cmp	r5, #0
 8001afc:	d1eb      	bne.n	8001ad6 <I2C_WaitOnFlagUntilTimeout+0xe>
 8001afe:	6c63      	ldr	r3, [r4, #68]	; 0x44
 8001b00:	f043 0320 	orr.w	r3, r3, #32
 8001b04:	6463      	str	r3, [r4, #68]	; 0x44
 8001b06:	2320      	movs	r3, #32
 8001b08:	f884 3041 	strb.w	r3, [r4, #65]	; 0x41
 8001b0c:	2300      	movs	r3, #0
 8001b0e:	f884 3042 	strb.w	r3, [r4, #66]	; 0x42
 8001b12:	f884 3040 	strb.w	r3, [r4, #64]	; 0x40
 8001b16:	2001      	movs	r0, #1
 8001b18:	e8bd 81f0 	ldmia.w	sp!, {r4, r5, r6, r7, r8, pc}

08001b1c <I2C_WaitOnSTOPFlagUntilTimeout>:
 8001b1c:	b570      	push	{r4, r5, r6, lr}
 8001b1e:	4604      	mov	r4, r0
 8001b20:	460d      	mov	r5, r1
 8001b22:	4616      	mov	r6, r2
 8001b24:	6823      	ldr	r3, [r4, #0]
 8001b26:	699b      	ldr	r3, [r3, #24]
 8001b28:	069b      	lsls	r3, r3, #26
 8001b2a:	d501      	bpl.n	8001b30 <I2C_WaitOnSTOPFlagUntilTimeout+0x14>
 8001b2c:	2000      	movs	r0, #0
 8001b2e:	bd70      	pop	{r4, r5, r6, pc}
 8001b30:	4632      	mov	r2, r6
 8001b32:	4629      	mov	r1, r5
 8001b34:	4620      	mov	r0, r4
 8001b36:	f7ff ff15 	bl	8001964 <I2C_IsErrorOccurred>
 8001b3a:	b990      	cbnz	r0, 8001b62 <I2C_WaitOnSTOPFlagUntilTimeout+0x46>
 8001b3c:	f7ff f80a 	bl	8000b54 <HAL_GetTick>
 8001b40:	1b80      	subs	r0, r0, r6
 8001b42:	42a8      	cmp	r0, r5
 8001b44:	d801      	bhi.n	8001b4a <I2C_WaitOnSTOPFlagUntilTimeout+0x2e>
 8001b46:	2d00      	cmp	r5, #0
 8001b48:	d1ec      	bne.n	8001b24 <I2C_WaitOnSTOPFlagUntilTimeout+0x8>
 8001b4a:	6c63      	ldr	r3, [r4, #68]	; 0x44
 8001b4c:	f043 0320 	orr.w	r3, r3, #32
 8001b50:	6463      	str	r3, [r4, #68]	; 0x44
 8001b52:	2320      	movs	r3, #32
 8001b54:	f884 3041 	strb.w	r3, [r4, #65]	; 0x41
 8001b58:	2300      	movs	r3, #0
 8001b5a:	f884 3042 	strb.w	r3, [r4, #66]	; 0x42
 8001b5e:	f884 3040 	strb.w	r3, [r4, #64]	; 0x40
 8001b62:	2001      	movs	r0, #1
 8001b64:	e7e3      	b.n	8001b2e <I2C_WaitOnSTOPFlagUntilTimeout+0x12>

08001b66 <HAL_I2C_Init>:
 8001b66:	b510      	push	{r4, lr}
 8001b68:	4604      	mov	r4, r0
 8001b6a:	2800      	cmp	r0, #0
 8001b6c:	d04a      	beq.n	8001c04 <HAL_I2C_Init+0x9e>
 8001b6e:	f890 3041 	ldrb.w	r3, [r0, #65]	; 0x41
 8001b72:	f003 02ff 	and.w	r2, r3, #255	; 0xff
 8001b76:	b91b      	cbnz	r3, 8001b80 <HAL_I2C_Init+0x1a>
 8001b78:	f880 2040 	strb.w	r2, [r0, #64]	; 0x40
 8001b7c:	f7fe fdd4 	bl	8000728 <HAL_I2C_MspInit>
 8001b80:	2324      	movs	r3, #36	; 0x24
 8001b82:	f884 3041 	strb.w	r3, [r4, #65]	; 0x41
 8001b86:	6823      	ldr	r3, [r4, #0]
 8001b88:	681a      	ldr	r2, [r3, #0]
 8001b8a:	f022 0201 	bic.w	r2, r2, #1
 8001b8e:	601a      	str	r2, [r3, #0]
 8001b90:	6862      	ldr	r2, [r4, #4]
 8001b92:	f022 6270 	bic.w	r2, r2, #251658240	; 0xf000000
 8001b96:	611a      	str	r2, [r3, #16]
 8001b98:	689a      	ldr	r2, [r3, #8]
 8001b9a:	f422 4200 	bic.w	r2, r2, #32768	; 0x8000
 8001b9e:	609a      	str	r2, [r3, #8]
 8001ba0:	e9d4 2102 	ldrd	r2, r1, [r4, #8]
 8001ba4:	2901      	cmp	r1, #1
 8001ba6:	d124      	bne.n	8001bf2 <HAL_I2C_Init+0x8c>
 8001ba8:	f442 4200 	orr.w	r2, r2, #32768	; 0x8000
 8001bac:	609a      	str	r2, [r3, #8]
 8001bae:	685a      	ldr	r2, [r3, #4]
 8001bb0:	f042 7200 	orr.w	r2, r2, #33554432	; 0x2000000
 8001bb4:	f442 4200 	orr.w	r2, r2, #32768	; 0x8000
 8001bb8:	605a      	str	r2, [r3, #4]
 8001bba:	68da      	ldr	r2, [r3, #12]
 8001bbc:	f422 4200 	bic.w	r2, r2, #32768	; 0x8000
 8001bc0:	60da      	str	r2, [r3, #12]
 8001bc2:	e9d4 2104 	ldrd	r2, r1, [r4, #16]
 8001bc6:	430a      	orrs	r2, r1
 8001bc8:	69a1      	ldr	r1, [r4, #24]
 8001bca:	ea42 2201 	orr.w	r2, r2, r1, lsl #8
 8001bce:	60da      	str	r2, [r3, #12]
 8001bd0:	e9d4 2107 	ldrd	r2, r1, [r4, #28]
 8001bd4:	430a      	orrs	r2, r1
 8001bd6:	601a      	str	r2, [r3, #0]
 8001bd8:	681a      	ldr	r2, [r3, #0]
 8001bda:	f042 0201 	orr.w	r2, r2, #1
 8001bde:	601a      	str	r2, [r3, #0]
 8001be0:	2000      	movs	r0, #0
 8001be2:	2320      	movs	r3, #32
 8001be4:	6460      	str	r0, [r4, #68]	; 0x44
 8001be6:	f884 3041 	strb.w	r3, [r4, #65]	; 0x41
 8001bea:	6320      	str	r0, [r4, #48]	; 0x30
 8001bec:	f884 0042 	strb.w	r0, [r4, #66]	; 0x42
 8001bf0:	bd10      	pop	{r4, pc}
 8001bf2:	f442 4204 	orr.w	r2, r2, #33792	; 0x8400
 8001bf6:	2902      	cmp	r1, #2
 8001bf8:	609a      	str	r2, [r3, #8]
 8001bfa:	bf04      	itt	eq
 8001bfc:	f44f 6200 	moveq.w	r2, #2048	; 0x800
 8001c00:	605a      	streq	r2, [r3, #4]
 8001c02:	e7d4      	b.n	8001bae <HAL_I2C_Init+0x48>
 8001c04:	2001      	movs	r0, #1
 8001c06:	e7f3      	b.n	8001bf0 <HAL_I2C_Init+0x8a>

08001c08 <HAL_I2C_Master_Transmit>:
 8001c08:	e92d 47f3 	stmdb	sp!, {r0, r1, r4, r5, r6, r7, r8, r9, sl, lr}
 8001c0c:	4698      	mov	r8, r3
 8001c0e:	f890 3041 	ldrb.w	r3, [r0, #65]	; 0x41
 8001c12:	9f0a      	ldr	r7, [sp, #40]	; 0x28
 8001c14:	2b20      	cmp	r3, #32
 8001c16:	4604      	mov	r4, r0
 8001c18:	460e      	mov	r6, r1
 8001c1a:	4691      	mov	r9, r2
 8001c1c:	f040 8086 	bne.w	8001d2c <HAL_I2C_Master_Transmit+0x124>
 8001c20:	f890 3040 	ldrb.w	r3, [r0, #64]	; 0x40
 8001c24:	2b01      	cmp	r3, #1
 8001c26:	f000 8081 	beq.w	8001d2c <HAL_I2C_Master_Transmit+0x124>
 8001c2a:	f04f 0a01 	mov.w	sl, #1
 8001c2e:	f880 a040 	strb.w	sl, [r0, #64]	; 0x40
 8001c32:	f7fe ff8f 	bl	8000b54 <HAL_GetTick>
 8001c36:	2319      	movs	r3, #25
 8001c38:	4605      	mov	r5, r0
 8001c3a:	9000      	str	r0, [sp, #0]
 8001c3c:	4652      	mov	r2, sl
 8001c3e:	f44f 4100 	mov.w	r1, #32768	; 0x8000
 8001c42:	4620      	mov	r0, r4
 8001c44:	f7ff ff40 	bl	8001ac8 <I2C_WaitOnFlagUntilTimeout>
 8001c48:	b118      	cbz	r0, 8001c52 <HAL_I2C_Master_Transmit+0x4a>
 8001c4a:	2001      	movs	r0, #1
 8001c4c:	b002      	add	sp, #8
 8001c4e:	e8bd 87f0 	ldmia.w	sp!, {r4, r5, r6, r7, r8, r9, sl, pc}
 8001c52:	2321      	movs	r3, #33	; 0x21
 8001c54:	f884 3041 	strb.w	r3, [r4, #65]	; 0x41
 8001c58:	2310      	movs	r3, #16
 8001c5a:	f884 3042 	strb.w	r3, [r4, #66]	; 0x42
 8001c5e:	6460      	str	r0, [r4, #68]	; 0x44
 8001c60:	f8a4 802a 	strh.w	r8, [r4, #42]	; 0x2a
 8001c64:	8d63      	ldrh	r3, [r4, #42]	; 0x2a
 8001c66:	f8c4 9024 	str.w	r9, [r4, #36]	; 0x24
 8001c6a:	b29b      	uxth	r3, r3
 8001c6c:	2bff      	cmp	r3, #255	; 0xff
 8001c6e:	6360      	str	r0, [r4, #52]	; 0x34
 8001c70:	4b2f      	ldr	r3, [pc, #188]	; (8001d30 <HAL_I2C_Master_Transmit+0x128>)
 8001c72:	d926      	bls.n	8001cc2 <HAL_I2C_Master_Transmit+0xba>
 8001c74:	22ff      	movs	r2, #255	; 0xff
 8001c76:	8522      	strh	r2, [r4, #40]	; 0x28
 8001c78:	9300      	str	r3, [sp, #0]
 8001c7a:	f04f 7380 	mov.w	r3, #16777216	; 0x1000000
 8001c7e:	4631      	mov	r1, r6
 8001c80:	4620      	mov	r0, r4
 8001c82:	f7ff fe59 	bl	8001938 <I2C_TransferConfig>
 8001c86:	8d63      	ldrh	r3, [r4, #42]	; 0x2a
 8001c88:	b29b      	uxth	r3, r3
 8001c8a:	462a      	mov	r2, r5
 8001c8c:	4639      	mov	r1, r7
 8001c8e:	4620      	mov	r0, r4
 8001c90:	b9fb      	cbnz	r3, 8001cd2 <HAL_I2C_Master_Transmit+0xca>
 8001c92:	f7ff ff43 	bl	8001b1c <I2C_WaitOnSTOPFlagUntilTimeout>
 8001c96:	2800      	cmp	r0, #0
 8001c98:	d1d7      	bne.n	8001c4a <HAL_I2C_Master_Transmit+0x42>
 8001c9a:	6823      	ldr	r3, [r4, #0]
 8001c9c:	2120      	movs	r1, #32
 8001c9e:	61d9      	str	r1, [r3, #28]
 8001ca0:	685a      	ldr	r2, [r3, #4]
 8001ca2:	f022 72ff 	bic.w	r2, r2, #33423360	; 0x1fe0000
 8001ca6:	f422 328b 	bic.w	r2, r2, #71168	; 0x11600
 8001caa:	f422 72ff 	bic.w	r2, r2, #510	; 0x1fe
 8001cae:	f022 0201 	bic.w	r2, r2, #1
 8001cb2:	605a      	str	r2, [r3, #4]
 8001cb4:	f884 1041 	strb.w	r1, [r4, #65]	; 0x41
 8001cb8:	f884 0040 	strb.w	r0, [r4, #64]	; 0x40
 8001cbc:	f884 0042 	strb.w	r0, [r4, #66]	; 0x42
 8001cc0:	e7c4      	b.n	8001c4c <HAL_I2C_Master_Transmit+0x44>
 8001cc2:	8d62      	ldrh	r2, [r4, #42]	; 0x2a
 8001cc4:	9300      	str	r3, [sp, #0]
 8001cc6:	b292      	uxth	r2, r2
 8001cc8:	8522      	strh	r2, [r4, #40]	; 0x28
 8001cca:	f04f 7300 	mov.w	r3, #33554432	; 0x2000000
 8001cce:	b2d2      	uxtb	r2, r2
 8001cd0:	e7d5      	b.n	8001c7e <HAL_I2C_Master_Transmit+0x76>
 8001cd2:	f7ff fed2 	bl	8001a7a <I2C_WaitOnTXISFlagUntilTimeout>
 8001cd6:	2800      	cmp	r0, #0
 8001cd8:	d1b7      	bne.n	8001c4a <HAL_I2C_Master_Transmit+0x42>
 8001cda:	6a63      	ldr	r3, [r4, #36]	; 0x24
 8001cdc:	6822      	ldr	r2, [r4, #0]
 8001cde:	f813 1b01 	ldrb.w	r1, [r3], #1
 8001ce2:	6291      	str	r1, [r2, #40]	; 0x28
 8001ce4:	6263      	str	r3, [r4, #36]	; 0x24
 8001ce6:	8d63      	ldrh	r3, [r4, #42]	; 0x2a
 8001ce8:	8d22      	ldrh	r2, [r4, #40]	; 0x28
 8001cea:	3b01      	subs	r3, #1
 8001cec:	b29b      	uxth	r3, r3
 8001cee:	8563      	strh	r3, [r4, #42]	; 0x2a
 8001cf0:	8d63      	ldrh	r3, [r4, #42]	; 0x2a
 8001cf2:	3a01      	subs	r2, #1
 8001cf4:	b292      	uxth	r2, r2
 8001cf6:	b29b      	uxth	r3, r3
 8001cf8:	8522      	strh	r2, [r4, #40]	; 0x28
 8001cfa:	2b00      	cmp	r3, #0
 8001cfc:	d0c3      	beq.n	8001c86 <HAL_I2C_Master_Transmit+0x7e>
 8001cfe:	2a00      	cmp	r2, #0
 8001d00:	d1c1      	bne.n	8001c86 <HAL_I2C_Master_Transmit+0x7e>
 8001d02:	9500      	str	r5, [sp, #0]
 8001d04:	463b      	mov	r3, r7
 8001d06:	2180      	movs	r1, #128	; 0x80
 8001d08:	4620      	mov	r0, r4
 8001d0a:	f7ff fedd 	bl	8001ac8 <I2C_WaitOnFlagUntilTimeout>
 8001d0e:	2800      	cmp	r0, #0
 8001d10:	d19b      	bne.n	8001c4a <HAL_I2C_Master_Transmit+0x42>
 8001d12:	8d63      	ldrh	r3, [r4, #42]	; 0x2a
 8001d14:	b29b      	uxth	r3, r3
 8001d16:	2bff      	cmp	r3, #255	; 0xff
 8001d18:	d903      	bls.n	8001d22 <HAL_I2C_Master_Transmit+0x11a>
 8001d1a:	22ff      	movs	r2, #255	; 0xff
 8001d1c:	8522      	strh	r2, [r4, #40]	; 0x28
 8001d1e:	9000      	str	r0, [sp, #0]
 8001d20:	e7ab      	b.n	8001c7a <HAL_I2C_Master_Transmit+0x72>
 8001d22:	8d62      	ldrh	r2, [r4, #42]	; 0x2a
 8001d24:	9000      	str	r0, [sp, #0]
 8001d26:	b292      	uxth	r2, r2
 8001d28:	8522      	strh	r2, [r4, #40]	; 0x28
 8001d2a:	e7ce      	b.n	8001cca <HAL_I2C_Master_Transmit+0xc2>
 8001d2c:	2002      	movs	r0, #2
 8001d2e:	e78d      	b.n	8001c4c <HAL_I2C_Master_Transmit+0x44>
 8001d30:	80002000 	.word	0x80002000

08001d34 <HAL_I2CEx_ConfigAnalogFilter>:
 8001d34:	b510      	push	{r4, lr}
 8001d36:	f890 3041 	ldrb.w	r3, [r0, #65]	; 0x41
 8001d3a:	2b20      	cmp	r3, #32
 8001d3c:	b2dc      	uxtb	r4, r3
 8001d3e:	d11d      	bne.n	8001d7c <HAL_I2CEx_ConfigAnalogFilter+0x48>
 8001d40:	f890 3040 	ldrb.w	r3, [r0, #64]	; 0x40
 8001d44:	2b01      	cmp	r3, #1
 8001d46:	d019      	beq.n	8001d7c <HAL_I2CEx_ConfigAnalogFilter+0x48>
 8001d48:	2324      	movs	r3, #36	; 0x24
 8001d4a:	f880 3041 	strb.w	r3, [r0, #65]	; 0x41
 8001d4e:	6803      	ldr	r3, [r0, #0]
 8001d50:	681a      	ldr	r2, [r3, #0]
 8001d52:	f022 0201 	bic.w	r2, r2, #1
 8001d56:	601a      	str	r2, [r3, #0]
 8001d58:	681a      	ldr	r2, [r3, #0]
 8001d5a:	f422 5280 	bic.w	r2, r2, #4096	; 0x1000
 8001d5e:	601a      	str	r2, [r3, #0]
 8001d60:	681a      	ldr	r2, [r3, #0]
 8001d62:	4311      	orrs	r1, r2
 8001d64:	6019      	str	r1, [r3, #0]
 8001d66:	681a      	ldr	r2, [r3, #0]
 8001d68:	f042 0201 	orr.w	r2, r2, #1
 8001d6c:	601a      	str	r2, [r3, #0]
 8001d6e:	2300      	movs	r3, #0
 8001d70:	f880 4041 	strb.w	r4, [r0, #65]	; 0x41
 8001d74:	f880 3040 	strb.w	r3, [r0, #64]	; 0x40
 8001d78:	4618      	mov	r0, r3
 8001d7a:	bd10      	pop	{r4, pc}
 8001d7c:	2002      	movs	r0, #2
 8001d7e:	e7fc      	b.n	8001d7a <HAL_I2CEx_ConfigAnalogFilter+0x46>

08001d80 <HAL_I2CEx_ConfigDigitalFilter>:
 8001d80:	b510      	push	{r4, lr}
 8001d82:	f890 3041 	ldrb.w	r3, [r0, #65]	; 0x41
 8001d86:	2b20      	cmp	r3, #32
 8001d88:	b2dc      	uxtb	r4, r3
 8001d8a:	d11c      	bne.n	8001dc6 <HAL_I2CEx_ConfigDigitalFilter+0x46>
 8001d8c:	f890 3040 	ldrb.w	r3, [r0, #64]	; 0x40
 8001d90:	2b01      	cmp	r3, #1
 8001d92:	d018      	beq.n	8001dc6 <HAL_I2CEx_ConfigDigitalFilter+0x46>
 8001d94:	2324      	movs	r3, #36	; 0x24
 8001d96:	f880 3041 	strb.w	r3, [r0, #65]	; 0x41
 8001d9a:	6803      	ldr	r3, [r0, #0]
 8001d9c:	681a      	ldr	r2, [r3, #0]
 8001d9e:	f022 0201 	bic.w	r2, r2, #1
 8001da2:	601a      	str	r2, [r3, #0]
 8001da4:	681a      	ldr	r2, [r3, #0]
 8001da6:	f422 6270 	bic.w	r2, r2, #3840	; 0xf00
 8001daa:	ea42 2101 	orr.w	r1, r2, r1, lsl #8
 8001dae:	6019      	str	r1, [r3, #0]
 8001db0:	681a      	ldr	r2, [r3, #0]
 8001db2:	f042 0201 	orr.w	r2, r2, #1
 8001db6:	601a      	str	r2, [r3, #0]
 8001db8:	2300      	movs	r3, #0
 8001dba:	f880 4041 	strb.w	r4, [r0, #65]	; 0x41
 8001dbe:	f880 3040 	strb.w	r3, [r0, #64]	; 0x40
 8001dc2:	4618      	mov	r0, r3
 8001dc4:	bd10      	pop	{r4, pc}
 8001dc6:	2002      	movs	r0, #2
 8001dc8:	e7fc      	b.n	8001dc4 <HAL_I2CEx_ConfigDigitalFilter+0x44>
	...

08001dcc <HAL_PWREx_GetVoltageRange>:
 8001dcc:	4b02      	ldr	r3, [pc, #8]	; (8001dd8 <HAL_PWREx_GetVoltageRange+0xc>)
 8001dce:	6818      	ldr	r0, [r3, #0]
 8001dd0:	f400 60c0 	and.w	r0, r0, #1536	; 0x600
 8001dd4:	4770      	bx	lr
 8001dd6:	bf00      	nop
 8001dd8:	40007000 	.word	0x40007000

08001ddc <HAL_PWREx_ControlVoltageScaling>:
 8001ddc:	4a17      	ldr	r2, [pc, #92]	; (8001e3c <HAL_PWREx_ControlVoltageScaling+0x60>)
 8001dde:	6813      	ldr	r3, [r2, #0]
 8001de0:	f5b0 7f00 	cmp.w	r0, #512	; 0x200
 8001de4:	f403 63c0 	and.w	r3, r3, #1536	; 0x600
 8001de8:	d11d      	bne.n	8001e26 <HAL_PWREx_ControlVoltageScaling+0x4a>
 8001dea:	f5b3 7f00 	cmp.w	r3, #512	; 0x200
 8001dee:	d101      	bne.n	8001df4 <HAL_PWREx_ControlVoltageScaling+0x18>
 8001df0:	2000      	movs	r0, #0
 8001df2:	4770      	bx	lr
 8001df4:	6813      	ldr	r3, [r2, #0]
 8001df6:	f423 63c0 	bic.w	r3, r3, #1536	; 0x600
 8001dfa:	f443 7300 	orr.w	r3, r3, #512	; 0x200
 8001dfe:	6013      	str	r3, [r2, #0]
 8001e00:	4b0f      	ldr	r3, [pc, #60]	; (8001e40 <HAL_PWREx_ControlVoltageScaling+0x64>)
 8001e02:	681b      	ldr	r3, [r3, #0]
 8001e04:	2132      	movs	r1, #50	; 0x32
 8001e06:	434b      	muls	r3, r1
 8001e08:	490e      	ldr	r1, [pc, #56]	; (8001e44 <HAL_PWREx_ControlVoltageScaling+0x68>)
 8001e0a:	fbb3 f3f1 	udiv	r3, r3, r1
 8001e0e:	3301      	adds	r3, #1
 8001e10:	6951      	ldr	r1, [r2, #20]
 8001e12:	0549      	lsls	r1, r1, #21
 8001e14:	d500      	bpl.n	8001e18 <HAL_PWREx_ControlVoltageScaling+0x3c>
 8001e16:	b923      	cbnz	r3, 8001e22 <HAL_PWREx_ControlVoltageScaling+0x46>
 8001e18:	6953      	ldr	r3, [r2, #20]
 8001e1a:	055b      	lsls	r3, r3, #21
 8001e1c:	d5e8      	bpl.n	8001df0 <HAL_PWREx_ControlVoltageScaling+0x14>
 8001e1e:	2003      	movs	r0, #3
 8001e20:	4770      	bx	lr
 8001e22:	3b01      	subs	r3, #1
 8001e24:	e7f4      	b.n	8001e10 <HAL_PWREx_ControlVoltageScaling+0x34>
 8001e26:	f5b3 6f80 	cmp.w	r3, #1024	; 0x400
 8001e2a:	bf1f      	itttt	ne
 8001e2c:	6813      	ldrne	r3, [r2, #0]
 8001e2e:	f423 63c0 	bicne.w	r3, r3, #1536	; 0x600
 8001e32:	f443 6380 	orrne.w	r3, r3, #1024	; 0x400
 8001e36:	6013      	strne	r3, [r2, #0]
 8001e38:	e7da      	b.n	8001df0 <HAL_PWREx_ControlVoltageScaling+0x14>
 8001e3a:	bf00      	nop
 8001e3c:	40007000 	.word	0x40007000
 8001e40:	20000000 	.word	0x20000000
 8001e44:	000f4240 	.word	0x000f4240

08001e48 <RCC_SetFlashLatencyFromMSIRange>:
 8001e48:	b537      	push	{r0, r1, r2, r4, r5, lr}
 8001e4a:	4d1e      	ldr	r5, [pc, #120]	; (8001ec4 <RCC_SetFlashLatencyFromMSIRange+0x7c>)
 8001e4c:	6dab      	ldr	r3, [r5, #88]	; 0x58
 8001e4e:	00da      	lsls	r2, r3, #3
 8001e50:	4604      	mov	r4, r0
 8001e52:	d518      	bpl.n	8001e86 <RCC_SetFlashLatencyFromMSIRange+0x3e>
 8001e54:	f7ff ffba 	bl	8001dcc <HAL_PWREx_GetVoltageRange>
 8001e58:	f5b0 7f00 	cmp.w	r0, #512	; 0x200
 8001e5c:	d123      	bne.n	8001ea6 <RCC_SetFlashLatencyFromMSIRange+0x5e>
 8001e5e:	2c80      	cmp	r4, #128	; 0x80
 8001e60:	d929      	bls.n	8001eb6 <RCC_SetFlashLatencyFromMSIRange+0x6e>
 8001e62:	2ca0      	cmp	r4, #160	; 0xa0
 8001e64:	bf8c      	ite	hi
 8001e66:	2002      	movhi	r0, #2
 8001e68:	2001      	movls	r0, #1
 8001e6a:	4a17      	ldr	r2, [pc, #92]	; (8001ec8 <RCC_SetFlashLatencyFromMSIRange+0x80>)
 8001e6c:	6813      	ldr	r3, [r2, #0]
 8001e6e:	f023 0307 	bic.w	r3, r3, #7
 8001e72:	4303      	orrs	r3, r0
 8001e74:	6013      	str	r3, [r2, #0]
 8001e76:	6813      	ldr	r3, [r2, #0]
 8001e78:	f003 0307 	and.w	r3, r3, #7
 8001e7c:	1a18      	subs	r0, r3, r0
 8001e7e:	bf18      	it	ne
 8001e80:	2001      	movne	r0, #1
 8001e82:	b003      	add	sp, #12
 8001e84:	bd30      	pop	{r4, r5, pc}
 8001e86:	6dab      	ldr	r3, [r5, #88]	; 0x58
 8001e88:	f043 5380 	orr.w	r3, r3, #268435456	; 0x10000000
 8001e8c:	65ab      	str	r3, [r5, #88]	; 0x58
 8001e8e:	6dab      	ldr	r3, [r5, #88]	; 0x58
 8001e90:	f003 5380 	and.w	r3, r3, #268435456	; 0x10000000
 8001e94:	9301      	str	r3, [sp, #4]
 8001e96:	9b01      	ldr	r3, [sp, #4]
 8001e98:	f7ff ff98 	bl	8001dcc <HAL_PWREx_GetVoltageRange>
 8001e9c:	6dab      	ldr	r3, [r5, #88]	; 0x58
 8001e9e:	f023 5380 	bic.w	r3, r3, #268435456	; 0x10000000
 8001ea2:	65ab      	str	r3, [r5, #88]	; 0x58
 8001ea4:	e7d8      	b.n	8001e58 <RCC_SetFlashLatencyFromMSIRange+0x10>
 8001ea6:	2c80      	cmp	r4, #128	; 0x80
 8001ea8:	d807      	bhi.n	8001eba <RCC_SetFlashLatencyFromMSIRange+0x72>
 8001eaa:	d008      	beq.n	8001ebe <RCC_SetFlashLatencyFromMSIRange+0x76>
 8001eac:	f1a4 0370 	sub.w	r3, r4, #112	; 0x70
 8001eb0:	4258      	negs	r0, r3
 8001eb2:	4158      	adcs	r0, r3
 8001eb4:	e7d9      	b.n	8001e6a <RCC_SetFlashLatencyFromMSIRange+0x22>
 8001eb6:	2000      	movs	r0, #0
 8001eb8:	e7d7      	b.n	8001e6a <RCC_SetFlashLatencyFromMSIRange+0x22>
 8001eba:	2003      	movs	r0, #3
 8001ebc:	e7d5      	b.n	8001e6a <RCC_SetFlashLatencyFromMSIRange+0x22>
 8001ebe:	2002      	movs	r0, #2
 8001ec0:	e7d3      	b.n	8001e6a <RCC_SetFlashLatencyFromMSIRange+0x22>
 8001ec2:	bf00      	nop
 8001ec4:	40021000 	.word	0x40021000
 8001ec8:	40022000 	.word	0x40022000

08001ecc <HAL_RCC_GetSysClockFreq>:
 8001ecc:	4b22      	ldr	r3, [pc, #136]	; (8001f58 <HAL_RCC_GetSysClockFreq+0x8c>)
 8001ece:	689a      	ldr	r2, [r3, #8]
 8001ed0:	68d9      	ldr	r1, [r3, #12]
 8001ed2:	f012 020c 	ands.w	r2, r2, #12
 8001ed6:	d005      	beq.n	8001ee4 <HAL_RCC_GetSysClockFreq+0x18>
 8001ed8:	2a0c      	cmp	r2, #12
 8001eda:	d115      	bne.n	8001f08 <HAL_RCC_GetSysClockFreq+0x3c>
 8001edc:	f001 0103 	and.w	r1, r1, #3
 8001ee0:	2901      	cmp	r1, #1
 8001ee2:	d118      	bne.n	8001f16 <HAL_RCC_GetSysClockFreq+0x4a>
 8001ee4:	6819      	ldr	r1, [r3, #0]
 8001ee6:	481d      	ldr	r0, [pc, #116]	; (8001f5c <HAL_RCC_GetSysClockFreq+0x90>)
 8001ee8:	0709      	lsls	r1, r1, #28
 8001eea:	bf55      	itete	pl
 8001eec:	f8d3 1094 	ldrpl.w	r1, [r3, #148]	; 0x94
 8001ef0:	6819      	ldrmi	r1, [r3, #0]
 8001ef2:	f3c1 2103 	ubfxpl	r1, r1, #8, #4
 8001ef6:	f3c1 1103 	ubfxmi	r1, r1, #4, #4
 8001efa:	f850 0021 	ldr.w	r0, [r0, r1, lsl #2]
 8001efe:	b34a      	cbz	r2, 8001f54 <HAL_RCC_GetSysClockFreq+0x88>
 8001f00:	2a0c      	cmp	r2, #12
 8001f02:	d009      	beq.n	8001f18 <HAL_RCC_GetSysClockFreq+0x4c>
 8001f04:	2000      	movs	r0, #0
 8001f06:	4770      	bx	lr
 8001f08:	2a04      	cmp	r2, #4
 8001f0a:	d022      	beq.n	8001f52 <HAL_RCC_GetSysClockFreq+0x86>
 8001f0c:	2a08      	cmp	r2, #8
 8001f0e:	4814      	ldr	r0, [pc, #80]	; (8001f60 <HAL_RCC_GetSysClockFreq+0x94>)
 8001f10:	bf18      	it	ne
 8001f12:	2000      	movne	r0, #0
 8001f14:	4770      	bx	lr
 8001f16:	2000      	movs	r0, #0
 8001f18:	68da      	ldr	r2, [r3, #12]
 8001f1a:	f002 0203 	and.w	r2, r2, #3
 8001f1e:	2a02      	cmp	r2, #2
 8001f20:	d015      	beq.n	8001f4e <HAL_RCC_GetSysClockFreq+0x82>
 8001f22:	490f      	ldr	r1, [pc, #60]	; (8001f60 <HAL_RCC_GetSysClockFreq+0x94>)
 8001f24:	2a03      	cmp	r2, #3
 8001f26:	bf08      	it	eq
 8001f28:	4608      	moveq	r0, r1
 8001f2a:	68d9      	ldr	r1, [r3, #12]
 8001f2c:	68da      	ldr	r2, [r3, #12]
 8001f2e:	f3c2 2206 	ubfx	r2, r2, #8, #7
 8001f32:	4342      	muls	r2, r0
 8001f34:	68d8      	ldr	r0, [r3, #12]
 8001f36:	f3c0 6041 	ubfx	r0, r0, #25, #2
 8001f3a:	f3c1 1102 	ubfx	r1, r1, #4, #3
 8001f3e:	3001      	adds	r0, #1
 8001f40:	3101      	adds	r1, #1
 8001f42:	0040      	lsls	r0, r0, #1
 8001f44:	fbb2 f2f1 	udiv	r2, r2, r1
 8001f48:	fbb2 f0f0 	udiv	r0, r2, r0
 8001f4c:	4770      	bx	lr
 8001f4e:	4805      	ldr	r0, [pc, #20]	; (8001f64 <HAL_RCC_GetSysClockFreq+0x98>)
 8001f50:	e7eb      	b.n	8001f2a <HAL_RCC_GetSysClockFreq+0x5e>
 8001f52:	4804      	ldr	r0, [pc, #16]	; (8001f64 <HAL_RCC_GetSysClockFreq+0x98>)
 8001f54:	4770      	bx	lr
 8001f56:	bf00      	nop
 8001f58:	40021000 	.word	0x40021000
 8001f5c:	08002cf4 	.word	0x08002cf4
 8001f60:	007a1200 	.word	0x007a1200
 8001f64:	00f42400 	.word	0x00f42400

08001f68 <HAL_RCC_OscConfig>:
 8001f68:	e92d 43f7 	stmdb	sp!, {r0, r1, r2, r4, r5, r6, r7, r8, r9, lr}
 8001f6c:	4605      	mov	r5, r0
 8001f6e:	b908      	cbnz	r0, 8001f74 <HAL_RCC_OscConfig+0xc>
 8001f70:	2001      	movs	r0, #1
 8001f72:	e047      	b.n	8002004 <HAL_RCC_OscConfig+0x9c>
 8001f74:	4c94      	ldr	r4, [pc, #592]	; (80021c8 <HAL_RCC_OscConfig+0x260>)
 8001f76:	6803      	ldr	r3, [r0, #0]
 8001f78:	68a6      	ldr	r6, [r4, #8]
 8001f7a:	68e7      	ldr	r7, [r4, #12]
 8001f7c:	06db      	lsls	r3, r3, #27
 8001f7e:	f006 060c 	and.w	r6, r6, #12
 8001f82:	f007 0703 	and.w	r7, r7, #3
 8001f86:	d575      	bpl.n	8002074 <HAL_RCC_OscConfig+0x10c>
 8001f88:	b11e      	cbz	r6, 8001f92 <HAL_RCC_OscConfig+0x2a>
 8001f8a:	2e0c      	cmp	r6, #12
 8001f8c:	d154      	bne.n	8002038 <HAL_RCC_OscConfig+0xd0>
 8001f8e:	2f01      	cmp	r7, #1
 8001f90:	d152      	bne.n	8002038 <HAL_RCC_OscConfig+0xd0>
 8001f92:	6823      	ldr	r3, [r4, #0]
 8001f94:	0798      	lsls	r0, r3, #30
 8001f96:	d502      	bpl.n	8001f9e <HAL_RCC_OscConfig+0x36>
 8001f98:	69ab      	ldr	r3, [r5, #24]
 8001f9a:	2b00      	cmp	r3, #0
 8001f9c:	d0e8      	beq.n	8001f70 <HAL_RCC_OscConfig+0x8>
 8001f9e:	6823      	ldr	r3, [r4, #0]
 8001fa0:	6a28      	ldr	r0, [r5, #32]
 8001fa2:	0719      	lsls	r1, r3, #28
 8001fa4:	bf56      	itet	pl
 8001fa6:	f8d4 3094 	ldrpl.w	r3, [r4, #148]	; 0x94
 8001faa:	6823      	ldrmi	r3, [r4, #0]
 8001fac:	091b      	lsrpl	r3, r3, #4
 8001fae:	f003 03f0 	and.w	r3, r3, #240	; 0xf0
 8001fb2:	4298      	cmp	r0, r3
 8001fb4:	d929      	bls.n	800200a <HAL_RCC_OscConfig+0xa2>
 8001fb6:	f7ff ff47 	bl	8001e48 <RCC_SetFlashLatencyFromMSIRange>
 8001fba:	2800      	cmp	r0, #0
 8001fbc:	d1d8      	bne.n	8001f70 <HAL_RCC_OscConfig+0x8>
 8001fbe:	6823      	ldr	r3, [r4, #0]
 8001fc0:	f043 0308 	orr.w	r3, r3, #8
 8001fc4:	6023      	str	r3, [r4, #0]
 8001fc6:	6823      	ldr	r3, [r4, #0]
 8001fc8:	6a2a      	ldr	r2, [r5, #32]
 8001fca:	f023 03f0 	bic.w	r3, r3, #240	; 0xf0
 8001fce:	4313      	orrs	r3, r2
 8001fd0:	6023      	str	r3, [r4, #0]
 8001fd2:	6863      	ldr	r3, [r4, #4]
 8001fd4:	69ea      	ldr	r2, [r5, #28]
 8001fd6:	f423 437f 	bic.w	r3, r3, #65280	; 0xff00
 8001fda:	ea43 2302 	orr.w	r3, r3, r2, lsl #8
 8001fde:	6063      	str	r3, [r4, #4]
 8001fe0:	f7ff ff74 	bl	8001ecc <HAL_RCC_GetSysClockFreq>
 8001fe4:	68a3      	ldr	r3, [r4, #8]
 8001fe6:	4a79      	ldr	r2, [pc, #484]	; (80021cc <HAL_RCC_OscConfig+0x264>)
 8001fe8:	f3c3 1303 	ubfx	r3, r3, #4, #4
 8001fec:	5cd3      	ldrb	r3, [r2, r3]
 8001fee:	f003 031f 	and.w	r3, r3, #31
 8001ff2:	40d8      	lsrs	r0, r3
 8001ff4:	4b76      	ldr	r3, [pc, #472]	; (80021d0 <HAL_RCC_OscConfig+0x268>)
 8001ff6:	6018      	str	r0, [r3, #0]
 8001ff8:	4b76      	ldr	r3, [pc, #472]	; (80021d4 <HAL_RCC_OscConfig+0x26c>)
 8001ffa:	6818      	ldr	r0, [r3, #0]
 8001ffc:	f7fe fd68 	bl	8000ad0 <HAL_InitTick>
 8002000:	2800      	cmp	r0, #0
 8002002:	d037      	beq.n	8002074 <HAL_RCC_OscConfig+0x10c>
 8002004:	b003      	add	sp, #12
 8002006:	e8bd 83f0 	ldmia.w	sp!, {r4, r5, r6, r7, r8, r9, pc}
 800200a:	6823      	ldr	r3, [r4, #0]
 800200c:	f043 0308 	orr.w	r3, r3, #8
 8002010:	6023      	str	r3, [r4, #0]
 8002012:	6823      	ldr	r3, [r4, #0]
 8002014:	f023 03f0 	bic.w	r3, r3, #240	; 0xf0
 8002018:	4303      	orrs	r3, r0
 800201a:	6023      	str	r3, [r4, #0]
 800201c:	6863      	ldr	r3, [r4, #4]
 800201e:	69ea      	ldr	r2, [r5, #28]
 8002020:	f423 437f 	bic.w	r3, r3, #65280	; 0xff00
 8002024:	ea43 2302 	orr.w	r3, r3, r2, lsl #8
 8002028:	6063      	str	r3, [r4, #4]
 800202a:	2e00      	cmp	r6, #0
 800202c:	d1d8      	bne.n	8001fe0 <HAL_RCC_OscConfig+0x78>
 800202e:	f7ff ff0b 	bl	8001e48 <RCC_SetFlashLatencyFromMSIRange>
 8002032:	2800      	cmp	r0, #0
 8002034:	d0d4      	beq.n	8001fe0 <HAL_RCC_OscConfig+0x78>
 8002036:	e79b      	b.n	8001f70 <HAL_RCC_OscConfig+0x8>
 8002038:	69ab      	ldr	r3, [r5, #24]
 800203a:	2b00      	cmp	r3, #0
 800203c:	d03a      	beq.n	80020b4 <HAL_RCC_OscConfig+0x14c>
 800203e:	6823      	ldr	r3, [r4, #0]
 8002040:	f043 0301 	orr.w	r3, r3, #1
 8002044:	6023      	str	r3, [r4, #0]
 8002046:	f7fe fd85 	bl	8000b54 <HAL_GetTick>
 800204a:	4680      	mov	r8, r0
 800204c:	6823      	ldr	r3, [r4, #0]
 800204e:	079a      	lsls	r2, r3, #30
 8002050:	d528      	bpl.n	80020a4 <HAL_RCC_OscConfig+0x13c>
 8002052:	6823      	ldr	r3, [r4, #0]
 8002054:	f043 0308 	orr.w	r3, r3, #8
 8002058:	6023      	str	r3, [r4, #0]
 800205a:	6823      	ldr	r3, [r4, #0]
 800205c:	6a2a      	ldr	r2, [r5, #32]
 800205e:	f023 03f0 	bic.w	r3, r3, #240	; 0xf0
 8002062:	4313      	orrs	r3, r2
 8002064:	6023      	str	r3, [r4, #0]
 8002066:	6863      	ldr	r3, [r4, #4]
 8002068:	69ea      	ldr	r2, [r5, #28]
 800206a:	f423 437f 	bic.w	r3, r3, #65280	; 0xff00
 800206e:	ea43 2302 	orr.w	r3, r3, r2, lsl #8
 8002072:	6063      	str	r3, [r4, #4]
 8002074:	682b      	ldr	r3, [r5, #0]
 8002076:	07d8      	lsls	r0, r3, #31
 8002078:	d42d      	bmi.n	80020d6 <HAL_RCC_OscConfig+0x16e>
 800207a:	682b      	ldr	r3, [r5, #0]
 800207c:	0799      	lsls	r1, r3, #30
 800207e:	d46b      	bmi.n	8002158 <HAL_RCC_OscConfig+0x1f0>
 8002080:	682b      	ldr	r3, [r5, #0]
 8002082:	0718      	lsls	r0, r3, #28
 8002084:	f100 80a8 	bmi.w	80021d8 <HAL_RCC_OscConfig+0x270>
 8002088:	682b      	ldr	r3, [r5, #0]
 800208a:	0759      	lsls	r1, r3, #29
 800208c:	f100 80ce 	bmi.w	800222c <HAL_RCC_OscConfig+0x2c4>
 8002090:	682b      	ldr	r3, [r5, #0]
 8002092:	0699      	lsls	r1, r3, #26
 8002094:	f100 8137 	bmi.w	8002306 <HAL_RCC_OscConfig+0x39e>
 8002098:	6aab      	ldr	r3, [r5, #40]	; 0x28
 800209a:	2b00      	cmp	r3, #0
 800209c:	f040 815d 	bne.w	800235a <HAL_RCC_OscConfig+0x3f2>
 80020a0:	2000      	movs	r0, #0
 80020a2:	e7af      	b.n	8002004 <HAL_RCC_OscConfig+0x9c>
 80020a4:	f7fe fd56 	bl	8000b54 <HAL_GetTick>
 80020a8:	eba0 0008 	sub.w	r0, r0, r8
 80020ac:	2802      	cmp	r0, #2
 80020ae:	d9cd      	bls.n	800204c <HAL_RCC_OscConfig+0xe4>
 80020b0:	2003      	movs	r0, #3
 80020b2:	e7a7      	b.n	8002004 <HAL_RCC_OscConfig+0x9c>
 80020b4:	6823      	ldr	r3, [r4, #0]
 80020b6:	f023 0301 	bic.w	r3, r3, #1
 80020ba:	6023      	str	r3, [r4, #0]
 80020bc:	f7fe fd4a 	bl	8000b54 <HAL_GetTick>
 80020c0:	4680      	mov	r8, r0
 80020c2:	6823      	ldr	r3, [r4, #0]
 80020c4:	079b      	lsls	r3, r3, #30
 80020c6:	d5d5      	bpl.n	8002074 <HAL_RCC_OscConfig+0x10c>
 80020c8:	f7fe fd44 	bl	8000b54 <HAL_GetTick>
 80020cc:	eba0 0008 	sub.w	r0, r0, r8
 80020d0:	2802      	cmp	r0, #2
 80020d2:	d9f6      	bls.n	80020c2 <HAL_RCC_OscConfig+0x15a>
 80020d4:	e7ec      	b.n	80020b0 <HAL_RCC_OscConfig+0x148>
 80020d6:	2e08      	cmp	r6, #8
 80020d8:	d003      	beq.n	80020e2 <HAL_RCC_OscConfig+0x17a>
 80020da:	2e0c      	cmp	r6, #12
 80020dc:	d108      	bne.n	80020f0 <HAL_RCC_OscConfig+0x188>
 80020de:	2f03      	cmp	r7, #3
 80020e0:	d106      	bne.n	80020f0 <HAL_RCC_OscConfig+0x188>
 80020e2:	6823      	ldr	r3, [r4, #0]
 80020e4:	039a      	lsls	r2, r3, #14
 80020e6:	d5c8      	bpl.n	800207a <HAL_RCC_OscConfig+0x112>
 80020e8:	686b      	ldr	r3, [r5, #4]
 80020ea:	2b00      	cmp	r3, #0
 80020ec:	d1c5      	bne.n	800207a <HAL_RCC_OscConfig+0x112>
 80020ee:	e73f      	b.n	8001f70 <HAL_RCC_OscConfig+0x8>
 80020f0:	686b      	ldr	r3, [r5, #4]
 80020f2:	f5b3 3f80 	cmp.w	r3, #65536	; 0x10000
 80020f6:	d110      	bne.n	800211a <HAL_RCC_OscConfig+0x1b2>
 80020f8:	6823      	ldr	r3, [r4, #0]
 80020fa:	f443 3380 	orr.w	r3, r3, #65536	; 0x10000
 80020fe:	6023      	str	r3, [r4, #0]
 8002100:	f7fe fd28 	bl	8000b54 <HAL_GetTick>
 8002104:	4680      	mov	r8, r0
 8002106:	6823      	ldr	r3, [r4, #0]
 8002108:	039b      	lsls	r3, r3, #14
 800210a:	d4b6      	bmi.n	800207a <HAL_RCC_OscConfig+0x112>
 800210c:	f7fe fd22 	bl	8000b54 <HAL_GetTick>
 8002110:	eba0 0008 	sub.w	r0, r0, r8
 8002114:	2864      	cmp	r0, #100	; 0x64
 8002116:	d9f6      	bls.n	8002106 <HAL_RCC_OscConfig+0x19e>
 8002118:	e7ca      	b.n	80020b0 <HAL_RCC_OscConfig+0x148>
 800211a:	f5b3 2fa0 	cmp.w	r3, #327680	; 0x50000
 800211e:	d104      	bne.n	800212a <HAL_RCC_OscConfig+0x1c2>
 8002120:	6823      	ldr	r3, [r4, #0]
 8002122:	f443 2380 	orr.w	r3, r3, #262144	; 0x40000
 8002126:	6023      	str	r3, [r4, #0]
 8002128:	e7e6      	b.n	80020f8 <HAL_RCC_OscConfig+0x190>
 800212a:	6822      	ldr	r2, [r4, #0]
 800212c:	f422 3280 	bic.w	r2, r2, #65536	; 0x10000
 8002130:	6022      	str	r2, [r4, #0]
 8002132:	6822      	ldr	r2, [r4, #0]
 8002134:	f422 2280 	bic.w	r2, r2, #262144	; 0x40000
 8002138:	6022      	str	r2, [r4, #0]
 800213a:	2b00      	cmp	r3, #0
 800213c:	d1e0      	bne.n	8002100 <HAL_RCC_OscConfig+0x198>
 800213e:	f7fe fd09 	bl	8000b54 <HAL_GetTick>
 8002142:	4680      	mov	r8, r0
 8002144:	6823      	ldr	r3, [r4, #0]
 8002146:	0398      	lsls	r0, r3, #14
 8002148:	d597      	bpl.n	800207a <HAL_RCC_OscConfig+0x112>
 800214a:	f7fe fd03 	bl	8000b54 <HAL_GetTick>
 800214e:	eba0 0008 	sub.w	r0, r0, r8
 8002152:	2864      	cmp	r0, #100	; 0x64
 8002154:	d9f6      	bls.n	8002144 <HAL_RCC_OscConfig+0x1dc>
 8002156:	e7ab      	b.n	80020b0 <HAL_RCC_OscConfig+0x148>
 8002158:	2e04      	cmp	r6, #4
 800215a:	d003      	beq.n	8002164 <HAL_RCC_OscConfig+0x1fc>
 800215c:	2e0c      	cmp	r6, #12
 800215e:	d110      	bne.n	8002182 <HAL_RCC_OscConfig+0x21a>
 8002160:	2f02      	cmp	r7, #2
 8002162:	d10e      	bne.n	8002182 <HAL_RCC_OscConfig+0x21a>
 8002164:	6823      	ldr	r3, [r4, #0]
 8002166:	0559      	lsls	r1, r3, #21
 8002168:	d503      	bpl.n	8002172 <HAL_RCC_OscConfig+0x20a>
 800216a:	68eb      	ldr	r3, [r5, #12]
 800216c:	2b00      	cmp	r3, #0
 800216e:	f43f aeff 	beq.w	8001f70 <HAL_RCC_OscConfig+0x8>
 8002172:	6863      	ldr	r3, [r4, #4]
 8002174:	692a      	ldr	r2, [r5, #16]
 8002176:	f023 43fe 	bic.w	r3, r3, #2130706432	; 0x7f000000
 800217a:	ea43 6302 	orr.w	r3, r3, r2, lsl #24
 800217e:	6063      	str	r3, [r4, #4]
 8002180:	e77e      	b.n	8002080 <HAL_RCC_OscConfig+0x118>
 8002182:	68eb      	ldr	r3, [r5, #12]
 8002184:	b17b      	cbz	r3, 80021a6 <HAL_RCC_OscConfig+0x23e>
 8002186:	6823      	ldr	r3, [r4, #0]
 8002188:	f443 7380 	orr.w	r3, r3, #256	; 0x100
 800218c:	6023      	str	r3, [r4, #0]
 800218e:	f7fe fce1 	bl	8000b54 <HAL_GetTick>
 8002192:	4607      	mov	r7, r0
 8002194:	6823      	ldr	r3, [r4, #0]
 8002196:	055a      	lsls	r2, r3, #21
 8002198:	d4eb      	bmi.n	8002172 <HAL_RCC_OscConfig+0x20a>
 800219a:	f7fe fcdb 	bl	8000b54 <HAL_GetTick>
 800219e:	1bc0      	subs	r0, r0, r7
 80021a0:	2802      	cmp	r0, #2
 80021a2:	d9f7      	bls.n	8002194 <HAL_RCC_OscConfig+0x22c>
 80021a4:	e784      	b.n	80020b0 <HAL_RCC_OscConfig+0x148>
 80021a6:	6823      	ldr	r3, [r4, #0]
 80021a8:	f423 7380 	bic.w	r3, r3, #256	; 0x100
 80021ac:	6023      	str	r3, [r4, #0]
 80021ae:	f7fe fcd1 	bl	8000b54 <HAL_GetTick>
 80021b2:	4607      	mov	r7, r0
 80021b4:	6823      	ldr	r3, [r4, #0]
 80021b6:	055b      	lsls	r3, r3, #21
 80021b8:	f57f af62 	bpl.w	8002080 <HAL_RCC_OscConfig+0x118>
 80021bc:	f7fe fcca 	bl	8000b54 <HAL_GetTick>
 80021c0:	1bc0      	subs	r0, r0, r7
 80021c2:	2802      	cmp	r0, #2
 80021c4:	d9f6      	bls.n	80021b4 <HAL_RCC_OscConfig+0x24c>
 80021c6:	e773      	b.n	80020b0 <HAL_RCC_OscConfig+0x148>
 80021c8:	40021000 	.word	0x40021000
 80021cc:	08002ce4 	.word	0x08002ce4
 80021d0:	20000000 	.word	0x20000000
 80021d4:	20000008 	.word	0x20000008
 80021d8:	696b      	ldr	r3, [r5, #20]
 80021da:	b19b      	cbz	r3, 8002204 <HAL_RCC_OscConfig+0x29c>
 80021dc:	f8d4 3094 	ldr.w	r3, [r4, #148]	; 0x94
 80021e0:	f043 0301 	orr.w	r3, r3, #1
 80021e4:	f8c4 3094 	str.w	r3, [r4, #148]	; 0x94
 80021e8:	f7fe fcb4 	bl	8000b54 <HAL_GetTick>
 80021ec:	4607      	mov	r7, r0
 80021ee:	f8d4 3094 	ldr.w	r3, [r4, #148]	; 0x94
 80021f2:	079a      	lsls	r2, r3, #30
 80021f4:	f53f af48 	bmi.w	8002088 <HAL_RCC_OscConfig+0x120>
 80021f8:	f7fe fcac 	bl	8000b54 <HAL_GetTick>
 80021fc:	1bc0      	subs	r0, r0, r7
 80021fe:	2802      	cmp	r0, #2
 8002200:	d9f5      	bls.n	80021ee <HAL_RCC_OscConfig+0x286>
 8002202:	e755      	b.n	80020b0 <HAL_RCC_OscConfig+0x148>
 8002204:	f8d4 3094 	ldr.w	r3, [r4, #148]	; 0x94
 8002208:	f023 0301 	bic.w	r3, r3, #1
 800220c:	f8c4 3094 	str.w	r3, [r4, #148]	; 0x94
 8002210:	f7fe fca0 	bl	8000b54 <HAL_GetTick>
 8002214:	4607      	mov	r7, r0
 8002216:	f8d4 3094 	ldr.w	r3, [r4, #148]	; 0x94
 800221a:	079b      	lsls	r3, r3, #30
 800221c:	f57f af34 	bpl.w	8002088 <HAL_RCC_OscConfig+0x120>
 8002220:	f7fe fc98 	bl	8000b54 <HAL_GetTick>
 8002224:	1bc0      	subs	r0, r0, r7
 8002226:	2802      	cmp	r0, #2
 8002228:	d9f5      	bls.n	8002216 <HAL_RCC_OscConfig+0x2ae>
 800222a:	e741      	b.n	80020b0 <HAL_RCC_OscConfig+0x148>
 800222c:	6da3      	ldr	r3, [r4, #88]	; 0x58
 800222e:	00d8      	lsls	r0, r3, #3
 8002230:	d429      	bmi.n	8002286 <HAL_RCC_OscConfig+0x31e>
 8002232:	6da3      	ldr	r3, [r4, #88]	; 0x58
 8002234:	f043 5380 	orr.w	r3, r3, #268435456	; 0x10000000
 8002238:	65a3      	str	r3, [r4, #88]	; 0x58
 800223a:	6da3      	ldr	r3, [r4, #88]	; 0x58
 800223c:	f003 5380 	and.w	r3, r3, #268435456	; 0x10000000
 8002240:	9301      	str	r3, [sp, #4]
 8002242:	9b01      	ldr	r3, [sp, #4]
 8002244:	f04f 0801 	mov.w	r8, #1
 8002248:	4f96      	ldr	r7, [pc, #600]	; (80024a4 <HAL_RCC_OscConfig+0x53c>)
 800224a:	683b      	ldr	r3, [r7, #0]
 800224c:	05d9      	lsls	r1, r3, #23
 800224e:	d51d      	bpl.n	800228c <HAL_RCC_OscConfig+0x324>
 8002250:	68ab      	ldr	r3, [r5, #8]
 8002252:	2b01      	cmp	r3, #1
 8002254:	d12b      	bne.n	80022ae <HAL_RCC_OscConfig+0x346>
 8002256:	f8d4 3090 	ldr.w	r3, [r4, #144]	; 0x90
 800225a:	f043 0301 	orr.w	r3, r3, #1
 800225e:	f8c4 3090 	str.w	r3, [r4, #144]	; 0x90
 8002262:	f7fe fc77 	bl	8000b54 <HAL_GetTick>
 8002266:	f241 3988 	movw	r9, #5000	; 0x1388
 800226a:	4607      	mov	r7, r0
 800226c:	f8d4 3090 	ldr.w	r3, [r4, #144]	; 0x90
 8002270:	079b      	lsls	r3, r3, #30
 8002272:	d542      	bpl.n	80022fa <HAL_RCC_OscConfig+0x392>
 8002274:	f1b8 0f00 	cmp.w	r8, #0
 8002278:	f43f af0a 	beq.w	8002090 <HAL_RCC_OscConfig+0x128>
 800227c:	6da3      	ldr	r3, [r4, #88]	; 0x58
 800227e:	f023 5380 	bic.w	r3, r3, #268435456	; 0x10000000
 8002282:	65a3      	str	r3, [r4, #88]	; 0x58
 8002284:	e704      	b.n	8002090 <HAL_RCC_OscConfig+0x128>
 8002286:	f04f 0800 	mov.w	r8, #0
 800228a:	e7dd      	b.n	8002248 <HAL_RCC_OscConfig+0x2e0>
 800228c:	683b      	ldr	r3, [r7, #0]
 800228e:	f443 7380 	orr.w	r3, r3, #256	; 0x100
 8002292:	603b      	str	r3, [r7, #0]
 8002294:	f7fe fc5e 	bl	8000b54 <HAL_GetTick>
 8002298:	4681      	mov	r9, r0
 800229a:	683b      	ldr	r3, [r7, #0]
 800229c:	05da      	lsls	r2, r3, #23
 800229e:	d4d7      	bmi.n	8002250 <HAL_RCC_OscConfig+0x2e8>
 80022a0:	f7fe fc58 	bl	8000b54 <HAL_GetTick>
 80022a4:	eba0 0009 	sub.w	r0, r0, r9
 80022a8:	2802      	cmp	r0, #2
 80022aa:	d9f6      	bls.n	800229a <HAL_RCC_OscConfig+0x332>
 80022ac:	e700      	b.n	80020b0 <HAL_RCC_OscConfig+0x148>
 80022ae:	2b05      	cmp	r3, #5
 80022b0:	d106      	bne.n	80022c0 <HAL_RCC_OscConfig+0x358>
 80022b2:	f8d4 3090 	ldr.w	r3, [r4, #144]	; 0x90
 80022b6:	f043 0304 	orr.w	r3, r3, #4
 80022ba:	f8c4 3090 	str.w	r3, [r4, #144]	; 0x90
 80022be:	e7ca      	b.n	8002256 <HAL_RCC_OscConfig+0x2ee>
 80022c0:	f8d4 2090 	ldr.w	r2, [r4, #144]	; 0x90
 80022c4:	f022 0201 	bic.w	r2, r2, #1
 80022c8:	f8c4 2090 	str.w	r2, [r4, #144]	; 0x90
 80022cc:	f8d4 2090 	ldr.w	r2, [r4, #144]	; 0x90
 80022d0:	f022 0204 	bic.w	r2, r2, #4
 80022d4:	f8c4 2090 	str.w	r2, [r4, #144]	; 0x90
 80022d8:	2b00      	cmp	r3, #0
 80022da:	d1c2      	bne.n	8002262 <HAL_RCC_OscConfig+0x2fa>
 80022dc:	f7fe fc3a 	bl	8000b54 <HAL_GetTick>
 80022e0:	f241 3988 	movw	r9, #5000	; 0x1388
 80022e4:	4607      	mov	r7, r0
 80022e6:	f8d4 3090 	ldr.w	r3, [r4, #144]	; 0x90
 80022ea:	0798      	lsls	r0, r3, #30
 80022ec:	d5c2      	bpl.n	8002274 <HAL_RCC_OscConfig+0x30c>
 80022ee:	f7fe fc31 	bl	8000b54 <HAL_GetTick>
 80022f2:	1bc0      	subs	r0, r0, r7
 80022f4:	4548      	cmp	r0, r9
 80022f6:	d9f6      	bls.n	80022e6 <HAL_RCC_OscConfig+0x37e>
 80022f8:	e6da      	b.n	80020b0 <HAL_RCC_OscConfig+0x148>
 80022fa:	f7fe fc2b 	bl	8000b54 <HAL_GetTick>
 80022fe:	1bc0      	subs	r0, r0, r7
 8002300:	4548      	cmp	r0, r9
 8002302:	d9b3      	bls.n	800226c <HAL_RCC_OscConfig+0x304>
 8002304:	e6d4      	b.n	80020b0 <HAL_RCC_OscConfig+0x148>
 8002306:	6a6b      	ldr	r3, [r5, #36]	; 0x24
 8002308:	b19b      	cbz	r3, 8002332 <HAL_RCC_OscConfig+0x3ca>
 800230a:	f8d4 3098 	ldr.w	r3, [r4, #152]	; 0x98
 800230e:	f043 0301 	orr.w	r3, r3, #1
 8002312:	f8c4 3098 	str.w	r3, [r4, #152]	; 0x98
 8002316:	f7fe fc1d 	bl	8000b54 <HAL_GetTick>
 800231a:	4607      	mov	r7, r0
 800231c:	f8d4 3098 	ldr.w	r3, [r4, #152]	; 0x98
 8002320:	079a      	lsls	r2, r3, #30
 8002322:	f53f aeb9 	bmi.w	8002098 <HAL_RCC_OscConfig+0x130>
 8002326:	f7fe fc15 	bl	8000b54 <HAL_GetTick>
 800232a:	1bc0      	subs	r0, r0, r7
 800232c:	2802      	cmp	r0, #2
 800232e:	d9f5      	bls.n	800231c <HAL_RCC_OscConfig+0x3b4>
 8002330:	e6be      	b.n	80020b0 <HAL_RCC_OscConfig+0x148>
 8002332:	f8d4 3098 	ldr.w	r3, [r4, #152]	; 0x98
 8002336:	f023 0301 	bic.w	r3, r3, #1
 800233a:	f8c4 3098 	str.w	r3, [r4, #152]	; 0x98
 800233e:	f7fe fc09 	bl	8000b54 <HAL_GetTick>
 8002342:	4607      	mov	r7, r0
 8002344:	f8d4 3098 	ldr.w	r3, [r4, #152]	; 0x98
 8002348:	079b      	lsls	r3, r3, #30
 800234a:	f57f aea5 	bpl.w	8002098 <HAL_RCC_OscConfig+0x130>
 800234e:	f7fe fc01 	bl	8000b54 <HAL_GetTick>
 8002352:	1bc0      	subs	r0, r0, r7
 8002354:	2802      	cmp	r0, #2
 8002356:	d9f5      	bls.n	8002344 <HAL_RCC_OscConfig+0x3dc>
 8002358:	e6aa      	b.n	80020b0 <HAL_RCC_OscConfig+0x148>
 800235a:	2b02      	cmp	r3, #2
 800235c:	f040 8088 	bne.w	8002470 <HAL_RCC_OscConfig+0x508>
 8002360:	68e3      	ldr	r3, [r4, #12]
 8002362:	6aea      	ldr	r2, [r5, #44]	; 0x2c
 8002364:	f003 0103 	and.w	r1, r3, #3
 8002368:	4291      	cmp	r1, r2
 800236a:	d122      	bne.n	80023b2 <HAL_RCC_OscConfig+0x44a>
 800236c:	6b29      	ldr	r1, [r5, #48]	; 0x30
 800236e:	f003 0270 	and.w	r2, r3, #112	; 0x70
 8002372:	3901      	subs	r1, #1
 8002374:	ebb2 1f01 	cmp.w	r2, r1, lsl #4
 8002378:	d11b      	bne.n	80023b2 <HAL_RCC_OscConfig+0x44a>
 800237a:	6b69      	ldr	r1, [r5, #52]	; 0x34
 800237c:	f403 42fe 	and.w	r2, r3, #32512	; 0x7f00
 8002380:	ebb2 2f01 	cmp.w	r2, r1, lsl #8
 8002384:	d115      	bne.n	80023b2 <HAL_RCC_OscConfig+0x44a>
 8002386:	6ba9      	ldr	r1, [r5, #56]	; 0x38
 8002388:	f003 4278 	and.w	r2, r3, #4160749568	; 0xf8000000
 800238c:	ebb2 6fc1 	cmp.w	r2, r1, lsl #27
 8002390:	d10f      	bne.n	80023b2 <HAL_RCC_OscConfig+0x44a>
 8002392:	6bea      	ldr	r2, [r5, #60]	; 0x3c
 8002394:	0852      	lsrs	r2, r2, #1
 8002396:	f403 01c0 	and.w	r1, r3, #6291456	; 0x600000
 800239a:	3a01      	subs	r2, #1
 800239c:	ebb1 5f42 	cmp.w	r1, r2, lsl #21
 80023a0:	d107      	bne.n	80023b2 <HAL_RCC_OscConfig+0x44a>
 80023a2:	6c2a      	ldr	r2, [r5, #64]	; 0x40
 80023a4:	0852      	lsrs	r2, r2, #1
 80023a6:	f003 63c0 	and.w	r3, r3, #100663296	; 0x6000000
 80023aa:	3a01      	subs	r2, #1
 80023ac:	ebb3 6f42 	cmp.w	r3, r2, lsl #25
 80023b0:	d045      	beq.n	800243e <HAL_RCC_OscConfig+0x4d6>
 80023b2:	2e0c      	cmp	r6, #12
 80023b4:	f43f addc 	beq.w	8001f70 <HAL_RCC_OscConfig+0x8>
 80023b8:	6823      	ldr	r3, [r4, #0]
 80023ba:	015e      	lsls	r6, r3, #5
 80023bc:	f53f add8 	bmi.w	8001f70 <HAL_RCC_OscConfig+0x8>
 80023c0:	6823      	ldr	r3, [r4, #0]
 80023c2:	f023 7380 	bic.w	r3, r3, #16777216	; 0x1000000
 80023c6:	6023      	str	r3, [r4, #0]
 80023c8:	f7fe fbc4 	bl	8000b54 <HAL_GetTick>
 80023cc:	4606      	mov	r6, r0
 80023ce:	6823      	ldr	r3, [r4, #0]
 80023d0:	0198      	lsls	r0, r3, #6
 80023d2:	d42e      	bmi.n	8002432 <HAL_RCC_OscConfig+0x4ca>
 80023d4:	68e2      	ldr	r2, [r4, #12]
 80023d6:	4b34      	ldr	r3, [pc, #208]	; (80024a8 <HAL_RCC_OscConfig+0x540>)
 80023d8:	4013      	ands	r3, r2
 80023da:	6aea      	ldr	r2, [r5, #44]	; 0x2c
 80023dc:	4313      	orrs	r3, r2
 80023de:	6b6a      	ldr	r2, [r5, #52]	; 0x34
 80023e0:	ea43 2302 	orr.w	r3, r3, r2, lsl #8
 80023e4:	6baa      	ldr	r2, [r5, #56]	; 0x38
 80023e6:	ea43 63c2 	orr.w	r3, r3, r2, lsl #27
 80023ea:	6b2a      	ldr	r2, [r5, #48]	; 0x30
 80023ec:	3a01      	subs	r2, #1
 80023ee:	ea43 1302 	orr.w	r3, r3, r2, lsl #4
 80023f2:	6bea      	ldr	r2, [r5, #60]	; 0x3c
 80023f4:	0852      	lsrs	r2, r2, #1
 80023f6:	3a01      	subs	r2, #1
 80023f8:	ea43 5342 	orr.w	r3, r3, r2, lsl #21
 80023fc:	6c2a      	ldr	r2, [r5, #64]	; 0x40
 80023fe:	0852      	lsrs	r2, r2, #1
 8002400:	3a01      	subs	r2, #1
 8002402:	ea43 6342 	orr.w	r3, r3, r2, lsl #25
 8002406:	60e3      	str	r3, [r4, #12]
 8002408:	6823      	ldr	r3, [r4, #0]
 800240a:	f043 7380 	orr.w	r3, r3, #16777216	; 0x1000000
 800240e:	6023      	str	r3, [r4, #0]
 8002410:	68e3      	ldr	r3, [r4, #12]
 8002412:	f043 7380 	orr.w	r3, r3, #16777216	; 0x1000000
 8002416:	60e3      	str	r3, [r4, #12]
 8002418:	f7fe fb9c 	bl	8000b54 <HAL_GetTick>
 800241c:	4605      	mov	r5, r0
 800241e:	6823      	ldr	r3, [r4, #0]
 8002420:	0199      	lsls	r1, r3, #6
 8002422:	f53f ae3d 	bmi.w	80020a0 <HAL_RCC_OscConfig+0x138>
 8002426:	f7fe fb95 	bl	8000b54 <HAL_GetTick>
 800242a:	1b40      	subs	r0, r0, r5
 800242c:	2802      	cmp	r0, #2
 800242e:	d9f6      	bls.n	800241e <HAL_RCC_OscConfig+0x4b6>
 8002430:	e63e      	b.n	80020b0 <HAL_RCC_OscConfig+0x148>
 8002432:	f7fe fb8f 	bl	8000b54 <HAL_GetTick>
 8002436:	1b80      	subs	r0, r0, r6
 8002438:	2802      	cmp	r0, #2
 800243a:	d9c8      	bls.n	80023ce <HAL_RCC_OscConfig+0x466>
 800243c:	e638      	b.n	80020b0 <HAL_RCC_OscConfig+0x148>
 800243e:	6823      	ldr	r3, [r4, #0]
 8002440:	019a      	lsls	r2, r3, #6
 8002442:	f53f ae2d 	bmi.w	80020a0 <HAL_RCC_OscConfig+0x138>
 8002446:	6823      	ldr	r3, [r4, #0]
 8002448:	f043 7380 	orr.w	r3, r3, #16777216	; 0x1000000
 800244c:	6023      	str	r3, [r4, #0]
 800244e:	68e3      	ldr	r3, [r4, #12]
 8002450:	f043 7380 	orr.w	r3, r3, #16777216	; 0x1000000
 8002454:	60e3      	str	r3, [r4, #12]
 8002456:	f7fe fb7d 	bl	8000b54 <HAL_GetTick>
 800245a:	4605      	mov	r5, r0
 800245c:	6823      	ldr	r3, [r4, #0]
 800245e:	019b      	lsls	r3, r3, #6
 8002460:	f53f ae1e 	bmi.w	80020a0 <HAL_RCC_OscConfig+0x138>
 8002464:	f7fe fb76 	bl	8000b54 <HAL_GetTick>
 8002468:	1b40      	subs	r0, r0, r5
 800246a:	2802      	cmp	r0, #2
 800246c:	d9f6      	bls.n	800245c <HAL_RCC_OscConfig+0x4f4>
 800246e:	e61f      	b.n	80020b0 <HAL_RCC_OscConfig+0x148>
 8002470:	2e0c      	cmp	r6, #12
 8002472:	f43f ad7d 	beq.w	8001f70 <HAL_RCC_OscConfig+0x8>
 8002476:	6823      	ldr	r3, [r4, #0]
 8002478:	f023 7380 	bic.w	r3, r3, #16777216	; 0x1000000
 800247c:	6023      	str	r3, [r4, #0]
 800247e:	f7fe fb69 	bl	8000b54 <HAL_GetTick>
 8002482:	4605      	mov	r5, r0
 8002484:	6823      	ldr	r3, [r4, #0]
 8002486:	f013 7300 	ands.w	r3, r3, #33554432	; 0x2000000
 800248a:	d104      	bne.n	8002496 <HAL_RCC_OscConfig+0x52e>
 800248c:	68e1      	ldr	r1, [r4, #12]
 800248e:	4a07      	ldr	r2, [pc, #28]	; (80024ac <HAL_RCC_OscConfig+0x544>)
 8002490:	400a      	ands	r2, r1
 8002492:	60e2      	str	r2, [r4, #12]
 8002494:	e604      	b.n	80020a0 <HAL_RCC_OscConfig+0x138>
 8002496:	f7fe fb5d 	bl	8000b54 <HAL_GetTick>
 800249a:	1b40      	subs	r0, r0, r5
 800249c:	2802      	cmp	r0, #2
 800249e:	d9f1      	bls.n	8002484 <HAL_RCC_OscConfig+0x51c>
 80024a0:	e606      	b.n	80020b0 <HAL_RCC_OscConfig+0x148>
 80024a2:	bf00      	nop
 80024a4:	40007000 	.word	0x40007000
 80024a8:	019d808c 	.word	0x019d808c
 80024ac:	feeefffc 	.word	0xfeeefffc

080024b0 <HAL_RCC_ClockConfig>:
 80024b0:	e92d 41f0 	stmdb	sp!, {r4, r5, r6, r7, r8, lr}
 80024b4:	460d      	mov	r5, r1
 80024b6:	4604      	mov	r4, r0
 80024b8:	b910      	cbnz	r0, 80024c0 <HAL_RCC_ClockConfig+0x10>
 80024ba:	2001      	movs	r0, #1
 80024bc:	e8bd 81f0 	ldmia.w	sp!, {r4, r5, r6, r7, r8, pc}
 80024c0:	4a4b      	ldr	r2, [pc, #300]	; (80025f0 <HAL_RCC_ClockConfig+0x140>)
 80024c2:	6813      	ldr	r3, [r2, #0]
 80024c4:	f003 0307 	and.w	r3, r3, #7
 80024c8:	428b      	cmp	r3, r1
 80024ca:	d32c      	bcc.n	8002526 <HAL_RCC_ClockConfig+0x76>
 80024cc:	6820      	ldr	r0, [r4, #0]
 80024ce:	0786      	lsls	r6, r0, #30
 80024d0:	d434      	bmi.n	800253c <HAL_RCC_ClockConfig+0x8c>
 80024d2:	07c1      	lsls	r1, r0, #31
 80024d4:	d43f      	bmi.n	8002556 <HAL_RCC_ClockConfig+0xa6>
 80024d6:	6821      	ldr	r1, [r4, #0]
 80024d8:	078a      	lsls	r2, r1, #30
 80024da:	d468      	bmi.n	80025ae <HAL_RCC_ClockConfig+0xfe>
 80024dc:	4a44      	ldr	r2, [pc, #272]	; (80025f0 <HAL_RCC_ClockConfig+0x140>)
 80024de:	6813      	ldr	r3, [r2, #0]
 80024e0:	f003 0307 	and.w	r3, r3, #7
 80024e4:	42ab      	cmp	r3, r5
 80024e6:	d86f      	bhi.n	80025c8 <HAL_RCC_ClockConfig+0x118>
 80024e8:	f011 0f04 	tst.w	r1, #4
 80024ec:	4d41      	ldr	r5, [pc, #260]	; (80025f4 <HAL_RCC_ClockConfig+0x144>)
 80024ee:	d177      	bne.n	80025e0 <HAL_RCC_ClockConfig+0x130>
 80024f0:	070b      	lsls	r3, r1, #28
 80024f2:	d506      	bpl.n	8002502 <HAL_RCC_ClockConfig+0x52>
 80024f4:	68ab      	ldr	r3, [r5, #8]
 80024f6:	6922      	ldr	r2, [r4, #16]
 80024f8:	f423 5360 	bic.w	r3, r3, #14336	; 0x3800
 80024fc:	ea43 03c2 	orr.w	r3, r3, r2, lsl #3
 8002500:	60ab      	str	r3, [r5, #8]
 8002502:	f7ff fce3 	bl	8001ecc <HAL_RCC_GetSysClockFreq>
 8002506:	68ab      	ldr	r3, [r5, #8]
 8002508:	4a3b      	ldr	r2, [pc, #236]	; (80025f8 <HAL_RCC_ClockConfig+0x148>)
 800250a:	f3c3 1303 	ubfx	r3, r3, #4, #4
 800250e:	e8bd 41f0 	ldmia.w	sp!, {r4, r5, r6, r7, r8, lr}
 8002512:	5cd3      	ldrb	r3, [r2, r3]
 8002514:	f003 031f 	and.w	r3, r3, #31
 8002518:	40d8      	lsrs	r0, r3
 800251a:	4b38      	ldr	r3, [pc, #224]	; (80025fc <HAL_RCC_ClockConfig+0x14c>)
 800251c:	6018      	str	r0, [r3, #0]
 800251e:	4b38      	ldr	r3, [pc, #224]	; (8002600 <HAL_RCC_ClockConfig+0x150>)
 8002520:	6818      	ldr	r0, [r3, #0]
 8002522:	f7fe bad5 	b.w	8000ad0 <HAL_InitTick>
 8002526:	6813      	ldr	r3, [r2, #0]
 8002528:	f023 0307 	bic.w	r3, r3, #7
 800252c:	430b      	orrs	r3, r1
 800252e:	6013      	str	r3, [r2, #0]
 8002530:	6813      	ldr	r3, [r2, #0]
 8002532:	f003 0307 	and.w	r3, r3, #7
 8002536:	428b      	cmp	r3, r1
 8002538:	d1bf      	bne.n	80024ba <HAL_RCC_ClockConfig+0xa>
 800253a:	e7c7      	b.n	80024cc <HAL_RCC_ClockConfig+0x1c>
 800253c:	4a2d      	ldr	r2, [pc, #180]	; (80025f4 <HAL_RCC_ClockConfig+0x144>)
 800253e:	68a6      	ldr	r6, [r4, #8]
 8002540:	6891      	ldr	r1, [r2, #8]
 8002542:	f001 01f0 	and.w	r1, r1, #240	; 0xf0
 8002546:	428e      	cmp	r6, r1
 8002548:	bf81      	itttt	hi
 800254a:	6893      	ldrhi	r3, [r2, #8]
 800254c:	f023 03f0 	bichi.w	r3, r3, #240	; 0xf0
 8002550:	4333      	orrhi	r3, r6
 8002552:	6093      	strhi	r3, [r2, #8]
 8002554:	e7bd      	b.n	80024d2 <HAL_RCC_ClockConfig+0x22>
 8002556:	6862      	ldr	r2, [r4, #4]
 8002558:	4e26      	ldr	r6, [pc, #152]	; (80025f4 <HAL_RCC_ClockConfig+0x144>)
 800255a:	2a03      	cmp	r2, #3
 800255c:	6833      	ldr	r3, [r6, #0]
 800255e:	d11a      	bne.n	8002596 <HAL_RCC_ClockConfig+0xe6>
 8002560:	f013 7f00 	tst.w	r3, #33554432	; 0x2000000
 8002564:	d0a9      	beq.n	80024ba <HAL_RCC_ClockConfig+0xa>
 8002566:	68b3      	ldr	r3, [r6, #8]
 8002568:	f023 0303 	bic.w	r3, r3, #3
 800256c:	4313      	orrs	r3, r2
 800256e:	60b3      	str	r3, [r6, #8]
 8002570:	f7fe faf0 	bl	8000b54 <HAL_GetTick>
 8002574:	f241 3888 	movw	r8, #5000	; 0x1388
 8002578:	4607      	mov	r7, r0
 800257a:	68b3      	ldr	r3, [r6, #8]
 800257c:	6862      	ldr	r2, [r4, #4]
 800257e:	f003 030c 	and.w	r3, r3, #12
 8002582:	ebb3 0f82 	cmp.w	r3, r2, lsl #2
 8002586:	d0a6      	beq.n	80024d6 <HAL_RCC_ClockConfig+0x26>
 8002588:	f7fe fae4 	bl	8000b54 <HAL_GetTick>
 800258c:	1bc0      	subs	r0, r0, r7
 800258e:	4540      	cmp	r0, r8
 8002590:	d9f3      	bls.n	800257a <HAL_RCC_ClockConfig+0xca>
 8002592:	2003      	movs	r0, #3
 8002594:	e792      	b.n	80024bc <HAL_RCC_ClockConfig+0xc>
 8002596:	2a02      	cmp	r2, #2
 8002598:	d102      	bne.n	80025a0 <HAL_RCC_ClockConfig+0xf0>
 800259a:	f413 3f00 	tst.w	r3, #131072	; 0x20000
 800259e:	e7e1      	b.n	8002564 <HAL_RCC_ClockConfig+0xb4>
 80025a0:	b912      	cbnz	r2, 80025a8 <HAL_RCC_ClockConfig+0xf8>
 80025a2:	f013 0f02 	tst.w	r3, #2
 80025a6:	e7dd      	b.n	8002564 <HAL_RCC_ClockConfig+0xb4>
 80025a8:	f413 6f80 	tst.w	r3, #1024	; 0x400
 80025ac:	e7da      	b.n	8002564 <HAL_RCC_ClockConfig+0xb4>
 80025ae:	4a11      	ldr	r2, [pc, #68]	; (80025f4 <HAL_RCC_ClockConfig+0x144>)
 80025b0:	68a6      	ldr	r6, [r4, #8]
 80025b2:	6890      	ldr	r0, [r2, #8]
 80025b4:	f000 00f0 	and.w	r0, r0, #240	; 0xf0
 80025b8:	4286      	cmp	r6, r0
 80025ba:	bf3f      	itttt	cc
 80025bc:	6893      	ldrcc	r3, [r2, #8]
 80025be:	f023 03f0 	biccc.w	r3, r3, #240	; 0xf0
 80025c2:	4333      	orrcc	r3, r6
 80025c4:	6093      	strcc	r3, [r2, #8]
 80025c6:	e789      	b.n	80024dc <HAL_RCC_ClockConfig+0x2c>
 80025c8:	6813      	ldr	r3, [r2, #0]
 80025ca:	f023 0307 	bic.w	r3, r3, #7
 80025ce:	432b      	orrs	r3, r5
 80025d0:	6013      	str	r3, [r2, #0]
 80025d2:	6813      	ldr	r3, [r2, #0]
 80025d4:	f003 0307 	and.w	r3, r3, #7
 80025d8:	42ab      	cmp	r3, r5
 80025da:	f47f af6e 	bne.w	80024ba <HAL_RCC_ClockConfig+0xa>
 80025de:	e783      	b.n	80024e8 <HAL_RCC_ClockConfig+0x38>
 80025e0:	68ab      	ldr	r3, [r5, #8]
 80025e2:	68e2      	ldr	r2, [r4, #12]
 80025e4:	f423 63e0 	bic.w	r3, r3, #1792	; 0x700
 80025e8:	4313      	orrs	r3, r2
 80025ea:	60ab      	str	r3, [r5, #8]
 80025ec:	e780      	b.n	80024f0 <HAL_RCC_ClockConfig+0x40>
 80025ee:	bf00      	nop
 80025f0:	40022000 	.word	0x40022000
 80025f4:	40021000 	.word	0x40021000
 80025f8:	08002ce4 	.word	0x08002ce4
 80025fc:	20000000 	.word	0x20000000
 8002600:	20000008 	.word	0x20000008

08002604 <RCCEx_PLLSAI1_Config>:
 8002604:	b5f8      	push	{r3, r4, r5, r6, r7, lr}
 8002606:	4c43      	ldr	r4, [pc, #268]	; (8002714 <RCCEx_PLLSAI1_Config+0x110>)
 8002608:	6803      	ldr	r3, [r0, #0]
 800260a:	68e2      	ldr	r2, [r4, #12]
 800260c:	4605      	mov	r5, r0
 800260e:	0790      	lsls	r0, r2, #30
 8002610:	460e      	mov	r6, r1
 8002612:	d039      	beq.n	8002688 <RCCEx_PLLSAI1_Config+0x84>
 8002614:	68e2      	ldr	r2, [r4, #12]
 8002616:	f002 0203 	and.w	r2, r2, #3
 800261a:	429a      	cmp	r2, r3
 800261c:	d177      	bne.n	800270e <RCCEx_PLLSAI1_Config+0x10a>
 800261e:	2a00      	cmp	r2, #0
 8002620:	d075      	beq.n	800270e <RCCEx_PLLSAI1_Config+0x10a>
 8002622:	68e3      	ldr	r3, [r4, #12]
 8002624:	686a      	ldr	r2, [r5, #4]
 8002626:	f3c3 1302 	ubfx	r3, r3, #4, #3
 800262a:	3301      	adds	r3, #1
 800262c:	4293      	cmp	r3, r2
 800262e:	d16e      	bne.n	800270e <RCCEx_PLLSAI1_Config+0x10a>
 8002630:	6823      	ldr	r3, [r4, #0]
 8002632:	f023 6380 	bic.w	r3, r3, #67108864	; 0x4000000
 8002636:	6023      	str	r3, [r4, #0]
 8002638:	f7fe fa8c 	bl	8000b54 <HAL_GetTick>
 800263c:	4607      	mov	r7, r0
 800263e:	6823      	ldr	r3, [r4, #0]
 8002640:	011a      	lsls	r2, r3, #4
 8002642:	d440      	bmi.n	80026c6 <RCCEx_PLLSAI1_Config+0xc2>
 8002644:	68ab      	ldr	r3, [r5, #8]
 8002646:	0218      	lsls	r0, r3, #8
 8002648:	2e00      	cmp	r6, #0
 800264a:	d043      	beq.n	80026d4 <RCCEx_PLLSAI1_Config+0xd0>
 800264c:	2e01      	cmp	r6, #1
 800264e:	d14c      	bne.n	80026ea <RCCEx_PLLSAI1_Config+0xe6>
 8002650:	692a      	ldr	r2, [r5, #16]
 8002652:	6921      	ldr	r1, [r4, #16]
 8002654:	0852      	lsrs	r2, r2, #1
 8002656:	1e53      	subs	r3, r2, #1
 8002658:	f421 02c0 	bic.w	r2, r1, #6291456	; 0x600000
 800265c:	f422 42fe 	bic.w	r2, r2, #32512	; 0x7f00
 8002660:	4302      	orrs	r2, r0
 8002662:	ea42 5243 	orr.w	r2, r2, r3, lsl #21
 8002666:	6122      	str	r2, [r4, #16]
 8002668:	6823      	ldr	r3, [r4, #0]
 800266a:	f043 6380 	orr.w	r3, r3, #67108864	; 0x4000000
 800266e:	6023      	str	r3, [r4, #0]
 8002670:	f7fe fa70 	bl	8000b54 <HAL_GetTick>
 8002674:	4606      	mov	r6, r0
 8002676:	6823      	ldr	r3, [r4, #0]
 8002678:	011b      	lsls	r3, r3, #4
 800267a:	d542      	bpl.n	8002702 <RCCEx_PLLSAI1_Config+0xfe>
 800267c:	6923      	ldr	r3, [r4, #16]
 800267e:	69aa      	ldr	r2, [r5, #24]
 8002680:	4313      	orrs	r3, r2
 8002682:	6123      	str	r3, [r4, #16]
 8002684:	2000      	movs	r0, #0
 8002686:	e024      	b.n	80026d2 <RCCEx_PLLSAI1_Config+0xce>
 8002688:	2b02      	cmp	r3, #2
 800268a:	d011      	beq.n	80026b0 <RCCEx_PLLSAI1_Config+0xac>
 800268c:	2b03      	cmp	r3, #3
 800268e:	d013      	beq.n	80026b8 <RCCEx_PLLSAI1_Config+0xb4>
 8002690:	2b01      	cmp	r3, #1
 8002692:	d13c      	bne.n	800270e <RCCEx_PLLSAI1_Config+0x10a>
 8002694:	6822      	ldr	r2, [r4, #0]
 8002696:	f012 0f02 	tst.w	r2, #2
 800269a:	d038      	beq.n	800270e <RCCEx_PLLSAI1_Config+0x10a>
 800269c:	68e0      	ldr	r0, [r4, #12]
 800269e:	686a      	ldr	r2, [r5, #4]
 80026a0:	f020 0073 	bic.w	r0, r0, #115	; 0x73
 80026a4:	3a01      	subs	r2, #1
 80026a6:	4318      	orrs	r0, r3
 80026a8:	ea40 1002 	orr.w	r0, r0, r2, lsl #4
 80026ac:	60e0      	str	r0, [r4, #12]
 80026ae:	e7bf      	b.n	8002630 <RCCEx_PLLSAI1_Config+0x2c>
 80026b0:	6822      	ldr	r2, [r4, #0]
 80026b2:	f412 6f80 	tst.w	r2, #1024	; 0x400
 80026b6:	e7f0      	b.n	800269a <RCCEx_PLLSAI1_Config+0x96>
 80026b8:	6822      	ldr	r2, [r4, #0]
 80026ba:	0391      	lsls	r1, r2, #14
 80026bc:	d4ee      	bmi.n	800269c <RCCEx_PLLSAI1_Config+0x98>
 80026be:	6822      	ldr	r2, [r4, #0]
 80026c0:	f412 2f80 	tst.w	r2, #262144	; 0x40000
 80026c4:	e7e9      	b.n	800269a <RCCEx_PLLSAI1_Config+0x96>
 80026c6:	f7fe fa45 	bl	8000b54 <HAL_GetTick>
 80026ca:	1bc0      	subs	r0, r0, r7
 80026cc:	2802      	cmp	r0, #2
 80026ce:	d9b6      	bls.n	800263e <RCCEx_PLLSAI1_Config+0x3a>
 80026d0:	2003      	movs	r0, #3
 80026d2:	bdf8      	pop	{r3, r4, r5, r6, r7, pc}
 80026d4:	6922      	ldr	r2, [r4, #16]
 80026d6:	68eb      	ldr	r3, [r5, #12]
 80026d8:	ea40 63c3 	orr.w	r3, r0, r3, lsl #27
 80026dc:	f022 4078 	bic.w	r0, r2, #4160749568	; 0xf8000000
 80026e0:	f420 40fe 	bic.w	r0, r0, #32512	; 0x7f00
 80026e4:	4303      	orrs	r3, r0
 80026e6:	6123      	str	r3, [r4, #16]
 80026e8:	e7be      	b.n	8002668 <RCCEx_PLLSAI1_Config+0x64>
 80026ea:	696b      	ldr	r3, [r5, #20]
 80026ec:	6922      	ldr	r2, [r4, #16]
 80026ee:	085b      	lsrs	r3, r3, #1
 80026f0:	1e59      	subs	r1, r3, #1
 80026f2:	f022 63c0 	bic.w	r3, r2, #100663296	; 0x6000000
 80026f6:	f423 43fe 	bic.w	r3, r3, #32512	; 0x7f00
 80026fa:	4303      	orrs	r3, r0
 80026fc:	ea43 6341 	orr.w	r3, r3, r1, lsl #25
 8002700:	e7f1      	b.n	80026e6 <RCCEx_PLLSAI1_Config+0xe2>
 8002702:	f7fe fa27 	bl	8000b54 <HAL_GetTick>
 8002706:	1b80      	subs	r0, r0, r6
 8002708:	2802      	cmp	r0, #2
 800270a:	d9b4      	bls.n	8002676 <RCCEx_PLLSAI1_Config+0x72>
 800270c:	e7e0      	b.n	80026d0 <RCCEx_PLLSAI1_Config+0xcc>
 800270e:	2001      	movs	r0, #1
 8002710:	e7df      	b.n	80026d2 <RCCEx_PLLSAI1_Config+0xce>
 8002712:	bf00      	nop
 8002714:	40021000 	.word	0x40021000

08002718 <HAL_RCCEx_PeriphCLKConfig>:
 8002718:	e92d 43f7 	stmdb	sp!, {r0, r1, r2, r4, r5, r6, r7, r8, r9, lr}
 800271c:	6805      	ldr	r5, [r0, #0]
 800271e:	f415 6500 	ands.w	r5, r5, #2048	; 0x800
 8002722:	4604      	mov	r4, r0
 8002724:	d009      	beq.n	800273a <HAL_RCCEx_PeriphCLKConfig+0x22>
 8002726:	6cc1      	ldr	r1, [r0, #76]	; 0x4c
 8002728:	f5b1 0f00 	cmp.w	r1, #8388608	; 0x800000
 800272c:	d035      	beq.n	800279a <HAL_RCCEx_PeriphCLKConfig+0x82>
 800272e:	f5b1 0f40 	cmp.w	r1, #12582912	; 0xc00000
 8002732:	d037      	beq.n	80027a4 <HAL_RCCEx_PeriphCLKConfig+0x8c>
 8002734:	2900      	cmp	r1, #0
 8002736:	d040      	beq.n	80027ba <HAL_RCCEx_PeriphCLKConfig+0xa2>
 8002738:	2501      	movs	r5, #1
 800273a:	6823      	ldr	r3, [r4, #0]
 800273c:	039e      	lsls	r6, r3, #14
 800273e:	d551      	bpl.n	80027e4 <HAL_RCCEx_PeriphCLKConfig+0xcc>
 8002740:	4eaf      	ldr	r6, [pc, #700]	; (8002a00 <HAL_RCCEx_PeriphCLKConfig+0x2e8>)
 8002742:	6db3      	ldr	r3, [r6, #88]	; 0x58
 8002744:	00d8      	lsls	r0, r3, #3
 8002746:	d43f      	bmi.n	80027c8 <HAL_RCCEx_PeriphCLKConfig+0xb0>
 8002748:	6db3      	ldr	r3, [r6, #88]	; 0x58
 800274a:	f043 5380 	orr.w	r3, r3, #268435456	; 0x10000000
 800274e:	65b3      	str	r3, [r6, #88]	; 0x58
 8002750:	6db3      	ldr	r3, [r6, #88]	; 0x58
 8002752:	f003 5380 	and.w	r3, r3, #268435456	; 0x10000000
 8002756:	9301      	str	r3, [sp, #4]
 8002758:	9b01      	ldr	r3, [sp, #4]
 800275a:	2701      	movs	r7, #1
 800275c:	f8df 82a4 	ldr.w	r8, [pc, #676]	; 8002a04 <HAL_RCCEx_PeriphCLKConfig+0x2ec>
 8002760:	f8d8 3000 	ldr.w	r3, [r8]
 8002764:	f443 7380 	orr.w	r3, r3, #256	; 0x100
 8002768:	f8c8 3000 	str.w	r3, [r8]
 800276c:	f7fe f9f2 	bl	8000b54 <HAL_GetTick>
 8002770:	4681      	mov	r9, r0
 8002772:	f8d8 3000 	ldr.w	r3, [r8]
 8002776:	05d9      	lsls	r1, r3, #23
 8002778:	d528      	bpl.n	80027cc <HAL_RCCEx_PeriphCLKConfig+0xb4>
 800277a:	bb75      	cbnz	r5, 80027da <HAL_RCCEx_PeriphCLKConfig+0xc2>
 800277c:	f8d6 3090 	ldr.w	r3, [r6, #144]	; 0x90
 8002780:	f413 7340 	ands.w	r3, r3, #768	; 0x300
 8002784:	f040 8106 	bne.w	8002994 <HAL_RCCEx_PeriphCLKConfig+0x27c>
 8002788:	f8d6 3090 	ldr.w	r3, [r6, #144]	; 0x90
 800278c:	6e62      	ldr	r2, [r4, #100]	; 0x64
 800278e:	f423 7340 	bic.w	r3, r3, #768	; 0x300
 8002792:	4313      	orrs	r3, r2
 8002794:	f8c6 3090 	str.w	r3, [r6, #144]	; 0x90
 8002798:	e01f      	b.n	80027da <HAL_RCCEx_PeriphCLKConfig+0xc2>
 800279a:	4a99      	ldr	r2, [pc, #612]	; (8002a00 <HAL_RCCEx_PeriphCLKConfig+0x2e8>)
 800279c:	68d3      	ldr	r3, [r2, #12]
 800279e:	f443 3380 	orr.w	r3, r3, #65536	; 0x10000
 80027a2:	60d3      	str	r3, [r2, #12]
 80027a4:	4a96      	ldr	r2, [pc, #600]	; (8002a00 <HAL_RCCEx_PeriphCLKConfig+0x2e8>)
 80027a6:	6ce1      	ldr	r1, [r4, #76]	; 0x4c
 80027a8:	f8d2 3088 	ldr.w	r3, [r2, #136]	; 0x88
 80027ac:	f423 0340 	bic.w	r3, r3, #12582912	; 0xc00000
 80027b0:	430b      	orrs	r3, r1
 80027b2:	f8c2 3088 	str.w	r3, [r2, #136]	; 0x88
 80027b6:	2500      	movs	r5, #0
 80027b8:	e7bf      	b.n	800273a <HAL_RCCEx_PeriphCLKConfig+0x22>
 80027ba:	3004      	adds	r0, #4
 80027bc:	f7ff ff22 	bl	8002604 <RCCEx_PLLSAI1_Config>
 80027c0:	4605      	mov	r5, r0
 80027c2:	2800      	cmp	r0, #0
 80027c4:	d1b9      	bne.n	800273a <HAL_RCCEx_PeriphCLKConfig+0x22>
 80027c6:	e7ed      	b.n	80027a4 <HAL_RCCEx_PeriphCLKConfig+0x8c>
 80027c8:	2700      	movs	r7, #0
 80027ca:	e7c7      	b.n	800275c <HAL_RCCEx_PeriphCLKConfig+0x44>
 80027cc:	f7fe f9c2 	bl	8000b54 <HAL_GetTick>
 80027d0:	eba0 0009 	sub.w	r0, r0, r9
 80027d4:	2802      	cmp	r0, #2
 80027d6:	d9cc      	bls.n	8002772 <HAL_RCCEx_PeriphCLKConfig+0x5a>
 80027d8:	2503      	movs	r5, #3
 80027da:	b11f      	cbz	r7, 80027e4 <HAL_RCCEx_PeriphCLKConfig+0xcc>
 80027dc:	6db3      	ldr	r3, [r6, #88]	; 0x58
 80027de:	f023 5380 	bic.w	r3, r3, #268435456	; 0x10000000
 80027e2:	65b3      	str	r3, [r6, #88]	; 0x58
 80027e4:	6823      	ldr	r3, [r4, #0]
 80027e6:	07df      	lsls	r7, r3, #31
 80027e8:	d508      	bpl.n	80027fc <HAL_RCCEx_PeriphCLKConfig+0xe4>
 80027ea:	4985      	ldr	r1, [pc, #532]	; (8002a00 <HAL_RCCEx_PeriphCLKConfig+0x2e8>)
 80027ec:	6a20      	ldr	r0, [r4, #32]
 80027ee:	f8d1 2088 	ldr.w	r2, [r1, #136]	; 0x88
 80027f2:	f022 0203 	bic.w	r2, r2, #3
 80027f6:	4302      	orrs	r2, r0
 80027f8:	f8c1 2088 	str.w	r2, [r1, #136]	; 0x88
 80027fc:	079e      	lsls	r6, r3, #30
 80027fe:	d508      	bpl.n	8002812 <HAL_RCCEx_PeriphCLKConfig+0xfa>
 8002800:	497f      	ldr	r1, [pc, #508]	; (8002a00 <HAL_RCCEx_PeriphCLKConfig+0x2e8>)
 8002802:	6a60      	ldr	r0, [r4, #36]	; 0x24
 8002804:	f8d1 2088 	ldr.w	r2, [r1, #136]	; 0x88
 8002808:	f022 020c 	bic.w	r2, r2, #12
 800280c:	4302      	orrs	r2, r0
 800280e:	f8c1 2088 	str.w	r2, [r1, #136]	; 0x88
 8002812:	0758      	lsls	r0, r3, #29
 8002814:	d508      	bpl.n	8002828 <HAL_RCCEx_PeriphCLKConfig+0x110>
 8002816:	497a      	ldr	r1, [pc, #488]	; (8002a00 <HAL_RCCEx_PeriphCLKConfig+0x2e8>)
 8002818:	6aa0      	ldr	r0, [r4, #40]	; 0x28
 800281a:	f8d1 2088 	ldr.w	r2, [r1, #136]	; 0x88
 800281e:	f022 0230 	bic.w	r2, r2, #48	; 0x30
 8002822:	4302      	orrs	r2, r0
 8002824:	f8c1 2088 	str.w	r2, [r1, #136]	; 0x88
 8002828:	0719      	lsls	r1, r3, #28
 800282a:	d508      	bpl.n	800283e <HAL_RCCEx_PeriphCLKConfig+0x126>
 800282c:	4974      	ldr	r1, [pc, #464]	; (8002a00 <HAL_RCCEx_PeriphCLKConfig+0x2e8>)
 800282e:	6ae0      	ldr	r0, [r4, #44]	; 0x2c
 8002830:	f8d1 2088 	ldr.w	r2, [r1, #136]	; 0x88
 8002834:	f022 02c0 	bic.w	r2, r2, #192	; 0xc0
 8002838:	4302      	orrs	r2, r0
 800283a:	f8c1 2088 	str.w	r2, [r1, #136]	; 0x88
 800283e:	069a      	lsls	r2, r3, #26
 8002840:	d508      	bpl.n	8002854 <HAL_RCCEx_PeriphCLKConfig+0x13c>
 8002842:	496f      	ldr	r1, [pc, #444]	; (8002a00 <HAL_RCCEx_PeriphCLKConfig+0x2e8>)
 8002844:	6b20      	ldr	r0, [r4, #48]	; 0x30
 8002846:	f8d1 2088 	ldr.w	r2, [r1, #136]	; 0x88
 800284a:	f422 6240 	bic.w	r2, r2, #3072	; 0xc00
 800284e:	4302      	orrs	r2, r0
 8002850:	f8c1 2088 	str.w	r2, [r1, #136]	; 0x88
 8002854:	059f      	lsls	r7, r3, #22
 8002856:	d508      	bpl.n	800286a <HAL_RCCEx_PeriphCLKConfig+0x152>
 8002858:	4969      	ldr	r1, [pc, #420]	; (8002a00 <HAL_RCCEx_PeriphCLKConfig+0x2e8>)
 800285a:	6c60      	ldr	r0, [r4, #68]	; 0x44
 800285c:	f8d1 2088 	ldr.w	r2, [r1, #136]	; 0x88
 8002860:	f422 2240 	bic.w	r2, r2, #786432	; 0xc0000
 8002864:	4302      	orrs	r2, r0
 8002866:	f8c1 2088 	str.w	r2, [r1, #136]	; 0x88
 800286a:	055e      	lsls	r6, r3, #21
 800286c:	d508      	bpl.n	8002880 <HAL_RCCEx_PeriphCLKConfig+0x168>
 800286e:	4964      	ldr	r1, [pc, #400]	; (8002a00 <HAL_RCCEx_PeriphCLKConfig+0x2e8>)
 8002870:	6ca0      	ldr	r0, [r4, #72]	; 0x48
 8002872:	f8d1 2088 	ldr.w	r2, [r1, #136]	; 0x88
 8002876:	f422 1240 	bic.w	r2, r2, #3145728	; 0x300000
 800287a:	4302      	orrs	r2, r0
 800287c:	f8c1 2088 	str.w	r2, [r1, #136]	; 0x88
 8002880:	0658      	lsls	r0, r3, #25
 8002882:	d508      	bpl.n	8002896 <HAL_RCCEx_PeriphCLKConfig+0x17e>
 8002884:	495e      	ldr	r1, [pc, #376]	; (8002a00 <HAL_RCCEx_PeriphCLKConfig+0x2e8>)
 8002886:	6b60      	ldr	r0, [r4, #52]	; 0x34
 8002888:	f8d1 2088 	ldr.w	r2, [r1, #136]	; 0x88
 800288c:	f422 5240 	bic.w	r2, r2, #12288	; 0x3000
 8002890:	4302      	orrs	r2, r0
 8002892:	f8c1 2088 	str.w	r2, [r1, #136]	; 0x88
 8002896:	0619      	lsls	r1, r3, #24
 8002898:	d508      	bpl.n	80028ac <HAL_RCCEx_PeriphCLKConfig+0x194>
 800289a:	4959      	ldr	r1, [pc, #356]	; (8002a00 <HAL_RCCEx_PeriphCLKConfig+0x2e8>)
 800289c:	6ba0      	ldr	r0, [r4, #56]	; 0x38
 800289e:	f8d1 2088 	ldr.w	r2, [r1, #136]	; 0x88
 80028a2:	f422 4240 	bic.w	r2, r2, #49152	; 0xc000
 80028a6:	4302      	orrs	r2, r0
 80028a8:	f8c1 2088 	str.w	r2, [r1, #136]	; 0x88
 80028ac:	05da      	lsls	r2, r3, #23
 80028ae:	d508      	bpl.n	80028c2 <HAL_RCCEx_PeriphCLKConfig+0x1aa>
 80028b0:	4953      	ldr	r1, [pc, #332]	; (8002a00 <HAL_RCCEx_PeriphCLKConfig+0x2e8>)
 80028b2:	6be0      	ldr	r0, [r4, #60]	; 0x3c
 80028b4:	f8d1 2088 	ldr.w	r2, [r1, #136]	; 0x88
 80028b8:	f422 3240 	bic.w	r2, r2, #196608	; 0x30000
 80028bc:	4302      	orrs	r2, r0
 80028be:	f8c1 2088 	str.w	r2, [r1, #136]	; 0x88
 80028c2:	02df      	lsls	r7, r3, #11
 80028c4:	d508      	bpl.n	80028d8 <HAL_RCCEx_PeriphCLKConfig+0x1c0>
 80028c6:	494e      	ldr	r1, [pc, #312]	; (8002a00 <HAL_RCCEx_PeriphCLKConfig+0x2e8>)
 80028c8:	6c20      	ldr	r0, [r4, #64]	; 0x40
 80028ca:	f8d1 209c 	ldr.w	r2, [r1, #156]	; 0x9c
 80028ce:	f022 0203 	bic.w	r2, r2, #3
 80028d2:	4302      	orrs	r2, r0
 80028d4:	f8c1 209c 	str.w	r2, [r1, #156]	; 0x9c
 80028d8:	049e      	lsls	r6, r3, #18
 80028da:	d50f      	bpl.n	80028fc <HAL_RCCEx_PeriphCLKConfig+0x1e4>
 80028dc:	4a48      	ldr	r2, [pc, #288]	; (8002a00 <HAL_RCCEx_PeriphCLKConfig+0x2e8>)
 80028de:	6d21      	ldr	r1, [r4, #80]	; 0x50
 80028e0:	f8d2 3088 	ldr.w	r3, [r2, #136]	; 0x88
 80028e4:	f023 6340 	bic.w	r3, r3, #201326592	; 0xc000000
 80028e8:	430b      	orrs	r3, r1
 80028ea:	f1b1 6f00 	cmp.w	r1, #134217728	; 0x8000000
 80028ee:	f8c2 3088 	str.w	r3, [r2, #136]	; 0x88
 80028f2:	d179      	bne.n	80029e8 <HAL_RCCEx_PeriphCLKConfig+0x2d0>
 80028f4:	68d3      	ldr	r3, [r2, #12]
 80028f6:	f443 1380 	orr.w	r3, r3, #1048576	; 0x100000
 80028fa:	60d3      	str	r3, [r2, #12]
 80028fc:	6823      	ldr	r3, [r4, #0]
 80028fe:	0318      	lsls	r0, r3, #12
 8002900:	d50f      	bpl.n	8002922 <HAL_RCCEx_PeriphCLKConfig+0x20a>
 8002902:	4a3f      	ldr	r2, [pc, #252]	; (8002a00 <HAL_RCCEx_PeriphCLKConfig+0x2e8>)
 8002904:	6d61      	ldr	r1, [r4, #84]	; 0x54
 8002906:	f8d2 3088 	ldr.w	r3, [r2, #136]	; 0x88
 800290a:	f023 6340 	bic.w	r3, r3, #201326592	; 0xc000000
 800290e:	430b      	orrs	r3, r1
 8002910:	f1b1 6f00 	cmp.w	r1, #134217728	; 0x8000000
 8002914:	f8c2 3088 	str.w	r3, [r2, #136]	; 0x88
 8002918:	d176      	bne.n	8002a08 <HAL_RCCEx_PeriphCLKConfig+0x2f0>
 800291a:	68d3      	ldr	r3, [r2, #12]
 800291c:	f443 1380 	orr.w	r3, r3, #1048576	; 0x100000
 8002920:	60d3      	str	r3, [r2, #12]
 8002922:	6823      	ldr	r3, [r4, #0]
 8002924:	0359      	lsls	r1, r3, #13
 8002926:	d50f      	bpl.n	8002948 <HAL_RCCEx_PeriphCLKConfig+0x230>
 8002928:	4a35      	ldr	r2, [pc, #212]	; (8002a00 <HAL_RCCEx_PeriphCLKConfig+0x2e8>)
 800292a:	6da1      	ldr	r1, [r4, #88]	; 0x58
 800292c:	f8d2 3088 	ldr.w	r3, [r2, #136]	; 0x88
 8002930:	f023 6340 	bic.w	r3, r3, #201326592	; 0xc000000
 8002934:	430b      	orrs	r3, r1
 8002936:	f1b1 6f00 	cmp.w	r1, #134217728	; 0x8000000
 800293a:	f8c2 3088 	str.w	r3, [r2, #136]	; 0x88
 800293e:	d16e      	bne.n	8002a1e <HAL_RCCEx_PeriphCLKConfig+0x306>
 8002940:	68d3      	ldr	r3, [r2, #12]
 8002942:	f443 1380 	orr.w	r3, r3, #1048576	; 0x100000
 8002946:	60d3      	str	r3, [r2, #12]
 8002948:	6823      	ldr	r3, [r4, #0]
 800294a:	045a      	lsls	r2, r3, #17
 800294c:	d512      	bpl.n	8002974 <HAL_RCCEx_PeriphCLKConfig+0x25c>
 800294e:	492c      	ldr	r1, [pc, #176]	; (8002a00 <HAL_RCCEx_PeriphCLKConfig+0x2e8>)
 8002950:	6de2      	ldr	r2, [r4, #92]	; 0x5c
 8002952:	f8d1 3088 	ldr.w	r3, [r1, #136]	; 0x88
 8002956:	f023 5340 	bic.w	r3, r3, #805306368	; 0x30000000
 800295a:	4313      	orrs	r3, r2
 800295c:	f1b2 5f80 	cmp.w	r2, #268435456	; 0x10000000
 8002960:	f8c1 3088 	str.w	r3, [r1, #136]	; 0x88
 8002964:	d106      	bne.n	8002974 <HAL_RCCEx_PeriphCLKConfig+0x25c>
 8002966:	2102      	movs	r1, #2
 8002968:	1d20      	adds	r0, r4, #4
 800296a:	f7ff fe4b 	bl	8002604 <RCCEx_PLLSAI1_Config>
 800296e:	2800      	cmp	r0, #0
 8002970:	bf18      	it	ne
 8002972:	4605      	movne	r5, r0
 8002974:	6823      	ldr	r3, [r4, #0]
 8002976:	03db      	lsls	r3, r3, #15
 8002978:	d508      	bpl.n	800298c <HAL_RCCEx_PeriphCLKConfig+0x274>
 800297a:	4a21      	ldr	r2, [pc, #132]	; (8002a00 <HAL_RCCEx_PeriphCLKConfig+0x2e8>)
 800297c:	6e21      	ldr	r1, [r4, #96]	; 0x60
 800297e:	f8d2 3088 	ldr.w	r3, [r2, #136]	; 0x88
 8002982:	f023 4300 	bic.w	r3, r3, #2147483648	; 0x80000000
 8002986:	430b      	orrs	r3, r1
 8002988:	f8c2 3088 	str.w	r3, [r2, #136]	; 0x88
 800298c:	4628      	mov	r0, r5
 800298e:	b003      	add	sp, #12
 8002990:	e8bd 83f0 	ldmia.w	sp!, {r4, r5, r6, r7, r8, r9, pc}
 8002994:	6e62      	ldr	r2, [r4, #100]	; 0x64
 8002996:	4293      	cmp	r3, r2
 8002998:	f43f aef6 	beq.w	8002788 <HAL_RCCEx_PeriphCLKConfig+0x70>
 800299c:	f8d6 2090 	ldr.w	r2, [r6, #144]	; 0x90
 80029a0:	f8d6 3090 	ldr.w	r3, [r6, #144]	; 0x90
 80029a4:	f443 3380 	orr.w	r3, r3, #65536	; 0x10000
 80029a8:	f8c6 3090 	str.w	r3, [r6, #144]	; 0x90
 80029ac:	f8d6 3090 	ldr.w	r3, [r6, #144]	; 0x90
 80029b0:	f422 7140 	bic.w	r1, r2, #768	; 0x300
 80029b4:	f423 3380 	bic.w	r3, r3, #65536	; 0x10000
 80029b8:	07d2      	lsls	r2, r2, #31
 80029ba:	f8c6 3090 	str.w	r3, [r6, #144]	; 0x90
 80029be:	f8c6 1090 	str.w	r1, [r6, #144]	; 0x90
 80029c2:	f57f aee1 	bpl.w	8002788 <HAL_RCCEx_PeriphCLKConfig+0x70>
 80029c6:	f7fe f8c5 	bl	8000b54 <HAL_GetTick>
 80029ca:	f241 3988 	movw	r9, #5000	; 0x1388
 80029ce:	4680      	mov	r8, r0
 80029d0:	f8d6 3090 	ldr.w	r3, [r6, #144]	; 0x90
 80029d4:	079b      	lsls	r3, r3, #30
 80029d6:	f53f aed7 	bmi.w	8002788 <HAL_RCCEx_PeriphCLKConfig+0x70>
 80029da:	f7fe f8bb 	bl	8000b54 <HAL_GetTick>
 80029de:	eba0 0008 	sub.w	r0, r0, r8
 80029e2:	4548      	cmp	r0, r9
 80029e4:	d9f4      	bls.n	80029d0 <HAL_RCCEx_PeriphCLKConfig+0x2b8>
 80029e6:	e6f7      	b.n	80027d8 <HAL_RCCEx_PeriphCLKConfig+0xc0>
 80029e8:	f1b1 6f80 	cmp.w	r1, #67108864	; 0x4000000
 80029ec:	d186      	bne.n	80028fc <HAL_RCCEx_PeriphCLKConfig+0x1e4>
 80029ee:	2101      	movs	r1, #1
 80029f0:	1d20      	adds	r0, r4, #4
 80029f2:	f7ff fe07 	bl	8002604 <RCCEx_PLLSAI1_Config>
 80029f6:	2800      	cmp	r0, #0
 80029f8:	bf18      	it	ne
 80029fa:	4605      	movne	r5, r0
 80029fc:	e77e      	b.n	80028fc <HAL_RCCEx_PeriphCLKConfig+0x1e4>
 80029fe:	bf00      	nop
 8002a00:	40021000 	.word	0x40021000
 8002a04:	40007000 	.word	0x40007000
 8002a08:	f1b1 6f80 	cmp.w	r1, #67108864	; 0x4000000
 8002a0c:	d189      	bne.n	8002922 <HAL_RCCEx_PeriphCLKConfig+0x20a>
 8002a0e:	2101      	movs	r1, #1
 8002a10:	1d20      	adds	r0, r4, #4
 8002a12:	f7ff fdf7 	bl	8002604 <RCCEx_PLLSAI1_Config>
 8002a16:	2800      	cmp	r0, #0
 8002a18:	bf18      	it	ne
 8002a1a:	4605      	movne	r5, r0
 8002a1c:	e781      	b.n	8002922 <HAL_RCCEx_PeriphCLKConfig+0x20a>
 8002a1e:	f1b1 6f80 	cmp.w	r1, #67108864	; 0x4000000
 8002a22:	d191      	bne.n	8002948 <HAL_RCCEx_PeriphCLKConfig+0x230>
 8002a24:	2101      	movs	r1, #1
 8002a26:	1d20      	adds	r0, r4, #4
 8002a28:	f7ff fdec 	bl	8002604 <RCCEx_PLLSAI1_Config>
 8002a2c:	2800      	cmp	r0, #0
 8002a2e:	bf18      	it	ne
 8002a30:	4605      	movne	r5, r0
 8002a32:	e789      	b.n	8002948 <HAL_RCCEx_PeriphCLKConfig+0x230>

08002a34 <HAL_SPI_Init>:
 8002a34:	b570      	push	{r4, r5, r6, lr}
 8002a36:	4604      	mov	r4, r0
 8002a38:	2800      	cmp	r0, #0
 8002a3a:	d05f      	beq.n	8002afc <HAL_SPI_Init+0xc8>
 8002a3c:	6a43      	ldr	r3, [r0, #36]	; 0x24
 8002a3e:	2b00      	cmp	r3, #0
 8002a40:	d158      	bne.n	8002af4 <HAL_SPI_Init+0xc0>
 8002a42:	6842      	ldr	r2, [r0, #4]
 8002a44:	f5b2 7f82 	cmp.w	r2, #260	; 0x104
 8002a48:	d000      	beq.n	8002a4c <HAL_SPI_Init+0x18>
 8002a4a:	61c3      	str	r3, [r0, #28]
 8002a4c:	2300      	movs	r3, #0
 8002a4e:	62a3      	str	r3, [r4, #40]	; 0x28
 8002a50:	f894 305d 	ldrb.w	r3, [r4, #93]	; 0x5d
 8002a54:	f003 02ff 	and.w	r2, r3, #255	; 0xff
 8002a58:	b923      	cbnz	r3, 8002a64 <HAL_SPI_Init+0x30>
 8002a5a:	f884 205c 	strb.w	r2, [r4, #92]	; 0x5c
 8002a5e:	4620      	mov	r0, r4
 8002a60:	f7fd ffa6 	bl	80009b0 <HAL_SPI_MspInit>
 8002a64:	6825      	ldr	r5, [r4, #0]
 8002a66:	68e1      	ldr	r1, [r4, #12]
 8002a68:	2302      	movs	r3, #2
 8002a6a:	f884 305d 	strb.w	r3, [r4, #93]	; 0x5d
 8002a6e:	682b      	ldr	r3, [r5, #0]
 8002a70:	f5b1 6fe0 	cmp.w	r1, #1792	; 0x700
 8002a74:	f023 0340 	bic.w	r3, r3, #64	; 0x40
 8002a78:	602b      	str	r3, [r5, #0]
 8002a7a:	f04f 0300 	mov.w	r3, #0
 8002a7e:	d83f      	bhi.n	8002b00 <HAL_SPI_Init+0xcc>
 8002a80:	f44f 5080 	mov.w	r0, #4096	; 0x1000
 8002a84:	d000      	beq.n	8002a88 <HAL_SPI_Init+0x54>
 8002a86:	62a3      	str	r3, [r4, #40]	; 0x28
 8002a88:	6863      	ldr	r3, [r4, #4]
 8002a8a:	68a6      	ldr	r6, [r4, #8]
 8002a8c:	69a2      	ldr	r2, [r4, #24]
 8002a8e:	f406 4604 	and.w	r6, r6, #33792	; 0x8400
 8002a92:	f403 7382 	and.w	r3, r3, #260	; 0x104
 8002a96:	4333      	orrs	r3, r6
 8002a98:	6926      	ldr	r6, [r4, #16]
 8002a9a:	f006 0602 	and.w	r6, r6, #2
 8002a9e:	4333      	orrs	r3, r6
 8002aa0:	6966      	ldr	r6, [r4, #20]
 8002aa2:	f006 0601 	and.w	r6, r6, #1
 8002aa6:	4333      	orrs	r3, r6
 8002aa8:	f402 7600 	and.w	r6, r2, #512	; 0x200
 8002aac:	4333      	orrs	r3, r6
 8002aae:	69e6      	ldr	r6, [r4, #28]
 8002ab0:	f006 0638 	and.w	r6, r6, #56	; 0x38
 8002ab4:	4333      	orrs	r3, r6
 8002ab6:	6a26      	ldr	r6, [r4, #32]
 8002ab8:	f006 0680 	and.w	r6, r6, #128	; 0x80
 8002abc:	4333      	orrs	r3, r6
 8002abe:	6aa6      	ldr	r6, [r4, #40]	; 0x28
 8002ac0:	f406 5600 	and.w	r6, r6, #8192	; 0x2000
 8002ac4:	4333      	orrs	r3, r6
 8002ac6:	602b      	str	r3, [r5, #0]
 8002ac8:	6b66      	ldr	r6, [r4, #52]	; 0x34
 8002aca:	6a63      	ldr	r3, [r4, #36]	; 0x24
 8002acc:	f006 0608 	and.w	r6, r6, #8
 8002ad0:	f003 0310 	and.w	r3, r3, #16
 8002ad4:	4333      	orrs	r3, r6
 8002ad6:	f401 6170 	and.w	r1, r1, #3840	; 0xf00
 8002ada:	0c12      	lsrs	r2, r2, #16
 8002adc:	4319      	orrs	r1, r3
 8002ade:	f002 0204 	and.w	r2, r2, #4
 8002ae2:	430a      	orrs	r2, r1
 8002ae4:	4310      	orrs	r0, r2
 8002ae6:	6068      	str	r0, [r5, #4]
 8002ae8:	2301      	movs	r3, #1
 8002aea:	2000      	movs	r0, #0
 8002aec:	6620      	str	r0, [r4, #96]	; 0x60
 8002aee:	f884 305d 	strb.w	r3, [r4, #93]	; 0x5d
 8002af2:	bd70      	pop	{r4, r5, r6, pc}
 8002af4:	2300      	movs	r3, #0
 8002af6:	e9c0 3304 	strd	r3, r3, [r0, #16]
 8002afa:	e7a7      	b.n	8002a4c <HAL_SPI_Init+0x18>
 8002afc:	2001      	movs	r0, #1
 8002afe:	e7f8      	b.n	8002af2 <HAL_SPI_Init+0xbe>
 8002b00:	4618      	mov	r0, r3
 8002b02:	f5b1 6f70 	cmp.w	r1, #3840	; 0xf00
 8002b06:	e7bd      	b.n	8002a84 <HAL_SPI_Init+0x50>

08002b08 <HEAT_enableHeater>:
 8002b08:	4b02      	ldr	r3, [pc, #8]	; (8002b14 <HEAT_enableHeater+0xc>)
 8002b0a:	2101      	movs	r1, #1
 8002b0c:	5c18      	ldrb	r0, [r3, r0]
 8002b0e:	f000 b895 	b.w	8002c3c <MAX7300_setPin>
 8002b12:	bf00      	nop
 8002b14:	08002d24 	.word	0x08002d24

08002b18 <HEAT_disableHeater>:
 8002b18:	4b02      	ldr	r3, [pc, #8]	; (8002b24 <HEAT_disableHeater+0xc>)
 8002b1a:	2100      	movs	r1, #0
 8002b1c:	5c18      	ldrb	r0, [r3, r0]
 8002b1e:	f000 b88d 	b.w	8002c3c <MAX7300_setPin>
 8002b22:	bf00      	nop
 8002b24:	08002d24 	.word	0x08002d24

08002b28 <LED_enableLED>:
 8002b28:	4b02      	ldr	r3, [pc, #8]	; (8002b34 <LED_enableLED+0xc>)
 8002b2a:	2101      	movs	r1, #1
 8002b2c:	5c18      	ldrb	r0, [r3, r0]
 8002b2e:	f000 b885 	b.w	8002c3c <MAX7300_setPin>
 8002b32:	bf00      	nop
 8002b34:	08002d2f 	.word	0x08002d2f

08002b38 <LED_disableLED>:
 8002b38:	4b02      	ldr	r3, [pc, #8]	; (8002b44 <LED_disableLED+0xc>)
 8002b3a:	2100      	movs	r1, #0
 8002b3c:	5c18      	ldrb	r0, [r3, r0]
 8002b3e:	f000 b87d 	b.w	8002c3c <MAX7300_setPin>
 8002b42:	bf00      	nop
 8002b44:	08002d2f 	.word	0x08002d2f

08002b48 <THERM_enableThermostat>:
 8002b48:	4b03      	ldr	r3, [pc, #12]	; (8002b58 <THERM_enableThermostat+0x10>)
 8002b4a:	2201      	movs	r2, #1
 8002b4c:	f833 1010 	ldrh.w	r1, [r3, r0, lsl #1]
 8002b50:	4802      	ldr	r0, [pc, #8]	; (8002b5c <THERM_enableThermostat+0x14>)
 8002b52:	f7fe bed5 	b.w	8001900 <HAL_GPIO_WritePin>
 8002b56:	bf00      	nop
 8002b58:	08002d3a 	.word	0x08002d3a
 8002b5c:	48000400 	.word	0x48000400

08002b60 <THERM_disableThermostat>:
 8002b60:	4b03      	ldr	r3, [pc, #12]	; (8002b70 <THERM_disableThermostat+0x10>)
 8002b62:	2200      	movs	r2, #0
 8002b64:	f833 1010 	ldrh.w	r1, [r3, r0, lsl #1]
 8002b68:	4802      	ldr	r0, [pc, #8]	; (8002b74 <THERM_disableThermostat+0x14>)
 8002b6a:	f7fe bec9 	b.w	8001900 <HAL_GPIO_WritePin>
 8002b6e:	bf00      	nop
 8002b70:	08002d3a 	.word	0x08002d3a
 8002b74:	48000400 	.word	0x48000400

08002b78 <MAX6822_Toggle_WDI>:
 8002b78:	4802      	ldr	r0, [pc, #8]	; (8002b84 <MAX6822_Toggle_WDI+0xc>)
 8002b7a:	f44f 7100 	mov.w	r1, #512	; 0x200
 8002b7e:	f7fe bec4 	b.w	800190a <HAL_GPIO_TogglePin>
 8002b82:	bf00      	nop
 8002b84:	48000800 	.word	0x48000800

08002b88 <MAX6822_Manual_Reset>:
 8002b88:	4802      	ldr	r0, [pc, #8]	; (8002b94 <MAX6822_Manual_Reset+0xc>)
 8002b8a:	2200      	movs	r2, #0
 8002b8c:	f44f 7180 	mov.w	r1, #256	; 0x100
 8002b90:	f7fe beb6 	b.w	8001900 <HAL_GPIO_WritePin>
 8002b94:	48000800 	.word	0x48000800

08002b98 <MAX7300_Init>:
 8002b98:	e92d 41f3 	stmdb	sp!, {r0, r1, r4, r5, r6, r7, r8, lr}
 8002b9c:	4a23      	ldr	r2, [pc, #140]	; (8002c2c <MAX7300_Init+0x94>)
 8002b9e:	232c      	movs	r3, #44	; 0x2c
 8002ba0:	f802 3b01 	strb.w	r3, [r2], #1
 8002ba4:	3301      	adds	r3, #1
 8002ba6:	2b40      	cmp	r3, #64	; 0x40
 8002ba8:	d1fa      	bne.n	8002ba0 <MAX7300_Init+0x8>
 8002baa:	4c21      	ldr	r4, [pc, #132]	; (8002c30 <MAX7300_Init+0x98>)
 8002bac:	4821      	ldr	r0, [pc, #132]	; (8002c34 <MAX7300_Init+0x9c>)
 8002bae:	4e22      	ldr	r6, [pc, #136]	; (8002c38 <MAX7300_Init+0xa0>)
 8002bb0:	250a      	movs	r5, #10
 8002bb2:	2304      	movs	r3, #4
 8002bb4:	2701      	movs	r7, #1
 8002bb6:	7023      	strb	r3, [r4, #0]
 8002bb8:	9500      	str	r5, [sp, #0]
 8002bba:	2302      	movs	r3, #2
 8002bbc:	4622      	mov	r2, r4
 8002bbe:	2180      	movs	r1, #128	; 0x80
 8002bc0:	7067      	strb	r7, [r4, #1]
 8002bc2:	f7ff f821 	bl	8001c08 <HAL_I2C_Master_Transmit>
 8002bc6:	4620      	mov	r0, r4
 8002bc8:	7b33      	ldrb	r3, [r6, #12]
 8002bca:	f800 3b0c 	strb.w	r3, [r0], #12
 8002bce:	4639      	mov	r1, r7
 8002bd0:	2214      	movs	r2, #20
 8002bd2:	f000 f873 	bl	8002cbc <memset>
 8002bd6:	9500      	str	r5, [sp, #0]
 8002bd8:	2315      	movs	r3, #21
 8002bda:	4622      	mov	r2, r4
 8002bdc:	2180      	movs	r1, #128	; 0x80
 8002bde:	4815      	ldr	r0, [pc, #84]	; (8002c34 <MAX7300_Init+0x9c>)
 8002be0:	4f14      	ldr	r7, [pc, #80]	; (8002c34 <MAX7300_Init+0x9c>)
 8002be2:	f7ff f811 	bl	8001c08 <HAL_I2C_Master_Transmit>
 8002be6:	230b      	movs	r3, #11
 8002be8:	7023      	strb	r3, [r4, #0]
 8002bea:	2355      	movs	r3, #85	; 0x55
 8002bec:	7063      	strb	r3, [r4, #1]
 8002bee:	70a3      	strb	r3, [r4, #2]
 8002bf0:	70e3      	strb	r3, [r4, #3]
 8002bf2:	7123      	strb	r3, [r4, #4]
 8002bf4:	9500      	str	r5, [sp, #0]
 8002bf6:	480f      	ldr	r0, [pc, #60]	; (8002c34 <MAX7300_Init+0x9c>)
 8002bf8:	2305      	movs	r3, #5
 8002bfa:	4622      	mov	r2, r4
 8002bfc:	2180      	movs	r1, #128	; 0x80
 8002bfe:	f7ff f803 	bl	8001c08 <HAL_I2C_Master_Transmit>
 8002c02:	250c      	movs	r5, #12
 8002c04:	f04f 0800 	mov.w	r8, #0
 8002c08:	5d73      	ldrb	r3, [r6, r5]
 8002c0a:	7023      	strb	r3, [r4, #0]
 8002c0c:	230a      	movs	r3, #10
 8002c0e:	9300      	str	r3, [sp, #0]
 8002c10:	4622      	mov	r2, r4
 8002c12:	2302      	movs	r3, #2
 8002c14:	2180      	movs	r1, #128	; 0x80
 8002c16:	4638      	mov	r0, r7
 8002c18:	3501      	adds	r5, #1
 8002c1a:	f884 8001 	strb.w	r8, [r4, #1]
 8002c1e:	f7fe fff3 	bl	8001c08 <HAL_I2C_Master_Transmit>
 8002c22:	2d20      	cmp	r5, #32
 8002c24:	d1f0      	bne.n	8002c08 <MAX7300_Init+0x70>
 8002c26:	b002      	add	sp, #8
 8002c28:	e8bd 81f0 	ldmia.w	sp!, {r4, r5, r6, r7, r8, pc}
 8002c2c:	200005d4 	.word	0x200005d4
 8002c30:	200005e8 	.word	0x200005e8
 8002c34:	200000b8 	.word	0x200000b8
 8002c38:	200005c8 	.word	0x200005c8

08002c3c <MAX7300_setPin>:
 8002c3c:	f1a0 030c 	sub.w	r3, r0, #12
 8002c40:	2b13      	cmp	r3, #19
 8002c42:	b507      	push	{r0, r1, r2, lr}
 8002c44:	d80d      	bhi.n	8002c62 <MAX7300_setPin+0x26>
 8002c46:	2901      	cmp	r1, #1
 8002c48:	d80b      	bhi.n	8002c62 <MAX7300_setPin+0x26>
 8002c4a:	4b07      	ldr	r3, [pc, #28]	; (8002c68 <MAX7300_setPin+0x2c>)
 8002c4c:	4a07      	ldr	r2, [pc, #28]	; (8002c6c <MAX7300_setPin+0x30>)
 8002c4e:	5c1b      	ldrb	r3, [r3, r0]
 8002c50:	7013      	strb	r3, [r2, #0]
 8002c52:	230a      	movs	r3, #10
 8002c54:	7051      	strb	r1, [r2, #1]
 8002c56:	4806      	ldr	r0, [pc, #24]	; (8002c70 <MAX7300_setPin+0x34>)
 8002c58:	9300      	str	r3, [sp, #0]
 8002c5a:	2180      	movs	r1, #128	; 0x80
 8002c5c:	2302      	movs	r3, #2
 8002c5e:	f7fe ffd3 	bl	8001c08 <HAL_I2C_Master_Transmit>
 8002c62:	b003      	add	sp, #12
 8002c64:	f85d fb04 	ldr.w	pc, [sp], #4
 8002c68:	200005c8 	.word	0x200005c8
 8002c6c:	200005e8 	.word	0x200005e8
 8002c70:	200000b8 	.word	0x200000b8

08002c74 <__libc_init_array>:
 8002c74:	b570      	push	{r4, r5, r6, lr}
 8002c76:	4d0d      	ldr	r5, [pc, #52]	; (8002cac <__libc_init_array+0x38>)
 8002c78:	4c0d      	ldr	r4, [pc, #52]	; (8002cb0 <__libc_init_array+0x3c>)
 8002c7a:	1b64      	subs	r4, r4, r5
 8002c7c:	10a4      	asrs	r4, r4, #2
 8002c7e:	2600      	movs	r6, #0
 8002c80:	42a6      	cmp	r6, r4
 8002c82:	d109      	bne.n	8002c98 <__libc_init_array+0x24>
 8002c84:	4d0b      	ldr	r5, [pc, #44]	; (8002cb4 <__libc_init_array+0x40>)
 8002c86:	4c0c      	ldr	r4, [pc, #48]	; (8002cb8 <__libc_init_array+0x44>)
 8002c88:	f000 f820 	bl	8002ccc <_init>
 8002c8c:	1b64      	subs	r4, r4, r5
 8002c8e:	10a4      	asrs	r4, r4, #2
 8002c90:	2600      	movs	r6, #0
 8002c92:	42a6      	cmp	r6, r4
 8002c94:	d105      	bne.n	8002ca2 <__libc_init_array+0x2e>
 8002c96:	bd70      	pop	{r4, r5, r6, pc}
 8002c98:	f855 3b04 	ldr.w	r3, [r5], #4
 8002c9c:	4798      	blx	r3
 8002c9e:	3601      	adds	r6, #1
 8002ca0:	e7ee      	b.n	8002c80 <__libc_init_array+0xc>
 8002ca2:	f855 3b04 	ldr.w	r3, [r5], #4
 8002ca6:	4798      	blx	r3
 8002ca8:	3601      	adds	r6, #1
 8002caa:	e7f2      	b.n	8002c92 <__libc_init_array+0x1e>
 8002cac:	08002d50 	.word	0x08002d50
 8002cb0:	08002d50 	.word	0x08002d50
 8002cb4:	08002d50 	.word	0x08002d50
 8002cb8:	08002d54 	.word	0x08002d54

08002cbc <memset>:
 8002cbc:	4402      	add	r2, r0
 8002cbe:	4603      	mov	r3, r0
 8002cc0:	4293      	cmp	r3, r2
 8002cc2:	d100      	bne.n	8002cc6 <memset+0xa>
 8002cc4:	4770      	bx	lr
 8002cc6:	f803 1b01 	strb.w	r1, [r3], #1
 8002cca:	e7f9      	b.n	8002cc0 <memset+0x4>

08002ccc <_init>:
 8002ccc:	b5f8      	push	{r3, r4, r5, r6, r7, lr}
 8002cce:	bf00      	nop
 8002cd0:	bcf8      	pop	{r3, r4, r5, r6, r7}
 8002cd2:	bc08      	pop	{r3}
 8002cd4:	469e      	mov	lr, r3
 8002cd6:	4770      	bx	lr

08002cd8 <_fini>:
 8002cd8:	b5f8      	push	{r3, r4, r5, r6, r7, lr}
 8002cda:	bf00      	nop
 8002cdc:	bcf8      	pop	{r3, r4, r5, r6, r7}
 8002cde:	bc08      	pop	{r3}
 8002ce0:	469e      	mov	lr, r3
 8002ce2:	4770      	bx	lr
