
Payload PCB.elf:     file format elf32-littlearm

Sections:
Idx Name          Size      VMA       LMA       File off  Algn
  0 .isr_vector   00000194  08000000  08000000  00010000  2**0
                  CONTENTS, ALLOC, LOAD, READONLY, DATA
  1 .text         00002aa8  08000194  08000194  00010194  2**2
                  CONTENTS, ALLOC, LOAD, READONLY, CODE
  2 .rodata       0000004c  08002c3c  08002c3c  00012c3c  2**2
                  CONTENTS, ALLOC, LOAD, READONLY, DATA
  3 .ARM.extab    00000000  08002c88  08002c88  0002000c  2**0
                  CONTENTS
  4 .ARM          00000000  08002c88  08002c88  0002000c  2**0
                  CONTENTS
  5 .preinit_array 00000000  08002c88  08002c88  0002000c  2**0
                  CONTENTS, ALLOC, LOAD, DATA
  6 .init_array   00000004  08002c88  08002c88  00012c88  2**2
                  CONTENTS, ALLOC, LOAD, DATA
  7 .fini_array   00000004  08002c8c  08002c8c  00012c8c  2**2
                  CONTENTS, ALLOC, LOAD, DATA
  8 .data         0000000c  20000000  08002c90  00020000  2**2
                  CONTENTS, ALLOC, LOAD, DATA
  9 .bss          0000065c  2000000c  08002c9c  0002000c  2**2
                  ALLOC
 10 ._user_heap_stack 00000600  20000668  08002c9c  00020668  2**0
                  ALLOC
 11 .ARM.attributes 00000030  00000000  00000000  0002000c  2**0
                  CONTENTS, READONLY
 12 .comment      00000050  00000000  00000000  0002003c  2**0
                  CONTENTS, READONLY
 13 .debug_frame  0000004c  00000000  00000000  0002008c  2**2
                  CONTENTS, READONLY, DEBUGGING, OCTETS

Disassembly of section .text:

08000194 <__do_global_dtors_aux>:
 8000194:	b510      	push	{r4, lr}
 8000196:	4c05      	ldr	r4, [pc, #20]	; (80001ac <__do_global_dtors_aux+0x18>)
 8000198:	7823      	ldrb	r3, [r4, #0]
 800019a:	b933      	cbnz	r3, 80001aa <__do_global_dtors_aux+0x16>
 800019c:	4b04      	ldr	r3, [pc, #16]	; (80001b0 <__do_global_dtors_aux+0x1c>)
 800019e:	b113      	cbz	r3, 80001a6 <__do_global_dtors_aux+0x12>
 80001a0:	4804      	ldr	r0, [pc, #16]	; (80001b4 <__do_global_dtors_aux+0x20>)
 80001a2:	f3af 8000 	nop.w
 80001a6:	2301      	movs	r3, #1
 80001a8:	7023      	strb	r3, [r4, #0]
 80001aa:	bd10      	pop	{r4, pc}
 80001ac:	2000000c 	.word	0x2000000c
 80001b0:	00000000 	.word	0x00000000
 80001b4:	08002c24 	.word	0x08002c24

080001b8 <frame_dummy>:
 80001b8:	b508      	push	{r3, lr}
 80001ba:	4b03      	ldr	r3, [pc, #12]	; (80001c8 <frame_dummy+0x10>)
 80001bc:	b11b      	cbz	r3, 80001c6 <frame_dummy+0xe>
 80001be:	4903      	ldr	r1, [pc, #12]	; (80001cc <frame_dummy+0x14>)
 80001c0:	4803      	ldr	r0, [pc, #12]	; (80001d0 <frame_dummy+0x18>)
 80001c2:	f3af 8000 	nop.w
 80001c6:	bd08      	pop	{r3, pc}
 80001c8:	00000000 	.word	0x00000000
 80001cc:	20000010 	.word	0x20000010
 80001d0:	08002c24 	.word	0x08002c24

080001d4 <MX_ADC1_Init>:
 80001d4:	b57f      	push	{r0, r1, r2, r3, r4, r5, r6, lr}
 80001d6:	2218      	movs	r2, #24
 80001d8:	2100      	movs	r1, #0
 80001da:	4668      	mov	r0, sp
 80001dc:	f002 fd1a 	bl	8002c14 <memset>
 80001e0:	4817      	ldr	r0, [pc, #92]	; (8000240 <MX_ADC1_Init+0x6c>)
 80001e2:	4918      	ldr	r1, [pc, #96]	; (8000244 <MX_ADC1_Init+0x70>)
 80001e4:	2300      	movs	r3, #0
 80001e6:	2204      	movs	r2, #4
 80001e8:	6142      	str	r2, [r0, #20]
 80001ea:	8303      	strh	r3, [r0, #24]
 80001ec:	2201      	movs	r2, #1
 80001ee:	e9c0 1300 	strd	r1, r3, [r0]
 80001f2:	e9c0 3302 	strd	r3, r3, [r0, #8]
 80001f6:	e9c0 330a 	strd	r3, r3, [r0, #40]	; 0x28
 80001fa:	6103      	str	r3, [r0, #16]
 80001fc:	61c2      	str	r2, [r0, #28]
 80001fe:	f880 3020 	strb.w	r3, [r0, #32]
 8000202:	f880 3030 	strb.w	r3, [r0, #48]	; 0x30
 8000206:	6343      	str	r3, [r0, #52]	; 0x34
 8000208:	f880 3038 	strb.w	r3, [r0, #56]	; 0x38
 800020c:	f000 fcaa 	bl	8000b64 <HAL_ADC_Init>
 8000210:	b108      	cbz	r0, 8000216 <MX_ADC1_Init+0x42>
 8000212:	f000 fb91 	bl	8000938 <Error_Handler>
 8000216:	4a0c      	ldr	r2, [pc, #48]	; (8000248 <MX_ADC1_Init+0x74>)
 8000218:	4809      	ldr	r0, [pc, #36]	; (8000240 <MX_ADC1_Init+0x6c>)
 800021a:	2306      	movs	r3, #6
 800021c:	e9cd 2300 	strd	r2, r3, [sp]
 8000220:	2300      	movs	r3, #0
 8000222:	227f      	movs	r2, #127	; 0x7f
 8000224:	e9cd 3202 	strd	r3, r2, [sp, #8]
 8000228:	4669      	mov	r1, sp
 800022a:	2204      	movs	r2, #4
 800022c:	e9cd 2304 	strd	r2, r3, [sp, #16]
 8000230:	f000 fd6c 	bl	8000d0c <HAL_ADC_ConfigChannel>
 8000234:	b108      	cbz	r0, 800023a <MX_ADC1_Init+0x66>
 8000236:	f000 fb7f 	bl	8000938 <Error_Handler>
 800023a:	b007      	add	sp, #28
 800023c:	f85d fb04 	ldr.w	pc, [sp], #4
 8000240:	20000028 	.word	0x20000028
 8000244:	50040000 	.word	0x50040000
 8000248:	04300002 	.word	0x04300002

0800024c <HAL_ADC_MspInit>:
 800024c:	b530      	push	{r4, r5, lr}
 800024e:	b0a3      	sub	sp, #140	; 0x8c
 8000250:	4604      	mov	r4, r0
 8000252:	2214      	movs	r2, #20
 8000254:	2100      	movs	r1, #0
 8000256:	a803      	add	r0, sp, #12
 8000258:	f002 fcdc 	bl	8002c14 <memset>
 800025c:	2268      	movs	r2, #104	; 0x68
 800025e:	2100      	movs	r1, #0
 8000260:	a808      	add	r0, sp, #32
 8000262:	f002 fcd7 	bl	8002c14 <memset>
 8000266:	6822      	ldr	r2, [r4, #0]
 8000268:	4b26      	ldr	r3, [pc, #152]	; (8000304 <HAL_ADC_MspInit+0xb8>)
 800026a:	429a      	cmp	r2, r3
 800026c:	d147      	bne.n	80002fe <HAL_ADC_MspInit+0xb2>
 800026e:	f44f 4380 	mov.w	r3, #16384	; 0x4000
 8000272:	9308      	str	r3, [sp, #32]
 8000274:	f04f 5380 	mov.w	r3, #268435456	; 0x10000000
 8000278:	931f      	str	r3, [sp, #124]	; 0x7c
 800027a:	2301      	movs	r3, #1
 800027c:	2010      	movs	r0, #16
 800027e:	e9cd 3309 	strd	r3, r3, [sp, #36]	; 0x24
 8000282:	2307      	movs	r3, #7
 8000284:	e9cd 030b 	strd	r0, r3, [sp, #44]	; 0x2c
 8000288:	2302      	movs	r3, #2
 800028a:	e9cd 330d 	strd	r3, r3, [sp, #52]	; 0x34
 800028e:	a808      	add	r0, sp, #32
 8000290:	f04f 7380 	mov.w	r3, #16777216	; 0x1000000
 8000294:	930f      	str	r3, [sp, #60]	; 0x3c
 8000296:	f002 fa23 	bl	80026e0 <HAL_RCCEx_PeriphCLKConfig>
 800029a:	b108      	cbz	r0, 80002a0 <HAL_ADC_MspInit+0x54>
 800029c:	f000 fb4c 	bl	8000938 <Error_Handler>
 80002a0:	4b19      	ldr	r3, [pc, #100]	; (8000308 <HAL_ADC_MspInit+0xbc>)
 80002a2:	481a      	ldr	r0, [pc, #104]	; (800030c <HAL_ADC_MspInit+0xc0>)
 80002a4:	6cda      	ldr	r2, [r3, #76]	; 0x4c
 80002a6:	f442 5200 	orr.w	r2, r2, #8192	; 0x2000
 80002aa:	64da      	str	r2, [r3, #76]	; 0x4c
 80002ac:	6cda      	ldr	r2, [r3, #76]	; 0x4c
 80002ae:	f402 5200 	and.w	r2, r2, #8192	; 0x2000
 80002b2:	9200      	str	r2, [sp, #0]
 80002b4:	9a00      	ldr	r2, [sp, #0]
 80002b6:	6cda      	ldr	r2, [r3, #76]	; 0x4c
 80002b8:	f042 0204 	orr.w	r2, r2, #4
 80002bc:	64da      	str	r2, [r3, #76]	; 0x4c
 80002be:	6cda      	ldr	r2, [r3, #76]	; 0x4c
 80002c0:	f002 0204 	and.w	r2, r2, #4
 80002c4:	9201      	str	r2, [sp, #4]
 80002c6:	9a01      	ldr	r2, [sp, #4]
 80002c8:	6cda      	ldr	r2, [r3, #76]	; 0x4c
 80002ca:	f042 0201 	orr.w	r2, r2, #1
 80002ce:	64da      	str	r2, [r3, #76]	; 0x4c
 80002d0:	6cdb      	ldr	r3, [r3, #76]	; 0x4c
 80002d2:	f003 0301 	and.w	r3, r3, #1
 80002d6:	9302      	str	r3, [sp, #8]
 80002d8:	9b02      	ldr	r3, [sp, #8]
 80002da:	250b      	movs	r5, #11
 80002dc:	230f      	movs	r3, #15
 80002de:	2400      	movs	r4, #0
 80002e0:	a903      	add	r1, sp, #12
 80002e2:	e9cd 3503 	strd	r3, r5, [sp, #12]
 80002e6:	9405      	str	r4, [sp, #20]
 80002e8:	f001 fa32 	bl	8001750 <HAL_GPIO_Init>
 80002ec:	233f      	movs	r3, #63	; 0x3f
 80002ee:	a903      	add	r1, sp, #12
 80002f0:	f04f 4090 	mov.w	r0, #1207959552	; 0x48000000
 80002f4:	e9cd 3503 	strd	r3, r5, [sp, #12]
 80002f8:	9405      	str	r4, [sp, #20]
 80002fa:	f001 fa29 	bl	8001750 <HAL_GPIO_Init>
 80002fe:	b023      	add	sp, #140	; 0x8c
 8000300:	bd30      	pop	{r4, r5, pc}
 8000302:	bf00      	nop
 8000304:	50040000 	.word	0x50040000
 8000308:	40021000 	.word	0x40021000
 800030c:	48000800 	.word	0x48000800

08000310 <MX_CAN1_Init>:
 8000310:	480a      	ldr	r0, [pc, #40]	; (800033c <MX_CAN1_Init+0x2c>)
 8000312:	4a0b      	ldr	r2, [pc, #44]	; (8000340 <MX_CAN1_Init+0x30>)
 8000314:	b508      	push	{r3, lr}
 8000316:	2310      	movs	r3, #16
 8000318:	e9c0 2300 	strd	r2, r3, [r0]
 800031c:	2300      	movs	r3, #0
 800031e:	6183      	str	r3, [r0, #24]
 8000320:	8383      	strh	r3, [r0, #28]
 8000322:	e9c0 3302 	strd	r3, r3, [r0, #8]
 8000326:	e9c0 3304 	strd	r3, r3, [r0, #16]
 800032a:	f000 feb7 	bl	800109c <HAL_CAN_Init>
 800032e:	b118      	cbz	r0, 8000338 <MX_CAN1_Init+0x28>
 8000330:	e8bd 4008 	ldmia.w	sp!, {r3, lr}
 8000334:	f000 bb00 	b.w	8000938 <Error_Handler>
 8000338:	bd08      	pop	{r3, pc}
 800033a:	bf00      	nop
 800033c:	20000090 	.word	0x20000090
 8000340:	40006400 	.word	0x40006400

08000344 <HAL_CAN_MspInit>:
 8000344:	b510      	push	{r4, lr}
 8000346:	4604      	mov	r4, r0
 8000348:	b088      	sub	sp, #32
 800034a:	2214      	movs	r2, #20
 800034c:	2100      	movs	r1, #0
 800034e:	a803      	add	r0, sp, #12
 8000350:	f002 fc60 	bl	8002c14 <memset>
 8000354:	6822      	ldr	r2, [r4, #0]
 8000356:	4b17      	ldr	r3, [pc, #92]	; (80003b4 <HAL_CAN_MspInit+0x70>)
 8000358:	429a      	cmp	r2, r3
 800035a:	d128      	bne.n	80003ae <HAL_CAN_MspInit+0x6a>
 800035c:	f503 33d6 	add.w	r3, r3, #109568	; 0x1ac00
 8000360:	2103      	movs	r1, #3
 8000362:	6d9a      	ldr	r2, [r3, #88]	; 0x58
 8000364:	4814      	ldr	r0, [pc, #80]	; (80003b8 <HAL_CAN_MspInit+0x74>)
 8000366:	f042 7200 	orr.w	r2, r2, #33554432	; 0x2000000
 800036a:	659a      	str	r2, [r3, #88]	; 0x58
 800036c:	6d9a      	ldr	r2, [r3, #88]	; 0x58
 800036e:	f002 7200 	and.w	r2, r2, #33554432	; 0x2000000
 8000372:	9201      	str	r2, [sp, #4]
 8000374:	9a01      	ldr	r2, [sp, #4]
 8000376:	6cda      	ldr	r2, [r3, #76]	; 0x4c
 8000378:	f042 0202 	orr.w	r2, r2, #2
 800037c:	64da      	str	r2, [r3, #76]	; 0x4c
 800037e:	6cdb      	ldr	r3, [r3, #76]	; 0x4c
 8000380:	f003 0302 	and.w	r3, r3, #2
 8000384:	9302      	str	r3, [sp, #8]
 8000386:	f44f 5240 	mov.w	r2, #12288	; 0x3000
 800038a:	9b02      	ldr	r3, [sp, #8]
 800038c:	2302      	movs	r3, #2
 800038e:	e9cd 2303 	strd	r2, r3, [sp, #12]
 8000392:	230a      	movs	r3, #10
 8000394:	e9cd 1306 	strd	r1, r3, [sp, #24]
 8000398:	a903      	add	r1, sp, #12
 800039a:	f001 f9d9 	bl	8001750 <HAL_GPIO_Init>
 800039e:	2200      	movs	r2, #0
 80003a0:	2014      	movs	r0, #20
 80003a2:	4611      	mov	r1, r2
 80003a4:	f001 f980 	bl	80016a8 <HAL_NVIC_SetPriority>
 80003a8:	2014      	movs	r0, #20
 80003aa:	f001 f9af 	bl	800170c <HAL_NVIC_EnableIRQ>
 80003ae:	b008      	add	sp, #32
 80003b0:	bd10      	pop	{r4, pc}
 80003b2:	bf00      	nop
 80003b4:	40006400 	.word	0x40006400
 80003b8:	48000400 	.word	0x48000400

080003bc <CAN_Init>:
 80003bc:	b500      	push	{lr}
 80003be:	b08b      	sub	sp, #44	; 0x2c
 80003c0:	2300      	movs	r3, #0
 80003c2:	e9cd 3300 	strd	r3, r3, [sp]
 80003c6:	e9cd 3302 	strd	r3, r3, [sp, #8]
 80003ca:	e9cd 3304 	strd	r3, r3, [sp, #16]
 80003ce:	9306      	str	r3, [sp, #24]
 80003d0:	2301      	movs	r3, #1
 80003d2:	e9cd 3307 	strd	r3, r3, [sp, #28]
 80003d6:	4809      	ldr	r0, [pc, #36]	; (80003fc <CAN_Init+0x40>)
 80003d8:	230e      	movs	r3, #14
 80003da:	4669      	mov	r1, sp
 80003dc:	9309      	str	r3, [sp, #36]	; 0x24
 80003de:	f000 fed8 	bl	8001192 <HAL_CAN_ConfigFilter>
 80003e2:	b938      	cbnz	r0, 80003f4 <CAN_Init+0x38>
 80003e4:	4805      	ldr	r0, [pc, #20]	; (80003fc <CAN_Init+0x40>)
 80003e6:	f000 ff43 	bl	8001270 <HAL_CAN_Start>
 80003ea:	b918      	cbnz	r0, 80003f4 <CAN_Init+0x38>
 80003ec:	4803      	ldr	r0, [pc, #12]	; (80003fc <CAN_Init+0x40>)
 80003ee:	2102      	movs	r1, #2
 80003f0:	f001 f82d 	bl	800144e <HAL_CAN_ActivateNotification>
 80003f4:	b00b      	add	sp, #44	; 0x2c
 80003f6:	f85d fb04 	ldr.w	pc, [sp], #4
 80003fa:	bf00      	nop
 80003fc:	20000090 	.word	0x20000090

08000400 <CAN_Transmit_Message>:
 8000400:	b500      	push	{lr}
 8000402:	b08f      	sub	sp, #60	; 0x3c
 8000404:	ab01      	add	r3, sp, #4
 8000406:	e883 0007 	stmia.w	r3, {r0, r1, r2}
 800040a:	f89d 2004 	ldrb.w	r2, [sp, #4]
 800040e:	f89d 3006 	ldrb.w	r3, [sp, #6]
 8000412:	4819      	ldr	r0, [pc, #100]	; (8000478 <CAN_Transmit_Message+0x78>)
 8000414:	ea43 1302 	orr.w	r3, r3, r2, lsl #4
 8000418:	f89d 2007 	ldrb.w	r2, [sp, #7]
 800041c:	f88d 2018 	strb.w	r2, [sp, #24]
 8000420:	f89d 2008 	ldrb.w	r2, [sp, #8]
 8000424:	f88d 2019 	strb.w	r2, [sp, #25]
 8000428:	f89d 2009 	ldrb.w	r2, [sp, #9]
 800042c:	f88d 201a 	strb.w	r2, [sp, #26]
 8000430:	f89d 200a 	ldrb.w	r2, [sp, #10]
 8000434:	f88d 201b 	strb.w	r2, [sp, #27]
 8000438:	f89d 200b 	ldrb.w	r2, [sp, #11]
 800043c:	f88d 201c 	strb.w	r2, [sp, #28]
 8000440:	f043 0308 	orr.w	r3, r3, #8
 8000444:	f89d 200c 	ldrb.w	r2, [sp, #12]
 8000448:	f88d 201d 	strb.w	r2, [sp, #29]
 800044c:	9308      	str	r3, [sp, #32]
 800044e:	f89d 200d 	ldrb.w	r2, [sp, #13]
 8000452:	f88d 201e 	strb.w	r2, [sp, #30]
 8000456:	2300      	movs	r3, #0
 8000458:	f89d 200e 	ldrb.w	r2, [sp, #14]
 800045c:	f88d 201f 	strb.w	r2, [sp, #31]
 8000460:	e9cd 330a 	strd	r3, r3, [sp, #40]	; 0x28
 8000464:	2308      	movs	r3, #8
 8000466:	930c      	str	r3, [sp, #48]	; 0x30
 8000468:	aa06      	add	r2, sp, #24
 800046a:	ab05      	add	r3, sp, #20
 800046c:	a908      	add	r1, sp, #32
 800046e:	f000 ff2d 	bl	80012cc <HAL_CAN_AddTxMessage>
 8000472:	b00f      	add	sp, #60	; 0x3c
 8000474:	f85d fb04 	ldr.w	pc, [sp], #4
 8000478:	20000090 	.word	0x20000090

0800047c <CAN_Message_Received>:
 800047c:	b510      	push	{r4, lr}
 800047e:	b08c      	sub	sp, #48	; 0x30
 8000480:	4821      	ldr	r0, [pc, #132]	; (8000508 <CAN_Message_Received+0x8c>)
 8000482:	466b      	mov	r3, sp
 8000484:	aa05      	add	r2, sp, #20
 8000486:	2100      	movs	r1, #0
 8000488:	f000 ff6a 	bl	8001360 <HAL_CAN_GetRxMessage>
 800048c:	4604      	mov	r4, r0
 800048e:	bbc0      	cbnz	r0, 8000502 <CAN_Message_Received+0x86>
 8000490:	9b05      	ldr	r3, [sp, #20]
 8000492:	f003 0203 	and.w	r2, r3, #3
 8000496:	2a02      	cmp	r2, #2
 8000498:	d133      	bne.n	8000502 <CAN_Message_Received+0x86>
 800049a:	f3c3 0381 	ubfx	r3, r3, #2, #2
 800049e:	f88d 3009 	strb.w	r3, [sp, #9]
 80004a2:	2302      	movs	r3, #2
 80004a4:	f88d 300a 	strb.w	r3, [sp, #10]
 80004a8:	f89d 3000 	ldrb.w	r3, [sp]
 80004ac:	f88d 300b 	strb.w	r3, [sp, #11]
 80004b0:	f89d 3001 	ldrb.w	r3, [sp, #1]
 80004b4:	f88d 300c 	strb.w	r3, [sp, #12]
 80004b8:	f89d 3002 	ldrb.w	r3, [sp, #2]
 80004bc:	f88d 300d 	strb.w	r3, [sp, #13]
 80004c0:	f89d 3003 	ldrb.w	r3, [sp, #3]
 80004c4:	9a08      	ldr	r2, [sp, #32]
 80004c6:	f88d 300e 	strb.w	r3, [sp, #14]
 80004ca:	f89d 3004 	ldrb.w	r3, [sp, #4]
 80004ce:	f88d 300f 	strb.w	r3, [sp, #15]
 80004d2:	f89d 3005 	ldrb.w	r3, [sp, #5]
 80004d6:	f88d 3010 	strb.w	r3, [sp, #16]
 80004da:	2a02      	cmp	r2, #2
 80004dc:	f89d 3006 	ldrb.w	r3, [sp, #6]
 80004e0:	bf18      	it	ne
 80004e2:	f89d 201b 	ldrbne.w	r2, [sp, #27]
 80004e6:	f88d 3011 	strb.w	r3, [sp, #17]
 80004ea:	bf08      	it	eq
 80004ec:	227f      	moveq	r2, #127	; 0x7f
 80004ee:	f89d 3007 	ldrb.w	r3, [sp, #7]
 80004f2:	4806      	ldr	r0, [pc, #24]	; (800050c <CAN_Message_Received+0x90>)
 80004f4:	f88d 2008 	strb.w	r2, [sp, #8]
 80004f8:	a902      	add	r1, sp, #8
 80004fa:	f88d 3012 	strb.w	r3, [sp, #18]
 80004fe:	f000 f846 	bl	800058e <CAN_Queue_Enqueue>
 8000502:	4620      	mov	r0, r4
 8000504:	b00c      	add	sp, #48	; 0x30
 8000506:	bd10      	pop	{r4, pc}
 8000508:	20000090 	.word	0x20000090
 800050c:	2000010c 	.word	0x2000010c

08000510 <CAN_Send_Default_ACK>:
 8000510:	b088      	sub	sp, #32
 8000512:	ab01      	add	r3, sp, #4
 8000514:	e883 0007 	stmia.w	r3, {r0, r1, r2}
 8000518:	f89d 3004 	ldrb.w	r3, [sp, #4]
 800051c:	f88d 3014 	strb.w	r3, [sp, #20]
 8000520:	2302      	movs	r3, #2
 8000522:	f88d 3015 	strb.w	r3, [sp, #21]
 8000526:	f89d 3005 	ldrb.w	r3, [sp, #5]
 800052a:	f88d 3016 	strb.w	r3, [sp, #22]
 800052e:	2301      	movs	r3, #1
 8000530:	f88d 3017 	strb.w	r3, [sp, #23]
 8000534:	f89d 3007 	ldrb.w	r3, [sp, #7]
 8000538:	f88d 3018 	strb.w	r3, [sp, #24]
 800053c:	2300      	movs	r3, #0
 800053e:	f88d 3019 	strb.w	r3, [sp, #25]
 8000542:	f88d 301a 	strb.w	r3, [sp, #26]
 8000546:	f88d 301b 	strb.w	r3, [sp, #27]
 800054a:	f88d 301c 	strb.w	r3, [sp, #28]
 800054e:	f88d 301d 	strb.w	r3, [sp, #29]
 8000552:	f88d 301e 	strb.w	r3, [sp, #30]
 8000556:	ab08      	add	r3, sp, #32
 8000558:	e913 0007 	ldmdb	r3, {r0, r1, r2}
 800055c:	b008      	add	sp, #32
 800055e:	f7ff bf4f 	b.w	8000400 <CAN_Transmit_Message>

08000562 <CAN_Queue_Init>:
 8000562:	2300      	movs	r3, #0
 8000564:	e9c0 3300 	strd	r3, r3, [r0]
 8000568:	4770      	bx	lr

0800056a <CAN_Queue_IsEmpty>:
 800056a:	e9d0 2000 	ldrd	r2, r0, [r0]
 800056e:	1a13      	subs	r3, r2, r0
 8000570:	4258      	negs	r0, r3
 8000572:	4158      	adcs	r0, r3
 8000574:	4770      	bx	lr

08000576 <CAN_Queue_IsFull>:
 8000576:	6843      	ldr	r3, [r0, #4]
 8000578:	6800      	ldr	r0, [r0, #0]
 800057a:	2264      	movs	r2, #100	; 0x64
 800057c:	3301      	adds	r3, #1
 800057e:	fbb3 f1f2 	udiv	r1, r3, r2
 8000582:	fb02 3311 	mls	r3, r2, r1, r3
 8000586:	1a1b      	subs	r3, r3, r0
 8000588:	4258      	negs	r0, r3
 800058a:	4158      	adcs	r0, r3
 800058c:	4770      	bx	lr

0800058e <CAN_Queue_Enqueue>:
 800058e:	b538      	push	{r3, r4, r5, lr}
 8000590:	4604      	mov	r4, r0
 8000592:	460d      	mov	r5, r1
 8000594:	f7ff ffef 	bl	8000576 <CAN_Queue_IsFull>
 8000598:	b9b0      	cbnz	r0, 80005c8 <CAN_Queue_Enqueue+0x3a>
 800059a:	6863      	ldr	r3, [r4, #4]
 800059c:	6829      	ldr	r1, [r5, #0]
 800059e:	220b      	movs	r2, #11
 80005a0:	4353      	muls	r3, r2
 80005a2:	3308      	adds	r3, #8
 80005a4:	18e2      	adds	r2, r4, r3
 80005a6:	50e1      	str	r1, [r4, r3]
 80005a8:	6869      	ldr	r1, [r5, #4]
 80005aa:	6051      	str	r1, [r2, #4]
 80005ac:	892b      	ldrh	r3, [r5, #8]
 80005ae:	8113      	strh	r3, [r2, #8]
 80005b0:	7aab      	ldrb	r3, [r5, #10]
 80005b2:	7293      	strb	r3, [r2, #10]
 80005b4:	6863      	ldr	r3, [r4, #4]
 80005b6:	2264      	movs	r2, #100	; 0x64
 80005b8:	3301      	adds	r3, #1
 80005ba:	fbb3 f1f2 	udiv	r1, r3, r2
 80005be:	fb02 3311 	mls	r3, r2, r1, r3
 80005c2:	6063      	str	r3, [r4, #4]
 80005c4:	2001      	movs	r0, #1
 80005c6:	bd38      	pop	{r3, r4, r5, pc}
 80005c8:	2000      	movs	r0, #0
 80005ca:	e7fc      	b.n	80005c6 <CAN_Queue_Enqueue+0x38>

080005cc <CAN_Queue_Dequeue>:
 80005cc:	e9d0 3200 	ldrd	r3, r2, [r0]
 80005d0:	4293      	cmp	r3, r2
 80005d2:	d015      	beq.n	8000600 <CAN_Queue_Dequeue+0x34>
 80005d4:	220b      	movs	r2, #11
 80005d6:	4353      	muls	r3, r2
 80005d8:	3308      	adds	r3, #8
 80005da:	18c2      	adds	r2, r0, r3
 80005dc:	58c3      	ldr	r3, [r0, r3]
 80005de:	600b      	str	r3, [r1, #0]
 80005e0:	6853      	ldr	r3, [r2, #4]
 80005e2:	604b      	str	r3, [r1, #4]
 80005e4:	8913      	ldrh	r3, [r2, #8]
 80005e6:	810b      	strh	r3, [r1, #8]
 80005e8:	7a93      	ldrb	r3, [r2, #10]
 80005ea:	728b      	strb	r3, [r1, #10]
 80005ec:	6803      	ldr	r3, [r0, #0]
 80005ee:	2264      	movs	r2, #100	; 0x64
 80005f0:	3301      	adds	r3, #1
 80005f2:	fbb3 f1f2 	udiv	r1, r3, r2
 80005f6:	fb02 3311 	mls	r3, r2, r1, r3
 80005fa:	6003      	str	r3, [r0, #0]
 80005fc:	2001      	movs	r0, #1
 80005fe:	4770      	bx	lr
 8000600:	2000      	movs	r0, #0
 8000602:	4770      	bx	lr

08000604 <MX_GPIO_Init>:
 8000604:	b5f0      	push	{r4, r5, r6, r7, lr}
 8000606:	b089      	sub	sp, #36	; 0x24
 8000608:	2214      	movs	r2, #20
 800060a:	2100      	movs	r1, #0
 800060c:	a803      	add	r0, sp, #12
 800060e:	f002 fb01 	bl	8002c14 <memset>
 8000612:	4b2a      	ldr	r3, [pc, #168]	; (80006bc <MX_GPIO_Init+0xb8>)
 8000614:	4f2a      	ldr	r7, [pc, #168]	; (80006c0 <MX_GPIO_Init+0xbc>)
 8000616:	6cda      	ldr	r2, [r3, #76]	; 0x4c
 8000618:	4e2a      	ldr	r6, [pc, #168]	; (80006c4 <MX_GPIO_Init+0xc0>)
 800061a:	f042 0204 	orr.w	r2, r2, #4
 800061e:	64da      	str	r2, [r3, #76]	; 0x4c
 8000620:	6cda      	ldr	r2, [r3, #76]	; 0x4c
 8000622:	f002 0204 	and.w	r2, r2, #4
 8000626:	9200      	str	r2, [sp, #0]
 8000628:	9a00      	ldr	r2, [sp, #0]
 800062a:	6cda      	ldr	r2, [r3, #76]	; 0x4c
 800062c:	f042 0201 	orr.w	r2, r2, #1
 8000630:	64da      	str	r2, [r3, #76]	; 0x4c
 8000632:	6cda      	ldr	r2, [r3, #76]	; 0x4c
 8000634:	f002 0201 	and.w	r2, r2, #1
 8000638:	9201      	str	r2, [sp, #4]
 800063a:	9a01      	ldr	r2, [sp, #4]
 800063c:	6cda      	ldr	r2, [r3, #76]	; 0x4c
 800063e:	f042 0202 	orr.w	r2, r2, #2
 8000642:	64da      	str	r2, [r3, #76]	; 0x4c
 8000644:	6cdb      	ldr	r3, [r3, #76]	; 0x4c
 8000646:	f003 0302 	and.w	r3, r3, #2
 800064a:	9302      	str	r3, [sp, #8]
 800064c:	4638      	mov	r0, r7
 800064e:	2200      	movs	r2, #0
 8000650:	f240 71f7 	movw	r1, #2039	; 0x7f7
 8000654:	9b02      	ldr	r3, [sp, #8]
 8000656:	f001 f93f 	bl	80018d8 <HAL_GPIO_WritePin>
 800065a:	4630      	mov	r0, r6
 800065c:	2200      	movs	r2, #0
 800065e:	f44f 7140 	mov.w	r1, #768	; 0x300
 8000662:	f001 f939 	bl	80018d8 <HAL_GPIO_WritePin>
 8000666:	2200      	movs	r2, #0
 8000668:	f44f 7180 	mov.w	r1, #256	; 0x100
 800066c:	f04f 4090 	mov.w	r0, #1207959552	; 0x48000000
 8000670:	f001 f932 	bl	80018d8 <HAL_GPIO_WritePin>
 8000674:	2501      	movs	r5, #1
 8000676:	2400      	movs	r4, #0
 8000678:	f240 73f7 	movw	r3, #2039	; 0x7f7
 800067c:	a903      	add	r1, sp, #12
 800067e:	4638      	mov	r0, r7
 8000680:	e9cd 3503 	strd	r3, r5, [sp, #12]
 8000684:	e9cd 4405 	strd	r4, r4, [sp, #20]
 8000688:	f001 f862 	bl	8001750 <HAL_GPIO_Init>
 800068c:	f44f 7340 	mov.w	r3, #768	; 0x300
 8000690:	a903      	add	r1, sp, #12
 8000692:	4630      	mov	r0, r6
 8000694:	e9cd 3503 	strd	r3, r5, [sp, #12]
 8000698:	e9cd 4405 	strd	r4, r4, [sp, #20]
 800069c:	f001 f858 	bl	8001750 <HAL_GPIO_Init>
 80006a0:	f44f 7380 	mov.w	r3, #256	; 0x100
 80006a4:	a903      	add	r1, sp, #12
 80006a6:	f04f 4090 	mov.w	r0, #1207959552	; 0x48000000
 80006aa:	e9cd 3503 	strd	r3, r5, [sp, #12]
 80006ae:	e9cd 4405 	strd	r4, r4, [sp, #20]
 80006b2:	f001 f84d 	bl	8001750 <HAL_GPIO_Init>
 80006b6:	b009      	add	sp, #36	; 0x24
 80006b8:	bdf0      	pop	{r4, r5, r6, r7, pc}
 80006ba:	bf00      	nop
 80006bc:	40021000 	.word	0x40021000
 80006c0:	48000400 	.word	0x48000400
 80006c4:	48000800 	.word	0x48000800

080006c8 <MX_I2C1_Init>:
 80006c8:	4812      	ldr	r0, [pc, #72]	; (8000714 <MX_I2C1_Init+0x4c>)
 80006ca:	4a13      	ldr	r2, [pc, #76]	; (8000718 <MX_I2C1_Init+0x50>)
 80006cc:	b508      	push	{r3, lr}
 80006ce:	f640 6314 	movw	r3, #3604	; 0xe14
 80006d2:	e9c0 2300 	strd	r2, r3, [r0]
 80006d6:	2300      	movs	r3, #0
 80006d8:	2201      	movs	r2, #1
 80006da:	e9c0 3202 	strd	r3, r2, [r0, #8]
 80006de:	e9c0 3304 	strd	r3, r3, [r0, #16]
 80006e2:	e9c0 3306 	strd	r3, r3, [r0, #24]
 80006e6:	6203      	str	r3, [r0, #32]
 80006e8:	f001 fa21 	bl	8001b2e <HAL_I2C_Init>
 80006ec:	b108      	cbz	r0, 80006f2 <MX_I2C1_Init+0x2a>
 80006ee:	f000 f923 	bl	8000938 <Error_Handler>
 80006f2:	4808      	ldr	r0, [pc, #32]	; (8000714 <MX_I2C1_Init+0x4c>)
 80006f4:	2100      	movs	r1, #0
 80006f6:	f001 fb01 	bl	8001cfc <HAL_I2CEx_ConfigAnalogFilter>
 80006fa:	b108      	cbz	r0, 8000700 <MX_I2C1_Init+0x38>
 80006fc:	f000 f91c 	bl	8000938 <Error_Handler>
 8000700:	4804      	ldr	r0, [pc, #16]	; (8000714 <MX_I2C1_Init+0x4c>)
 8000702:	2100      	movs	r1, #0
 8000704:	f001 fb20 	bl	8001d48 <HAL_I2CEx_ConfigDigitalFilter>
 8000708:	b118      	cbz	r0, 8000712 <MX_I2C1_Init+0x4a>
 800070a:	e8bd 4008 	ldmia.w	sp!, {r3, lr}
 800070e:	f000 b913 	b.w	8000938 <Error_Handler>
 8000712:	bd08      	pop	{r3, pc}
 8000714:	200000b8 	.word	0x200000b8
 8000718:	40005400 	.word	0x40005400

0800071c <HAL_I2C_MspInit>:
 800071c:	b510      	push	{r4, lr}
 800071e:	b0a2      	sub	sp, #136	; 0x88
 8000720:	4604      	mov	r4, r0
 8000722:	2214      	movs	r2, #20
 8000724:	2100      	movs	r1, #0
 8000726:	a803      	add	r0, sp, #12
 8000728:	f002 fa74 	bl	8002c14 <memset>
 800072c:	2268      	movs	r2, #104	; 0x68
 800072e:	2100      	movs	r1, #0
 8000730:	a808      	add	r0, sp, #32
 8000732:	f002 fa6f 	bl	8002c14 <memset>
 8000736:	6822      	ldr	r2, [r4, #0]
 8000738:	4b17      	ldr	r3, [pc, #92]	; (8000798 <HAL_I2C_MspInit+0x7c>)
 800073a:	429a      	cmp	r2, r3
 800073c:	d12a      	bne.n	8000794 <HAL_I2C_MspInit+0x78>
 800073e:	2340      	movs	r3, #64	; 0x40
 8000740:	a808      	add	r0, sp, #32
 8000742:	9308      	str	r3, [sp, #32]
 8000744:	f001 ffcc 	bl	80026e0 <HAL_RCCEx_PeriphCLKConfig>
 8000748:	b108      	cbz	r0, 800074e <HAL_I2C_MspInit+0x32>
 800074a:	f000 f8f5 	bl	8000938 <Error_Handler>
 800074e:	4c13      	ldr	r4, [pc, #76]	; (800079c <HAL_I2C_MspInit+0x80>)
 8000750:	6ce3      	ldr	r3, [r4, #76]	; 0x4c
 8000752:	f043 0301 	orr.w	r3, r3, #1
 8000756:	64e3      	str	r3, [r4, #76]	; 0x4c
 8000758:	6ce3      	ldr	r3, [r4, #76]	; 0x4c
 800075a:	f003 0301 	and.w	r3, r3, #1
 800075e:	9301      	str	r3, [sp, #4]
 8000760:	9b01      	ldr	r3, [sp, #4]
 8000762:	f44f 62c0 	mov.w	r2, #1536	; 0x600
 8000766:	2312      	movs	r3, #18
 8000768:	e9cd 2303 	strd	r2, r3, [sp, #12]
 800076c:	2100      	movs	r1, #0
 800076e:	2303      	movs	r3, #3
 8000770:	e9cd 1305 	strd	r1, r3, [sp, #20]
 8000774:	f04f 4090 	mov.w	r0, #1207959552	; 0x48000000
 8000778:	2304      	movs	r3, #4
 800077a:	a903      	add	r1, sp, #12
 800077c:	9307      	str	r3, [sp, #28]
 800077e:	f000 ffe7 	bl	8001750 <HAL_GPIO_Init>
 8000782:	6da3      	ldr	r3, [r4, #88]	; 0x58
 8000784:	f443 1300 	orr.w	r3, r3, #2097152	; 0x200000
 8000788:	65a3      	str	r3, [r4, #88]	; 0x58
 800078a:	6da3      	ldr	r3, [r4, #88]	; 0x58
 800078c:	f403 1300 	and.w	r3, r3, #2097152	; 0x200000
 8000790:	9302      	str	r3, [sp, #8]
 8000792:	9b02      	ldr	r3, [sp, #8]
 8000794:	b022      	add	sp, #136	; 0x88
 8000796:	bd10      	pop	{r4, pc}
 8000798:	40005400 	.word	0x40005400
 800079c:	40021000 	.word	0x40021000

080007a0 <HAL_CAN_RxFifo0MsgPendingCallback>:
 80007a0:	f7ff be6c 	b.w	800047c <CAN_Message_Received>

080007a4 <SystemClock_Config>:
 80007a4:	b500      	push	{lr}
 80007a6:	b097      	sub	sp, #92	; 0x5c
 80007a8:	2244      	movs	r2, #68	; 0x44
 80007aa:	2100      	movs	r1, #0
 80007ac:	a805      	add	r0, sp, #20
 80007ae:	f002 fa31 	bl	8002c14 <memset>
 80007b2:	2214      	movs	r2, #20
 80007b4:	2100      	movs	r1, #0
 80007b6:	4668      	mov	r0, sp
 80007b8:	f002 fa2c 	bl	8002c14 <memset>
 80007bc:	f44f 7000 	mov.w	r0, #512	; 0x200
 80007c0:	f001 faf0 	bl	8001da4 <HAL_PWREx_ControlVoltageScaling>
 80007c4:	b108      	cbz	r0, 80007ca <SystemClock_Config+0x26>
 80007c6:	b672      	cpsid	i
 80007c8:	e7fe      	b.n	80007c8 <SystemClock_Config+0x24>
 80007ca:	2310      	movs	r3, #16
 80007cc:	9305      	str	r3, [sp, #20]
 80007ce:	2301      	movs	r3, #1
 80007d0:	e9cd 300b 	strd	r3, r0, [sp, #44]	; 0x2c
 80007d4:	900f      	str	r0, [sp, #60]	; 0x3c
 80007d6:	2360      	movs	r3, #96	; 0x60
 80007d8:	a805      	add	r0, sp, #20
 80007da:	930d      	str	r3, [sp, #52]	; 0x34
 80007dc:	f001 fba8 	bl	8001f30 <HAL_RCC_OscConfig>
 80007e0:	4601      	mov	r1, r0
 80007e2:	b108      	cbz	r0, 80007e8 <SystemClock_Config+0x44>
 80007e4:	b672      	cpsid	i
 80007e6:	e7fe      	b.n	80007e6 <SystemClock_Config+0x42>
 80007e8:	230f      	movs	r3, #15
 80007ea:	e9cd 3000 	strd	r3, r0, [sp]
 80007ee:	e9cd 0002 	strd	r0, r0, [sp, #8]
 80007f2:	9004      	str	r0, [sp, #16]
 80007f4:	4668      	mov	r0, sp
 80007f6:	f001 fe3f 	bl	8002478 <HAL_RCC_ClockConfig>
 80007fa:	b108      	cbz	r0, 8000800 <SystemClock_Config+0x5c>
 80007fc:	b672      	cpsid	i
 80007fe:	e7fe      	b.n	80007fe <SystemClock_Config+0x5a>
 8000800:	b017      	add	sp, #92	; 0x5c
 8000802:	f85d fb04 	ldr.w	pc, [sp], #4
	...

08000808 <main>:
 8000808:	b5f0      	push	{r4, r5, r6, r7, lr}
 800080a:	b087      	sub	sp, #28
 800080c:	f000 f972 	bl	8000af4 <HAL_Init>
 8000810:	f7ff ffc8 	bl	80007a4 <SystemClock_Config>
 8000814:	f7ff fef6 	bl	8000604 <MX_GPIO_Init>
 8000818:	f7ff fcdc 	bl	80001d4 <MX_ADC1_Init>
 800081c:	f7ff fd78 	bl	8000310 <MX_CAN1_Init>
 8000820:	f7ff ff52 	bl	80006c8 <MX_I2C1_Init>
 8000824:	f000 f88a 	bl	800093c <MX_SPI3_Init>
 8000828:	f002 f962 	bl	8002af0 <MAX7300_Init>
 800082c:	4841      	ldr	r0, [pc, #260]	; (8000934 <main+0x12c>)
 800082e:	4f41      	ldr	r7, [pc, #260]	; (8000934 <main+0x12c>)
 8000830:	f7ff fe97 	bl	8000562 <CAN_Queue_Init>
 8000834:	f7ff fdc2 	bl	80003bc <CAN_Init>
 8000838:	2500      	movs	r5, #0
 800083a:	2603      	movs	r6, #3
 800083c:	4638      	mov	r0, r7
 800083e:	f7ff fe94 	bl	800056a <CAN_Queue_IsEmpty>
 8000842:	2800      	cmp	r0, #0
 8000844:	d1fa      	bne.n	800083c <main+0x34>
 8000846:	466c      	mov	r4, sp
 8000848:	4621      	mov	r1, r4
 800084a:	4638      	mov	r0, r7
 800084c:	f7ff febe 	bl	80005cc <CAN_Queue_Dequeue>
 8000850:	2301      	movs	r3, #1
 8000852:	f88d 300e 	strb.w	r3, [sp, #14]
 8000856:	f88d 300f 	strb.w	r3, [sp, #15]
 800085a:	f89d 3003 	ldrb.w	r3, [sp, #3]
 800085e:	f88d 600d 	strb.w	r6, [sp, #13]
 8000862:	3ba0      	subs	r3, #160	; 0xa0
 8000864:	2b06      	cmp	r3, #6
 8000866:	d8e9      	bhi.n	800083c <main+0x34>
 8000868:	e8df f003 	tbb	[pc, r3]
 800086c:	34261404 	.word	0x34261404
 8000870:	4d42      	.short	0x4d42
 8000872:	55          	.byte	0x55
 8000873:	00          	.byte	0x00
 8000874:	e894 0007 	ldmia.w	r4, {r0, r1, r2}
 8000878:	f7ff fe4a 	bl	8000510 <CAN_Send_Default_ACK>
 800087c:	2300      	movs	r3, #0
 800087e:	f88d 300c 	strb.w	r3, [sp, #12]
 8000882:	23a0      	movs	r3, #160	; 0xa0
 8000884:	f88d 3010 	strb.w	r3, [sp, #16]
 8000888:	ab06      	add	r3, sp, #24
 800088a:	e913 0007 	ldmdb	r3, {r0, r1, r2}
 800088e:	f7ff fdb7 	bl	8000400 <CAN_Transmit_Message>
 8000892:	e7d3      	b.n	800083c <main+0x34>
 8000894:	e894 0007 	ldmia.w	r4, {r0, r1, r2}
 8000898:	f7ff fe3a 	bl	8000510 <CAN_Send_Default_ACK>
 800089c:	f89d 4004 	ldrb.w	r4, [sp, #4]
 80008a0:	4620      	mov	r0, r4
 80008a2:	f002 f915 	bl	8002ad0 <LED_enableLED>
 80008a6:	230f      	movs	r3, #15
 80008a8:	f88d 300c 	strb.w	r3, [sp, #12]
 80008ac:	23a1      	movs	r3, #161	; 0xa1
 80008ae:	f88d 3010 	strb.w	r3, [sp, #16]
 80008b2:	f88d 4011 	strb.w	r4, [sp, #17]
 80008b6:	e7e7      	b.n	8000888 <main+0x80>
 80008b8:	e894 0007 	ldmia.w	r4, {r0, r1, r2}
 80008bc:	f7ff fe28 	bl	8000510 <CAN_Send_Default_ACK>
 80008c0:	f89d 4004 	ldrb.w	r4, [sp, #4]
 80008c4:	4620      	mov	r0, r4
 80008c6:	f002 f90b 	bl	8002ae0 <LED_disableLED>
 80008ca:	2307      	movs	r3, #7
 80008cc:	f88d 300c 	strb.w	r3, [sp, #12]
 80008d0:	23a2      	movs	r3, #162	; 0xa2
 80008d2:	e7ec      	b.n	80008ae <main+0xa6>
 80008d4:	e894 0007 	ldmia.w	r4, {r0, r1, r2}
 80008d8:	f7ff fe1a 	bl	8000510 <CAN_Send_Default_ACK>
 80008dc:	f89d 5004 	ldrb.w	r5, [sp, #4]
 80008e0:	f88d 600c 	strb.w	r6, [sp, #12]
 80008e4:	23a3      	movs	r3, #163	; 0xa3
 80008e6:	f88d 3010 	strb.w	r3, [sp, #16]
 80008ea:	f88d 5011 	strb.w	r5, [sp, #17]
 80008ee:	e7cb      	b.n	8000888 <main+0x80>
 80008f0:	e894 0007 	ldmia.w	r4, {r0, r1, r2}
 80008f4:	f7ff fe0c 	bl	8000510 <CAN_Send_Default_ACK>
 80008f8:	2301      	movs	r3, #1
 80008fa:	f88d 300c 	strb.w	r3, [sp, #12]
 80008fe:	f89d 5004 	ldrb.w	r5, [sp, #4]
 8000902:	23a4      	movs	r3, #164	; 0xa4
 8000904:	e7ef      	b.n	80008e6 <main+0xde>
 8000906:	e894 0007 	ldmia.w	r4, {r0, r1, r2}
 800090a:	f7ff fe01 	bl	8000510 <CAN_Send_Default_ACK>
 800090e:	f88d 600c 	strb.w	r6, [sp, #12]
 8000912:	23a5      	movs	r3, #165	; 0xa5
 8000914:	e7e7      	b.n	80008e6 <main+0xde>
 8000916:	e894 0007 	ldmia.w	r4, {r0, r1, r2}
 800091a:	f7ff fdf9 	bl	8000510 <CAN_Send_Default_ACK>
 800091e:	2201      	movs	r2, #1
 8000920:	f89d 3004 	ldrb.w	r3, [sp, #4]
 8000924:	f88d 200c 	strb.w	r2, [sp, #12]
 8000928:	22a6      	movs	r2, #166	; 0xa6
 800092a:	f88d 2010 	strb.w	r2, [sp, #16]
 800092e:	f88d 3011 	strb.w	r3, [sp, #17]
 8000932:	e7a9      	b.n	8000888 <main+0x80>
 8000934:	2000010c 	.word	0x2000010c

08000938 <Error_Handler>:
 8000938:	b672      	cpsid	i
 800093a:	e7fe      	b.n	800093a <Error_Handler+0x2>

0800093c <MX_SPI3_Init>:
 800093c:	4810      	ldr	r0, [pc, #64]	; (8000980 <MX_SPI3_Init+0x44>)
 800093e:	4a11      	ldr	r2, [pc, #68]	; (8000984 <MX_SPI3_Init+0x48>)
 8000940:	b508      	push	{r3, lr}
 8000942:	f44f 7382 	mov.w	r3, #260	; 0x104
 8000946:	e9c0 2300 	strd	r2, r3, [r0]
 800094a:	2300      	movs	r3, #0
 800094c:	f44f 6270 	mov.w	r2, #3840	; 0xf00
 8000950:	e9c0 3202 	strd	r3, r2, [r0, #8]
 8000954:	f44f 7200 	mov.w	r2, #512	; 0x200
 8000958:	e9c0 2306 	strd	r2, r3, [r0, #24]
 800095c:	2207      	movs	r2, #7
 800095e:	e9c0 3304 	strd	r3, r3, [r0, #16]
 8000962:	e9c0 3308 	strd	r3, r3, [r0, #32]
 8000966:	e9c0 230b 	strd	r2, r3, [r0, #44]	; 0x2c
 800096a:	6283      	str	r3, [r0, #40]	; 0x28
 800096c:	2308      	movs	r3, #8
 800096e:	6343      	str	r3, [r0, #52]	; 0x34
 8000970:	f002 f844 	bl	80029fc <HAL_SPI_Init>
 8000974:	b118      	cbz	r0, 800097e <MX_SPI3_Init+0x42>
 8000976:	e8bd 4008 	ldmia.w	sp!, {r3, lr}
 800097a:	f7ff bfdd 	b.w	8000938 <Error_Handler>
 800097e:	bd08      	pop	{r3, pc}
 8000980:	20000560 	.word	0x20000560
 8000984:	40003c00 	.word	0x40003c00

08000988 <HAL_SPI_MspInit>:
 8000988:	b510      	push	{r4, lr}
 800098a:	4604      	mov	r4, r0
 800098c:	b088      	sub	sp, #32
 800098e:	2214      	movs	r2, #20
 8000990:	2100      	movs	r1, #0
 8000992:	a803      	add	r0, sp, #12
 8000994:	f002 f93e 	bl	8002c14 <memset>
 8000998:	6822      	ldr	r2, [r4, #0]
 800099a:	4b13      	ldr	r3, [pc, #76]	; (80009e8 <HAL_SPI_MspInit+0x60>)
 800099c:	429a      	cmp	r2, r3
 800099e:	d120      	bne.n	80009e2 <HAL_SPI_MspInit+0x5a>
 80009a0:	f503 33ea 	add.w	r3, r3, #119808	; 0x1d400
 80009a4:	2103      	movs	r1, #3
 80009a6:	6d9a      	ldr	r2, [r3, #88]	; 0x58
 80009a8:	4810      	ldr	r0, [pc, #64]	; (80009ec <HAL_SPI_MspInit+0x64>)
 80009aa:	f442 4200 	orr.w	r2, r2, #32768	; 0x8000
 80009ae:	659a      	str	r2, [r3, #88]	; 0x58
 80009b0:	6d9a      	ldr	r2, [r3, #88]	; 0x58
 80009b2:	f402 4200 	and.w	r2, r2, #32768	; 0x8000
 80009b6:	9201      	str	r2, [sp, #4]
 80009b8:	9a01      	ldr	r2, [sp, #4]
 80009ba:	6cda      	ldr	r2, [r3, #76]	; 0x4c
 80009bc:	f042 0204 	orr.w	r2, r2, #4
 80009c0:	64da      	str	r2, [r3, #76]	; 0x4c
 80009c2:	6cdb      	ldr	r3, [r3, #76]	; 0x4c
 80009c4:	f003 0304 	and.w	r3, r3, #4
 80009c8:	9302      	str	r3, [sp, #8]
 80009ca:	9b02      	ldr	r3, [sp, #8]
 80009cc:	f44f 52e0 	mov.w	r2, #7168	; 0x1c00
 80009d0:	2302      	movs	r3, #2
 80009d2:	e9cd 2303 	strd	r2, r3, [sp, #12]
 80009d6:	2306      	movs	r3, #6
 80009d8:	e9cd 1306 	strd	r1, r3, [sp, #24]
 80009dc:	a903      	add	r1, sp, #12
 80009de:	f000 feb7 	bl	8001750 <HAL_GPIO_Init>
 80009e2:	b008      	add	sp, #32
 80009e4:	bd10      	pop	{r4, pc}
 80009e6:	bf00      	nop
 80009e8:	40003c00 	.word	0x40003c00
 80009ec:	48000800 	.word	0x48000800

080009f0 <HAL_MspInit>:
 80009f0:	4b0a      	ldr	r3, [pc, #40]	; (8000a1c <HAL_MspInit+0x2c>)
 80009f2:	6e1a      	ldr	r2, [r3, #96]	; 0x60
 80009f4:	f042 0201 	orr.w	r2, r2, #1
 80009f8:	661a      	str	r2, [r3, #96]	; 0x60
 80009fa:	6e1a      	ldr	r2, [r3, #96]	; 0x60
 80009fc:	b082      	sub	sp, #8
 80009fe:	f002 0201 	and.w	r2, r2, #1
 8000a02:	9200      	str	r2, [sp, #0]
 8000a04:	9a00      	ldr	r2, [sp, #0]
 8000a06:	6d9a      	ldr	r2, [r3, #88]	; 0x58
 8000a08:	f042 5280 	orr.w	r2, r2, #268435456	; 0x10000000
 8000a0c:	659a      	str	r2, [r3, #88]	; 0x58
 8000a0e:	6d9b      	ldr	r3, [r3, #88]	; 0x58
 8000a10:	f003 5380 	and.w	r3, r3, #268435456	; 0x10000000
 8000a14:	9301      	str	r3, [sp, #4]
 8000a16:	9b01      	ldr	r3, [sp, #4]
 8000a18:	b002      	add	sp, #8
 8000a1a:	4770      	bx	lr
 8000a1c:	40021000 	.word	0x40021000

08000a20 <NMI_Handler>:
 8000a20:	e7fe      	b.n	8000a20 <NMI_Handler>

08000a22 <HardFault_Handler>:
 8000a22:	e7fe      	b.n	8000a22 <HardFault_Handler>

08000a24 <MemManage_Handler>:
 8000a24:	e7fe      	b.n	8000a24 <MemManage_Handler>

08000a26 <BusFault_Handler>:
 8000a26:	e7fe      	b.n	8000a26 <BusFault_Handler>

08000a28 <UsageFault_Handler>:
 8000a28:	e7fe      	b.n	8000a28 <UsageFault_Handler>

08000a2a <SVC_Handler>:
 8000a2a:	4770      	bx	lr

08000a2c <DebugMon_Handler>:
 8000a2c:	4770      	bx	lr

08000a2e <PendSV_Handler>:
 8000a2e:	4770      	bx	lr

08000a30 <SysTick_Handler>:
 8000a30:	f000 b870 	b.w	8000b14 <HAL_IncTick>

08000a34 <CAN1_RX0_IRQHandler>:
 8000a34:	4801      	ldr	r0, [pc, #4]	; (8000a3c <CAN1_RX0_IRQHandler+0x8>)
 8000a36:	f000 bd27 	b.w	8001488 <HAL_CAN_IRQHandler>
 8000a3a:	bf00      	nop
 8000a3c:	20000090 	.word	0x20000090

08000a40 <SystemInit>:
 8000a40:	4a03      	ldr	r2, [pc, #12]	; (8000a50 <SystemInit+0x10>)
 8000a42:	f8d2 3088 	ldr.w	r3, [r2, #136]	; 0x88
 8000a46:	f443 0370 	orr.w	r3, r3, #15728640	; 0xf00000
 8000a4a:	f8c2 3088 	str.w	r3, [r2, #136]	; 0x88
 8000a4e:	4770      	bx	lr
 8000a50:	e000ed00 	.word	0xe000ed00

08000a54 <Reset_Handler>:
 8000a54:	f8df d034 	ldr.w	sp, [pc, #52]	; 8000a8c <LoopForever+0x2>
 8000a58:	f7ff fff2 	bl	8000a40 <SystemInit>
 8000a5c:	480c      	ldr	r0, [pc, #48]	; (8000a90 <LoopForever+0x6>)
 8000a5e:	490d      	ldr	r1, [pc, #52]	; (8000a94 <LoopForever+0xa>)
 8000a60:	4a0d      	ldr	r2, [pc, #52]	; (8000a98 <LoopForever+0xe>)
 8000a62:	2300      	movs	r3, #0
 8000a64:	e002      	b.n	8000a6c <LoopCopyDataInit>

08000a66 <CopyDataInit>:
 8000a66:	58d4      	ldr	r4, [r2, r3]
 8000a68:	50c4      	str	r4, [r0, r3]
 8000a6a:	3304      	adds	r3, #4

08000a6c <LoopCopyDataInit>:
 8000a6c:	18c4      	adds	r4, r0, r3
 8000a6e:	428c      	cmp	r4, r1
 8000a70:	d3f9      	bcc.n	8000a66 <CopyDataInit>
 8000a72:	4a0a      	ldr	r2, [pc, #40]	; (8000a9c <LoopForever+0x12>)
 8000a74:	4c0a      	ldr	r4, [pc, #40]	; (8000aa0 <LoopForever+0x16>)
 8000a76:	2300      	movs	r3, #0
 8000a78:	e001      	b.n	8000a7e <LoopFillZerobss>

08000a7a <FillZerobss>:
 8000a7a:	6013      	str	r3, [r2, #0]
 8000a7c:	3204      	adds	r2, #4

08000a7e <LoopFillZerobss>:
 8000a7e:	42a2      	cmp	r2, r4
 8000a80:	d3fb      	bcc.n	8000a7a <FillZerobss>
 8000a82:	f002 f8a3 	bl	8002bcc <__libc_init_array>
 8000a86:	f7ff febf 	bl	8000808 <main>

08000a8a <LoopForever>:
 8000a8a:	e7fe      	b.n	8000a8a <LoopForever>
 8000a8c:	20028000 	.word	0x20028000
 8000a90:	20000000 	.word	0x20000000
 8000a94:	2000000c 	.word	0x2000000c
 8000a98:	08002c90 	.word	0x08002c90
 8000a9c:	2000000c 	.word	0x2000000c
 8000aa0:	20000668 	.word	0x20000668

08000aa4 <ADC1_IRQHandler>:
 8000aa4:	e7fe      	b.n	8000aa4 <ADC1_IRQHandler>
	...

08000aa8 <HAL_InitTick>:
 8000aa8:	b538      	push	{r3, r4, r5, lr}
 8000aaa:	4b0f      	ldr	r3, [pc, #60]	; (8000ae8 <HAL_InitTick+0x40>)
 8000aac:	4605      	mov	r5, r0
 8000aae:	7818      	ldrb	r0, [r3, #0]
 8000ab0:	b908      	cbnz	r0, 8000ab6 <HAL_InitTick+0xe>
 8000ab2:	2001      	movs	r0, #1
 8000ab4:	bd38      	pop	{r3, r4, r5, pc}
 8000ab6:	4a0d      	ldr	r2, [pc, #52]	; (8000aec <HAL_InitTick+0x44>)
 8000ab8:	f44f 737a 	mov.w	r3, #1000	; 0x3e8
 8000abc:	fbb3 f3f0 	udiv	r3, r3, r0
 8000ac0:	6810      	ldr	r0, [r2, #0]
 8000ac2:	fbb0 f0f3 	udiv	r0, r0, r3
 8000ac6:	f000 fe2f 	bl	8001728 <HAL_SYSTICK_Config>
 8000aca:	4604      	mov	r4, r0
 8000acc:	2800      	cmp	r0, #0
 8000ace:	d1f0      	bne.n	8000ab2 <HAL_InitTick+0xa>
 8000ad0:	2d0f      	cmp	r5, #15
 8000ad2:	d8ee      	bhi.n	8000ab2 <HAL_InitTick+0xa>
 8000ad4:	4602      	mov	r2, r0
 8000ad6:	4629      	mov	r1, r5
 8000ad8:	f04f 30ff 	mov.w	r0, #4294967295
 8000adc:	f000 fde4 	bl	80016a8 <HAL_NVIC_SetPriority>
 8000ae0:	4b03      	ldr	r3, [pc, #12]	; (8000af0 <HAL_InitTick+0x48>)
 8000ae2:	4620      	mov	r0, r4
 8000ae4:	601d      	str	r5, [r3, #0]
 8000ae6:	e7e5      	b.n	8000ab4 <HAL_InitTick+0xc>
 8000ae8:	20000004 	.word	0x20000004
 8000aec:	20000000 	.word	0x20000000
 8000af0:	20000008 	.word	0x20000008

08000af4 <HAL_Init>:
 8000af4:	b510      	push	{r4, lr}
 8000af6:	2003      	movs	r0, #3
 8000af8:	f000 fdc4 	bl	8001684 <HAL_NVIC_SetPriorityGrouping>
 8000afc:	200f      	movs	r0, #15
 8000afe:	f7ff ffd3 	bl	8000aa8 <HAL_InitTick>
 8000b02:	4604      	mov	r4, r0
 8000b04:	b918      	cbnz	r0, 8000b0e <HAL_Init+0x1a>
 8000b06:	f7ff ff73 	bl	80009f0 <HAL_MspInit>
 8000b0a:	4620      	mov	r0, r4
 8000b0c:	bd10      	pop	{r4, pc}
 8000b0e:	2401      	movs	r4, #1
 8000b10:	e7fb      	b.n	8000b0a <HAL_Init+0x16>
	...

08000b14 <HAL_IncTick>:
 8000b14:	4a03      	ldr	r2, [pc, #12]	; (8000b24 <HAL_IncTick+0x10>)
 8000b16:	4b04      	ldr	r3, [pc, #16]	; (8000b28 <HAL_IncTick+0x14>)
 8000b18:	6811      	ldr	r1, [r2, #0]
 8000b1a:	781b      	ldrb	r3, [r3, #0]
 8000b1c:	440b      	add	r3, r1
 8000b1e:	6013      	str	r3, [r2, #0]
 8000b20:	4770      	bx	lr
 8000b22:	bf00      	nop
 8000b24:	200005c4 	.word	0x200005c4
 8000b28:	20000004 	.word	0x20000004

08000b2c <HAL_GetTick>:
 8000b2c:	4b01      	ldr	r3, [pc, #4]	; (8000b34 <HAL_GetTick+0x8>)
 8000b2e:	6818      	ldr	r0, [r3, #0]
 8000b30:	4770      	bx	lr
 8000b32:	bf00      	nop
 8000b34:	200005c4 	.word	0x200005c4

08000b38 <LL_ADC_SetChannelSamplingTime>:
 8000b38:	b530      	push	{r4, r5, lr}
 8000b3a:	0dcc      	lsrs	r4, r1, #23
 8000b3c:	f004 0404 	and.w	r4, r4, #4
 8000b40:	3014      	adds	r0, #20
 8000b42:	f3c1 5104 	ubfx	r1, r1, #20, #5
 8000b46:	5823      	ldr	r3, [r4, r0]
 8000b48:	2507      	movs	r5, #7
 8000b4a:	408d      	lsls	r5, r1
 8000b4c:	ea23 0305 	bic.w	r3, r3, r5
 8000b50:	fa02 f101 	lsl.w	r1, r2, r1
 8000b54:	430b      	orrs	r3, r1
 8000b56:	5023      	str	r3, [r4, r0]
 8000b58:	bd30      	pop	{r4, r5, pc}

08000b5a <LL_ADC_REG_IsConversionOngoing>:
 8000b5a:	6880      	ldr	r0, [r0, #8]
 8000b5c:	f3c0 0080 	ubfx	r0, r0, #2, #1
 8000b60:	4770      	bx	lr
	...

08000b64 <HAL_ADC_Init>:
 8000b64:	b537      	push	{r0, r1, r2, r4, r5, lr}
 8000b66:	2300      	movs	r3, #0
 8000b68:	9301      	str	r3, [sp, #4]
 8000b6a:	4604      	mov	r4, r0
 8000b6c:	2800      	cmp	r0, #0
 8000b6e:	f000 80c1 	beq.w	8000cf4 <HAL_ADC_Init+0x190>
 8000b72:	6d85      	ldr	r5, [r0, #88]	; 0x58
 8000b74:	b925      	cbnz	r5, 8000b80 <HAL_ADC_Init+0x1c>
 8000b76:	f7ff fb69 	bl	800024c <HAL_ADC_MspInit>
 8000b7a:	65e5      	str	r5, [r4, #92]	; 0x5c
 8000b7c:	f884 5054 	strb.w	r5, [r4, #84]	; 0x54
 8000b80:	6820      	ldr	r0, [r4, #0]
 8000b82:	6883      	ldr	r3, [r0, #8]
 8000b84:	009b      	lsls	r3, r3, #2
 8000b86:	bf41      	itttt	mi
 8000b88:	6883      	ldrmi	r3, [r0, #8]
 8000b8a:	f023 4320 	bicmi.w	r3, r3, #2684354560	; 0xa0000000
 8000b8e:	f023 033f 	bicmi.w	r3, r3, #63	; 0x3f
 8000b92:	6083      	strmi	r3, [r0, #8]
 8000b94:	6883      	ldr	r3, [r0, #8]
 8000b96:	00dd      	lsls	r5, r3, #3
 8000b98:	f140 808c 	bpl.w	8000cb4 <HAL_ADC_Init+0x150>
 8000b9c:	6883      	ldr	r3, [r0, #8]
 8000b9e:	00d9      	lsls	r1, r3, #3
 8000ba0:	f100 809f 	bmi.w	8000ce2 <HAL_ADC_Init+0x17e>
 8000ba4:	6da3      	ldr	r3, [r4, #88]	; 0x58
 8000ba6:	f043 0310 	orr.w	r3, r3, #16
 8000baa:	65a3      	str	r3, [r4, #88]	; 0x58
 8000bac:	6de3      	ldr	r3, [r4, #92]	; 0x5c
 8000bae:	f043 0301 	orr.w	r3, r3, #1
 8000bb2:	65e3      	str	r3, [r4, #92]	; 0x5c
 8000bb4:	2101      	movs	r1, #1
 8000bb6:	f7ff ffd0 	bl	8000b5a <LL_ADC_REG_IsConversionOngoing>
 8000bba:	6da3      	ldr	r3, [r4, #88]	; 0x58
 8000bbc:	f003 0310 	and.w	r3, r3, #16
 8000bc0:	4303      	orrs	r3, r0
 8000bc2:	6da3      	ldr	r3, [r4, #88]	; 0x58
 8000bc4:	f040 8093 	bne.w	8000cee <HAL_ADC_Init+0x18a>
 8000bc8:	f423 7381 	bic.w	r3, r3, #258	; 0x102
 8000bcc:	f043 0302 	orr.w	r3, r3, #2
 8000bd0:	6820      	ldr	r0, [r4, #0]
 8000bd2:	65a3      	str	r3, [r4, #88]	; 0x58
 8000bd4:	6883      	ldr	r3, [r0, #8]
 8000bd6:	07da      	lsls	r2, r3, #31
 8000bd8:	d40a      	bmi.n	8000bf0 <HAL_ADC_Init+0x8c>
 8000bda:	4b47      	ldr	r3, [pc, #284]	; (8000cf8 <HAL_ADC_Init+0x194>)
 8000bdc:	689b      	ldr	r3, [r3, #8]
 8000bde:	07db      	lsls	r3, r3, #31
 8000be0:	d406      	bmi.n	8000bf0 <HAL_ADC_Init+0x8c>
 8000be2:	4a46      	ldr	r2, [pc, #280]	; (8000cfc <HAL_ADC_Init+0x198>)
 8000be4:	6865      	ldr	r5, [r4, #4]
 8000be6:	6893      	ldr	r3, [r2, #8]
 8000be8:	f423 137c 	bic.w	r3, r3, #4128768	; 0x3f0000
 8000bec:	432b      	orrs	r3, r5
 8000bee:	6093      	str	r3, [r2, #8]
 8000bf0:	68e5      	ldr	r5, [r4, #12]
 8000bf2:	6b63      	ldr	r3, [r4, #52]	; 0x34
 8000bf4:	f894 2020 	ldrb.w	r2, [r4, #32]
 8000bf8:	432b      	orrs	r3, r5
 8000bfa:	68a5      	ldr	r5, [r4, #8]
 8000bfc:	432b      	orrs	r3, r5
 8000bfe:	7e65      	ldrb	r5, [r4, #25]
 8000c00:	2a01      	cmp	r2, #1
 8000c02:	ea43 3345 	orr.w	r3, r3, r5, lsl #13
 8000c06:	ea43 4302 	orr.w	r3, r3, r2, lsl #16
 8000c0a:	bf02      	ittt	eq
 8000c0c:	6a62      	ldreq	r2, [r4, #36]	; 0x24
 8000c0e:	f102 32ff 	addeq.w	r2, r2, #4294967295
 8000c12:	ea43 4342 	orreq.w	r3, r3, r2, lsl #17
 8000c16:	6aa2      	ldr	r2, [r4, #40]	; 0x28
 8000c18:	b122      	cbz	r2, 8000c24 <HAL_ADC_Init+0xc0>
 8000c1a:	6ae5      	ldr	r5, [r4, #44]	; 0x2c
 8000c1c:	f402 7270 	and.w	r2, r2, #960	; 0x3c0
 8000c20:	432a      	orrs	r2, r5
 8000c22:	4313      	orrs	r3, r2
 8000c24:	68c5      	ldr	r5, [r0, #12]
 8000c26:	4a36      	ldr	r2, [pc, #216]	; (8000d00 <HAL_ADC_Init+0x19c>)
 8000c28:	402a      	ands	r2, r5
 8000c2a:	4313      	orrs	r3, r2
 8000c2c:	60c3      	str	r3, [r0, #12]
 8000c2e:	f7ff ff94 	bl	8000b5a <LL_ADC_REG_IsConversionOngoing>
 8000c32:	6823      	ldr	r3, [r4, #0]
 8000c34:	689a      	ldr	r2, [r3, #8]
 8000c36:	f002 0208 	and.w	r2, r2, #8
 8000c3a:	4302      	orrs	r2, r0
 8000c3c:	d122      	bne.n	8000c84 <HAL_ADC_Init+0x120>
 8000c3e:	f894 2030 	ldrb.w	r2, [r4, #48]	; 0x30
 8000c42:	7e25      	ldrb	r5, [r4, #24]
 8000c44:	68d8      	ldr	r0, [r3, #12]
 8000c46:	0052      	lsls	r2, r2, #1
 8000c48:	ea42 3285 	orr.w	r2, r2, r5, lsl #14
 8000c4c:	6ce5      	ldr	r5, [r4, #76]	; 0x4c
 8000c4e:	f420 4080 	bic.w	r0, r0, #16384	; 0x4000
 8000c52:	432a      	orrs	r2, r5
 8000c54:	f020 0006 	bic.w	r0, r0, #6
 8000c58:	4302      	orrs	r2, r0
 8000c5a:	60da      	str	r2, [r3, #12]
 8000c5c:	f894 2038 	ldrb.w	r2, [r4, #56]	; 0x38
 8000c60:	2a01      	cmp	r2, #1
 8000c62:	d140      	bne.n	8000ce6 <HAL_ADC_Init+0x182>
 8000c64:	e9d4 250f 	ldrd	r2, r5, [r4, #60]	; 0x3c
 8000c68:	6918      	ldr	r0, [r3, #16]
 8000c6a:	f420 60ff 	bic.w	r0, r0, #2040	; 0x7f8
 8000c6e:	f020 0004 	bic.w	r0, r0, #4
 8000c72:	432a      	orrs	r2, r5
 8000c74:	4302      	orrs	r2, r0
 8000c76:	6c60      	ldr	r0, [r4, #68]	; 0x44
 8000c78:	4302      	orrs	r2, r0
 8000c7a:	6ca0      	ldr	r0, [r4, #72]	; 0x48
 8000c7c:	4302      	orrs	r2, r0
 8000c7e:	f042 0201 	orr.w	r2, r2, #1
 8000c82:	611a      	str	r2, [r3, #16]
 8000c84:	6922      	ldr	r2, [r4, #16]
 8000c86:	2a01      	cmp	r2, #1
 8000c88:	bf05      	ittet	eq
 8000c8a:	6b18      	ldreq	r0, [r3, #48]	; 0x30
 8000c8c:	69e2      	ldreq	r2, [r4, #28]
 8000c8e:	6b1a      	ldrne	r2, [r3, #48]	; 0x30
 8000c90:	f102 32ff 	addeq.w	r2, r2, #4294967295
 8000c94:	bf06      	itte	eq
 8000c96:	f020 000f 	biceq.w	r0, r0, #15
 8000c9a:	4302      	orreq	r2, r0
 8000c9c:	f022 020f 	bicne.w	r2, r2, #15
 8000ca0:	631a      	str	r2, [r3, #48]	; 0x30
 8000ca2:	6da3      	ldr	r3, [r4, #88]	; 0x58
 8000ca4:	f023 0303 	bic.w	r3, r3, #3
 8000ca8:	f043 0301 	orr.w	r3, r3, #1
 8000cac:	65a3      	str	r3, [r4, #88]	; 0x58
 8000cae:	4608      	mov	r0, r1
 8000cb0:	b003      	add	sp, #12
 8000cb2:	bd30      	pop	{r4, r5, pc}
 8000cb4:	6883      	ldr	r3, [r0, #8]
 8000cb6:	4a13      	ldr	r2, [pc, #76]	; (8000d04 <HAL_ADC_Init+0x1a0>)
 8000cb8:	f023 4310 	bic.w	r3, r3, #2415919104	; 0x90000000
 8000cbc:	f023 033f 	bic.w	r3, r3, #63	; 0x3f
 8000cc0:	f043 5380 	orr.w	r3, r3, #268435456	; 0x10000000
 8000cc4:	6083      	str	r3, [r0, #8]
 8000cc6:	4b10      	ldr	r3, [pc, #64]	; (8000d08 <HAL_ADC_Init+0x1a4>)
 8000cc8:	681b      	ldr	r3, [r3, #0]
 8000cca:	fbb3 f3f2 	udiv	r3, r3, r2
 8000cce:	3301      	adds	r3, #1
 8000cd0:	005b      	lsls	r3, r3, #1
 8000cd2:	9301      	str	r3, [sp, #4]
 8000cd4:	9b01      	ldr	r3, [sp, #4]
 8000cd6:	2b00      	cmp	r3, #0
 8000cd8:	f43f af60 	beq.w	8000b9c <HAL_ADC_Init+0x38>
 8000cdc:	9b01      	ldr	r3, [sp, #4]
 8000cde:	3b01      	subs	r3, #1
 8000ce0:	e7f7      	b.n	8000cd2 <HAL_ADC_Init+0x16e>
 8000ce2:	2100      	movs	r1, #0
 8000ce4:	e767      	b.n	8000bb6 <HAL_ADC_Init+0x52>
 8000ce6:	691a      	ldr	r2, [r3, #16]
 8000ce8:	f022 0201 	bic.w	r2, r2, #1
 8000cec:	e7c9      	b.n	8000c82 <HAL_ADC_Init+0x11e>
 8000cee:	f043 0310 	orr.w	r3, r3, #16
 8000cf2:	65a3      	str	r3, [r4, #88]	; 0x58
 8000cf4:	2101      	movs	r1, #1
 8000cf6:	e7da      	b.n	8000cae <HAL_ADC_Init+0x14a>
 8000cf8:	50040000 	.word	0x50040000
 8000cfc:	50040300 	.word	0x50040300
 8000d00:	fff0c007 	.word	0xfff0c007
 8000d04:	00030d40 	.word	0x00030d40
 8000d08:	20000000 	.word	0x20000000

08000d0c <HAL_ADC_ConfigChannel>:
 8000d0c:	b5f7      	push	{r0, r1, r2, r4, r5, r6, r7, lr}
 8000d0e:	2300      	movs	r3, #0
 8000d10:	9301      	str	r3, [sp, #4]
 8000d12:	f890 3054 	ldrb.w	r3, [r0, #84]	; 0x54
 8000d16:	2b01      	cmp	r3, #1
 8000d18:	4605      	mov	r5, r0
 8000d1a:	460c      	mov	r4, r1
 8000d1c:	f000 81a5 	beq.w	800106a <HAL_ADC_ConfigChannel+0x35e>
 8000d20:	2301      	movs	r3, #1
 8000d22:	f880 3054 	strb.w	r3, [r0, #84]	; 0x54
 8000d26:	6800      	ldr	r0, [r0, #0]
 8000d28:	f7ff ff17 	bl	8000b5a <LL_ADC_REG_IsConversionOngoing>
 8000d2c:	2800      	cmp	r0, #0
 8000d2e:	f040 8196 	bne.w	800105e <HAL_ADC_ConfigChannel+0x352>
 8000d32:	684b      	ldr	r3, [r1, #4]
 8000d34:	2b05      	cmp	r3, #5
 8000d36:	d809      	bhi.n	8000d4c <HAL_ADC_ConfigChannel+0x40>
 8000d38:	3b02      	subs	r3, #2
 8000d3a:	2b03      	cmp	r3, #3
 8000d3c:	f200 8094 	bhi.w	8000e68 <HAL_ADC_ConfigChannel+0x15c>
 8000d40:	e8df f003 	tbb	[pc, r3]
 8000d44:	8f8d8b02 	.word	0x8f8d8b02
 8000d48:	230c      	movs	r3, #12
 8000d4a:	6063      	str	r3, [r4, #4]
 8000d4c:	6862      	ldr	r2, [r4, #4]
 8000d4e:	6828      	ldr	r0, [r5, #0]
 8000d50:	6823      	ldr	r3, [r4, #0]
 8000d52:	0991      	lsrs	r1, r2, #6
 8000d54:	f001 010c 	and.w	r1, r1, #12
 8000d58:	f100 0730 	add.w	r7, r0, #48	; 0x30
 8000d5c:	f002 021f 	and.w	r2, r2, #31
 8000d60:	59ce      	ldr	r6, [r1, r7]
 8000d62:	f04f 0c1f 	mov.w	ip, #31
 8000d66:	f3c3 6384 	ubfx	r3, r3, #26, #5
 8000d6a:	4093      	lsls	r3, r2
 8000d6c:	fa0c f202 	lsl.w	r2, ip, r2
 8000d70:	ea26 0202 	bic.w	r2, r6, r2
 8000d74:	4313      	orrs	r3, r2
 8000d76:	51cb      	str	r3, [r1, r7]
 8000d78:	f7ff feef 	bl	8000b5a <LL_ADC_REG_IsConversionOngoing>
 8000d7c:	4601      	mov	r1, r0
 8000d7e:	6828      	ldr	r0, [r5, #0]
 8000d80:	6882      	ldr	r2, [r0, #8]
 8000d82:	f002 0208 	and.w	r2, r2, #8
 8000d86:	430a      	orrs	r2, r1
 8000d88:	d124      	bne.n	8000dd4 <HAL_ADC_ConfigChannel+0xc8>
 8000d8a:	68a3      	ldr	r3, [r4, #8]
 8000d8c:	6821      	ldr	r1, [r4, #0]
 8000d8e:	f1b3 4f00 	cmp.w	r3, #2147483648	; 0x80000000
 8000d92:	d16b      	bne.n	8000e6c <HAL_ADC_ConfigChannel+0x160>
 8000d94:	f7ff fed0 	bl	8000b38 <LL_ADC_SetChannelSamplingTime>
 8000d98:	682a      	ldr	r2, [r5, #0]
 8000d9a:	6953      	ldr	r3, [r2, #20]
 8000d9c:	f043 4300 	orr.w	r3, r3, #2147483648	; 0x80000000
 8000da0:	6153      	str	r3, [r2, #20]
 8000da2:	6926      	ldr	r6, [r4, #16]
 8000da4:	6828      	ldr	r0, [r5, #0]
 8000da6:	6822      	ldr	r2, [r4, #0]
 8000da8:	68c1      	ldr	r1, [r0, #12]
 8000daa:	2e04      	cmp	r6, #4
 8000dac:	f100 0360 	add.w	r3, r0, #96	; 0x60
 8000db0:	d064      	beq.n	8000e7c <HAL_ADC_ConfigChannel+0x170>
 8000db2:	f3c1 01c1 	ubfx	r1, r1, #3, #2
 8000db6:	0048      	lsls	r0, r1, #1
 8000db8:	6961      	ldr	r1, [r4, #20]
 8000dba:	f853 7026 	ldr.w	r7, [r3, r6, lsl #2]
 8000dbe:	4081      	lsls	r1, r0
 8000dc0:	48ab      	ldr	r0, [pc, #684]	; (8001070 <HAL_ADC_ConfigChannel+0x364>)
 8000dc2:	f002 42f8 	and.w	r2, r2, #2080374784	; 0x7c000000
 8000dc6:	4038      	ands	r0, r7
 8000dc8:	4310      	orrs	r0, r2
 8000dca:	4301      	orrs	r1, r0
 8000dcc:	f041 4100 	orr.w	r1, r1, #2147483648	; 0x80000000
 8000dd0:	f843 1026 	str.w	r1, [r3, r6, lsl #2]
 8000dd4:	6828      	ldr	r0, [r5, #0]
 8000dd6:	6883      	ldr	r3, [r0, #8]
 8000dd8:	07d9      	lsls	r1, r3, #31
 8000dda:	d433      	bmi.n	8000e44 <HAL_ADC_ConfigChannel+0x138>
 8000ddc:	68e7      	ldr	r7, [r4, #12]
 8000dde:	6823      	ldr	r3, [r4, #0]
 8000de0:	4aa4      	ldr	r2, [pc, #656]	; (8001074 <HAL_ADC_ConfigChannel+0x368>)
 8000de2:	f8d0 10b0 	ldr.w	r1, [r0, #176]	; 0xb0
 8000de6:	f007 0c18 	and.w	ip, r7, #24
 8000dea:	f3c3 0612 	ubfx	r6, r3, #0, #19
 8000dee:	fa22 f20c 	lsr.w	r2, r2, ip
 8000df2:	401a      	ands	r2, r3
 8000df4:	ea21 0106 	bic.w	r1, r1, r6
 8000df8:	430a      	orrs	r2, r1
 8000dfa:	f8c0 20b0 	str.w	r2, [r0, #176]	; 0xb0
 8000dfe:	4a9e      	ldr	r2, [pc, #632]	; (8001078 <HAL_ADC_ConfigChannel+0x36c>)
 8000e00:	4297      	cmp	r7, r2
 8000e02:	d11f      	bne.n	8000e44 <HAL_ADC_ConfigChannel+0x138>
 8000e04:	2e00      	cmp	r6, #0
 8000e06:	f040 808e 	bne.w	8000f26 <HAL_ADC_ConfigChannel+0x21a>
 8000e0a:	0e9a      	lsrs	r2, r3, #26
 8000e0c:	3201      	adds	r2, #1
 8000e0e:	f002 071f 	and.w	r7, r2, #31
 8000e12:	2101      	movs	r1, #1
 8000e14:	0692      	lsls	r2, r2, #26
 8000e16:	2f09      	cmp	r7, #9
 8000e18:	f002 42f8 	and.w	r2, r2, #2080374784	; 0x7c000000
 8000e1c:	fa01 f107 	lsl.w	r1, r1, r7
 8000e20:	f200 80b3 	bhi.w	8000f8a <HAL_ADC_ConfigChannel+0x27e>
 8000e24:	430a      	orrs	r2, r1
 8000e26:	2e00      	cmp	r6, #0
 8000e28:	f040 8099 	bne.w	8000f5e <HAL_ADC_ConfigChannel+0x252>
 8000e2c:	0e9b      	lsrs	r3, r3, #26
 8000e2e:	3301      	adds	r3, #1
 8000e30:	f003 031f 	and.w	r3, r3, #31
 8000e34:	eb03 0343 	add.w	r3, r3, r3, lsl #1
 8000e38:	051b      	lsls	r3, r3, #20
 8000e3a:	ea42 0103 	orr.w	r1, r2, r3
 8000e3e:	68a2      	ldr	r2, [r4, #8]
 8000e40:	f7ff fe7a 	bl	8000b38 <LL_ADC_SetChannelSamplingTime>
 8000e44:	6821      	ldr	r1, [r4, #0]
 8000e46:	4b8d      	ldr	r3, [pc, #564]	; (800107c <HAL_ADC_ConfigChannel+0x370>)
 8000e48:	4219      	tst	r1, r3
 8000e4a:	f040 80b9 	bne.w	8000fc0 <HAL_ADC_ConfigChannel+0x2b4>
 8000e4e:	2000      	movs	r0, #0
 8000e50:	2300      	movs	r3, #0
 8000e52:	f885 3054 	strb.w	r3, [r5, #84]	; 0x54
 8000e56:	b003      	add	sp, #12
 8000e58:	bdf0      	pop	{r4, r5, r6, r7, pc}
 8000e5a:	2312      	movs	r3, #18
 8000e5c:	e775      	b.n	8000d4a <HAL_ADC_ConfigChannel+0x3e>
 8000e5e:	2318      	movs	r3, #24
 8000e60:	e773      	b.n	8000d4a <HAL_ADC_ConfigChannel+0x3e>
 8000e62:	f44f 7380 	mov.w	r3, #256	; 0x100
 8000e66:	e770      	b.n	8000d4a <HAL_ADC_ConfigChannel+0x3e>
 8000e68:	2306      	movs	r3, #6
 8000e6a:	e76e      	b.n	8000d4a <HAL_ADC_ConfigChannel+0x3e>
 8000e6c:	461a      	mov	r2, r3
 8000e6e:	f7ff fe63 	bl	8000b38 <LL_ADC_SetChannelSamplingTime>
 8000e72:	682a      	ldr	r2, [r5, #0]
 8000e74:	6953      	ldr	r3, [r2, #20]
 8000e76:	f023 4300 	bic.w	r3, r3, #2147483648	; 0x80000000
 8000e7a:	e791      	b.n	8000da0 <HAL_ADC_ConfigChannel+0x94>
 8000e7c:	6e01      	ldr	r1, [r0, #96]	; 0x60
 8000e7e:	6e01      	ldr	r1, [r0, #96]	; 0x60
 8000e80:	f3c2 0612 	ubfx	r6, r2, #0, #19
 8000e84:	f3c1 6184 	ubfx	r1, r1, #26, #5
 8000e88:	2e00      	cmp	r6, #0
 8000e8a:	d138      	bne.n	8000efe <HAL_ADC_ConfigChannel+0x1f2>
 8000e8c:	f3c2 6284 	ubfx	r2, r2, #26, #5
 8000e90:	4291      	cmp	r1, r2
 8000e92:	bf02      	ittt	eq
 8000e94:	6e02      	ldreq	r2, [r0, #96]	; 0x60
 8000e96:	f022 4200 	biceq.w	r2, r2, #2147483648	; 0x80000000
 8000e9a:	6602      	streq	r2, [r0, #96]	; 0x60
 8000e9c:	685a      	ldr	r2, [r3, #4]
 8000e9e:	6822      	ldr	r2, [r4, #0]
 8000ea0:	6859      	ldr	r1, [r3, #4]
 8000ea2:	f3c2 0012 	ubfx	r0, r2, #0, #19
 8000ea6:	f3c1 6184 	ubfx	r1, r1, #26, #5
 8000eaa:	bb68      	cbnz	r0, 8000f08 <HAL_ADC_ConfigChannel+0x1fc>
 8000eac:	f3c2 6284 	ubfx	r2, r2, #26, #5
 8000eb0:	4291      	cmp	r1, r2
 8000eb2:	bf02      	ittt	eq
 8000eb4:	685a      	ldreq	r2, [r3, #4]
 8000eb6:	f022 4200 	biceq.w	r2, r2, #2147483648	; 0x80000000
 8000eba:	605a      	streq	r2, [r3, #4]
 8000ebc:	689a      	ldr	r2, [r3, #8]
 8000ebe:	6822      	ldr	r2, [r4, #0]
 8000ec0:	6899      	ldr	r1, [r3, #8]
 8000ec2:	f3c2 0012 	ubfx	r0, r2, #0, #19
 8000ec6:	f3c1 6184 	ubfx	r1, r1, #26, #5
 8000eca:	bb10      	cbnz	r0, 8000f12 <HAL_ADC_ConfigChannel+0x206>
 8000ecc:	f3c2 6284 	ubfx	r2, r2, #26, #5
 8000ed0:	4291      	cmp	r1, r2
 8000ed2:	bf02      	ittt	eq
 8000ed4:	689a      	ldreq	r2, [r3, #8]
 8000ed6:	f022 4200 	biceq.w	r2, r2, #2147483648	; 0x80000000
 8000eda:	609a      	streq	r2, [r3, #8]
 8000edc:	68da      	ldr	r2, [r3, #12]
 8000ede:	6822      	ldr	r2, [r4, #0]
 8000ee0:	68d9      	ldr	r1, [r3, #12]
 8000ee2:	f3c2 0012 	ubfx	r0, r2, #0, #19
 8000ee6:	f3c1 6184 	ubfx	r1, r1, #26, #5
 8000eea:	b9b8      	cbnz	r0, 8000f1c <HAL_ADC_ConfigChannel+0x210>
 8000eec:	f3c2 6284 	ubfx	r2, r2, #26, #5
 8000ef0:	4291      	cmp	r1, r2
 8000ef2:	bf02      	ittt	eq
 8000ef4:	68da      	ldreq	r2, [r3, #12]
 8000ef6:	f022 4200 	biceq.w	r2, r2, #2147483648	; 0x80000000
 8000efa:	60da      	streq	r2, [r3, #12]
 8000efc:	e76a      	b.n	8000dd4 <HAL_ADC_ConfigChannel+0xc8>
 8000efe:	fa92 f2a2 	rbit	r2, r2
 8000f02:	fab2 f282 	clz	r2, r2
 8000f06:	e7c3      	b.n	8000e90 <HAL_ADC_ConfigChannel+0x184>
 8000f08:	fa92 f2a2 	rbit	r2, r2
 8000f0c:	fab2 f282 	clz	r2, r2
 8000f10:	e7ce      	b.n	8000eb0 <HAL_ADC_ConfigChannel+0x1a4>
 8000f12:	fa92 f2a2 	rbit	r2, r2
 8000f16:	fab2 f282 	clz	r2, r2
 8000f1a:	e7d9      	b.n	8000ed0 <HAL_ADC_ConfigChannel+0x1c4>
 8000f1c:	fa92 f2a2 	rbit	r2, r2
 8000f20:	fab2 f282 	clz	r2, r2
 8000f24:	e7e4      	b.n	8000ef0 <HAL_ADC_ConfigChannel+0x1e4>
 8000f26:	fa93 f2a3 	rbit	r2, r3
 8000f2a:	b132      	cbz	r2, 8000f3a <HAL_ADC_ConfigChannel+0x22e>
 8000f2c:	fab2 f282 	clz	r2, r2
 8000f30:	3201      	adds	r2, #1
 8000f32:	f002 021f 	and.w	r2, r2, #31
 8000f36:	2a09      	cmp	r2, #9
 8000f38:	d816      	bhi.n	8000f68 <HAL_ADC_ConfigChannel+0x25c>
 8000f3a:	fa93 f2a3 	rbit	r2, r3
 8000f3e:	fab2 f282 	clz	r2, r2
 8000f42:	3201      	adds	r2, #1
 8000f44:	0692      	lsls	r2, r2, #26
 8000f46:	f002 42f8 	and.w	r2, r2, #2080374784	; 0x7c000000
 8000f4a:	fa93 f1a3 	rbit	r1, r3
 8000f4e:	fab1 f181 	clz	r1, r1
 8000f52:	3101      	adds	r1, #1
 8000f54:	f001 071f 	and.w	r7, r1, #31
 8000f58:	2101      	movs	r1, #1
 8000f5a:	40b9      	lsls	r1, r7
 8000f5c:	e762      	b.n	8000e24 <HAL_ADC_ConfigChannel+0x118>
 8000f5e:	fa93 f3a3 	rbit	r3, r3
 8000f62:	fab3 f383 	clz	r3, r3
 8000f66:	e762      	b.n	8000e2e <HAL_ADC_ConfigChannel+0x122>
 8000f68:	fa93 f2a3 	rbit	r2, r3
 8000f6c:	fab2 f282 	clz	r2, r2
 8000f70:	3201      	adds	r2, #1
 8000f72:	0692      	lsls	r2, r2, #26
 8000f74:	f002 42f8 	and.w	r2, r2, #2080374784	; 0x7c000000
 8000f78:	fa93 f1a3 	rbit	r1, r3
 8000f7c:	fab1 f181 	clz	r1, r1
 8000f80:	3101      	adds	r1, #1
 8000f82:	f001 071f 	and.w	r7, r1, #31
 8000f86:	2101      	movs	r1, #1
 8000f88:	40b9      	lsls	r1, r7
 8000f8a:	430a      	orrs	r2, r1
 8000f8c:	b95e      	cbnz	r6, 8000fa6 <HAL_ADC_ConfigChannel+0x29a>
 8000f8e:	0e9e      	lsrs	r6, r3, #26
 8000f90:	3601      	adds	r6, #1
 8000f92:	f006 061f 	and.w	r6, r6, #31
 8000f96:	eb06 0146 	add.w	r1, r6, r6, lsl #1
 8000f9a:	391e      	subs	r1, #30
 8000f9c:	0509      	lsls	r1, r1, #20
 8000f9e:	f041 7100 	orr.w	r1, r1, #33554432	; 0x2000000
 8000fa2:	4311      	orrs	r1, r2
 8000fa4:	e74b      	b.n	8000e3e <HAL_ADC_ConfigChannel+0x132>
 8000fa6:	fa93 f1a3 	rbit	r1, r3
 8000faa:	fab1 f181 	clz	r1, r1
 8000fae:	3101      	adds	r1, #1
 8000fb0:	f001 031f 	and.w	r3, r1, #31
 8000fb4:	f06f 061d 	mvn.w	r6, #29
 8000fb8:	2103      	movs	r1, #3
 8000fba:	fb11 6103 	smlabb	r1, r1, r3, r6
 8000fbe:	e7ed      	b.n	8000f9c <HAL_ADC_ConfigChannel+0x290>
 8000fc0:	4b2f      	ldr	r3, [pc, #188]	; (8001080 <HAL_ADC_ConfigChannel+0x374>)
 8000fc2:	4a30      	ldr	r2, [pc, #192]	; (8001084 <HAL_ADC_ConfigChannel+0x378>)
 8000fc4:	6898      	ldr	r0, [r3, #8]
 8000fc6:	4291      	cmp	r1, r2
 8000fc8:	f000 74e0 	and.w	r4, r0, #29360128	; 0x1c00000
 8000fcc:	d11e      	bne.n	800100c <HAL_ADC_ConfigChannel+0x300>
 8000fce:	0202      	lsls	r2, r0, #8
 8000fd0:	f53f af3d 	bmi.w	8000e4e <HAL_ADC_ConfigChannel+0x142>
 8000fd4:	6829      	ldr	r1, [r5, #0]
 8000fd6:	4a2c      	ldr	r2, [pc, #176]	; (8001088 <HAL_ADC_ConfigChannel+0x37c>)
 8000fd8:	4291      	cmp	r1, r2
 8000fda:	f47f af38 	bne.w	8000e4e <HAL_ADC_ConfigChannel+0x142>
 8000fde:	689a      	ldr	r2, [r3, #8]
 8000fe0:	f022 72e0 	bic.w	r2, r2, #29360128	; 0x1c00000
 8000fe4:	4322      	orrs	r2, r4
 8000fe6:	f442 0200 	orr.w	r2, r2, #8388608	; 0x800000
 8000fea:	609a      	str	r2, [r3, #8]
 8000fec:	4b27      	ldr	r3, [pc, #156]	; (800108c <HAL_ADC_ConfigChannel+0x380>)
 8000fee:	4a28      	ldr	r2, [pc, #160]	; (8001090 <HAL_ADC_ConfigChannel+0x384>)
 8000ff0:	681b      	ldr	r3, [r3, #0]
 8000ff2:	fbb3 f2f2 	udiv	r2, r3, r2
 8000ff6:	230c      	movs	r3, #12
 8000ff8:	fb02 3303 	mla	r3, r2, r3, r3
 8000ffc:	9301      	str	r3, [sp, #4]
 8000ffe:	9b01      	ldr	r3, [sp, #4]
 8001000:	2b00      	cmp	r3, #0
 8001002:	f43f af24 	beq.w	8000e4e <HAL_ADC_ConfigChannel+0x142>
 8001006:	9b01      	ldr	r3, [sp, #4]
 8001008:	3b01      	subs	r3, #1
 800100a:	e7f7      	b.n	8000ffc <HAL_ADC_ConfigChannel+0x2f0>
 800100c:	4a21      	ldr	r2, [pc, #132]	; (8001094 <HAL_ADC_ConfigChannel+0x388>)
 800100e:	4291      	cmp	r1, r2
 8001010:	d111      	bne.n	8001036 <HAL_ADC_ConfigChannel+0x32a>
 8001012:	f010 7080 	ands.w	r0, r0, #16777216	; 0x1000000
 8001016:	f47f af1a 	bne.w	8000e4e <HAL_ADC_ConfigChannel+0x142>
 800101a:	6829      	ldr	r1, [r5, #0]
 800101c:	f1a2 42f7 	sub.w	r2, r2, #2071986176	; 0x7b800000
 8001020:	4291      	cmp	r1, r2
 8001022:	f47f af14 	bne.w	8000e4e <HAL_ADC_ConfigChannel+0x142>
 8001026:	689a      	ldr	r2, [r3, #8]
 8001028:	f022 72e0 	bic.w	r2, r2, #29360128	; 0x1c00000
 800102c:	4322      	orrs	r2, r4
 800102e:	f042 7280 	orr.w	r2, r2, #16777216	; 0x1000000
 8001032:	609a      	str	r2, [r3, #8]
 8001034:	e70c      	b.n	8000e50 <HAL_ADC_ConfigChannel+0x144>
 8001036:	4a18      	ldr	r2, [pc, #96]	; (8001098 <HAL_ADC_ConfigChannel+0x38c>)
 8001038:	4291      	cmp	r1, r2
 800103a:	f47f af08 	bne.w	8000e4e <HAL_ADC_ConfigChannel+0x142>
 800103e:	f410 0080 	ands.w	r0, r0, #4194304	; 0x400000
 8001042:	f47f af04 	bne.w	8000e4e <HAL_ADC_ConfigChannel+0x142>
 8001046:	6829      	ldr	r1, [r5, #0]
 8001048:	4a0f      	ldr	r2, [pc, #60]	; (8001088 <HAL_ADC_ConfigChannel+0x37c>)
 800104a:	4291      	cmp	r1, r2
 800104c:	f47f aeff 	bne.w	8000e4e <HAL_ADC_ConfigChannel+0x142>
 8001050:	689a      	ldr	r2, [r3, #8]
 8001052:	f022 72e0 	bic.w	r2, r2, #29360128	; 0x1c00000
 8001056:	4322      	orrs	r2, r4
 8001058:	f442 0280 	orr.w	r2, r2, #4194304	; 0x400000
 800105c:	e7e9      	b.n	8001032 <HAL_ADC_ConfigChannel+0x326>
 800105e:	6daa      	ldr	r2, [r5, #88]	; 0x58
 8001060:	f042 0220 	orr.w	r2, r2, #32
 8001064:	65aa      	str	r2, [r5, #88]	; 0x58
 8001066:	4618      	mov	r0, r3
 8001068:	e6f2      	b.n	8000e50 <HAL_ADC_ConfigChannel+0x144>
 800106a:	2002      	movs	r0, #2
 800106c:	e6f3      	b.n	8000e56 <HAL_ADC_ConfigChannel+0x14a>
 800106e:	bf00      	nop
 8001070:	03fff000 	.word	0x03fff000
 8001074:	0007ffff 	.word	0x0007ffff
 8001078:	407f0000 	.word	0x407f0000
 800107c:	80080000 	.word	0x80080000
 8001080:	50040300 	.word	0x50040300
 8001084:	c7520000 	.word	0xc7520000
 8001088:	50040000 	.word	0x50040000
 800108c:	20000000 	.word	0x20000000
 8001090:	00030d40 	.word	0x00030d40
 8001094:	cb840000 	.word	0xcb840000
 8001098:	80000001 	.word	0x80000001

0800109c <HAL_CAN_Init>:
 800109c:	b538      	push	{r3, r4, r5, lr}
 800109e:	4604      	mov	r4, r0
 80010a0:	2800      	cmp	r0, #0
 80010a2:	d06e      	beq.n	8001182 <HAL_CAN_Init+0xe6>
 80010a4:	f890 3020 	ldrb.w	r3, [r0, #32]
 80010a8:	b90b      	cbnz	r3, 80010ae <HAL_CAN_Init+0x12>
 80010aa:	f7ff f94b 	bl	8000344 <HAL_CAN_MspInit>
 80010ae:	6822      	ldr	r2, [r4, #0]
 80010b0:	6813      	ldr	r3, [r2, #0]
 80010b2:	f043 0301 	orr.w	r3, r3, #1
 80010b6:	6013      	str	r3, [r2, #0]
 80010b8:	f7ff fd38 	bl	8000b2c <HAL_GetTick>
 80010bc:	4605      	mov	r5, r0
 80010be:	6823      	ldr	r3, [r4, #0]
 80010c0:	685a      	ldr	r2, [r3, #4]
 80010c2:	07d1      	lsls	r1, r2, #31
 80010c4:	d551      	bpl.n	800116a <HAL_CAN_Init+0xce>
 80010c6:	681a      	ldr	r2, [r3, #0]
 80010c8:	f022 0202 	bic.w	r2, r2, #2
 80010cc:	601a      	str	r2, [r3, #0]
 80010ce:	f7ff fd2d 	bl	8000b2c <HAL_GetTick>
 80010d2:	4605      	mov	r5, r0
 80010d4:	6823      	ldr	r3, [r4, #0]
 80010d6:	685a      	ldr	r2, [r3, #4]
 80010d8:	0792      	lsls	r2, r2, #30
 80010da:	d454      	bmi.n	8001186 <HAL_CAN_Init+0xea>
 80010dc:	7e22      	ldrb	r2, [r4, #24]
 80010de:	2a01      	cmp	r2, #1
 80010e0:	681a      	ldr	r2, [r3, #0]
 80010e2:	bf0c      	ite	eq
 80010e4:	f042 0280 	orreq.w	r2, r2, #128	; 0x80
 80010e8:	f022 0280 	bicne.w	r2, r2, #128	; 0x80
 80010ec:	601a      	str	r2, [r3, #0]
 80010ee:	7e62      	ldrb	r2, [r4, #25]
 80010f0:	2a01      	cmp	r2, #1
 80010f2:	681a      	ldr	r2, [r3, #0]
 80010f4:	bf0c      	ite	eq
 80010f6:	f042 0240 	orreq.w	r2, r2, #64	; 0x40
 80010fa:	f022 0240 	bicne.w	r2, r2, #64	; 0x40
 80010fe:	601a      	str	r2, [r3, #0]
 8001100:	7ea2      	ldrb	r2, [r4, #26]
 8001102:	2a01      	cmp	r2, #1
 8001104:	681a      	ldr	r2, [r3, #0]
 8001106:	bf0c      	ite	eq
 8001108:	f042 0220 	orreq.w	r2, r2, #32
 800110c:	f022 0220 	bicne.w	r2, r2, #32
 8001110:	601a      	str	r2, [r3, #0]
 8001112:	7ee2      	ldrb	r2, [r4, #27]
 8001114:	2a01      	cmp	r2, #1
 8001116:	681a      	ldr	r2, [r3, #0]
 8001118:	bf0c      	ite	eq
 800111a:	f022 0210 	biceq.w	r2, r2, #16
 800111e:	f042 0210 	orrne.w	r2, r2, #16
 8001122:	601a      	str	r2, [r3, #0]
 8001124:	7f22      	ldrb	r2, [r4, #28]
 8001126:	2a01      	cmp	r2, #1
 8001128:	681a      	ldr	r2, [r3, #0]
 800112a:	bf0c      	ite	eq
 800112c:	f042 0208 	orreq.w	r2, r2, #8
 8001130:	f022 0208 	bicne.w	r2, r2, #8
 8001134:	601a      	str	r2, [r3, #0]
 8001136:	7f62      	ldrb	r2, [r4, #29]
 8001138:	2a01      	cmp	r2, #1
 800113a:	681a      	ldr	r2, [r3, #0]
 800113c:	bf0c      	ite	eq
 800113e:	f042 0204 	orreq.w	r2, r2, #4
 8001142:	f022 0204 	bicne.w	r2, r2, #4
 8001146:	601a      	str	r2, [r3, #0]
 8001148:	e9d4 2102 	ldrd	r2, r1, [r4, #8]
 800114c:	430a      	orrs	r2, r1
 800114e:	6921      	ldr	r1, [r4, #16]
 8001150:	430a      	orrs	r2, r1
 8001152:	6961      	ldr	r1, [r4, #20]
 8001154:	430a      	orrs	r2, r1
 8001156:	6861      	ldr	r1, [r4, #4]
 8001158:	3901      	subs	r1, #1
 800115a:	430a      	orrs	r2, r1
 800115c:	61da      	str	r2, [r3, #28]
 800115e:	2000      	movs	r0, #0
 8001160:	2301      	movs	r3, #1
 8001162:	6260      	str	r0, [r4, #36]	; 0x24
 8001164:	f884 3020 	strb.w	r3, [r4, #32]
 8001168:	bd38      	pop	{r3, r4, r5, pc}
 800116a:	f7ff fcdf 	bl	8000b2c <HAL_GetTick>
 800116e:	1b40      	subs	r0, r0, r5
 8001170:	280a      	cmp	r0, #10
 8001172:	d9a4      	bls.n	80010be <HAL_CAN_Init+0x22>
 8001174:	6a63      	ldr	r3, [r4, #36]	; 0x24
 8001176:	f443 3300 	orr.w	r3, r3, #131072	; 0x20000
 800117a:	6263      	str	r3, [r4, #36]	; 0x24
 800117c:	2305      	movs	r3, #5
 800117e:	f884 3020 	strb.w	r3, [r4, #32]
 8001182:	2001      	movs	r0, #1
 8001184:	e7f0      	b.n	8001168 <HAL_CAN_Init+0xcc>
 8001186:	f7ff fcd1 	bl	8000b2c <HAL_GetTick>
 800118a:	1b40      	subs	r0, r0, r5
 800118c:	280a      	cmp	r0, #10
 800118e:	d9a1      	bls.n	80010d4 <HAL_CAN_Init+0x38>
 8001190:	e7f0      	b.n	8001174 <HAL_CAN_Init+0xd8>

08001192 <HAL_CAN_ConfigFilter>:
 8001192:	b570      	push	{r4, r5, r6, lr}
 8001194:	f890 3020 	ldrb.w	r3, [r0, #32]
 8001198:	3b01      	subs	r3, #1
 800119a:	2b01      	cmp	r3, #1
 800119c:	d862      	bhi.n	8001264 <HAL_CAN_ConfigFilter+0xd2>
 800119e:	6803      	ldr	r3, [r0, #0]
 80011a0:	f8d3 2200 	ldr.w	r2, [r3, #512]	; 0x200
 80011a4:	f042 0201 	orr.w	r2, r2, #1
 80011a8:	f8c3 2200 	str.w	r2, [r3, #512]	; 0x200
 80011ac:	694a      	ldr	r2, [r1, #20]
 80011ae:	f8d3 521c 	ldr.w	r5, [r3, #540]	; 0x21c
 80011b2:	2401      	movs	r4, #1
 80011b4:	f002 001f 	and.w	r0, r2, #31
 80011b8:	fa04 f000 	lsl.w	r0, r4, r0
 80011bc:	ea25 0500 	bic.w	r5, r5, r0
 80011c0:	f8c3 521c 	str.w	r5, [r3, #540]	; 0x21c
 80011c4:	69cd      	ldr	r5, [r1, #28]
 80011c6:	43c4      	mvns	r4, r0
 80011c8:	bb85      	cbnz	r5, 800122c <HAL_CAN_ConfigFilter+0x9a>
 80011ca:	f8d3 520c 	ldr.w	r5, [r3, #524]	; 0x20c
 80011ce:	68ce      	ldr	r6, [r1, #12]
 80011d0:	4025      	ands	r5, r4
 80011d2:	f8c3 520c 	str.w	r5, [r3, #524]	; 0x20c
 80011d6:	888d      	ldrh	r5, [r1, #4]
 80011d8:	eb03 02c2 	add.w	r2, r3, r2, lsl #3
 80011dc:	ea45 4506 	orr.w	r5, r5, r6, lsl #16
 80011e0:	f8c2 5240 	str.w	r5, [r2, #576]	; 0x240
 80011e4:	688e      	ldr	r6, [r1, #8]
 80011e6:	880d      	ldrh	r5, [r1, #0]
 80011e8:	ea45 4506 	orr.w	r5, r5, r6, lsl #16
 80011ec:	f8c2 5244 	str.w	r5, [r2, #580]	; 0x244
 80011f0:	698a      	ldr	r2, [r1, #24]
 80011f2:	bb6a      	cbnz	r2, 8001250 <HAL_CAN_ConfigFilter+0xbe>
 80011f4:	f8d3 2204 	ldr.w	r2, [r3, #516]	; 0x204
 80011f8:	4022      	ands	r2, r4
 80011fa:	f8c3 2204 	str.w	r2, [r3, #516]	; 0x204
 80011fe:	690a      	ldr	r2, [r1, #16]
 8001200:	bb52      	cbnz	r2, 8001258 <HAL_CAN_ConfigFilter+0xc6>
 8001202:	f8d3 2214 	ldr.w	r2, [r3, #532]	; 0x214
 8001206:	4014      	ands	r4, r2
 8001208:	f8c3 4214 	str.w	r4, [r3, #532]	; 0x214
 800120c:	6a0a      	ldr	r2, [r1, #32]
 800120e:	2a01      	cmp	r2, #1
 8001210:	bf02      	ittt	eq
 8001212:	f8d3 221c 	ldreq.w	r2, [r3, #540]	; 0x21c
 8001216:	4310      	orreq	r0, r2
 8001218:	f8c3 021c 	streq.w	r0, [r3, #540]	; 0x21c
 800121c:	f8d3 2200 	ldr.w	r2, [r3, #512]	; 0x200
 8001220:	f022 0201 	bic.w	r2, r2, #1
 8001224:	f8c3 2200 	str.w	r2, [r3, #512]	; 0x200
 8001228:	2000      	movs	r0, #0
 800122a:	bd70      	pop	{r4, r5, r6, pc}
 800122c:	2d01      	cmp	r5, #1
 800122e:	d1df      	bne.n	80011f0 <HAL_CAN_ConfigFilter+0x5e>
 8001230:	f8d3 520c 	ldr.w	r5, [r3, #524]	; 0x20c
 8001234:	680e      	ldr	r6, [r1, #0]
 8001236:	4305      	orrs	r5, r0
 8001238:	f8c3 520c 	str.w	r5, [r3, #524]	; 0x20c
 800123c:	888d      	ldrh	r5, [r1, #4]
 800123e:	eb03 02c2 	add.w	r2, r3, r2, lsl #3
 8001242:	ea45 4506 	orr.w	r5, r5, r6, lsl #16
 8001246:	f8c2 5240 	str.w	r5, [r2, #576]	; 0x240
 800124a:	688e      	ldr	r6, [r1, #8]
 800124c:	898d      	ldrh	r5, [r1, #12]
 800124e:	e7cb      	b.n	80011e8 <HAL_CAN_ConfigFilter+0x56>
 8001250:	f8d3 2204 	ldr.w	r2, [r3, #516]	; 0x204
 8001254:	4302      	orrs	r2, r0
 8001256:	e7d0      	b.n	80011fa <HAL_CAN_ConfigFilter+0x68>
 8001258:	f8d3 2214 	ldr.w	r2, [r3, #532]	; 0x214
 800125c:	4302      	orrs	r2, r0
 800125e:	f8c3 2214 	str.w	r2, [r3, #532]	; 0x214
 8001262:	e7d3      	b.n	800120c <HAL_CAN_ConfigFilter+0x7a>
 8001264:	6a43      	ldr	r3, [r0, #36]	; 0x24
 8001266:	f443 2380 	orr.w	r3, r3, #262144	; 0x40000
 800126a:	6243      	str	r3, [r0, #36]	; 0x24
 800126c:	2001      	movs	r0, #1
 800126e:	e7dc      	b.n	800122a <HAL_CAN_ConfigFilter+0x98>

08001270 <HAL_CAN_Start>:
 8001270:	b570      	push	{r4, r5, r6, lr}
 8001272:	f890 3020 	ldrb.w	r3, [r0, #32]
 8001276:	2b01      	cmp	r3, #1
 8001278:	4604      	mov	r4, r0
 800127a:	b2dd      	uxtb	r5, r3
 800127c:	d120      	bne.n	80012c0 <HAL_CAN_Start+0x50>
 800127e:	6802      	ldr	r2, [r0, #0]
 8001280:	2302      	movs	r3, #2
 8001282:	f880 3020 	strb.w	r3, [r0, #32]
 8001286:	6813      	ldr	r3, [r2, #0]
 8001288:	f023 0301 	bic.w	r3, r3, #1
 800128c:	6013      	str	r3, [r2, #0]
 800128e:	f7ff fc4d 	bl	8000b2c <HAL_GetTick>
 8001292:	4606      	mov	r6, r0
 8001294:	6823      	ldr	r3, [r4, #0]
 8001296:	685b      	ldr	r3, [r3, #4]
 8001298:	f013 0301 	ands.w	r3, r3, #1
 800129c:	d102      	bne.n	80012a4 <HAL_CAN_Start+0x34>
 800129e:	6263      	str	r3, [r4, #36]	; 0x24
 80012a0:	461d      	mov	r5, r3
 80012a2:	e00b      	b.n	80012bc <HAL_CAN_Start+0x4c>
 80012a4:	f7ff fc42 	bl	8000b2c <HAL_GetTick>
 80012a8:	1b80      	subs	r0, r0, r6
 80012aa:	280a      	cmp	r0, #10
 80012ac:	d9f2      	bls.n	8001294 <HAL_CAN_Start+0x24>
 80012ae:	6a63      	ldr	r3, [r4, #36]	; 0x24
 80012b0:	f443 3300 	orr.w	r3, r3, #131072	; 0x20000
 80012b4:	6263      	str	r3, [r4, #36]	; 0x24
 80012b6:	2305      	movs	r3, #5
 80012b8:	f884 3020 	strb.w	r3, [r4, #32]
 80012bc:	4628      	mov	r0, r5
 80012be:	bd70      	pop	{r4, r5, r6, pc}
 80012c0:	6a43      	ldr	r3, [r0, #36]	; 0x24
 80012c2:	f443 2300 	orr.w	r3, r3, #524288	; 0x80000
 80012c6:	6243      	str	r3, [r0, #36]	; 0x24
 80012c8:	2501      	movs	r5, #1
 80012ca:	e7f7      	b.n	80012bc <HAL_CAN_Start+0x4c>

080012cc <HAL_CAN_AddTxMessage>:
 80012cc:	b5f0      	push	{r4, r5, r6, r7, lr}
 80012ce:	f890 5020 	ldrb.w	r5, [r0, #32]
 80012d2:	6806      	ldr	r6, [r0, #0]
 80012d4:	3d01      	subs	r5, #1
 80012d6:	2d01      	cmp	r5, #1
 80012d8:	68b4      	ldr	r4, [r6, #8]
 80012da:	d83d      	bhi.n	8001358 <HAL_CAN_AddTxMessage+0x8c>
 80012dc:	f014 5fe0 	tst.w	r4, #469762048	; 0x1c000000
 80012e0:	f04f 0501 	mov.w	r5, #1
 80012e4:	d032      	beq.n	800134c <HAL_CAN_AddTxMessage+0x80>
 80012e6:	f3c4 6401 	ubfx	r4, r4, #24, #2
 80012ea:	40a5      	lsls	r5, r4
 80012ec:	601d      	str	r5, [r3, #0]
 80012ee:	e9d1 0702 	ldrd	r0, r7, [r1, #8]
 80012f2:	f104 0318 	add.w	r3, r4, #24
 80012f6:	bb20      	cbnz	r0, 8001342 <HAL_CAN_AddTxMessage+0x76>
 80012f8:	6808      	ldr	r0, [r1, #0]
 80012fa:	ea47 5040 	orr.w	r0, r7, r0, lsl #21
 80012fe:	011b      	lsls	r3, r3, #4
 8001300:	50f0      	str	r0, [r6, r3]
 8001302:	eb06 1304 	add.w	r3, r6, r4, lsl #4
 8001306:	690d      	ldr	r5, [r1, #16]
 8001308:	f8c3 5184 	str.w	r5, [r3, #388]	; 0x184
 800130c:	7d09      	ldrb	r1, [r1, #20]
 800130e:	2901      	cmp	r1, #1
 8001310:	bf08      	it	eq
 8001312:	f8d3 1184 	ldreq.w	r1, [r3, #388]	; 0x184
 8001316:	ea4f 1004 	mov.w	r0, r4, lsl #4
 800131a:	bf04      	itt	eq
 800131c:	f441 7180 	orreq.w	r1, r1, #256	; 0x100
 8001320:	f8c3 1184 	streq.w	r1, [r3, #388]	; 0x184
 8001324:	4406      	add	r6, r0
 8001326:	6851      	ldr	r1, [r2, #4]
 8001328:	f8c6 118c 	str.w	r1, [r6, #396]	; 0x18c
 800132c:	6812      	ldr	r2, [r2, #0]
 800132e:	f8c6 2188 	str.w	r2, [r6, #392]	; 0x188
 8001332:	f8d3 2180 	ldr.w	r2, [r3, #384]	; 0x180
 8001336:	f042 0201 	orr.w	r2, r2, #1
 800133a:	f8c3 2180 	str.w	r2, [r3, #384]	; 0x180
 800133e:	2000      	movs	r0, #0
 8001340:	bdf0      	pop	{r4, r5, r6, r7, pc}
 8001342:	684d      	ldr	r5, [r1, #4]
 8001344:	4338      	orrs	r0, r7
 8001346:	ea40 00c5 	orr.w	r0, r0, r5, lsl #3
 800134a:	e7d8      	b.n	80012fe <HAL_CAN_AddTxMessage+0x32>
 800134c:	6a43      	ldr	r3, [r0, #36]	; 0x24
 800134e:	f443 1300 	orr.w	r3, r3, #2097152	; 0x200000
 8001352:	6243      	str	r3, [r0, #36]	; 0x24
 8001354:	2001      	movs	r0, #1
 8001356:	e7f3      	b.n	8001340 <HAL_CAN_AddTxMessage+0x74>
 8001358:	6a43      	ldr	r3, [r0, #36]	; 0x24
 800135a:	f443 2380 	orr.w	r3, r3, #262144	; 0x40000
 800135e:	e7f8      	b.n	8001352 <HAL_CAN_AddTxMessage+0x86>

08001360 <HAL_CAN_GetRxMessage>:
 8001360:	b5f0      	push	{r4, r5, r6, r7, lr}
 8001362:	f890 4020 	ldrb.w	r4, [r0, #32]
 8001366:	3c01      	subs	r4, #1
 8001368:	2c01      	cmp	r4, #1
 800136a:	d86c      	bhi.n	8001446 <HAL_CAN_GetRxMessage+0xe6>
 800136c:	6806      	ldr	r6, [r0, #0]
 800136e:	b941      	cbnz	r1, 8001382 <HAL_CAN_GetRxMessage+0x22>
 8001370:	68f4      	ldr	r4, [r6, #12]
 8001372:	07a4      	lsls	r4, r4, #30
 8001374:	d107      	bne.n	8001386 <HAL_CAN_GetRxMessage+0x26>
 8001376:	6a43      	ldr	r3, [r0, #36]	; 0x24
 8001378:	f443 1300 	orr.w	r3, r3, #2097152	; 0x200000
 800137c:	6243      	str	r3, [r0, #36]	; 0x24
 800137e:	2001      	movs	r0, #1
 8001380:	e056      	b.n	8001430 <HAL_CAN_GetRxMessage+0xd0>
 8001382:	6934      	ldr	r4, [r6, #16]
 8001384:	e7f5      	b.n	8001372 <HAL_CAN_GetRxMessage+0x12>
 8001386:	eb06 1501 	add.w	r5, r6, r1, lsl #4
 800138a:	010c      	lsls	r4, r1, #4
 800138c:	f8d5 71b0 	ldr.w	r7, [r5, #432]	; 0x1b0
 8001390:	f007 0704 	and.w	r7, r7, #4
 8001394:	6097      	str	r7, [r2, #8]
 8001396:	2f00      	cmp	r7, #0
 8001398:	d14b      	bne.n	8001432 <HAL_CAN_GetRxMessage+0xd2>
 800139a:	f8d5 71b0 	ldr.w	r7, [r5, #432]	; 0x1b0
 800139e:	0d7f      	lsrs	r7, r7, #21
 80013a0:	6017      	str	r7, [r2, #0]
 80013a2:	f8d5 71b0 	ldr.w	r7, [r5, #432]	; 0x1b0
 80013a6:	f007 0702 	and.w	r7, r7, #2
 80013aa:	60d7      	str	r7, [r2, #12]
 80013ac:	f8d5 71b4 	ldr.w	r7, [r5, #436]	; 0x1b4
 80013b0:	f007 070f 	and.w	r7, r7, #15
 80013b4:	6117      	str	r7, [r2, #16]
 80013b6:	f8d5 71b4 	ldr.w	r7, [r5, #436]	; 0x1b4
 80013ba:	f8d5 51b4 	ldr.w	r5, [r5, #436]	; 0x1b4
 80013be:	4426      	add	r6, r4
 80013c0:	f3c7 2707 	ubfx	r7, r7, #8, #8
 80013c4:	0c2d      	lsrs	r5, r5, #16
 80013c6:	6197      	str	r7, [r2, #24]
 80013c8:	6155      	str	r5, [r2, #20]
 80013ca:	f8d6 21b8 	ldr.w	r2, [r6, #440]	; 0x1b8
 80013ce:	701a      	strb	r2, [r3, #0]
 80013d0:	6802      	ldr	r2, [r0, #0]
 80013d2:	4422      	add	r2, r4
 80013d4:	f8d2 21b8 	ldr.w	r2, [r2, #440]	; 0x1b8
 80013d8:	0a12      	lsrs	r2, r2, #8
 80013da:	705a      	strb	r2, [r3, #1]
 80013dc:	6802      	ldr	r2, [r0, #0]
 80013de:	4422      	add	r2, r4
 80013e0:	f8d2 21b8 	ldr.w	r2, [r2, #440]	; 0x1b8
 80013e4:	0c12      	lsrs	r2, r2, #16
 80013e6:	709a      	strb	r2, [r3, #2]
 80013e8:	6802      	ldr	r2, [r0, #0]
 80013ea:	4422      	add	r2, r4
 80013ec:	f8d2 21b8 	ldr.w	r2, [r2, #440]	; 0x1b8
 80013f0:	0e12      	lsrs	r2, r2, #24
 80013f2:	70da      	strb	r2, [r3, #3]
 80013f4:	6802      	ldr	r2, [r0, #0]
 80013f6:	4422      	add	r2, r4
 80013f8:	f8d2 21bc 	ldr.w	r2, [r2, #444]	; 0x1bc
 80013fc:	711a      	strb	r2, [r3, #4]
 80013fe:	6802      	ldr	r2, [r0, #0]
 8001400:	4422      	add	r2, r4
 8001402:	f8d2 21bc 	ldr.w	r2, [r2, #444]	; 0x1bc
 8001406:	0a12      	lsrs	r2, r2, #8
 8001408:	715a      	strb	r2, [r3, #5]
 800140a:	6802      	ldr	r2, [r0, #0]
 800140c:	4422      	add	r2, r4
 800140e:	f8d2 21bc 	ldr.w	r2, [r2, #444]	; 0x1bc
 8001412:	0c12      	lsrs	r2, r2, #16
 8001414:	719a      	strb	r2, [r3, #6]
 8001416:	6802      	ldr	r2, [r0, #0]
 8001418:	4422      	add	r2, r4
 800141a:	f8d2 21bc 	ldr.w	r2, [r2, #444]	; 0x1bc
 800141e:	0e12      	lsrs	r2, r2, #24
 8001420:	71da      	strb	r2, [r3, #7]
 8001422:	6803      	ldr	r3, [r0, #0]
 8001424:	b951      	cbnz	r1, 800143c <HAL_CAN_GetRxMessage+0xdc>
 8001426:	68da      	ldr	r2, [r3, #12]
 8001428:	f042 0220 	orr.w	r2, r2, #32
 800142c:	60da      	str	r2, [r3, #12]
 800142e:	2000      	movs	r0, #0
 8001430:	bdf0      	pop	{r4, r5, r6, r7, pc}
 8001432:	f8d5 71b0 	ldr.w	r7, [r5, #432]	; 0x1b0
 8001436:	08ff      	lsrs	r7, r7, #3
 8001438:	6057      	str	r7, [r2, #4]
 800143a:	e7b2      	b.n	80013a2 <HAL_CAN_GetRxMessage+0x42>
 800143c:	691a      	ldr	r2, [r3, #16]
 800143e:	f042 0220 	orr.w	r2, r2, #32
 8001442:	611a      	str	r2, [r3, #16]
 8001444:	e7f3      	b.n	800142e <HAL_CAN_GetRxMessage+0xce>
 8001446:	6a43      	ldr	r3, [r0, #36]	; 0x24
 8001448:	f443 2380 	orr.w	r3, r3, #262144	; 0x40000
 800144c:	e796      	b.n	800137c <HAL_CAN_GetRxMessage+0x1c>

0800144e <HAL_CAN_ActivateNotification>:
 800144e:	f890 3020 	ldrb.w	r3, [r0, #32]
 8001452:	3b01      	subs	r3, #1
 8001454:	2b01      	cmp	r3, #1
 8001456:	d805      	bhi.n	8001464 <HAL_CAN_ActivateNotification+0x16>
 8001458:	6802      	ldr	r2, [r0, #0]
 800145a:	6953      	ldr	r3, [r2, #20]
 800145c:	4319      	orrs	r1, r3
 800145e:	6151      	str	r1, [r2, #20]
 8001460:	2000      	movs	r0, #0
 8001462:	4770      	bx	lr
 8001464:	6a43      	ldr	r3, [r0, #36]	; 0x24
 8001466:	f443 2380 	orr.w	r3, r3, #262144	; 0x40000
 800146a:	6243      	str	r3, [r0, #36]	; 0x24
 800146c:	2001      	movs	r0, #1
 800146e:	4770      	bx	lr

08001470 <HAL_CAN_TxMailbox0CompleteCallback>:
 8001470:	4770      	bx	lr

08001472 <HAL_CAN_TxMailbox1CompleteCallback>:
 8001472:	4770      	bx	lr

08001474 <HAL_CAN_TxMailbox2CompleteCallback>:
 8001474:	4770      	bx	lr

08001476 <HAL_CAN_TxMailbox0AbortCallback>:
 8001476:	4770      	bx	lr

08001478 <HAL_CAN_TxMailbox1AbortCallback>:
 8001478:	4770      	bx	lr

0800147a <HAL_CAN_TxMailbox2AbortCallback>:
 800147a:	4770      	bx	lr

0800147c <HAL_CAN_RxFifo0FullCallback>:
 800147c:	4770      	bx	lr

0800147e <HAL_CAN_RxFifo1MsgPendingCallback>:
 800147e:	4770      	bx	lr

08001480 <HAL_CAN_RxFifo1FullCallback>:
 8001480:	4770      	bx	lr

08001482 <HAL_CAN_SleepCallback>:
 8001482:	4770      	bx	lr

08001484 <HAL_CAN_WakeUpFromRxMsgCallback>:
 8001484:	4770      	bx	lr

08001486 <HAL_CAN_ErrorCallback>:
 8001486:	4770      	bx	lr

08001488 <HAL_CAN_IRQHandler>:
 8001488:	e92d 4ff8 	stmdb	sp!, {r3, r4, r5, r6, r7, r8, r9, sl, fp, lr}
 800148c:	6803      	ldr	r3, [r0, #0]
 800148e:	695e      	ldr	r6, [r3, #20]
 8001490:	f8d3 9004 	ldr.w	r9, [r3, #4]
 8001494:	689f      	ldr	r7, [r3, #8]
 8001496:	f8d3 b00c 	ldr.w	fp, [r3, #12]
 800149a:	f8d3 a010 	ldr.w	sl, [r3, #16]
 800149e:	f8d3 8018 	ldr.w	r8, [r3, #24]
 80014a2:	f016 0401 	ands.w	r4, r6, #1
 80014a6:	4605      	mov	r5, r0
 80014a8:	d022      	beq.n	80014f0 <HAL_CAN_IRQHandler+0x68>
 80014aa:	f017 0401 	ands.w	r4, r7, #1
 80014ae:	d007      	beq.n	80014c0 <HAL_CAN_IRQHandler+0x38>
 80014b0:	2201      	movs	r2, #1
 80014b2:	07b9      	lsls	r1, r7, #30
 80014b4:	609a      	str	r2, [r3, #8]
 80014b6:	f140 80a5 	bpl.w	8001604 <HAL_CAN_IRQHandler+0x17c>
 80014ba:	f7ff ffd9 	bl	8001470 <HAL_CAN_TxMailbox0CompleteCallback>
 80014be:	2400      	movs	r4, #0
 80014c0:	05fb      	lsls	r3, r7, #23
 80014c2:	d509      	bpl.n	80014d8 <HAL_CAN_IRQHandler+0x50>
 80014c4:	682b      	ldr	r3, [r5, #0]
 80014c6:	f44f 7280 	mov.w	r2, #256	; 0x100
 80014ca:	05b8      	lsls	r0, r7, #22
 80014cc:	609a      	str	r2, [r3, #8]
 80014ce:	f140 80a7 	bpl.w	8001620 <HAL_CAN_IRQHandler+0x198>
 80014d2:	4628      	mov	r0, r5
 80014d4:	f7ff ffcd 	bl	8001472 <HAL_CAN_TxMailbox1CompleteCallback>
 80014d8:	03fb      	lsls	r3, r7, #15
 80014da:	d509      	bpl.n	80014f0 <HAL_CAN_IRQHandler+0x68>
 80014dc:	682b      	ldr	r3, [r5, #0]
 80014de:	f44f 3280 	mov.w	r2, #65536	; 0x10000
 80014e2:	03b8      	lsls	r0, r7, #14
 80014e4:	609a      	str	r2, [r3, #8]
 80014e6:	f140 80a9 	bpl.w	800163c <HAL_CAN_IRQHandler+0x1b4>
 80014ea:	4628      	mov	r0, r5
 80014ec:	f7ff ffc2 	bl	8001474 <HAL_CAN_TxMailbox2CompleteCallback>
 80014f0:	0733      	lsls	r3, r6, #28
 80014f2:	d507      	bpl.n	8001504 <HAL_CAN_IRQHandler+0x7c>
 80014f4:	f01b 0f10 	tst.w	fp, #16
 80014f8:	bf1f      	itttt	ne
 80014fa:	682b      	ldrne	r3, [r5, #0]
 80014fc:	2210      	movne	r2, #16
 80014fe:	f444 7400 	orrne.w	r4, r4, #512	; 0x200
 8001502:	60da      	strne	r2, [r3, #12]
 8001504:	0777      	lsls	r7, r6, #29
 8001506:	d508      	bpl.n	800151a <HAL_CAN_IRQHandler+0x92>
 8001508:	f01b 0f08 	tst.w	fp, #8
 800150c:	d005      	beq.n	800151a <HAL_CAN_IRQHandler+0x92>
 800150e:	682b      	ldr	r3, [r5, #0]
 8001510:	2208      	movs	r2, #8
 8001512:	60da      	str	r2, [r3, #12]
 8001514:	4628      	mov	r0, r5
 8001516:	f7ff ffb1 	bl	800147c <HAL_CAN_RxFifo0FullCallback>
 800151a:	07b0      	lsls	r0, r6, #30
 800151c:	d506      	bpl.n	800152c <HAL_CAN_IRQHandler+0xa4>
 800151e:	682b      	ldr	r3, [r5, #0]
 8001520:	68db      	ldr	r3, [r3, #12]
 8001522:	0799      	lsls	r1, r3, #30
 8001524:	d002      	beq.n	800152c <HAL_CAN_IRQHandler+0xa4>
 8001526:	4628      	mov	r0, r5
 8001528:	f7ff f93a 	bl	80007a0 <HAL_CAN_RxFifo0MsgPendingCallback>
 800152c:	0672      	lsls	r2, r6, #25
 800152e:	d507      	bpl.n	8001540 <HAL_CAN_IRQHandler+0xb8>
 8001530:	f01a 0f10 	tst.w	sl, #16
 8001534:	bf1f      	itttt	ne
 8001536:	682b      	ldrne	r3, [r5, #0]
 8001538:	2210      	movne	r2, #16
 800153a:	f444 6480 	orrne.w	r4, r4, #1024	; 0x400
 800153e:	611a      	strne	r2, [r3, #16]
 8001540:	06b3      	lsls	r3, r6, #26
 8001542:	d508      	bpl.n	8001556 <HAL_CAN_IRQHandler+0xce>
 8001544:	f01a 0f08 	tst.w	sl, #8
 8001548:	d005      	beq.n	8001556 <HAL_CAN_IRQHandler+0xce>
 800154a:	682b      	ldr	r3, [r5, #0]
 800154c:	2208      	movs	r2, #8
 800154e:	611a      	str	r2, [r3, #16]
 8001550:	4628      	mov	r0, r5
 8001552:	f7ff ff95 	bl	8001480 <HAL_CAN_RxFifo1FullCallback>
 8001556:	06f7      	lsls	r7, r6, #27
 8001558:	d506      	bpl.n	8001568 <HAL_CAN_IRQHandler+0xe0>
 800155a:	682b      	ldr	r3, [r5, #0]
 800155c:	691b      	ldr	r3, [r3, #16]
 800155e:	0798      	lsls	r0, r3, #30
 8001560:	d002      	beq.n	8001568 <HAL_CAN_IRQHandler+0xe0>
 8001562:	4628      	mov	r0, r5
 8001564:	f7ff ff8b 	bl	800147e <HAL_CAN_RxFifo1MsgPendingCallback>
 8001568:	03b1      	lsls	r1, r6, #14
 800156a:	d508      	bpl.n	800157e <HAL_CAN_IRQHandler+0xf6>
 800156c:	f019 0f10 	tst.w	r9, #16
 8001570:	d005      	beq.n	800157e <HAL_CAN_IRQHandler+0xf6>
 8001572:	682b      	ldr	r3, [r5, #0]
 8001574:	2210      	movs	r2, #16
 8001576:	605a      	str	r2, [r3, #4]
 8001578:	4628      	mov	r0, r5
 800157a:	f7ff ff82 	bl	8001482 <HAL_CAN_SleepCallback>
 800157e:	03f2      	lsls	r2, r6, #15
 8001580:	d508      	bpl.n	8001594 <HAL_CAN_IRQHandler+0x10c>
 8001582:	f019 0f08 	tst.w	r9, #8
 8001586:	d005      	beq.n	8001594 <HAL_CAN_IRQHandler+0x10c>
 8001588:	682b      	ldr	r3, [r5, #0]
 800158a:	2208      	movs	r2, #8
 800158c:	605a      	str	r2, [r3, #4]
 800158e:	4628      	mov	r0, r5
 8001590:	f7ff ff78 	bl	8001484 <HAL_CAN_WakeUpFromRxMsgCallback>
 8001594:	0433      	lsls	r3, r6, #16
 8001596:	d52c      	bpl.n	80015f2 <HAL_CAN_IRQHandler+0x16a>
 8001598:	f019 0f04 	tst.w	r9, #4
 800159c:	682a      	ldr	r2, [r5, #0]
 800159e:	d026      	beq.n	80015ee <HAL_CAN_IRQHandler+0x166>
 80015a0:	05f7      	lsls	r7, r6, #23
 80015a2:	d504      	bpl.n	80015ae <HAL_CAN_IRQHandler+0x126>
 80015a4:	f018 0f01 	tst.w	r8, #1
 80015a8:	bf18      	it	ne
 80015aa:	f044 0401 	orrne.w	r4, r4, #1
 80015ae:	05b0      	lsls	r0, r6, #22
 80015b0:	d504      	bpl.n	80015bc <HAL_CAN_IRQHandler+0x134>
 80015b2:	f018 0f02 	tst.w	r8, #2
 80015b6:	bf18      	it	ne
 80015b8:	f044 0402 	orrne.w	r4, r4, #2
 80015bc:	0571      	lsls	r1, r6, #21
 80015be:	d504      	bpl.n	80015ca <HAL_CAN_IRQHandler+0x142>
 80015c0:	f018 0f04 	tst.w	r8, #4
 80015c4:	bf18      	it	ne
 80015c6:	f044 0404 	orrne.w	r4, r4, #4
 80015ca:	0533      	lsls	r3, r6, #20
 80015cc:	d50f      	bpl.n	80015ee <HAL_CAN_IRQHandler+0x166>
 80015ce:	f018 0370 	ands.w	r3, r8, #112	; 0x70
 80015d2:	d00c      	beq.n	80015ee <HAL_CAN_IRQHandler+0x166>
 80015d4:	2b40      	cmp	r3, #64	; 0x40
 80015d6:	d04f      	beq.n	8001678 <HAL_CAN_IRQHandler+0x1f0>
 80015d8:	d83e      	bhi.n	8001658 <HAL_CAN_IRQHandler+0x1d0>
 80015da:	2b20      	cmp	r3, #32
 80015dc:	d046      	beq.n	800166c <HAL_CAN_IRQHandler+0x1e4>
 80015de:	2b30      	cmp	r3, #48	; 0x30
 80015e0:	d047      	beq.n	8001672 <HAL_CAN_IRQHandler+0x1ea>
 80015e2:	2b10      	cmp	r3, #16
 80015e4:	d03f      	beq.n	8001666 <HAL_CAN_IRQHandler+0x1de>
 80015e6:	6993      	ldr	r3, [r2, #24]
 80015e8:	f023 0370 	bic.w	r3, r3, #112	; 0x70
 80015ec:	6193      	str	r3, [r2, #24]
 80015ee:	2304      	movs	r3, #4
 80015f0:	6053      	str	r3, [r2, #4]
 80015f2:	b12c      	cbz	r4, 8001600 <HAL_CAN_IRQHandler+0x178>
 80015f4:	6a6b      	ldr	r3, [r5, #36]	; 0x24
 80015f6:	431c      	orrs	r4, r3
 80015f8:	626c      	str	r4, [r5, #36]	; 0x24
 80015fa:	4628      	mov	r0, r5
 80015fc:	f7ff ff43 	bl	8001486 <HAL_CAN_ErrorCallback>
 8001600:	e8bd 8ff8 	ldmia.w	sp!, {r3, r4, r5, r6, r7, r8, r9, sl, fp, pc}
 8001604:	077a      	lsls	r2, r7, #29
 8001606:	d405      	bmi.n	8001614 <HAL_CAN_IRQHandler+0x18c>
 8001608:	f017 0408 	ands.w	r4, r7, #8
 800160c:	d105      	bne.n	800161a <HAL_CAN_IRQHandler+0x192>
 800160e:	f7ff ff32 	bl	8001476 <HAL_CAN_TxMailbox0AbortCallback>
 8001612:	e755      	b.n	80014c0 <HAL_CAN_IRQHandler+0x38>
 8001614:	f44f 6400 	mov.w	r4, #2048	; 0x800
 8001618:	e752      	b.n	80014c0 <HAL_CAN_IRQHandler+0x38>
 800161a:	f44f 5480 	mov.w	r4, #4096	; 0x1000
 800161e:	e74f      	b.n	80014c0 <HAL_CAN_IRQHandler+0x38>
 8001620:	0579      	lsls	r1, r7, #21
 8001622:	d502      	bpl.n	800162a <HAL_CAN_IRQHandler+0x1a2>
 8001624:	f444 5400 	orr.w	r4, r4, #8192	; 0x2000
 8001628:	e756      	b.n	80014d8 <HAL_CAN_IRQHandler+0x50>
 800162a:	053a      	lsls	r2, r7, #20
 800162c:	d502      	bpl.n	8001634 <HAL_CAN_IRQHandler+0x1ac>
 800162e:	f444 4480 	orr.w	r4, r4, #16384	; 0x4000
 8001632:	e751      	b.n	80014d8 <HAL_CAN_IRQHandler+0x50>
 8001634:	4628      	mov	r0, r5
 8001636:	f7ff ff1f 	bl	8001478 <HAL_CAN_TxMailbox1AbortCallback>
 800163a:	e74d      	b.n	80014d8 <HAL_CAN_IRQHandler+0x50>
 800163c:	0379      	lsls	r1, r7, #13
 800163e:	d502      	bpl.n	8001646 <HAL_CAN_IRQHandler+0x1be>
 8001640:	f444 4400 	orr.w	r4, r4, #32768	; 0x8000
 8001644:	e754      	b.n	80014f0 <HAL_CAN_IRQHandler+0x68>
 8001646:	033a      	lsls	r2, r7, #12
 8001648:	d502      	bpl.n	8001650 <HAL_CAN_IRQHandler+0x1c8>
 800164a:	f444 3480 	orr.w	r4, r4, #65536	; 0x10000
 800164e:	e74f      	b.n	80014f0 <HAL_CAN_IRQHandler+0x68>
 8001650:	4628      	mov	r0, r5
 8001652:	f7ff ff12 	bl	800147a <HAL_CAN_TxMailbox2AbortCallback>
 8001656:	e74b      	b.n	80014f0 <HAL_CAN_IRQHandler+0x68>
 8001658:	2b50      	cmp	r3, #80	; 0x50
 800165a:	d010      	beq.n	800167e <HAL_CAN_IRQHandler+0x1f6>
 800165c:	2b60      	cmp	r3, #96	; 0x60
 800165e:	d1c2      	bne.n	80015e6 <HAL_CAN_IRQHandler+0x15e>
 8001660:	f444 7480 	orr.w	r4, r4, #256	; 0x100
 8001664:	e7bf      	b.n	80015e6 <HAL_CAN_IRQHandler+0x15e>
 8001666:	f044 0408 	orr.w	r4, r4, #8
 800166a:	e7bc      	b.n	80015e6 <HAL_CAN_IRQHandler+0x15e>
 800166c:	f044 0410 	orr.w	r4, r4, #16
 8001670:	e7b9      	b.n	80015e6 <HAL_CAN_IRQHandler+0x15e>
 8001672:	f044 0420 	orr.w	r4, r4, #32
 8001676:	e7b6      	b.n	80015e6 <HAL_CAN_IRQHandler+0x15e>
 8001678:	f044 0440 	orr.w	r4, r4, #64	; 0x40
 800167c:	e7b3      	b.n	80015e6 <HAL_CAN_IRQHandler+0x15e>
 800167e:	f044 0480 	orr.w	r4, r4, #128	; 0x80
 8001682:	e7b0      	b.n	80015e6 <HAL_CAN_IRQHandler+0x15e>

08001684 <HAL_NVIC_SetPriorityGrouping>:
 8001684:	4907      	ldr	r1, [pc, #28]	; (80016a4 <HAL_NVIC_SetPriorityGrouping+0x20>)
 8001686:	68ca      	ldr	r2, [r1, #12]
 8001688:	f422 62e0 	bic.w	r2, r2, #1792	; 0x700
 800168c:	0203      	lsls	r3, r0, #8
 800168e:	0412      	lsls	r2, r2, #16
 8001690:	f403 63e0 	and.w	r3, r3, #1792	; 0x700
 8001694:	0c12      	lsrs	r2, r2, #16
 8001696:	4313      	orrs	r3, r2
 8001698:	f043 63bf 	orr.w	r3, r3, #100139008	; 0x5f80000
 800169c:	f443 3300 	orr.w	r3, r3, #131072	; 0x20000
 80016a0:	60cb      	str	r3, [r1, #12]
 80016a2:	4770      	bx	lr
 80016a4:	e000ed00 	.word	0xe000ed00

080016a8 <HAL_NVIC_SetPriority>:
 80016a8:	4b16      	ldr	r3, [pc, #88]	; (8001704 <HAL_NVIC_SetPriority+0x5c>)
 80016aa:	b530      	push	{r4, r5, lr}
 80016ac:	68dc      	ldr	r4, [r3, #12]
 80016ae:	f3c4 2402 	ubfx	r4, r4, #8, #3
 80016b2:	f1c4 0507 	rsb	r5, r4, #7
 80016b6:	1d23      	adds	r3, r4, #4
 80016b8:	2d04      	cmp	r5, #4
 80016ba:	bf28      	it	cs
 80016bc:	2504      	movcs	r5, #4
 80016be:	2b06      	cmp	r3, #6
 80016c0:	f04f 33ff 	mov.w	r3, #4294967295
 80016c4:	bf8c      	ite	hi
 80016c6:	3c03      	subhi	r4, #3
 80016c8:	2400      	movls	r4, #0
 80016ca:	fa03 f505 	lsl.w	r5, r3, r5
 80016ce:	ea21 0105 	bic.w	r1, r1, r5
 80016d2:	40a3      	lsls	r3, r4
 80016d4:	ea22 0203 	bic.w	r2, r2, r3
 80016d8:	40a1      	lsls	r1, r4
 80016da:	2800      	cmp	r0, #0
 80016dc:	ea41 0302 	orr.w	r3, r1, r2
 80016e0:	bfac      	ite	ge
 80016e2:	f100 4060 	addge.w	r0, r0, #3758096384	; 0xe0000000
 80016e6:	4a08      	ldrlt	r2, [pc, #32]	; (8001708 <HAL_NVIC_SetPriority+0x60>)
 80016e8:	ea4f 1303 	mov.w	r3, r3, lsl #4
 80016ec:	bfb8      	it	lt
 80016ee:	f000 000f 	andlt.w	r0, r0, #15
 80016f2:	b2db      	uxtb	r3, r3
 80016f4:	bfaa      	itet	ge
 80016f6:	f500 4061 	addge.w	r0, r0, #57600	; 0xe100
 80016fa:	5413      	strblt	r3, [r2, r0]
 80016fc:	f880 3300 	strbge.w	r3, [r0, #768]	; 0x300
 8001700:	bd30      	pop	{r4, r5, pc}
 8001702:	bf00      	nop
 8001704:	e000ed00 	.word	0xe000ed00
 8001708:	e000ed14 	.word	0xe000ed14

0800170c <HAL_NVIC_EnableIRQ>:
 800170c:	2800      	cmp	r0, #0
 800170e:	db08      	blt.n	8001722 <HAL_NVIC_EnableIRQ+0x16>
 8001710:	2301      	movs	r3, #1
 8001712:	0942      	lsrs	r2, r0, #5
 8001714:	f000 001f 	and.w	r0, r0, #31
 8001718:	fa03 f000 	lsl.w	r0, r3, r0
 800171c:	4b01      	ldr	r3, [pc, #4]	; (8001724 <HAL_NVIC_EnableIRQ+0x18>)
 800171e:	f843 0022 	str.w	r0, [r3, r2, lsl #2]
 8001722:	4770      	bx	lr
 8001724:	e000e100 	.word	0xe000e100

08001728 <HAL_SYSTICK_Config>:
 8001728:	3801      	subs	r0, #1
 800172a:	f1b0 7f80 	cmp.w	r0, #16777216	; 0x1000000
 800172e:	d20b      	bcs.n	8001748 <HAL_SYSTICK_Config+0x20>
 8001730:	f04f 23e0 	mov.w	r3, #3758153728	; 0xe000e000
 8001734:	4a05      	ldr	r2, [pc, #20]	; (800174c <HAL_SYSTICK_Config+0x24>)
 8001736:	6158      	str	r0, [r3, #20]
 8001738:	21f0      	movs	r1, #240	; 0xf0
 800173a:	f882 1023 	strb.w	r1, [r2, #35]	; 0x23
 800173e:	2000      	movs	r0, #0
 8001740:	2207      	movs	r2, #7
 8001742:	6198      	str	r0, [r3, #24]
 8001744:	611a      	str	r2, [r3, #16]
 8001746:	4770      	bx	lr
 8001748:	2001      	movs	r0, #1
 800174a:	4770      	bx	lr
 800174c:	e000ed00 	.word	0xe000ed00

08001750 <HAL_GPIO_Init>:
 8001750:	e92d 4ff7 	stmdb	sp!, {r0, r1, r2, r4, r5, r6, r7, r8, r9, sl, fp, lr}
 8001754:	f8df 917c 	ldr.w	r9, [pc, #380]	; 80018d4 <HAL_GPIO_Init+0x184>
 8001758:	4c5c      	ldr	r4, [pc, #368]	; (80018cc <HAL_GPIO_Init+0x17c>)
 800175a:	2300      	movs	r3, #0
 800175c:	680a      	ldr	r2, [r1, #0]
 800175e:	fa32 f503 	lsrs.w	r5, r2, r3
 8001762:	d102      	bne.n	800176a <HAL_GPIO_Init+0x1a>
 8001764:	b003      	add	sp, #12
 8001766:	e8bd 8ff0 	ldmia.w	sp!, {r4, r5, r6, r7, r8, r9, sl, fp, pc}
 800176a:	2501      	movs	r5, #1
 800176c:	fa05 fe03 	lsl.w	lr, r5, r3
 8001770:	ea1e 0202 	ands.w	r2, lr, r2
 8001774:	f000 80a0 	beq.w	80018b8 <HAL_GPIO_Init+0x168>
 8001778:	684e      	ldr	r6, [r1, #4]
 800177a:	2703      	movs	r7, #3
 800177c:	f006 0503 	and.w	r5, r6, #3
 8001780:	ea4f 0843 	mov.w	r8, r3, lsl #1
 8001784:	fa07 fc08 	lsl.w	ip, r7, r8
 8001788:	1e6f      	subs	r7, r5, #1
 800178a:	2f01      	cmp	r7, #1
 800178c:	ea6f 0c0c 	mvn.w	ip, ip
 8001790:	d834      	bhi.n	80017fc <HAL_GPIO_Init+0xac>
 8001792:	6887      	ldr	r7, [r0, #8]
 8001794:	ea07 0a0c 	and.w	sl, r7, ip
 8001798:	68cf      	ldr	r7, [r1, #12]
 800179a:	fa07 f708 	lsl.w	r7, r7, r8
 800179e:	ea47 070a 	orr.w	r7, r7, sl
 80017a2:	6087      	str	r7, [r0, #8]
 80017a4:	6847      	ldr	r7, [r0, #4]
 80017a6:	ea27 0e0e 	bic.w	lr, r7, lr
 80017aa:	f3c6 1700 	ubfx	r7, r6, #4, #1
 80017ae:	409f      	lsls	r7, r3
 80017b0:	ea47 070e 	orr.w	r7, r7, lr
 80017b4:	6047      	str	r7, [r0, #4]
 80017b6:	68c7      	ldr	r7, [r0, #12]
 80017b8:	ea07 0e0c 	and.w	lr, r7, ip
 80017bc:	688f      	ldr	r7, [r1, #8]
 80017be:	fa07 f708 	lsl.w	r7, r7, r8
 80017c2:	ea47 070e 	orr.w	r7, r7, lr
 80017c6:	2d02      	cmp	r5, #2
 80017c8:	60c7      	str	r7, [r0, #12]
 80017ca:	d119      	bne.n	8001800 <HAL_GPIO_Init+0xb0>
 80017cc:	ea4f 0ad3 	mov.w	sl, r3, lsr #3
 80017d0:	eb00 0a8a 	add.w	sl, r0, sl, lsl #2
 80017d4:	f003 0b07 	and.w	fp, r3, #7
 80017d8:	f8da 7020 	ldr.w	r7, [sl, #32]
 80017dc:	ea4f 0b8b 	mov.w	fp, fp, lsl #2
 80017e0:	f04f 0e0f 	mov.w	lr, #15
 80017e4:	fa0e fe0b 	lsl.w	lr, lr, fp
 80017e8:	ea27 0e0e 	bic.w	lr, r7, lr
 80017ec:	690f      	ldr	r7, [r1, #16]
 80017ee:	fa07 f70b 	lsl.w	r7, r7, fp
 80017f2:	ea47 070e 	orr.w	r7, r7, lr
 80017f6:	f8ca 7020 	str.w	r7, [sl, #32]
 80017fa:	e001      	b.n	8001800 <HAL_GPIO_Init+0xb0>
 80017fc:	2d03      	cmp	r5, #3
 80017fe:	d1da      	bne.n	80017b6 <HAL_GPIO_Init+0x66>
 8001800:	6807      	ldr	r7, [r0, #0]
 8001802:	fa05 f508 	lsl.w	r5, r5, r8
 8001806:	ea07 070c 	and.w	r7, r7, ip
 800180a:	432f      	orrs	r7, r5
 800180c:	f416 3f40 	tst.w	r6, #196608	; 0x30000
 8001810:	6007      	str	r7, [r0, #0]
 8001812:	d051      	beq.n	80018b8 <HAL_GPIO_Init+0x168>
 8001814:	f8d9 5060 	ldr.w	r5, [r9, #96]	; 0x60
 8001818:	f045 0501 	orr.w	r5, r5, #1
 800181c:	f8c9 5060 	str.w	r5, [r9, #96]	; 0x60
 8001820:	f8d9 5060 	ldr.w	r5, [r9, #96]	; 0x60
 8001824:	f023 0703 	bic.w	r7, r3, #3
 8001828:	f107 4780 	add.w	r7, r7, #1073741824	; 0x40000000
 800182c:	f005 0501 	and.w	r5, r5, #1
 8001830:	f507 3780 	add.w	r7, r7, #65536	; 0x10000
 8001834:	9501      	str	r5, [sp, #4]
 8001836:	f003 0e03 	and.w	lr, r3, #3
 800183a:	9d01      	ldr	r5, [sp, #4]
 800183c:	68bd      	ldr	r5, [r7, #8]
 800183e:	ea4f 0e8e 	mov.w	lr, lr, lsl #2
 8001842:	f04f 0c0f 	mov.w	ip, #15
 8001846:	fa0c fc0e 	lsl.w	ip, ip, lr
 800184a:	f1b0 4f90 	cmp.w	r0, #1207959552	; 0x48000000
 800184e:	ea25 0c0c 	bic.w	ip, r5, ip
 8001852:	d033      	beq.n	80018bc <HAL_GPIO_Init+0x16c>
 8001854:	4d1e      	ldr	r5, [pc, #120]	; (80018d0 <HAL_GPIO_Init+0x180>)
 8001856:	42a8      	cmp	r0, r5
 8001858:	d032      	beq.n	80018c0 <HAL_GPIO_Init+0x170>
 800185a:	f505 6580 	add.w	r5, r5, #1024	; 0x400
 800185e:	42a8      	cmp	r0, r5
 8001860:	d030      	beq.n	80018c4 <HAL_GPIO_Init+0x174>
 8001862:	f505 6580 	add.w	r5, r5, #1024	; 0x400
 8001866:	42a8      	cmp	r0, r5
 8001868:	d02e      	beq.n	80018c8 <HAL_GPIO_Init+0x178>
 800186a:	f505 6580 	add.w	r5, r5, #1024	; 0x400
 800186e:	42a8      	cmp	r0, r5
 8001870:	bf0c      	ite	eq
 8001872:	2504      	moveq	r5, #4
 8001874:	2507      	movne	r5, #7
 8001876:	fa05 f50e 	lsl.w	r5, r5, lr
 800187a:	ea45 050c 	orr.w	r5, r5, ip
 800187e:	60bd      	str	r5, [r7, #8]
 8001880:	68a5      	ldr	r5, [r4, #8]
 8001882:	43d7      	mvns	r7, r2
 8001884:	f416 1f80 	tst.w	r6, #1048576	; 0x100000
 8001888:	bf0c      	ite	eq
 800188a:	403d      	andeq	r5, r7
 800188c:	4315      	orrne	r5, r2
 800188e:	60a5      	str	r5, [r4, #8]
 8001890:	68e5      	ldr	r5, [r4, #12]
 8001892:	f416 1f00 	tst.w	r6, #2097152	; 0x200000
 8001896:	bf0c      	ite	eq
 8001898:	403d      	andeq	r5, r7
 800189a:	4315      	orrne	r5, r2
 800189c:	60e5      	str	r5, [r4, #12]
 800189e:	6865      	ldr	r5, [r4, #4]
 80018a0:	f416 3f00 	tst.w	r6, #131072	; 0x20000
 80018a4:	bf0c      	ite	eq
 80018a6:	403d      	andeq	r5, r7
 80018a8:	4315      	orrne	r5, r2
 80018aa:	6065      	str	r5, [r4, #4]
 80018ac:	6825      	ldr	r5, [r4, #0]
 80018ae:	03f6      	lsls	r6, r6, #15
 80018b0:	bf54      	ite	pl
 80018b2:	403d      	andpl	r5, r7
 80018b4:	4315      	orrmi	r5, r2
 80018b6:	6025      	str	r5, [r4, #0]
 80018b8:	3301      	adds	r3, #1
 80018ba:	e74f      	b.n	800175c <HAL_GPIO_Init+0xc>
 80018bc:	2500      	movs	r5, #0
 80018be:	e7da      	b.n	8001876 <HAL_GPIO_Init+0x126>
 80018c0:	2501      	movs	r5, #1
 80018c2:	e7d8      	b.n	8001876 <HAL_GPIO_Init+0x126>
 80018c4:	2502      	movs	r5, #2
 80018c6:	e7d6      	b.n	8001876 <HAL_GPIO_Init+0x126>
 80018c8:	2503      	movs	r5, #3
 80018ca:	e7d4      	b.n	8001876 <HAL_GPIO_Init+0x126>
 80018cc:	40010400 	.word	0x40010400
 80018d0:	48000400 	.word	0x48000400
 80018d4:	40021000 	.word	0x40021000

080018d8 <HAL_GPIO_WritePin>:
 80018d8:	b10a      	cbz	r2, 80018de <HAL_GPIO_WritePin+0x6>
 80018da:	6181      	str	r1, [r0, #24]
 80018dc:	4770      	bx	lr
 80018de:	6281      	str	r1, [r0, #40]	; 0x28
 80018e0:	4770      	bx	lr

080018e2 <I2C_Flush_TXDR>:
 80018e2:	6803      	ldr	r3, [r0, #0]
 80018e4:	699a      	ldr	r2, [r3, #24]
 80018e6:	0791      	lsls	r1, r2, #30
 80018e8:	bf44      	itt	mi
 80018ea:	2200      	movmi	r2, #0
 80018ec:	629a      	strmi	r2, [r3, #40]	; 0x28
 80018ee:	699a      	ldr	r2, [r3, #24]
 80018f0:	07d2      	lsls	r2, r2, #31
 80018f2:	bf5e      	ittt	pl
 80018f4:	699a      	ldrpl	r2, [r3, #24]
 80018f6:	f042 0201 	orrpl.w	r2, r2, #1
 80018fa:	619a      	strpl	r2, [r3, #24]
 80018fc:	4770      	bx	lr
	...

08001900 <I2C_TransferConfig>:
 8001900:	b530      	push	{r4, r5, lr}
 8001902:	9d03      	ldr	r5, [sp, #12]
 8001904:	6804      	ldr	r4, [r0, #0]
 8001906:	432b      	orrs	r3, r5
 8001908:	ea43 4302 	orr.w	r3, r3, r2, lsl #16
 800190c:	4a06      	ldr	r2, [pc, #24]	; (8001928 <I2C_TransferConfig+0x28>)
 800190e:	6860      	ldr	r0, [r4, #4]
 8001910:	f3c1 0109 	ubfx	r1, r1, #0, #10
 8001914:	430b      	orrs	r3, r1
 8001916:	ea42 5255 	orr.w	r2, r2, r5, lsr #21
 800191a:	f023 4300 	bic.w	r3, r3, #2147483648	; 0x80000000
 800191e:	ea20 0002 	bic.w	r0, r0, r2
 8001922:	4303      	orrs	r3, r0
 8001924:	6063      	str	r3, [r4, #4]
 8001926:	bd30      	pop	{r4, r5, pc}
 8001928:	03ff63ff 	.word	0x03ff63ff

0800192c <I2C_IsErrorOccurred>:
 800192c:	e92d 43f8 	stmdb	sp!, {r3, r4, r5, r6, r7, r8, r9, lr}
 8001930:	6803      	ldr	r3, [r0, #0]
 8001932:	699c      	ldr	r4, [r3, #24]
 8001934:	f014 0410 	ands.w	r4, r4, #16
 8001938:	4605      	mov	r5, r0
 800193a:	4688      	mov	r8, r1
 800193c:	4617      	mov	r7, r2
 800193e:	d079      	beq.n	8001a34 <I2C_IsErrorOccurred+0x108>
 8001940:	2210      	movs	r2, #16
 8001942:	61da      	str	r2, [r3, #28]
 8001944:	2600      	movs	r6, #0
 8001946:	f04f 0920 	mov.w	r9, #32
 800194a:	682b      	ldr	r3, [r5, #0]
 800194c:	699a      	ldr	r2, [r3, #24]
 800194e:	0694      	lsls	r4, r2, #26
 8001950:	d436      	bmi.n	80019c0 <I2C_IsErrorOccurred+0x94>
 8001952:	b10e      	cbz	r6, 8001958 <I2C_IsErrorOccurred+0x2c>
 8001954:	2404      	movs	r4, #4
 8001956:	e039      	b.n	80019cc <I2C_IsErrorOccurred+0xa0>
 8001958:	f1b8 3fff 	cmp.w	r8, #4294967295
 800195c:	d0f6      	beq.n	800194c <I2C_IsErrorOccurred+0x20>
 800195e:	f7ff f8e5 	bl	8000b2c <HAL_GetTick>
 8001962:	1bc0      	subs	r0, r0, r7
 8001964:	4540      	cmp	r0, r8
 8001966:	d802      	bhi.n	800196e <I2C_IsErrorOccurred+0x42>
 8001968:	f1b8 0f00 	cmp.w	r8, #0
 800196c:	d1ed      	bne.n	800194a <I2C_IsErrorOccurred+0x1e>
 800196e:	682b      	ldr	r3, [r5, #0]
 8001970:	6859      	ldr	r1, [r3, #4]
 8001972:	f895 2042 	ldrb.w	r2, [r5, #66]	; 0x42
 8001976:	6998      	ldr	r0, [r3, #24]
 8001978:	0400      	lsls	r0, r0, #16
 800197a:	b2d2      	uxtb	r2, r2
 800197c:	d50a      	bpl.n	8001994 <I2C_IsErrorOccurred+0x68>
 800197e:	0449      	lsls	r1, r1, #17
 8001980:	d408      	bmi.n	8001994 <I2C_IsErrorOccurred+0x68>
 8001982:	2a20      	cmp	r2, #32
 8001984:	d006      	beq.n	8001994 <I2C_IsErrorOccurred+0x68>
 8001986:	685a      	ldr	r2, [r3, #4]
 8001988:	f442 4280 	orr.w	r2, r2, #16384	; 0x4000
 800198c:	605a      	str	r2, [r3, #4]
 800198e:	f7ff f8cd 	bl	8000b2c <HAL_GetTick>
 8001992:	4607      	mov	r7, r0
 8001994:	682b      	ldr	r3, [r5, #0]
 8001996:	699c      	ldr	r4, [r3, #24]
 8001998:	f014 0420 	ands.w	r4, r4, #32
 800199c:	d1d5      	bne.n	800194a <I2C_IsErrorOccurred+0x1e>
 800199e:	f7ff f8c5 	bl	8000b2c <HAL_GetTick>
 80019a2:	1bc0      	subs	r0, r0, r7
 80019a4:	2819      	cmp	r0, #25
 80019a6:	d9f5      	bls.n	8001994 <I2C_IsErrorOccurred+0x68>
 80019a8:	6c6b      	ldr	r3, [r5, #68]	; 0x44
 80019aa:	f885 4040 	strb.w	r4, [r5, #64]	; 0x40
 80019ae:	f043 0320 	orr.w	r3, r3, #32
 80019b2:	646b      	str	r3, [r5, #68]	; 0x44
 80019b4:	2601      	movs	r6, #1
 80019b6:	f885 9041 	strb.w	r9, [r5, #65]	; 0x41
 80019ba:	f885 4042 	strb.w	r4, [r5, #66]	; 0x42
 80019be:	e7e9      	b.n	8001994 <I2C_IsErrorOccurred+0x68>
 80019c0:	2e00      	cmp	r6, #0
 80019c2:	d1c7      	bne.n	8001954 <I2C_IsErrorOccurred+0x28>
 80019c4:	2220      	movs	r2, #32
 80019c6:	61da      	str	r2, [r3, #28]
 80019c8:	2404      	movs	r4, #4
 80019ca:	2601      	movs	r6, #1
 80019cc:	682b      	ldr	r3, [r5, #0]
 80019ce:	699a      	ldr	r2, [r3, #24]
 80019d0:	05d0      	lsls	r0, r2, #23
 80019d2:	bf41      	itttt	mi
 80019d4:	f44f 7180 	movmi.w	r1, #256	; 0x100
 80019d8:	61d9      	strmi	r1, [r3, #28]
 80019da:	f044 0401 	orrmi.w	r4, r4, #1
 80019de:	2601      	movmi	r6, #1
 80019e0:	0551      	lsls	r1, r2, #21
 80019e2:	bf41      	itttt	mi
 80019e4:	f44f 6180 	movmi.w	r1, #1024	; 0x400
 80019e8:	f044 0408 	orrmi.w	r4, r4, #8
 80019ec:	61d9      	strmi	r1, [r3, #28]
 80019ee:	2601      	movmi	r6, #1
 80019f0:	0592      	lsls	r2, r2, #22
 80019f2:	d521      	bpl.n	8001a38 <I2C_IsErrorOccurred+0x10c>
 80019f4:	f44f 7200 	mov.w	r2, #512	; 0x200
 80019f8:	f044 0402 	orr.w	r4, r4, #2
 80019fc:	61da      	str	r2, [r3, #28]
 80019fe:	4628      	mov	r0, r5
 8001a00:	f7ff ff6f 	bl	80018e2 <I2C_Flush_TXDR>
 8001a04:	682a      	ldr	r2, [r5, #0]
 8001a06:	6853      	ldr	r3, [r2, #4]
 8001a08:	f023 73ff 	bic.w	r3, r3, #33423360	; 0x1fe0000
 8001a0c:	f423 338b 	bic.w	r3, r3, #71168	; 0x11600
 8001a10:	f423 73ff 	bic.w	r3, r3, #510	; 0x1fe
 8001a14:	f023 0301 	bic.w	r3, r3, #1
 8001a18:	6053      	str	r3, [r2, #4]
 8001a1a:	6c6b      	ldr	r3, [r5, #68]	; 0x44
 8001a1c:	431c      	orrs	r4, r3
 8001a1e:	2320      	movs	r3, #32
 8001a20:	646c      	str	r4, [r5, #68]	; 0x44
 8001a22:	f885 3041 	strb.w	r3, [r5, #65]	; 0x41
 8001a26:	2300      	movs	r3, #0
 8001a28:	f885 3042 	strb.w	r3, [r5, #66]	; 0x42
 8001a2c:	f885 3040 	strb.w	r3, [r5, #64]	; 0x40
 8001a30:	2601      	movs	r6, #1
 8001a32:	e003      	b.n	8001a3c <I2C_IsErrorOccurred+0x110>
 8001a34:	4626      	mov	r6, r4
 8001a36:	e7c9      	b.n	80019cc <I2C_IsErrorOccurred+0xa0>
 8001a38:	2e00      	cmp	r6, #0
 8001a3a:	d1e0      	bne.n	80019fe <I2C_IsErrorOccurred+0xd2>
 8001a3c:	4630      	mov	r0, r6
 8001a3e:	e8bd 83f8 	ldmia.w	sp!, {r3, r4, r5, r6, r7, r8, r9, pc}

08001a42 <I2C_WaitOnTXISFlagUntilTimeout>:
 8001a42:	b570      	push	{r4, r5, r6, lr}
 8001a44:	4604      	mov	r4, r0
 8001a46:	460d      	mov	r5, r1
 8001a48:	4616      	mov	r6, r2
 8001a4a:	6823      	ldr	r3, [r4, #0]
 8001a4c:	699b      	ldr	r3, [r3, #24]
 8001a4e:	079b      	lsls	r3, r3, #30
 8001a50:	d501      	bpl.n	8001a56 <I2C_WaitOnTXISFlagUntilTimeout+0x14>
 8001a52:	2000      	movs	r0, #0
 8001a54:	bd70      	pop	{r4, r5, r6, pc}
 8001a56:	4632      	mov	r2, r6
 8001a58:	4629      	mov	r1, r5
 8001a5a:	4620      	mov	r0, r4
 8001a5c:	f7ff ff66 	bl	800192c <I2C_IsErrorOccurred>
 8001a60:	b9a0      	cbnz	r0, 8001a8c <I2C_WaitOnTXISFlagUntilTimeout+0x4a>
 8001a62:	1c6a      	adds	r2, r5, #1
 8001a64:	d0f1      	beq.n	8001a4a <I2C_WaitOnTXISFlagUntilTimeout+0x8>
 8001a66:	f7ff f861 	bl	8000b2c <HAL_GetTick>
 8001a6a:	1b80      	subs	r0, r0, r6
 8001a6c:	42a8      	cmp	r0, r5
 8001a6e:	d801      	bhi.n	8001a74 <I2C_WaitOnTXISFlagUntilTimeout+0x32>
 8001a70:	2d00      	cmp	r5, #0
 8001a72:	d1ea      	bne.n	8001a4a <I2C_WaitOnTXISFlagUntilTimeout+0x8>
 8001a74:	6c63      	ldr	r3, [r4, #68]	; 0x44
 8001a76:	f043 0320 	orr.w	r3, r3, #32
 8001a7a:	6463      	str	r3, [r4, #68]	; 0x44
 8001a7c:	2320      	movs	r3, #32
 8001a7e:	f884 3041 	strb.w	r3, [r4, #65]	; 0x41
 8001a82:	2300      	movs	r3, #0
 8001a84:	f884 3042 	strb.w	r3, [r4, #66]	; 0x42
 8001a88:	f884 3040 	strb.w	r3, [r4, #64]	; 0x40
 8001a8c:	2001      	movs	r0, #1
 8001a8e:	e7e1      	b.n	8001a54 <I2C_WaitOnTXISFlagUntilTimeout+0x12>

08001a90 <I2C_WaitOnFlagUntilTimeout>:
 8001a90:	e92d 41f0 	stmdb	sp!, {r4, r5, r6, r7, r8, lr}
 8001a94:	9f06      	ldr	r7, [sp, #24]
 8001a96:	4604      	mov	r4, r0
 8001a98:	4688      	mov	r8, r1
 8001a9a:	4616      	mov	r6, r2
 8001a9c:	461d      	mov	r5, r3
 8001a9e:	6822      	ldr	r2, [r4, #0]
 8001aa0:	6993      	ldr	r3, [r2, #24]
 8001aa2:	ea38 0303 	bics.w	r3, r8, r3
 8001aa6:	bf0c      	ite	eq
 8001aa8:	2301      	moveq	r3, #1
 8001aaa:	2300      	movne	r3, #0
 8001aac:	42b3      	cmp	r3, r6
 8001aae:	d001      	beq.n	8001ab4 <I2C_WaitOnFlagUntilTimeout+0x24>
 8001ab0:	2000      	movs	r0, #0
 8001ab2:	e015      	b.n	8001ae0 <I2C_WaitOnFlagUntilTimeout+0x50>
 8001ab4:	1c6b      	adds	r3, r5, #1
 8001ab6:	d0f3      	beq.n	8001aa0 <I2C_WaitOnFlagUntilTimeout+0x10>
 8001ab8:	f7ff f838 	bl	8000b2c <HAL_GetTick>
 8001abc:	1bc0      	subs	r0, r0, r7
 8001abe:	42a8      	cmp	r0, r5
 8001ac0:	d801      	bhi.n	8001ac6 <I2C_WaitOnFlagUntilTimeout+0x36>
 8001ac2:	2d00      	cmp	r5, #0
 8001ac4:	d1eb      	bne.n	8001a9e <I2C_WaitOnFlagUntilTimeout+0xe>
 8001ac6:	6c63      	ldr	r3, [r4, #68]	; 0x44
 8001ac8:	f043 0320 	orr.w	r3, r3, #32
 8001acc:	6463      	str	r3, [r4, #68]	; 0x44
 8001ace:	2320      	movs	r3, #32
 8001ad0:	f884 3041 	strb.w	r3, [r4, #65]	; 0x41
 8001ad4:	2300      	movs	r3, #0
 8001ad6:	f884 3042 	strb.w	r3, [r4, #66]	; 0x42
 8001ada:	f884 3040 	strb.w	r3, [r4, #64]	; 0x40
 8001ade:	2001      	movs	r0, #1
 8001ae0:	e8bd 81f0 	ldmia.w	sp!, {r4, r5, r6, r7, r8, pc}

08001ae4 <I2C_WaitOnSTOPFlagUntilTimeout>:
 8001ae4:	b570      	push	{r4, r5, r6, lr}
 8001ae6:	4604      	mov	r4, r0
 8001ae8:	460d      	mov	r5, r1
 8001aea:	4616      	mov	r6, r2
 8001aec:	6823      	ldr	r3, [r4, #0]
 8001aee:	699b      	ldr	r3, [r3, #24]
 8001af0:	069b      	lsls	r3, r3, #26
 8001af2:	d501      	bpl.n	8001af8 <I2C_WaitOnSTOPFlagUntilTimeout+0x14>
 8001af4:	2000      	movs	r0, #0
 8001af6:	bd70      	pop	{r4, r5, r6, pc}
 8001af8:	4632      	mov	r2, r6
 8001afa:	4629      	mov	r1, r5
 8001afc:	4620      	mov	r0, r4
 8001afe:	f7ff ff15 	bl	800192c <I2C_IsErrorOccurred>
 8001b02:	b990      	cbnz	r0, 8001b2a <I2C_WaitOnSTOPFlagUntilTimeout+0x46>
 8001b04:	f7ff f812 	bl	8000b2c <HAL_GetTick>
 8001b08:	1b80      	subs	r0, r0, r6
 8001b0a:	42a8      	cmp	r0, r5
 8001b0c:	d801      	bhi.n	8001b12 <I2C_WaitOnSTOPFlagUntilTimeout+0x2e>
 8001b0e:	2d00      	cmp	r5, #0
 8001b10:	d1ec      	bne.n	8001aec <I2C_WaitOnSTOPFlagUntilTimeout+0x8>
 8001b12:	6c63      	ldr	r3, [r4, #68]	; 0x44
 8001b14:	f043 0320 	orr.w	r3, r3, #32
 8001b18:	6463      	str	r3, [r4, #68]	; 0x44
 8001b1a:	2320      	movs	r3, #32
 8001b1c:	f884 3041 	strb.w	r3, [r4, #65]	; 0x41
 8001b20:	2300      	movs	r3, #0
 8001b22:	f884 3042 	strb.w	r3, [r4, #66]	; 0x42
 8001b26:	f884 3040 	strb.w	r3, [r4, #64]	; 0x40
 8001b2a:	2001      	movs	r0, #1
 8001b2c:	e7e3      	b.n	8001af6 <I2C_WaitOnSTOPFlagUntilTimeout+0x12>

08001b2e <HAL_I2C_Init>:
 8001b2e:	b510      	push	{r4, lr}
 8001b30:	4604      	mov	r4, r0
 8001b32:	2800      	cmp	r0, #0
 8001b34:	d04a      	beq.n	8001bcc <HAL_I2C_Init+0x9e>
 8001b36:	f890 3041 	ldrb.w	r3, [r0, #65]	; 0x41
 8001b3a:	f003 02ff 	and.w	r2, r3, #255	; 0xff
 8001b3e:	b91b      	cbnz	r3, 8001b48 <HAL_I2C_Init+0x1a>
 8001b40:	f880 2040 	strb.w	r2, [r0, #64]	; 0x40
 8001b44:	f7fe fdea 	bl	800071c <HAL_I2C_MspInit>
 8001b48:	2324      	movs	r3, #36	; 0x24
 8001b4a:	f884 3041 	strb.w	r3, [r4, #65]	; 0x41
 8001b4e:	6823      	ldr	r3, [r4, #0]
 8001b50:	681a      	ldr	r2, [r3, #0]
 8001b52:	f022 0201 	bic.w	r2, r2, #1
 8001b56:	601a      	str	r2, [r3, #0]
 8001b58:	6862      	ldr	r2, [r4, #4]
 8001b5a:	f022 6270 	bic.w	r2, r2, #251658240	; 0xf000000
 8001b5e:	611a      	str	r2, [r3, #16]
 8001b60:	689a      	ldr	r2, [r3, #8]
 8001b62:	f422 4200 	bic.w	r2, r2, #32768	; 0x8000
 8001b66:	609a      	str	r2, [r3, #8]
 8001b68:	e9d4 2102 	ldrd	r2, r1, [r4, #8]
 8001b6c:	2901      	cmp	r1, #1
 8001b6e:	d124      	bne.n	8001bba <HAL_I2C_Init+0x8c>
 8001b70:	f442 4200 	orr.w	r2, r2, #32768	; 0x8000
 8001b74:	609a      	str	r2, [r3, #8]
 8001b76:	685a      	ldr	r2, [r3, #4]
 8001b78:	f042 7200 	orr.w	r2, r2, #33554432	; 0x2000000
 8001b7c:	f442 4200 	orr.w	r2, r2, #32768	; 0x8000
 8001b80:	605a      	str	r2, [r3, #4]
 8001b82:	68da      	ldr	r2, [r3, #12]
 8001b84:	f422 4200 	bic.w	r2, r2, #32768	; 0x8000
 8001b88:	60da      	str	r2, [r3, #12]
 8001b8a:	e9d4 2104 	ldrd	r2, r1, [r4, #16]
 8001b8e:	430a      	orrs	r2, r1
 8001b90:	69a1      	ldr	r1, [r4, #24]
 8001b92:	ea42 2201 	orr.w	r2, r2, r1, lsl #8
 8001b96:	60da      	str	r2, [r3, #12]
 8001b98:	e9d4 2107 	ldrd	r2, r1, [r4, #28]
 8001b9c:	430a      	orrs	r2, r1
 8001b9e:	601a      	str	r2, [r3, #0]
 8001ba0:	681a      	ldr	r2, [r3, #0]
 8001ba2:	f042 0201 	orr.w	r2, r2, #1
 8001ba6:	601a      	str	r2, [r3, #0]
 8001ba8:	2000      	movs	r0, #0
 8001baa:	2320      	movs	r3, #32
 8001bac:	6460      	str	r0, [r4, #68]	; 0x44
 8001bae:	f884 3041 	strb.w	r3, [r4, #65]	; 0x41
 8001bb2:	6320      	str	r0, [r4, #48]	; 0x30
 8001bb4:	f884 0042 	strb.w	r0, [r4, #66]	; 0x42
 8001bb8:	bd10      	pop	{r4, pc}
 8001bba:	f442 4204 	orr.w	r2, r2, #33792	; 0x8400
 8001bbe:	2902      	cmp	r1, #2
 8001bc0:	609a      	str	r2, [r3, #8]
 8001bc2:	bf04      	itt	eq
 8001bc4:	f44f 6200 	moveq.w	r2, #2048	; 0x800
 8001bc8:	605a      	streq	r2, [r3, #4]
 8001bca:	e7d4      	b.n	8001b76 <HAL_I2C_Init+0x48>
 8001bcc:	2001      	movs	r0, #1
 8001bce:	e7f3      	b.n	8001bb8 <HAL_I2C_Init+0x8a>

08001bd0 <HAL_I2C_Master_Transmit>:
 8001bd0:	e92d 47f3 	stmdb	sp!, {r0, r1, r4, r5, r6, r7, r8, r9, sl, lr}
 8001bd4:	4698      	mov	r8, r3
 8001bd6:	f890 3041 	ldrb.w	r3, [r0, #65]	; 0x41
 8001bda:	9f0a      	ldr	r7, [sp, #40]	; 0x28
 8001bdc:	2b20      	cmp	r3, #32
 8001bde:	4604      	mov	r4, r0
 8001be0:	460e      	mov	r6, r1
 8001be2:	4691      	mov	r9, r2
 8001be4:	f040 8086 	bne.w	8001cf4 <HAL_I2C_Master_Transmit+0x124>
 8001be8:	f890 3040 	ldrb.w	r3, [r0, #64]	; 0x40
 8001bec:	2b01      	cmp	r3, #1
 8001bee:	f000 8081 	beq.w	8001cf4 <HAL_I2C_Master_Transmit+0x124>
 8001bf2:	f04f 0a01 	mov.w	sl, #1
 8001bf6:	f880 a040 	strb.w	sl, [r0, #64]	; 0x40
 8001bfa:	f7fe ff97 	bl	8000b2c <HAL_GetTick>
 8001bfe:	2319      	movs	r3, #25
 8001c00:	4605      	mov	r5, r0
 8001c02:	9000      	str	r0, [sp, #0]
 8001c04:	4652      	mov	r2, sl
 8001c06:	f44f 4100 	mov.w	r1, #32768	; 0x8000
 8001c0a:	4620      	mov	r0, r4
 8001c0c:	f7ff ff40 	bl	8001a90 <I2C_WaitOnFlagUntilTimeout>
 8001c10:	b118      	cbz	r0, 8001c1a <HAL_I2C_Master_Transmit+0x4a>
 8001c12:	2001      	movs	r0, #1
 8001c14:	b002      	add	sp, #8
 8001c16:	e8bd 87f0 	ldmia.w	sp!, {r4, r5, r6, r7, r8, r9, sl, pc}
 8001c1a:	2321      	movs	r3, #33	; 0x21
 8001c1c:	f884 3041 	strb.w	r3, [r4, #65]	; 0x41
 8001c20:	2310      	movs	r3, #16
 8001c22:	f884 3042 	strb.w	r3, [r4, #66]	; 0x42
 8001c26:	6460      	str	r0, [r4, #68]	; 0x44
 8001c28:	f8a4 802a 	strh.w	r8, [r4, #42]	; 0x2a
 8001c2c:	8d63      	ldrh	r3, [r4, #42]	; 0x2a
 8001c2e:	f8c4 9024 	str.w	r9, [r4, #36]	; 0x24
 8001c32:	b29b      	uxth	r3, r3
 8001c34:	2bff      	cmp	r3, #255	; 0xff
 8001c36:	6360      	str	r0, [r4, #52]	; 0x34
 8001c38:	4b2f      	ldr	r3, [pc, #188]	; (8001cf8 <HAL_I2C_Master_Transmit+0x128>)
 8001c3a:	d926      	bls.n	8001c8a <HAL_I2C_Master_Transmit+0xba>
 8001c3c:	22ff      	movs	r2, #255	; 0xff
 8001c3e:	8522      	strh	r2, [r4, #40]	; 0x28
 8001c40:	9300      	str	r3, [sp, #0]
 8001c42:	f04f 7380 	mov.w	r3, #16777216	; 0x1000000
 8001c46:	4631      	mov	r1, r6
 8001c48:	4620      	mov	r0, r4
 8001c4a:	f7ff fe59 	bl	8001900 <I2C_TransferConfig>
 8001c4e:	8d63      	ldrh	r3, [r4, #42]	; 0x2a
 8001c50:	b29b      	uxth	r3, r3
 8001c52:	462a      	mov	r2, r5
 8001c54:	4639      	mov	r1, r7
 8001c56:	4620      	mov	r0, r4
 8001c58:	b9fb      	cbnz	r3, 8001c9a <HAL_I2C_Master_Transmit+0xca>
 8001c5a:	f7ff ff43 	bl	8001ae4 <I2C_WaitOnSTOPFlagUntilTimeout>
 8001c5e:	2800      	cmp	r0, #0
 8001c60:	d1d7      	bne.n	8001c12 <HAL_I2C_Master_Transmit+0x42>
 8001c62:	6823      	ldr	r3, [r4, #0]
 8001c64:	2120      	movs	r1, #32
 8001c66:	61d9      	str	r1, [r3, #28]
 8001c68:	685a      	ldr	r2, [r3, #4]
 8001c6a:	f022 72ff 	bic.w	r2, r2, #33423360	; 0x1fe0000
 8001c6e:	f422 328b 	bic.w	r2, r2, #71168	; 0x11600
 8001c72:	f422 72ff 	bic.w	r2, r2, #510	; 0x1fe
 8001c76:	f022 0201 	bic.w	r2, r2, #1
 8001c7a:	605a      	str	r2, [r3, #4]
 8001c7c:	f884 1041 	strb.w	r1, [r4, #65]	; 0x41
 8001c80:	f884 0040 	strb.w	r0, [r4, #64]	; 0x40
 8001c84:	f884 0042 	strb.w	r0, [r4, #66]	; 0x42
 8001c88:	e7c4      	b.n	8001c14 <HAL_I2C_Master_Transmit+0x44>
 8001c8a:	8d62      	ldrh	r2, [r4, #42]	; 0x2a
 8001c8c:	9300      	str	r3, [sp, #0]
 8001c8e:	b292      	uxth	r2, r2
 8001c90:	8522      	strh	r2, [r4, #40]	; 0x28
 8001c92:	f04f 7300 	mov.w	r3, #33554432	; 0x2000000
 8001c96:	b2d2      	uxtb	r2, r2
 8001c98:	e7d5      	b.n	8001c46 <HAL_I2C_Master_Transmit+0x76>
 8001c9a:	f7ff fed2 	bl	8001a42 <I2C_WaitOnTXISFlagUntilTimeout>
 8001c9e:	2800      	cmp	r0, #0
 8001ca0:	d1b7      	bne.n	8001c12 <HAL_I2C_Master_Transmit+0x42>
 8001ca2:	6a63      	ldr	r3, [r4, #36]	; 0x24
 8001ca4:	6822      	ldr	r2, [r4, #0]
 8001ca6:	f813 1b01 	ldrb.w	r1, [r3], #1
 8001caa:	6291      	str	r1, [r2, #40]	; 0x28
 8001cac:	6263      	str	r3, [r4, #36]	; 0x24
 8001cae:	8d63      	ldrh	r3, [r4, #42]	; 0x2a
 8001cb0:	8d22      	ldrh	r2, [r4, #40]	; 0x28
 8001cb2:	3b01      	subs	r3, #1
 8001cb4:	b29b      	uxth	r3, r3
 8001cb6:	8563      	strh	r3, [r4, #42]	; 0x2a
 8001cb8:	8d63      	ldrh	r3, [r4, #42]	; 0x2a
 8001cba:	3a01      	subs	r2, #1
 8001cbc:	b292      	uxth	r2, r2
 8001cbe:	b29b      	uxth	r3, r3
 8001cc0:	8522      	strh	r2, [r4, #40]	; 0x28
 8001cc2:	2b00      	cmp	r3, #0
 8001cc4:	d0c3      	beq.n	8001c4e <HAL_I2C_Master_Transmit+0x7e>
 8001cc6:	2a00      	cmp	r2, #0
 8001cc8:	d1c1      	bne.n	8001c4e <HAL_I2C_Master_Transmit+0x7e>
 8001cca:	9500      	str	r5, [sp, #0]
 8001ccc:	463b      	mov	r3, r7
 8001cce:	2180      	movs	r1, #128	; 0x80
 8001cd0:	4620      	mov	r0, r4
 8001cd2:	f7ff fedd 	bl	8001a90 <I2C_WaitOnFlagUntilTimeout>
 8001cd6:	2800      	cmp	r0, #0
 8001cd8:	d19b      	bne.n	8001c12 <HAL_I2C_Master_Transmit+0x42>
 8001cda:	8d63      	ldrh	r3, [r4, #42]	; 0x2a
 8001cdc:	b29b      	uxth	r3, r3
 8001cde:	2bff      	cmp	r3, #255	; 0xff
 8001ce0:	d903      	bls.n	8001cea <HAL_I2C_Master_Transmit+0x11a>
 8001ce2:	22ff      	movs	r2, #255	; 0xff
 8001ce4:	8522      	strh	r2, [r4, #40]	; 0x28
 8001ce6:	9000      	str	r0, [sp, #0]
 8001ce8:	e7ab      	b.n	8001c42 <HAL_I2C_Master_Transmit+0x72>
 8001cea:	8d62      	ldrh	r2, [r4, #42]	; 0x2a
 8001cec:	9000      	str	r0, [sp, #0]
 8001cee:	b292      	uxth	r2, r2
 8001cf0:	8522      	strh	r2, [r4, #40]	; 0x28
 8001cf2:	e7ce      	b.n	8001c92 <HAL_I2C_Master_Transmit+0xc2>
 8001cf4:	2002      	movs	r0, #2
 8001cf6:	e78d      	b.n	8001c14 <HAL_I2C_Master_Transmit+0x44>
 8001cf8:	80002000 	.word	0x80002000

08001cfc <HAL_I2CEx_ConfigAnalogFilter>:
 8001cfc:	b510      	push	{r4, lr}
 8001cfe:	f890 3041 	ldrb.w	r3, [r0, #65]	; 0x41
 8001d02:	2b20      	cmp	r3, #32
 8001d04:	b2dc      	uxtb	r4, r3
 8001d06:	d11d      	bne.n	8001d44 <HAL_I2CEx_ConfigAnalogFilter+0x48>
 8001d08:	f890 3040 	ldrb.w	r3, [r0, #64]	; 0x40
 8001d0c:	2b01      	cmp	r3, #1
 8001d0e:	d019      	beq.n	8001d44 <HAL_I2CEx_ConfigAnalogFilter+0x48>
 8001d10:	2324      	movs	r3, #36	; 0x24
 8001d12:	f880 3041 	strb.w	r3, [r0, #65]	; 0x41
 8001d16:	6803      	ldr	r3, [r0, #0]
 8001d18:	681a      	ldr	r2, [r3, #0]
 8001d1a:	f022 0201 	bic.w	r2, r2, #1
 8001d1e:	601a      	str	r2, [r3, #0]
 8001d20:	681a      	ldr	r2, [r3, #0]
 8001d22:	f422 5280 	bic.w	r2, r2, #4096	; 0x1000
 8001d26:	601a      	str	r2, [r3, #0]
 8001d28:	681a      	ldr	r2, [r3, #0]
 8001d2a:	4311      	orrs	r1, r2
 8001d2c:	6019      	str	r1, [r3, #0]
 8001d2e:	681a      	ldr	r2, [r3, #0]
 8001d30:	f042 0201 	orr.w	r2, r2, #1
 8001d34:	601a      	str	r2, [r3, #0]
 8001d36:	2300      	movs	r3, #0
 8001d38:	f880 4041 	strb.w	r4, [r0, #65]	; 0x41
 8001d3c:	f880 3040 	strb.w	r3, [r0, #64]	; 0x40
 8001d40:	4618      	mov	r0, r3
 8001d42:	bd10      	pop	{r4, pc}
 8001d44:	2002      	movs	r0, #2
 8001d46:	e7fc      	b.n	8001d42 <HAL_I2CEx_ConfigAnalogFilter+0x46>

08001d48 <HAL_I2CEx_ConfigDigitalFilter>:
 8001d48:	b510      	push	{r4, lr}
 8001d4a:	f890 3041 	ldrb.w	r3, [r0, #65]	; 0x41
 8001d4e:	2b20      	cmp	r3, #32
 8001d50:	b2dc      	uxtb	r4, r3
 8001d52:	d11c      	bne.n	8001d8e <HAL_I2CEx_ConfigDigitalFilter+0x46>
 8001d54:	f890 3040 	ldrb.w	r3, [r0, #64]	; 0x40
 8001d58:	2b01      	cmp	r3, #1
 8001d5a:	d018      	beq.n	8001d8e <HAL_I2CEx_ConfigDigitalFilter+0x46>
 8001d5c:	2324      	movs	r3, #36	; 0x24
 8001d5e:	f880 3041 	strb.w	r3, [r0, #65]	; 0x41
 8001d62:	6803      	ldr	r3, [r0, #0]
 8001d64:	681a      	ldr	r2, [r3, #0]
 8001d66:	f022 0201 	bic.w	r2, r2, #1
 8001d6a:	601a      	str	r2, [r3, #0]
 8001d6c:	681a      	ldr	r2, [r3, #0]
 8001d6e:	f422 6270 	bic.w	r2, r2, #3840	; 0xf00
 8001d72:	ea42 2101 	orr.w	r1, r2, r1, lsl #8
 8001d76:	6019      	str	r1, [r3, #0]
 8001d78:	681a      	ldr	r2, [r3, #0]
 8001d7a:	f042 0201 	orr.w	r2, r2, #1
 8001d7e:	601a      	str	r2, [r3, #0]
 8001d80:	2300      	movs	r3, #0
 8001d82:	f880 4041 	strb.w	r4, [r0, #65]	; 0x41
 8001d86:	f880 3040 	strb.w	r3, [r0, #64]	; 0x40
 8001d8a:	4618      	mov	r0, r3
 8001d8c:	bd10      	pop	{r4, pc}
 8001d8e:	2002      	movs	r0, #2
 8001d90:	e7fc      	b.n	8001d8c <HAL_I2CEx_ConfigDigitalFilter+0x44>
	...

08001d94 <HAL_PWREx_GetVoltageRange>:
 8001d94:	4b02      	ldr	r3, [pc, #8]	; (8001da0 <HAL_PWREx_GetVoltageRange+0xc>)
 8001d96:	6818      	ldr	r0, [r3, #0]
 8001d98:	f400 60c0 	and.w	r0, r0, #1536	; 0x600
 8001d9c:	4770      	bx	lr
 8001d9e:	bf00      	nop
 8001da0:	40007000 	.word	0x40007000

08001da4 <HAL_PWREx_ControlVoltageScaling>:
 8001da4:	4a17      	ldr	r2, [pc, #92]	; (8001e04 <HAL_PWREx_ControlVoltageScaling+0x60>)
 8001da6:	6813      	ldr	r3, [r2, #0]
 8001da8:	f5b0 7f00 	cmp.w	r0, #512	; 0x200
 8001dac:	f403 63c0 	and.w	r3, r3, #1536	; 0x600
 8001db0:	d11d      	bne.n	8001dee <HAL_PWREx_ControlVoltageScaling+0x4a>
 8001db2:	f5b3 7f00 	cmp.w	r3, #512	; 0x200
 8001db6:	d101      	bne.n	8001dbc <HAL_PWREx_ControlVoltageScaling+0x18>
 8001db8:	2000      	movs	r0, #0
 8001dba:	4770      	bx	lr
 8001dbc:	6813      	ldr	r3, [r2, #0]
 8001dbe:	f423 63c0 	bic.w	r3, r3, #1536	; 0x600
 8001dc2:	f443 7300 	orr.w	r3, r3, #512	; 0x200
 8001dc6:	6013      	str	r3, [r2, #0]
 8001dc8:	4b0f      	ldr	r3, [pc, #60]	; (8001e08 <HAL_PWREx_ControlVoltageScaling+0x64>)
 8001dca:	681b      	ldr	r3, [r3, #0]
 8001dcc:	2132      	movs	r1, #50	; 0x32
 8001dce:	434b      	muls	r3, r1
 8001dd0:	490e      	ldr	r1, [pc, #56]	; (8001e0c <HAL_PWREx_ControlVoltageScaling+0x68>)
 8001dd2:	fbb3 f3f1 	udiv	r3, r3, r1
 8001dd6:	3301      	adds	r3, #1
 8001dd8:	6951      	ldr	r1, [r2, #20]
 8001dda:	0549      	lsls	r1, r1, #21
 8001ddc:	d500      	bpl.n	8001de0 <HAL_PWREx_ControlVoltageScaling+0x3c>
 8001dde:	b923      	cbnz	r3, 8001dea <HAL_PWREx_ControlVoltageScaling+0x46>
 8001de0:	6953      	ldr	r3, [r2, #20]
 8001de2:	055b      	lsls	r3, r3, #21
 8001de4:	d5e8      	bpl.n	8001db8 <HAL_PWREx_ControlVoltageScaling+0x14>
 8001de6:	2003      	movs	r0, #3
 8001de8:	4770      	bx	lr
 8001dea:	3b01      	subs	r3, #1
 8001dec:	e7f4      	b.n	8001dd8 <HAL_PWREx_ControlVoltageScaling+0x34>
 8001dee:	f5b3 6f80 	cmp.w	r3, #1024	; 0x400
 8001df2:	bf1f      	itttt	ne
 8001df4:	6813      	ldrne	r3, [r2, #0]
 8001df6:	f423 63c0 	bicne.w	r3, r3, #1536	; 0x600
 8001dfa:	f443 6380 	orrne.w	r3, r3, #1024	; 0x400
 8001dfe:	6013      	strne	r3, [r2, #0]
 8001e00:	e7da      	b.n	8001db8 <HAL_PWREx_ControlVoltageScaling+0x14>
 8001e02:	bf00      	nop
 8001e04:	40007000 	.word	0x40007000
 8001e08:	20000000 	.word	0x20000000
 8001e0c:	000f4240 	.word	0x000f4240

08001e10 <RCC_SetFlashLatencyFromMSIRange>:
 8001e10:	b537      	push	{r0, r1, r2, r4, r5, lr}
 8001e12:	4d1e      	ldr	r5, [pc, #120]	; (8001e8c <RCC_SetFlashLatencyFromMSIRange+0x7c>)
 8001e14:	6dab      	ldr	r3, [r5, #88]	; 0x58
 8001e16:	00da      	lsls	r2, r3, #3
 8001e18:	4604      	mov	r4, r0
 8001e1a:	d518      	bpl.n	8001e4e <RCC_SetFlashLatencyFromMSIRange+0x3e>
 8001e1c:	f7ff ffba 	bl	8001d94 <HAL_PWREx_GetVoltageRange>
 8001e20:	f5b0 7f00 	cmp.w	r0, #512	; 0x200
 8001e24:	d123      	bne.n	8001e6e <RCC_SetFlashLatencyFromMSIRange+0x5e>
 8001e26:	2c80      	cmp	r4, #128	; 0x80
 8001e28:	d929      	bls.n	8001e7e <RCC_SetFlashLatencyFromMSIRange+0x6e>
 8001e2a:	2ca0      	cmp	r4, #160	; 0xa0
 8001e2c:	bf8c      	ite	hi
 8001e2e:	2002      	movhi	r0, #2
 8001e30:	2001      	movls	r0, #1
 8001e32:	4a17      	ldr	r2, [pc, #92]	; (8001e90 <RCC_SetFlashLatencyFromMSIRange+0x80>)
 8001e34:	6813      	ldr	r3, [r2, #0]
 8001e36:	f023 0307 	bic.w	r3, r3, #7
 8001e3a:	4303      	orrs	r3, r0
 8001e3c:	6013      	str	r3, [r2, #0]
 8001e3e:	6813      	ldr	r3, [r2, #0]
 8001e40:	f003 0307 	and.w	r3, r3, #7
 8001e44:	1a18      	subs	r0, r3, r0
 8001e46:	bf18      	it	ne
 8001e48:	2001      	movne	r0, #1
 8001e4a:	b003      	add	sp, #12
 8001e4c:	bd30      	pop	{r4, r5, pc}
 8001e4e:	6dab      	ldr	r3, [r5, #88]	; 0x58
 8001e50:	f043 5380 	orr.w	r3, r3, #268435456	; 0x10000000
 8001e54:	65ab      	str	r3, [r5, #88]	; 0x58
 8001e56:	6dab      	ldr	r3, [r5, #88]	; 0x58
 8001e58:	f003 5380 	and.w	r3, r3, #268435456	; 0x10000000
 8001e5c:	9301      	str	r3, [sp, #4]
 8001e5e:	9b01      	ldr	r3, [sp, #4]
 8001e60:	f7ff ff98 	bl	8001d94 <HAL_PWREx_GetVoltageRange>
 8001e64:	6dab      	ldr	r3, [r5, #88]	; 0x58
 8001e66:	f023 5380 	bic.w	r3, r3, #268435456	; 0x10000000
 8001e6a:	65ab      	str	r3, [r5, #88]	; 0x58
 8001e6c:	e7d8      	b.n	8001e20 <RCC_SetFlashLatencyFromMSIRange+0x10>
 8001e6e:	2c80      	cmp	r4, #128	; 0x80
 8001e70:	d807      	bhi.n	8001e82 <RCC_SetFlashLatencyFromMSIRange+0x72>
 8001e72:	d008      	beq.n	8001e86 <RCC_SetFlashLatencyFromMSIRange+0x76>
 8001e74:	f1a4 0370 	sub.w	r3, r4, #112	; 0x70
 8001e78:	4258      	negs	r0, r3
 8001e7a:	4158      	adcs	r0, r3
 8001e7c:	e7d9      	b.n	8001e32 <RCC_SetFlashLatencyFromMSIRange+0x22>
 8001e7e:	2000      	movs	r0, #0
 8001e80:	e7d7      	b.n	8001e32 <RCC_SetFlashLatencyFromMSIRange+0x22>
 8001e82:	2003      	movs	r0, #3
 8001e84:	e7d5      	b.n	8001e32 <RCC_SetFlashLatencyFromMSIRange+0x22>
 8001e86:	2002      	movs	r0, #2
 8001e88:	e7d3      	b.n	8001e32 <RCC_SetFlashLatencyFromMSIRange+0x22>
 8001e8a:	bf00      	nop
 8001e8c:	40021000 	.word	0x40021000
 8001e90:	40022000 	.word	0x40022000

08001e94 <HAL_RCC_GetSysClockFreq>:
 8001e94:	4b22      	ldr	r3, [pc, #136]	; (8001f20 <HAL_RCC_GetSysClockFreq+0x8c>)
 8001e96:	689a      	ldr	r2, [r3, #8]
 8001e98:	68d9      	ldr	r1, [r3, #12]
 8001e9a:	f012 020c 	ands.w	r2, r2, #12
 8001e9e:	d005      	beq.n	8001eac <HAL_RCC_GetSysClockFreq+0x18>
 8001ea0:	2a0c      	cmp	r2, #12
 8001ea2:	d115      	bne.n	8001ed0 <HAL_RCC_GetSysClockFreq+0x3c>
 8001ea4:	f001 0103 	and.w	r1, r1, #3
 8001ea8:	2901      	cmp	r1, #1
 8001eaa:	d118      	bne.n	8001ede <HAL_RCC_GetSysClockFreq+0x4a>
 8001eac:	6819      	ldr	r1, [r3, #0]
 8001eae:	481d      	ldr	r0, [pc, #116]	; (8001f24 <HAL_RCC_GetSysClockFreq+0x90>)
 8001eb0:	0709      	lsls	r1, r1, #28
 8001eb2:	bf55      	itete	pl
 8001eb4:	f8d3 1094 	ldrpl.w	r1, [r3, #148]	; 0x94
 8001eb8:	6819      	ldrmi	r1, [r3, #0]
 8001eba:	f3c1 2103 	ubfxpl	r1, r1, #8, #4
 8001ebe:	f3c1 1103 	ubfxmi	r1, r1, #4, #4
 8001ec2:	f850 0021 	ldr.w	r0, [r0, r1, lsl #2]
 8001ec6:	b34a      	cbz	r2, 8001f1c <HAL_RCC_GetSysClockFreq+0x88>
 8001ec8:	2a0c      	cmp	r2, #12
 8001eca:	d009      	beq.n	8001ee0 <HAL_RCC_GetSysClockFreq+0x4c>
 8001ecc:	2000      	movs	r0, #0
 8001ece:	4770      	bx	lr
 8001ed0:	2a04      	cmp	r2, #4
 8001ed2:	d022      	beq.n	8001f1a <HAL_RCC_GetSysClockFreq+0x86>
 8001ed4:	2a08      	cmp	r2, #8
 8001ed6:	4814      	ldr	r0, [pc, #80]	; (8001f28 <HAL_RCC_GetSysClockFreq+0x94>)
 8001ed8:	bf18      	it	ne
 8001eda:	2000      	movne	r0, #0
 8001edc:	4770      	bx	lr
 8001ede:	2000      	movs	r0, #0
 8001ee0:	68da      	ldr	r2, [r3, #12]
 8001ee2:	f002 0203 	and.w	r2, r2, #3
 8001ee6:	2a02      	cmp	r2, #2
 8001ee8:	d015      	beq.n	8001f16 <HAL_RCC_GetSysClockFreq+0x82>
 8001eea:	490f      	ldr	r1, [pc, #60]	; (8001f28 <HAL_RCC_GetSysClockFreq+0x94>)
 8001eec:	2a03      	cmp	r2, #3
 8001eee:	bf08      	it	eq
 8001ef0:	4608      	moveq	r0, r1
 8001ef2:	68d9      	ldr	r1, [r3, #12]
 8001ef4:	68da      	ldr	r2, [r3, #12]
 8001ef6:	f3c2 2206 	ubfx	r2, r2, #8, #7
 8001efa:	4342      	muls	r2, r0
 8001efc:	68d8      	ldr	r0, [r3, #12]
 8001efe:	f3c0 6041 	ubfx	r0, r0, #25, #2
 8001f02:	f3c1 1102 	ubfx	r1, r1, #4, #3
 8001f06:	3001      	adds	r0, #1
 8001f08:	3101      	adds	r1, #1
 8001f0a:	0040      	lsls	r0, r0, #1
 8001f0c:	fbb2 f2f1 	udiv	r2, r2, r1
 8001f10:	fbb2 f0f0 	udiv	r0, r2, r0
 8001f14:	4770      	bx	lr
 8001f16:	4805      	ldr	r0, [pc, #20]	; (8001f2c <HAL_RCC_GetSysClockFreq+0x98>)
 8001f18:	e7eb      	b.n	8001ef2 <HAL_RCC_GetSysClockFreq+0x5e>
 8001f1a:	4804      	ldr	r0, [pc, #16]	; (8001f2c <HAL_RCC_GetSysClockFreq+0x98>)
 8001f1c:	4770      	bx	lr
 8001f1e:	bf00      	nop
 8001f20:	40021000 	.word	0x40021000
 8001f24:	08002c4c 	.word	0x08002c4c
 8001f28:	007a1200 	.word	0x007a1200
 8001f2c:	00f42400 	.word	0x00f42400

08001f30 <HAL_RCC_OscConfig>:
 8001f30:	e92d 43f7 	stmdb	sp!, {r0, r1, r2, r4, r5, r6, r7, r8, r9, lr}
 8001f34:	4605      	mov	r5, r0
 8001f36:	b908      	cbnz	r0, 8001f3c <HAL_RCC_OscConfig+0xc>
 8001f38:	2001      	movs	r0, #1
 8001f3a:	e047      	b.n	8001fcc <HAL_RCC_OscConfig+0x9c>
 8001f3c:	4c94      	ldr	r4, [pc, #592]	; (8002190 <HAL_RCC_OscConfig+0x260>)
 8001f3e:	6803      	ldr	r3, [r0, #0]
 8001f40:	68a6      	ldr	r6, [r4, #8]
 8001f42:	68e7      	ldr	r7, [r4, #12]
 8001f44:	06db      	lsls	r3, r3, #27
 8001f46:	f006 060c 	and.w	r6, r6, #12
 8001f4a:	f007 0703 	and.w	r7, r7, #3
 8001f4e:	d575      	bpl.n	800203c <HAL_RCC_OscConfig+0x10c>
 8001f50:	b11e      	cbz	r6, 8001f5a <HAL_RCC_OscConfig+0x2a>
 8001f52:	2e0c      	cmp	r6, #12
 8001f54:	d154      	bne.n	8002000 <HAL_RCC_OscConfig+0xd0>
 8001f56:	2f01      	cmp	r7, #1
 8001f58:	d152      	bne.n	8002000 <HAL_RCC_OscConfig+0xd0>
 8001f5a:	6823      	ldr	r3, [r4, #0]
 8001f5c:	0798      	lsls	r0, r3, #30
 8001f5e:	d502      	bpl.n	8001f66 <HAL_RCC_OscConfig+0x36>
 8001f60:	69ab      	ldr	r3, [r5, #24]
 8001f62:	2b00      	cmp	r3, #0
 8001f64:	d0e8      	beq.n	8001f38 <HAL_RCC_OscConfig+0x8>
 8001f66:	6823      	ldr	r3, [r4, #0]
 8001f68:	6a28      	ldr	r0, [r5, #32]
 8001f6a:	0719      	lsls	r1, r3, #28
 8001f6c:	bf56      	itet	pl
 8001f6e:	f8d4 3094 	ldrpl.w	r3, [r4, #148]	; 0x94
 8001f72:	6823      	ldrmi	r3, [r4, #0]
 8001f74:	091b      	lsrpl	r3, r3, #4
 8001f76:	f003 03f0 	and.w	r3, r3, #240	; 0xf0
 8001f7a:	4298      	cmp	r0, r3
 8001f7c:	d929      	bls.n	8001fd2 <HAL_RCC_OscConfig+0xa2>
 8001f7e:	f7ff ff47 	bl	8001e10 <RCC_SetFlashLatencyFromMSIRange>
 8001f82:	2800      	cmp	r0, #0
 8001f84:	d1d8      	bne.n	8001f38 <HAL_RCC_OscConfig+0x8>
 8001f86:	6823      	ldr	r3, [r4, #0]
 8001f88:	f043 0308 	orr.w	r3, r3, #8
 8001f8c:	6023      	str	r3, [r4, #0]
 8001f8e:	6823      	ldr	r3, [r4, #0]
 8001f90:	6a2a      	ldr	r2, [r5, #32]
 8001f92:	f023 03f0 	bic.w	r3, r3, #240	; 0xf0
 8001f96:	4313      	orrs	r3, r2
 8001f98:	6023      	str	r3, [r4, #0]
 8001f9a:	6863      	ldr	r3, [r4, #4]
 8001f9c:	69ea      	ldr	r2, [r5, #28]
 8001f9e:	f423 437f 	bic.w	r3, r3, #65280	; 0xff00
 8001fa2:	ea43 2302 	orr.w	r3, r3, r2, lsl #8
 8001fa6:	6063      	str	r3, [r4, #4]
 8001fa8:	f7ff ff74 	bl	8001e94 <HAL_RCC_GetSysClockFreq>
 8001fac:	68a3      	ldr	r3, [r4, #8]
 8001fae:	4a79      	ldr	r2, [pc, #484]	; (8002194 <HAL_RCC_OscConfig+0x264>)
 8001fb0:	f3c3 1303 	ubfx	r3, r3, #4, #4
 8001fb4:	5cd3      	ldrb	r3, [r2, r3]
 8001fb6:	f003 031f 	and.w	r3, r3, #31
 8001fba:	40d8      	lsrs	r0, r3
 8001fbc:	4b76      	ldr	r3, [pc, #472]	; (8002198 <HAL_RCC_OscConfig+0x268>)
 8001fbe:	6018      	str	r0, [r3, #0]
 8001fc0:	4b76      	ldr	r3, [pc, #472]	; (800219c <HAL_RCC_OscConfig+0x26c>)
 8001fc2:	6818      	ldr	r0, [r3, #0]
 8001fc4:	f7fe fd70 	bl	8000aa8 <HAL_InitTick>
 8001fc8:	2800      	cmp	r0, #0
 8001fca:	d037      	beq.n	800203c <HAL_RCC_OscConfig+0x10c>
 8001fcc:	b003      	add	sp, #12
 8001fce:	e8bd 83f0 	ldmia.w	sp!, {r4, r5, r6, r7, r8, r9, pc}
 8001fd2:	6823      	ldr	r3, [r4, #0]
 8001fd4:	f043 0308 	orr.w	r3, r3, #8
 8001fd8:	6023      	str	r3, [r4, #0]
 8001fda:	6823      	ldr	r3, [r4, #0]
 8001fdc:	f023 03f0 	bic.w	r3, r3, #240	; 0xf0
 8001fe0:	4303      	orrs	r3, r0
 8001fe2:	6023      	str	r3, [r4, #0]
 8001fe4:	6863      	ldr	r3, [r4, #4]
 8001fe6:	69ea      	ldr	r2, [r5, #28]
 8001fe8:	f423 437f 	bic.w	r3, r3, #65280	; 0xff00
 8001fec:	ea43 2302 	orr.w	r3, r3, r2, lsl #8
 8001ff0:	6063      	str	r3, [r4, #4]
 8001ff2:	2e00      	cmp	r6, #0
 8001ff4:	d1d8      	bne.n	8001fa8 <HAL_RCC_OscConfig+0x78>
 8001ff6:	f7ff ff0b 	bl	8001e10 <RCC_SetFlashLatencyFromMSIRange>
 8001ffa:	2800      	cmp	r0, #0
 8001ffc:	d0d4      	beq.n	8001fa8 <HAL_RCC_OscConfig+0x78>
 8001ffe:	e79b      	b.n	8001f38 <HAL_RCC_OscConfig+0x8>
 8002000:	69ab      	ldr	r3, [r5, #24]
 8002002:	2b00      	cmp	r3, #0
 8002004:	d03a      	beq.n	800207c <HAL_RCC_OscConfig+0x14c>
 8002006:	6823      	ldr	r3, [r4, #0]
 8002008:	f043 0301 	orr.w	r3, r3, #1
 800200c:	6023      	str	r3, [r4, #0]
 800200e:	f7fe fd8d 	bl	8000b2c <HAL_GetTick>
 8002012:	4680      	mov	r8, r0
 8002014:	6823      	ldr	r3, [r4, #0]
 8002016:	079a      	lsls	r2, r3, #30
 8002018:	d528      	bpl.n	800206c <HAL_RCC_OscConfig+0x13c>
 800201a:	6823      	ldr	r3, [r4, #0]
 800201c:	f043 0308 	orr.w	r3, r3, #8
 8002020:	6023      	str	r3, [r4, #0]
 8002022:	6823      	ldr	r3, [r4, #0]
 8002024:	6a2a      	ldr	r2, [r5, #32]
 8002026:	f023 03f0 	bic.w	r3, r3, #240	; 0xf0
 800202a:	4313      	orrs	r3, r2
 800202c:	6023      	str	r3, [r4, #0]
 800202e:	6863      	ldr	r3, [r4, #4]
 8002030:	69ea      	ldr	r2, [r5, #28]
 8002032:	f423 437f 	bic.w	r3, r3, #65280	; 0xff00
 8002036:	ea43 2302 	orr.w	r3, r3, r2, lsl #8
 800203a:	6063      	str	r3, [r4, #4]
 800203c:	682b      	ldr	r3, [r5, #0]
 800203e:	07d8      	lsls	r0, r3, #31
 8002040:	d42d      	bmi.n	800209e <HAL_RCC_OscConfig+0x16e>
 8002042:	682b      	ldr	r3, [r5, #0]
 8002044:	0799      	lsls	r1, r3, #30
 8002046:	d46b      	bmi.n	8002120 <HAL_RCC_OscConfig+0x1f0>
 8002048:	682b      	ldr	r3, [r5, #0]
 800204a:	0718      	lsls	r0, r3, #28
 800204c:	f100 80a8 	bmi.w	80021a0 <HAL_RCC_OscConfig+0x270>
 8002050:	682b      	ldr	r3, [r5, #0]
 8002052:	0759      	lsls	r1, r3, #29
 8002054:	f100 80ce 	bmi.w	80021f4 <HAL_RCC_OscConfig+0x2c4>
 8002058:	682b      	ldr	r3, [r5, #0]
 800205a:	0699      	lsls	r1, r3, #26
 800205c:	f100 8137 	bmi.w	80022ce <HAL_RCC_OscConfig+0x39e>
 8002060:	6aab      	ldr	r3, [r5, #40]	; 0x28
 8002062:	2b00      	cmp	r3, #0
 8002064:	f040 815d 	bne.w	8002322 <HAL_RCC_OscConfig+0x3f2>
 8002068:	2000      	movs	r0, #0
 800206a:	e7af      	b.n	8001fcc <HAL_RCC_OscConfig+0x9c>
 800206c:	f7fe fd5e 	bl	8000b2c <HAL_GetTick>
 8002070:	eba0 0008 	sub.w	r0, r0, r8
 8002074:	2802      	cmp	r0, #2
 8002076:	d9cd      	bls.n	8002014 <HAL_RCC_OscConfig+0xe4>
 8002078:	2003      	movs	r0, #3
 800207a:	e7a7      	b.n	8001fcc <HAL_RCC_OscConfig+0x9c>
 800207c:	6823      	ldr	r3, [r4, #0]
 800207e:	f023 0301 	bic.w	r3, r3, #1
 8002082:	6023      	str	r3, [r4, #0]
 8002084:	f7fe fd52 	bl	8000b2c <HAL_GetTick>
 8002088:	4680      	mov	r8, r0
 800208a:	6823      	ldr	r3, [r4, #0]
 800208c:	079b      	lsls	r3, r3, #30
 800208e:	d5d5      	bpl.n	800203c <HAL_RCC_OscConfig+0x10c>
 8002090:	f7fe fd4c 	bl	8000b2c <HAL_GetTick>
 8002094:	eba0 0008 	sub.w	r0, r0, r8
 8002098:	2802      	cmp	r0, #2
 800209a:	d9f6      	bls.n	800208a <HAL_RCC_OscConfig+0x15a>
 800209c:	e7ec      	b.n	8002078 <HAL_RCC_OscConfig+0x148>
 800209e:	2e08      	cmp	r6, #8
 80020a0:	d003      	beq.n	80020aa <HAL_RCC_OscConfig+0x17a>
 80020a2:	2e0c      	cmp	r6, #12
 80020a4:	d108      	bne.n	80020b8 <HAL_RCC_OscConfig+0x188>
 80020a6:	2f03      	cmp	r7, #3
 80020a8:	d106      	bne.n	80020b8 <HAL_RCC_OscConfig+0x188>
 80020aa:	6823      	ldr	r3, [r4, #0]
 80020ac:	039a      	lsls	r2, r3, #14
 80020ae:	d5c8      	bpl.n	8002042 <HAL_RCC_OscConfig+0x112>
 80020b0:	686b      	ldr	r3, [r5, #4]
 80020b2:	2b00      	cmp	r3, #0
 80020b4:	d1c5      	bne.n	8002042 <HAL_RCC_OscConfig+0x112>
 80020b6:	e73f      	b.n	8001f38 <HAL_RCC_OscConfig+0x8>
 80020b8:	686b      	ldr	r3, [r5, #4]
 80020ba:	f5b3 3f80 	cmp.w	r3, #65536	; 0x10000
 80020be:	d110      	bne.n	80020e2 <HAL_RCC_OscConfig+0x1b2>
 80020c0:	6823      	ldr	r3, [r4, #0]
 80020c2:	f443 3380 	orr.w	r3, r3, #65536	; 0x10000
 80020c6:	6023      	str	r3, [r4, #0]
 80020c8:	f7fe fd30 	bl	8000b2c <HAL_GetTick>
 80020cc:	4680      	mov	r8, r0
 80020ce:	6823      	ldr	r3, [r4, #0]
 80020d0:	039b      	lsls	r3, r3, #14
 80020d2:	d4b6      	bmi.n	8002042 <HAL_RCC_OscConfig+0x112>
 80020d4:	f7fe fd2a 	bl	8000b2c <HAL_GetTick>
 80020d8:	eba0 0008 	sub.w	r0, r0, r8
 80020dc:	2864      	cmp	r0, #100	; 0x64
 80020de:	d9f6      	bls.n	80020ce <HAL_RCC_OscConfig+0x19e>
 80020e0:	e7ca      	b.n	8002078 <HAL_RCC_OscConfig+0x148>
 80020e2:	f5b3 2fa0 	cmp.w	r3, #327680	; 0x50000
 80020e6:	d104      	bne.n	80020f2 <HAL_RCC_OscConfig+0x1c2>
 80020e8:	6823      	ldr	r3, [r4, #0]
 80020ea:	f443 2380 	orr.w	r3, r3, #262144	; 0x40000
 80020ee:	6023      	str	r3, [r4, #0]
 80020f0:	e7e6      	b.n	80020c0 <HAL_RCC_OscConfig+0x190>
 80020f2:	6822      	ldr	r2, [r4, #0]
 80020f4:	f422 3280 	bic.w	r2, r2, #65536	; 0x10000
 80020f8:	6022      	str	r2, [r4, #0]
 80020fa:	6822      	ldr	r2, [r4, #0]
 80020fc:	f422 2280 	bic.w	r2, r2, #262144	; 0x40000
 8002100:	6022      	str	r2, [r4, #0]
 8002102:	2b00      	cmp	r3, #0
 8002104:	d1e0      	bne.n	80020c8 <HAL_RCC_OscConfig+0x198>
 8002106:	f7fe fd11 	bl	8000b2c <HAL_GetTick>
 800210a:	4680      	mov	r8, r0
 800210c:	6823      	ldr	r3, [r4, #0]
 800210e:	0398      	lsls	r0, r3, #14
 8002110:	d597      	bpl.n	8002042 <HAL_RCC_OscConfig+0x112>
 8002112:	f7fe fd0b 	bl	8000b2c <HAL_GetTick>
 8002116:	eba0 0008 	sub.w	r0, r0, r8
 800211a:	2864      	cmp	r0, #100	; 0x64
 800211c:	d9f6      	bls.n	800210c <HAL_RCC_OscConfig+0x1dc>
 800211e:	e7ab      	b.n	8002078 <HAL_RCC_OscConfig+0x148>
 8002120:	2e04      	cmp	r6, #4
 8002122:	d003      	beq.n	800212c <HAL_RCC_OscConfig+0x1fc>
 8002124:	2e0c      	cmp	r6, #12
 8002126:	d110      	bne.n	800214a <HAL_RCC_OscConfig+0x21a>
 8002128:	2f02      	cmp	r7, #2
 800212a:	d10e      	bne.n	800214a <HAL_RCC_OscConfig+0x21a>
 800212c:	6823      	ldr	r3, [r4, #0]
 800212e:	0559      	lsls	r1, r3, #21
 8002130:	d503      	bpl.n	800213a <HAL_RCC_OscConfig+0x20a>
 8002132:	68eb      	ldr	r3, [r5, #12]
 8002134:	2b00      	cmp	r3, #0
 8002136:	f43f aeff 	beq.w	8001f38 <HAL_RCC_OscConfig+0x8>
 800213a:	6863      	ldr	r3, [r4, #4]
 800213c:	692a      	ldr	r2, [r5, #16]
 800213e:	f023 43fe 	bic.w	r3, r3, #2130706432	; 0x7f000000
 8002142:	ea43 6302 	orr.w	r3, r3, r2, lsl #24
 8002146:	6063      	str	r3, [r4, #4]
 8002148:	e77e      	b.n	8002048 <HAL_RCC_OscConfig+0x118>
 800214a:	68eb      	ldr	r3, [r5, #12]
 800214c:	b17b      	cbz	r3, 800216e <HAL_RCC_OscConfig+0x23e>
 800214e:	6823      	ldr	r3, [r4, #0]
 8002150:	f443 7380 	orr.w	r3, r3, #256	; 0x100
 8002154:	6023      	str	r3, [r4, #0]
 8002156:	f7fe fce9 	bl	8000b2c <HAL_GetTick>
 800215a:	4607      	mov	r7, r0
 800215c:	6823      	ldr	r3, [r4, #0]
 800215e:	055a      	lsls	r2, r3, #21
 8002160:	d4eb      	bmi.n	800213a <HAL_RCC_OscConfig+0x20a>
 8002162:	f7fe fce3 	bl	8000b2c <HAL_GetTick>
 8002166:	1bc0      	subs	r0, r0, r7
 8002168:	2802      	cmp	r0, #2
 800216a:	d9f7      	bls.n	800215c <HAL_RCC_OscConfig+0x22c>
 800216c:	e784      	b.n	8002078 <HAL_RCC_OscConfig+0x148>
 800216e:	6823      	ldr	r3, [r4, #0]
 8002170:	f423 7380 	bic.w	r3, r3, #256	; 0x100
 8002174:	6023      	str	r3, [r4, #0]
 8002176:	f7fe fcd9 	bl	8000b2c <HAL_GetTick>
 800217a:	4607      	mov	r7, r0
 800217c:	6823      	ldr	r3, [r4, #0]
 800217e:	055b      	lsls	r3, r3, #21
 8002180:	f57f af62 	bpl.w	8002048 <HAL_RCC_OscConfig+0x118>
 8002184:	f7fe fcd2 	bl	8000b2c <HAL_GetTick>
 8002188:	1bc0      	subs	r0, r0, r7
 800218a:	2802      	cmp	r0, #2
 800218c:	d9f6      	bls.n	800217c <HAL_RCC_OscConfig+0x24c>
 800218e:	e773      	b.n	8002078 <HAL_RCC_OscConfig+0x148>
 8002190:	40021000 	.word	0x40021000
 8002194:	08002c3c 	.word	0x08002c3c
 8002198:	20000000 	.word	0x20000000
 800219c:	20000008 	.word	0x20000008
 80021a0:	696b      	ldr	r3, [r5, #20]
 80021a2:	b19b      	cbz	r3, 80021cc <HAL_RCC_OscConfig+0x29c>
 80021a4:	f8d4 3094 	ldr.w	r3, [r4, #148]	; 0x94
 80021a8:	f043 0301 	orr.w	r3, r3, #1
 80021ac:	f8c4 3094 	str.w	r3, [r4, #148]	; 0x94
 80021b0:	f7fe fcbc 	bl	8000b2c <HAL_GetTick>
 80021b4:	4607      	mov	r7, r0
 80021b6:	f8d4 3094 	ldr.w	r3, [r4, #148]	; 0x94
 80021ba:	079a      	lsls	r2, r3, #30
 80021bc:	f53f af48 	bmi.w	8002050 <HAL_RCC_OscConfig+0x120>
 80021c0:	f7fe fcb4 	bl	8000b2c <HAL_GetTick>
 80021c4:	1bc0      	subs	r0, r0, r7
 80021c6:	2802      	cmp	r0, #2
 80021c8:	d9f5      	bls.n	80021b6 <HAL_RCC_OscConfig+0x286>
 80021ca:	e755      	b.n	8002078 <HAL_RCC_OscConfig+0x148>
 80021cc:	f8d4 3094 	ldr.w	r3, [r4, #148]	; 0x94
 80021d0:	f023 0301 	bic.w	r3, r3, #1
 80021d4:	f8c4 3094 	str.w	r3, [r4, #148]	; 0x94
 80021d8:	f7fe fca8 	bl	8000b2c <HAL_GetTick>
 80021dc:	4607      	mov	r7, r0
 80021de:	f8d4 3094 	ldr.w	r3, [r4, #148]	; 0x94
 80021e2:	079b      	lsls	r3, r3, #30
 80021e4:	f57f af34 	bpl.w	8002050 <HAL_RCC_OscConfig+0x120>
 80021e8:	f7fe fca0 	bl	8000b2c <HAL_GetTick>
 80021ec:	1bc0      	subs	r0, r0, r7
 80021ee:	2802      	cmp	r0, #2
 80021f0:	d9f5      	bls.n	80021de <HAL_RCC_OscConfig+0x2ae>
 80021f2:	e741      	b.n	8002078 <HAL_RCC_OscConfig+0x148>
 80021f4:	6da3      	ldr	r3, [r4, #88]	; 0x58
 80021f6:	00d8      	lsls	r0, r3, #3
 80021f8:	d429      	bmi.n	800224e <HAL_RCC_OscConfig+0x31e>
 80021fa:	6da3      	ldr	r3, [r4, #88]	; 0x58
 80021fc:	f043 5380 	orr.w	r3, r3, #268435456	; 0x10000000
 8002200:	65a3      	str	r3, [r4, #88]	; 0x58
 8002202:	6da3      	ldr	r3, [r4, #88]	; 0x58
 8002204:	f003 5380 	and.w	r3, r3, #268435456	; 0x10000000
 8002208:	9301      	str	r3, [sp, #4]
 800220a:	9b01      	ldr	r3, [sp, #4]
 800220c:	f04f 0801 	mov.w	r8, #1
 8002210:	4f96      	ldr	r7, [pc, #600]	; (800246c <HAL_RCC_OscConfig+0x53c>)
 8002212:	683b      	ldr	r3, [r7, #0]
 8002214:	05d9      	lsls	r1, r3, #23
 8002216:	d51d      	bpl.n	8002254 <HAL_RCC_OscConfig+0x324>
 8002218:	68ab      	ldr	r3, [r5, #8]
 800221a:	2b01      	cmp	r3, #1
 800221c:	d12b      	bne.n	8002276 <HAL_RCC_OscConfig+0x346>
 800221e:	f8d4 3090 	ldr.w	r3, [r4, #144]	; 0x90
 8002222:	f043 0301 	orr.w	r3, r3, #1
 8002226:	f8c4 3090 	str.w	r3, [r4, #144]	; 0x90
 800222a:	f7fe fc7f 	bl	8000b2c <HAL_GetTick>
 800222e:	f241 3988 	movw	r9, #5000	; 0x1388
 8002232:	4607      	mov	r7, r0
 8002234:	f8d4 3090 	ldr.w	r3, [r4, #144]	; 0x90
 8002238:	079b      	lsls	r3, r3, #30
 800223a:	d542      	bpl.n	80022c2 <HAL_RCC_OscConfig+0x392>
 800223c:	f1b8 0f00 	cmp.w	r8, #0
 8002240:	f43f af0a 	beq.w	8002058 <HAL_RCC_OscConfig+0x128>
 8002244:	6da3      	ldr	r3, [r4, #88]	; 0x58
 8002246:	f023 5380 	bic.w	r3, r3, #268435456	; 0x10000000
 800224a:	65a3      	str	r3, [r4, #88]	; 0x58
 800224c:	e704      	b.n	8002058 <HAL_RCC_OscConfig+0x128>
 800224e:	f04f 0800 	mov.w	r8, #0
 8002252:	e7dd      	b.n	8002210 <HAL_RCC_OscConfig+0x2e0>
 8002254:	683b      	ldr	r3, [r7, #0]
 8002256:	f443 7380 	orr.w	r3, r3, #256	; 0x100
 800225a:	603b      	str	r3, [r7, #0]
 800225c:	f7fe fc66 	bl	8000b2c <HAL_GetTick>
 8002260:	4681      	mov	r9, r0
 8002262:	683b      	ldr	r3, [r7, #0]
 8002264:	05da      	lsls	r2, r3, #23
 8002266:	d4d7      	bmi.n	8002218 <HAL_RCC_OscConfig+0x2e8>
 8002268:	f7fe fc60 	bl	8000b2c <HAL_GetTick>
 800226c:	eba0 0009 	sub.w	r0, r0, r9
 8002270:	2802      	cmp	r0, #2
 8002272:	d9f6      	bls.n	8002262 <HAL_RCC_OscConfig+0x332>
 8002274:	e700      	b.n	8002078 <HAL_RCC_OscConfig+0x148>
 8002276:	2b05      	cmp	r3, #5
 8002278:	d106      	bne.n	8002288 <HAL_RCC_OscConfig+0x358>
 800227a:	f8d4 3090 	ldr.w	r3, [r4, #144]	; 0x90
 800227e:	f043 0304 	orr.w	r3, r3, #4
 8002282:	f8c4 3090 	str.w	r3, [r4, #144]	; 0x90
 8002286:	e7ca      	b.n	800221e <HAL_RCC_OscConfig+0x2ee>
 8002288:	f8d4 2090 	ldr.w	r2, [r4, #144]	; 0x90
 800228c:	f022 0201 	bic.w	r2, r2, #1
 8002290:	f8c4 2090 	str.w	r2, [r4, #144]	; 0x90
 8002294:	f8d4 2090 	ldr.w	r2, [r4, #144]	; 0x90
 8002298:	f022 0204 	bic.w	r2, r2, #4
 800229c:	f8c4 2090 	str.w	r2, [r4, #144]	; 0x90
 80022a0:	2b00      	cmp	r3, #0
 80022a2:	d1c2      	bne.n	800222a <HAL_RCC_OscConfig+0x2fa>
 80022a4:	f7fe fc42 	bl	8000b2c <HAL_GetTick>
 80022a8:	f241 3988 	movw	r9, #5000	; 0x1388
 80022ac:	4607      	mov	r7, r0
 80022ae:	f8d4 3090 	ldr.w	r3, [r4, #144]	; 0x90
 80022b2:	0798      	lsls	r0, r3, #30
 80022b4:	d5c2      	bpl.n	800223c <HAL_RCC_OscConfig+0x30c>
 80022b6:	f7fe fc39 	bl	8000b2c <HAL_GetTick>
 80022ba:	1bc0      	subs	r0, r0, r7
 80022bc:	4548      	cmp	r0, r9
 80022be:	d9f6      	bls.n	80022ae <HAL_RCC_OscConfig+0x37e>
 80022c0:	e6da      	b.n	8002078 <HAL_RCC_OscConfig+0x148>
 80022c2:	f7fe fc33 	bl	8000b2c <HAL_GetTick>
 80022c6:	1bc0      	subs	r0, r0, r7
 80022c8:	4548      	cmp	r0, r9
 80022ca:	d9b3      	bls.n	8002234 <HAL_RCC_OscConfig+0x304>
 80022cc:	e6d4      	b.n	8002078 <HAL_RCC_OscConfig+0x148>
 80022ce:	6a6b      	ldr	r3, [r5, #36]	; 0x24
 80022d0:	b19b      	cbz	r3, 80022fa <HAL_RCC_OscConfig+0x3ca>
 80022d2:	f8d4 3098 	ldr.w	r3, [r4, #152]	; 0x98
 80022d6:	f043 0301 	orr.w	r3, r3, #1
 80022da:	f8c4 3098 	str.w	r3, [r4, #152]	; 0x98
 80022de:	f7fe fc25 	bl	8000b2c <HAL_GetTick>
 80022e2:	4607      	mov	r7, r0
 80022e4:	f8d4 3098 	ldr.w	r3, [r4, #152]	; 0x98
 80022e8:	079a      	lsls	r2, r3, #30
 80022ea:	f53f aeb9 	bmi.w	8002060 <HAL_RCC_OscConfig+0x130>
 80022ee:	f7fe fc1d 	bl	8000b2c <HAL_GetTick>
 80022f2:	1bc0      	subs	r0, r0, r7
 80022f4:	2802      	cmp	r0, #2
 80022f6:	d9f5      	bls.n	80022e4 <HAL_RCC_OscConfig+0x3b4>
 80022f8:	e6be      	b.n	8002078 <HAL_RCC_OscConfig+0x148>
 80022fa:	f8d4 3098 	ldr.w	r3, [r4, #152]	; 0x98
 80022fe:	f023 0301 	bic.w	r3, r3, #1
 8002302:	f8c4 3098 	str.w	r3, [r4, #152]	; 0x98
 8002306:	f7fe fc11 	bl	8000b2c <HAL_GetTick>
 800230a:	4607      	mov	r7, r0
 800230c:	f8d4 3098 	ldr.w	r3, [r4, #152]	; 0x98
 8002310:	079b      	lsls	r3, r3, #30
 8002312:	f57f aea5 	bpl.w	8002060 <HAL_RCC_OscConfig+0x130>
 8002316:	f7fe fc09 	bl	8000b2c <HAL_GetTick>
 800231a:	1bc0      	subs	r0, r0, r7
 800231c:	2802      	cmp	r0, #2
 800231e:	d9f5      	bls.n	800230c <HAL_RCC_OscConfig+0x3dc>
 8002320:	e6aa      	b.n	8002078 <HAL_RCC_OscConfig+0x148>
 8002322:	2b02      	cmp	r3, #2
 8002324:	f040 8088 	bne.w	8002438 <HAL_RCC_OscConfig+0x508>
 8002328:	68e3      	ldr	r3, [r4, #12]
 800232a:	6aea      	ldr	r2, [r5, #44]	; 0x2c
 800232c:	f003 0103 	and.w	r1, r3, #3
 8002330:	4291      	cmp	r1, r2
 8002332:	d122      	bne.n	800237a <HAL_RCC_OscConfig+0x44a>
 8002334:	6b29      	ldr	r1, [r5, #48]	; 0x30
 8002336:	f003 0270 	and.w	r2, r3, #112	; 0x70
 800233a:	3901      	subs	r1, #1
 800233c:	ebb2 1f01 	cmp.w	r2, r1, lsl #4
 8002340:	d11b      	bne.n	800237a <HAL_RCC_OscConfig+0x44a>
 8002342:	6b69      	ldr	r1, [r5, #52]	; 0x34
 8002344:	f403 42fe 	and.w	r2, r3, #32512	; 0x7f00
 8002348:	ebb2 2f01 	cmp.w	r2, r1, lsl #8
 800234c:	d115      	bne.n	800237a <HAL_RCC_OscConfig+0x44a>
 800234e:	6ba9      	ldr	r1, [r5, #56]	; 0x38
 8002350:	f003 4278 	and.w	r2, r3, #4160749568	; 0xf8000000
 8002354:	ebb2 6fc1 	cmp.w	r2, r1, lsl #27
 8002358:	d10f      	bne.n	800237a <HAL_RCC_OscConfig+0x44a>
 800235a:	6bea      	ldr	r2, [r5, #60]	; 0x3c
 800235c:	0852      	lsrs	r2, r2, #1
 800235e:	f403 01c0 	and.w	r1, r3, #6291456	; 0x600000
 8002362:	3a01      	subs	r2, #1
 8002364:	ebb1 5f42 	cmp.w	r1, r2, lsl #21
 8002368:	d107      	bne.n	800237a <HAL_RCC_OscConfig+0x44a>
 800236a:	6c2a      	ldr	r2, [r5, #64]	; 0x40
 800236c:	0852      	lsrs	r2, r2, #1
 800236e:	f003 63c0 	and.w	r3, r3, #100663296	; 0x6000000
 8002372:	3a01      	subs	r2, #1
 8002374:	ebb3 6f42 	cmp.w	r3, r2, lsl #25
 8002378:	d045      	beq.n	8002406 <HAL_RCC_OscConfig+0x4d6>
 800237a:	2e0c      	cmp	r6, #12
 800237c:	f43f addc 	beq.w	8001f38 <HAL_RCC_OscConfig+0x8>
 8002380:	6823      	ldr	r3, [r4, #0]
 8002382:	015e      	lsls	r6, r3, #5
 8002384:	f53f add8 	bmi.w	8001f38 <HAL_RCC_OscConfig+0x8>
 8002388:	6823      	ldr	r3, [r4, #0]
 800238a:	f023 7380 	bic.w	r3, r3, #16777216	; 0x1000000
 800238e:	6023      	str	r3, [r4, #0]
 8002390:	f7fe fbcc 	bl	8000b2c <HAL_GetTick>
 8002394:	4606      	mov	r6, r0
 8002396:	6823      	ldr	r3, [r4, #0]
 8002398:	0198      	lsls	r0, r3, #6
 800239a:	d42e      	bmi.n	80023fa <HAL_RCC_OscConfig+0x4ca>
 800239c:	68e2      	ldr	r2, [r4, #12]
 800239e:	4b34      	ldr	r3, [pc, #208]	; (8002470 <HAL_RCC_OscConfig+0x540>)
 80023a0:	4013      	ands	r3, r2
 80023a2:	6aea      	ldr	r2, [r5, #44]	; 0x2c
 80023a4:	4313      	orrs	r3, r2
 80023a6:	6b6a      	ldr	r2, [r5, #52]	; 0x34
 80023a8:	ea43 2302 	orr.w	r3, r3, r2, lsl #8
 80023ac:	6baa      	ldr	r2, [r5, #56]	; 0x38
 80023ae:	ea43 63c2 	orr.w	r3, r3, r2, lsl #27
 80023b2:	6b2a      	ldr	r2, [r5, #48]	; 0x30
 80023b4:	3a01      	subs	r2, #1
 80023b6:	ea43 1302 	orr.w	r3, r3, r2, lsl #4
 80023ba:	6bea      	ldr	r2, [r5, #60]	; 0x3c
 80023bc:	0852      	lsrs	r2, r2, #1
 80023be:	3a01      	subs	r2, #1
 80023c0:	ea43 5342 	orr.w	r3, r3, r2, lsl #21
 80023c4:	6c2a      	ldr	r2, [r5, #64]	; 0x40
 80023c6:	0852      	lsrs	r2, r2, #1
 80023c8:	3a01      	subs	r2, #1
 80023ca:	ea43 6342 	orr.w	r3, r3, r2, lsl #25
 80023ce:	60e3      	str	r3, [r4, #12]
 80023d0:	6823      	ldr	r3, [r4, #0]
 80023d2:	f043 7380 	orr.w	r3, r3, #16777216	; 0x1000000
 80023d6:	6023      	str	r3, [r4, #0]
 80023d8:	68e3      	ldr	r3, [r4, #12]
 80023da:	f043 7380 	orr.w	r3, r3, #16777216	; 0x1000000
 80023de:	60e3      	str	r3, [r4, #12]
 80023e0:	f7fe fba4 	bl	8000b2c <HAL_GetTick>
 80023e4:	4605      	mov	r5, r0
 80023e6:	6823      	ldr	r3, [r4, #0]
 80023e8:	0199      	lsls	r1, r3, #6
 80023ea:	f53f ae3d 	bmi.w	8002068 <HAL_RCC_OscConfig+0x138>
 80023ee:	f7fe fb9d 	bl	8000b2c <HAL_GetTick>
 80023f2:	1b40      	subs	r0, r0, r5
 80023f4:	2802      	cmp	r0, #2
 80023f6:	d9f6      	bls.n	80023e6 <HAL_RCC_OscConfig+0x4b6>
 80023f8:	e63e      	b.n	8002078 <HAL_RCC_OscConfig+0x148>
 80023fa:	f7fe fb97 	bl	8000b2c <HAL_GetTick>
 80023fe:	1b80      	subs	r0, r0, r6
 8002400:	2802      	cmp	r0, #2
 8002402:	d9c8      	bls.n	8002396 <HAL_RCC_OscConfig+0x466>
 8002404:	e638      	b.n	8002078 <HAL_RCC_OscConfig+0x148>
 8002406:	6823      	ldr	r3, [r4, #0]
 8002408:	019a      	lsls	r2, r3, #6
 800240a:	f53f ae2d 	bmi.w	8002068 <HAL_RCC_OscConfig+0x138>
 800240e:	6823      	ldr	r3, [r4, #0]
 8002410:	f043 7380 	orr.w	r3, r3, #16777216	; 0x1000000
 8002414:	6023      	str	r3, [r4, #0]
 8002416:	68e3      	ldr	r3, [r4, #12]
 8002418:	f043 7380 	orr.w	r3, r3, #16777216	; 0x1000000
 800241c:	60e3      	str	r3, [r4, #12]
 800241e:	f7fe fb85 	bl	8000b2c <HAL_GetTick>
 8002422:	4605      	mov	r5, r0
 8002424:	6823      	ldr	r3, [r4, #0]
 8002426:	019b      	lsls	r3, r3, #6
 8002428:	f53f ae1e 	bmi.w	8002068 <HAL_RCC_OscConfig+0x138>
 800242c:	f7fe fb7e 	bl	8000b2c <HAL_GetTick>
 8002430:	1b40      	subs	r0, r0, r5
 8002432:	2802      	cmp	r0, #2
 8002434:	d9f6      	bls.n	8002424 <HAL_RCC_OscConfig+0x4f4>
 8002436:	e61f      	b.n	8002078 <HAL_RCC_OscConfig+0x148>
 8002438:	2e0c      	cmp	r6, #12
 800243a:	f43f ad7d 	beq.w	8001f38 <HAL_RCC_OscConfig+0x8>
 800243e:	6823      	ldr	r3, [r4, #0]
 8002440:	f023 7380 	bic.w	r3, r3, #16777216	; 0x1000000
 8002444:	6023      	str	r3, [r4, #0]
 8002446:	f7fe fb71 	bl	8000b2c <HAL_GetTick>
 800244a:	4605      	mov	r5, r0
 800244c:	6823      	ldr	r3, [r4, #0]
 800244e:	f013 7300 	ands.w	r3, r3, #33554432	; 0x2000000
 8002452:	d104      	bne.n	800245e <HAL_RCC_OscConfig+0x52e>
 8002454:	68e1      	ldr	r1, [r4, #12]
 8002456:	4a07      	ldr	r2, [pc, #28]	; (8002474 <HAL_RCC_OscConfig+0x544>)
 8002458:	400a      	ands	r2, r1
 800245a:	60e2      	str	r2, [r4, #12]
 800245c:	e604      	b.n	8002068 <HAL_RCC_OscConfig+0x138>
 800245e:	f7fe fb65 	bl	8000b2c <HAL_GetTick>
 8002462:	1b40      	subs	r0, r0, r5
 8002464:	2802      	cmp	r0, #2
 8002466:	d9f1      	bls.n	800244c <HAL_RCC_OscConfig+0x51c>
 8002468:	e606      	b.n	8002078 <HAL_RCC_OscConfig+0x148>
 800246a:	bf00      	nop
 800246c:	40007000 	.word	0x40007000
 8002470:	019d808c 	.word	0x019d808c
 8002474:	feeefffc 	.word	0xfeeefffc

08002478 <HAL_RCC_ClockConfig>:
 8002478:	e92d 41f0 	stmdb	sp!, {r4, r5, r6, r7, r8, lr}
 800247c:	460d      	mov	r5, r1
 800247e:	4604      	mov	r4, r0
 8002480:	b910      	cbnz	r0, 8002488 <HAL_RCC_ClockConfig+0x10>
 8002482:	2001      	movs	r0, #1
 8002484:	e8bd 81f0 	ldmia.w	sp!, {r4, r5, r6, r7, r8, pc}
 8002488:	4a4b      	ldr	r2, [pc, #300]	; (80025b8 <HAL_RCC_ClockConfig+0x140>)
 800248a:	6813      	ldr	r3, [r2, #0]
 800248c:	f003 0307 	and.w	r3, r3, #7
 8002490:	428b      	cmp	r3, r1
 8002492:	d32c      	bcc.n	80024ee <HAL_RCC_ClockConfig+0x76>
 8002494:	6820      	ldr	r0, [r4, #0]
 8002496:	0786      	lsls	r6, r0, #30
 8002498:	d434      	bmi.n	8002504 <HAL_RCC_ClockConfig+0x8c>
 800249a:	07c1      	lsls	r1, r0, #31
 800249c:	d43f      	bmi.n	800251e <HAL_RCC_ClockConfig+0xa6>
 800249e:	6821      	ldr	r1, [r4, #0]
 80024a0:	078a      	lsls	r2, r1, #30
 80024a2:	d468      	bmi.n	8002576 <HAL_RCC_ClockConfig+0xfe>
 80024a4:	4a44      	ldr	r2, [pc, #272]	; (80025b8 <HAL_RCC_ClockConfig+0x140>)
 80024a6:	6813      	ldr	r3, [r2, #0]
 80024a8:	f003 0307 	and.w	r3, r3, #7
 80024ac:	42ab      	cmp	r3, r5
 80024ae:	d86f      	bhi.n	8002590 <HAL_RCC_ClockConfig+0x118>
 80024b0:	f011 0f04 	tst.w	r1, #4
 80024b4:	4d41      	ldr	r5, [pc, #260]	; (80025bc <HAL_RCC_ClockConfig+0x144>)
 80024b6:	d177      	bne.n	80025a8 <HAL_RCC_ClockConfig+0x130>
 80024b8:	070b      	lsls	r3, r1, #28
 80024ba:	d506      	bpl.n	80024ca <HAL_RCC_ClockConfig+0x52>
 80024bc:	68ab      	ldr	r3, [r5, #8]
 80024be:	6922      	ldr	r2, [r4, #16]
 80024c0:	f423 5360 	bic.w	r3, r3, #14336	; 0x3800
 80024c4:	ea43 03c2 	orr.w	r3, r3, r2, lsl #3
 80024c8:	60ab      	str	r3, [r5, #8]
 80024ca:	f7ff fce3 	bl	8001e94 <HAL_RCC_GetSysClockFreq>
 80024ce:	68ab      	ldr	r3, [r5, #8]
 80024d0:	4a3b      	ldr	r2, [pc, #236]	; (80025c0 <HAL_RCC_ClockConfig+0x148>)
 80024d2:	f3c3 1303 	ubfx	r3, r3, #4, #4
 80024d6:	e8bd 41f0 	ldmia.w	sp!, {r4, r5, r6, r7, r8, lr}
 80024da:	5cd3      	ldrb	r3, [r2, r3]
 80024dc:	f003 031f 	and.w	r3, r3, #31
 80024e0:	40d8      	lsrs	r0, r3
 80024e2:	4b38      	ldr	r3, [pc, #224]	; (80025c4 <HAL_RCC_ClockConfig+0x14c>)
 80024e4:	6018      	str	r0, [r3, #0]
 80024e6:	4b38      	ldr	r3, [pc, #224]	; (80025c8 <HAL_RCC_ClockConfig+0x150>)
 80024e8:	6818      	ldr	r0, [r3, #0]
 80024ea:	f7fe badd 	b.w	8000aa8 <HAL_InitTick>
 80024ee:	6813      	ldr	r3, [r2, #0]
 80024f0:	f023 0307 	bic.w	r3, r3, #7
 80024f4:	430b      	orrs	r3, r1
 80024f6:	6013      	str	r3, [r2, #0]
 80024f8:	6813      	ldr	r3, [r2, #0]
 80024fa:	f003 0307 	and.w	r3, r3, #7
 80024fe:	428b      	cmp	r3, r1
 8002500:	d1bf      	bne.n	8002482 <HAL_RCC_ClockConfig+0xa>
 8002502:	e7c7      	b.n	8002494 <HAL_RCC_ClockConfig+0x1c>
 8002504:	4a2d      	ldr	r2, [pc, #180]	; (80025bc <HAL_RCC_ClockConfig+0x144>)
 8002506:	68a6      	ldr	r6, [r4, #8]
 8002508:	6891      	ldr	r1, [r2, #8]
 800250a:	f001 01f0 	and.w	r1, r1, #240	; 0xf0
 800250e:	428e      	cmp	r6, r1
 8002510:	bf81      	itttt	hi
 8002512:	6893      	ldrhi	r3, [r2, #8]
 8002514:	f023 03f0 	bichi.w	r3, r3, #240	; 0xf0
 8002518:	4333      	orrhi	r3, r6
 800251a:	6093      	strhi	r3, [r2, #8]
 800251c:	e7bd      	b.n	800249a <HAL_RCC_ClockConfig+0x22>
 800251e:	6862      	ldr	r2, [r4, #4]
 8002520:	4e26      	ldr	r6, [pc, #152]	; (80025bc <HAL_RCC_ClockConfig+0x144>)
 8002522:	2a03      	cmp	r2, #3
 8002524:	6833      	ldr	r3, [r6, #0]
 8002526:	d11a      	bne.n	800255e <HAL_RCC_ClockConfig+0xe6>
 8002528:	f013 7f00 	tst.w	r3, #33554432	; 0x2000000
 800252c:	d0a9      	beq.n	8002482 <HAL_RCC_ClockConfig+0xa>
 800252e:	68b3      	ldr	r3, [r6, #8]
 8002530:	f023 0303 	bic.w	r3, r3, #3
 8002534:	4313      	orrs	r3, r2
 8002536:	60b3      	str	r3, [r6, #8]
 8002538:	f7fe faf8 	bl	8000b2c <HAL_GetTick>
 800253c:	f241 3888 	movw	r8, #5000	; 0x1388
 8002540:	4607      	mov	r7, r0
 8002542:	68b3      	ldr	r3, [r6, #8]
 8002544:	6862      	ldr	r2, [r4, #4]
 8002546:	f003 030c 	and.w	r3, r3, #12
 800254a:	ebb3 0f82 	cmp.w	r3, r2, lsl #2
 800254e:	d0a6      	beq.n	800249e <HAL_RCC_ClockConfig+0x26>
 8002550:	f7fe faec 	bl	8000b2c <HAL_GetTick>
 8002554:	1bc0      	subs	r0, r0, r7
 8002556:	4540      	cmp	r0, r8
 8002558:	d9f3      	bls.n	8002542 <HAL_RCC_ClockConfig+0xca>
 800255a:	2003      	movs	r0, #3
 800255c:	e792      	b.n	8002484 <HAL_RCC_ClockConfig+0xc>
 800255e:	2a02      	cmp	r2, #2
 8002560:	d102      	bne.n	8002568 <HAL_RCC_ClockConfig+0xf0>
 8002562:	f413 3f00 	tst.w	r3, #131072	; 0x20000
 8002566:	e7e1      	b.n	800252c <HAL_RCC_ClockConfig+0xb4>
 8002568:	b912      	cbnz	r2, 8002570 <HAL_RCC_ClockConfig+0xf8>
 800256a:	f013 0f02 	tst.w	r3, #2
 800256e:	e7dd      	b.n	800252c <HAL_RCC_ClockConfig+0xb4>
 8002570:	f413 6f80 	tst.w	r3, #1024	; 0x400
 8002574:	e7da      	b.n	800252c <HAL_RCC_ClockConfig+0xb4>
 8002576:	4a11      	ldr	r2, [pc, #68]	; (80025bc <HAL_RCC_ClockConfig+0x144>)
 8002578:	68a6      	ldr	r6, [r4, #8]
 800257a:	6890      	ldr	r0, [r2, #8]
 800257c:	f000 00f0 	and.w	r0, r0, #240	; 0xf0
 8002580:	4286      	cmp	r6, r0
 8002582:	bf3f      	itttt	cc
 8002584:	6893      	ldrcc	r3, [r2, #8]
 8002586:	f023 03f0 	biccc.w	r3, r3, #240	; 0xf0
 800258a:	4333      	orrcc	r3, r6
 800258c:	6093      	strcc	r3, [r2, #8]
 800258e:	e789      	b.n	80024a4 <HAL_RCC_ClockConfig+0x2c>
 8002590:	6813      	ldr	r3, [r2, #0]
 8002592:	f023 0307 	bic.w	r3, r3, #7
 8002596:	432b      	orrs	r3, r5
 8002598:	6013      	str	r3, [r2, #0]
 800259a:	6813      	ldr	r3, [r2, #0]
 800259c:	f003 0307 	and.w	r3, r3, #7
 80025a0:	42ab      	cmp	r3, r5
 80025a2:	f47f af6e 	bne.w	8002482 <HAL_RCC_ClockConfig+0xa>
 80025a6:	e783      	b.n	80024b0 <HAL_RCC_ClockConfig+0x38>
 80025a8:	68ab      	ldr	r3, [r5, #8]
 80025aa:	68e2      	ldr	r2, [r4, #12]
 80025ac:	f423 63e0 	bic.w	r3, r3, #1792	; 0x700
 80025b0:	4313      	orrs	r3, r2
 80025b2:	60ab      	str	r3, [r5, #8]
 80025b4:	e780      	b.n	80024b8 <HAL_RCC_ClockConfig+0x40>
 80025b6:	bf00      	nop
 80025b8:	40022000 	.word	0x40022000
 80025bc:	40021000 	.word	0x40021000
 80025c0:	08002c3c 	.word	0x08002c3c
 80025c4:	20000000 	.word	0x20000000
 80025c8:	20000008 	.word	0x20000008

080025cc <RCCEx_PLLSAI1_Config>:
 80025cc:	b5f8      	push	{r3, r4, r5, r6, r7, lr}
 80025ce:	4c43      	ldr	r4, [pc, #268]	; (80026dc <RCCEx_PLLSAI1_Config+0x110>)
 80025d0:	6803      	ldr	r3, [r0, #0]
 80025d2:	68e2      	ldr	r2, [r4, #12]
 80025d4:	4605      	mov	r5, r0
 80025d6:	0790      	lsls	r0, r2, #30
 80025d8:	460e      	mov	r6, r1
 80025da:	d039      	beq.n	8002650 <RCCEx_PLLSAI1_Config+0x84>
 80025dc:	68e2      	ldr	r2, [r4, #12]
 80025de:	f002 0203 	and.w	r2, r2, #3
 80025e2:	429a      	cmp	r2, r3
 80025e4:	d177      	bne.n	80026d6 <RCCEx_PLLSAI1_Config+0x10a>
 80025e6:	2a00      	cmp	r2, #0
 80025e8:	d075      	beq.n	80026d6 <RCCEx_PLLSAI1_Config+0x10a>
 80025ea:	68e3      	ldr	r3, [r4, #12]
 80025ec:	686a      	ldr	r2, [r5, #4]
 80025ee:	f3c3 1302 	ubfx	r3, r3, #4, #3
 80025f2:	3301      	adds	r3, #1
 80025f4:	4293      	cmp	r3, r2
 80025f6:	d16e      	bne.n	80026d6 <RCCEx_PLLSAI1_Config+0x10a>
 80025f8:	6823      	ldr	r3, [r4, #0]
 80025fa:	f023 6380 	bic.w	r3, r3, #67108864	; 0x4000000
 80025fe:	6023      	str	r3, [r4, #0]
 8002600:	f7fe fa94 	bl	8000b2c <HAL_GetTick>
 8002604:	4607      	mov	r7, r0
 8002606:	6823      	ldr	r3, [r4, #0]
 8002608:	011a      	lsls	r2, r3, #4
 800260a:	d440      	bmi.n	800268e <RCCEx_PLLSAI1_Config+0xc2>
 800260c:	68ab      	ldr	r3, [r5, #8]
 800260e:	0218      	lsls	r0, r3, #8
 8002610:	2e00      	cmp	r6, #0
 8002612:	d043      	beq.n	800269c <RCCEx_PLLSAI1_Config+0xd0>
 8002614:	2e01      	cmp	r6, #1
 8002616:	d14c      	bne.n	80026b2 <RCCEx_PLLSAI1_Config+0xe6>
 8002618:	692a      	ldr	r2, [r5, #16]
 800261a:	6921      	ldr	r1, [r4, #16]
 800261c:	0852      	lsrs	r2, r2, #1
 800261e:	1e53      	subs	r3, r2, #1
 8002620:	f421 02c0 	bic.w	r2, r1, #6291456	; 0x600000
 8002624:	f422 42fe 	bic.w	r2, r2, #32512	; 0x7f00
 8002628:	4302      	orrs	r2, r0
 800262a:	ea42 5243 	orr.w	r2, r2, r3, lsl #21
 800262e:	6122      	str	r2, [r4, #16]
 8002630:	6823      	ldr	r3, [r4, #0]
 8002632:	f043 6380 	orr.w	r3, r3, #67108864	; 0x4000000
 8002636:	6023      	str	r3, [r4, #0]
 8002638:	f7fe fa78 	bl	8000b2c <HAL_GetTick>
 800263c:	4606      	mov	r6, r0
 800263e:	6823      	ldr	r3, [r4, #0]
 8002640:	011b      	lsls	r3, r3, #4
 8002642:	d542      	bpl.n	80026ca <RCCEx_PLLSAI1_Config+0xfe>
 8002644:	6923      	ldr	r3, [r4, #16]
 8002646:	69aa      	ldr	r2, [r5, #24]
 8002648:	4313      	orrs	r3, r2
 800264a:	6123      	str	r3, [r4, #16]
 800264c:	2000      	movs	r0, #0
 800264e:	e024      	b.n	800269a <RCCEx_PLLSAI1_Config+0xce>
 8002650:	2b02      	cmp	r3, #2
 8002652:	d011      	beq.n	8002678 <RCCEx_PLLSAI1_Config+0xac>
 8002654:	2b03      	cmp	r3, #3
 8002656:	d013      	beq.n	8002680 <RCCEx_PLLSAI1_Config+0xb4>
 8002658:	2b01      	cmp	r3, #1
 800265a:	d13c      	bne.n	80026d6 <RCCEx_PLLSAI1_Config+0x10a>
 800265c:	6822      	ldr	r2, [r4, #0]
 800265e:	f012 0f02 	tst.w	r2, #2
 8002662:	d038      	beq.n	80026d6 <RCCEx_PLLSAI1_Config+0x10a>
 8002664:	68e0      	ldr	r0, [r4, #12]
 8002666:	686a      	ldr	r2, [r5, #4]
 8002668:	f020 0073 	bic.w	r0, r0, #115	; 0x73
 800266c:	3a01      	subs	r2, #1
 800266e:	4318      	orrs	r0, r3
 8002670:	ea40 1002 	orr.w	r0, r0, r2, lsl #4
 8002674:	60e0      	str	r0, [r4, #12]
 8002676:	e7bf      	b.n	80025f8 <RCCEx_PLLSAI1_Config+0x2c>
 8002678:	6822      	ldr	r2, [r4, #0]
 800267a:	f412 6f80 	tst.w	r2, #1024	; 0x400
 800267e:	e7f0      	b.n	8002662 <RCCEx_PLLSAI1_Config+0x96>
 8002680:	6822      	ldr	r2, [r4, #0]
 8002682:	0391      	lsls	r1, r2, #14
 8002684:	d4ee      	bmi.n	8002664 <RCCEx_PLLSAI1_Config+0x98>
 8002686:	6822      	ldr	r2, [r4, #0]
 8002688:	f412 2f80 	tst.w	r2, #262144	; 0x40000
 800268c:	e7e9      	b.n	8002662 <RCCEx_PLLSAI1_Config+0x96>
 800268e:	f7fe fa4d 	bl	8000b2c <HAL_GetTick>
 8002692:	1bc0      	subs	r0, r0, r7
 8002694:	2802      	cmp	r0, #2
 8002696:	d9b6      	bls.n	8002606 <RCCEx_PLLSAI1_Config+0x3a>
 8002698:	2003      	movs	r0, #3
 800269a:	bdf8      	pop	{r3, r4, r5, r6, r7, pc}
 800269c:	6922      	ldr	r2, [r4, #16]
 800269e:	68eb      	ldr	r3, [r5, #12]
 80026a0:	ea40 63c3 	orr.w	r3, r0, r3, lsl #27
 80026a4:	f022 4078 	bic.w	r0, r2, #4160749568	; 0xf8000000
 80026a8:	f420 40fe 	bic.w	r0, r0, #32512	; 0x7f00
 80026ac:	4303      	orrs	r3, r0
 80026ae:	6123      	str	r3, [r4, #16]
 80026b0:	e7be      	b.n	8002630 <RCCEx_PLLSAI1_Config+0x64>
 80026b2:	696b      	ldr	r3, [r5, #20]
 80026b4:	6922      	ldr	r2, [r4, #16]
 80026b6:	085b      	lsrs	r3, r3, #1
 80026b8:	1e59      	subs	r1, r3, #1
 80026ba:	f022 63c0 	bic.w	r3, r2, #100663296	; 0x6000000
 80026be:	f423 43fe 	bic.w	r3, r3, #32512	; 0x7f00
 80026c2:	4303      	orrs	r3, r0
 80026c4:	ea43 6341 	orr.w	r3, r3, r1, lsl #25
 80026c8:	e7f1      	b.n	80026ae <RCCEx_PLLSAI1_Config+0xe2>
 80026ca:	f7fe fa2f 	bl	8000b2c <HAL_GetTick>
 80026ce:	1b80      	subs	r0, r0, r6
 80026d0:	2802      	cmp	r0, #2
 80026d2:	d9b4      	bls.n	800263e <RCCEx_PLLSAI1_Config+0x72>
 80026d4:	e7e0      	b.n	8002698 <RCCEx_PLLSAI1_Config+0xcc>
 80026d6:	2001      	movs	r0, #1
 80026d8:	e7df      	b.n	800269a <RCCEx_PLLSAI1_Config+0xce>
 80026da:	bf00      	nop
 80026dc:	40021000 	.word	0x40021000

080026e0 <HAL_RCCEx_PeriphCLKConfig>:
 80026e0:	e92d 43f7 	stmdb	sp!, {r0, r1, r2, r4, r5, r6, r7, r8, r9, lr}
 80026e4:	6805      	ldr	r5, [r0, #0]
 80026e6:	f415 6500 	ands.w	r5, r5, #2048	; 0x800
 80026ea:	4604      	mov	r4, r0
 80026ec:	d009      	beq.n	8002702 <HAL_RCCEx_PeriphCLKConfig+0x22>
 80026ee:	6cc1      	ldr	r1, [r0, #76]	; 0x4c
 80026f0:	f5b1 0f00 	cmp.w	r1, #8388608	; 0x800000
 80026f4:	d035      	beq.n	8002762 <HAL_RCCEx_PeriphCLKConfig+0x82>
 80026f6:	f5b1 0f40 	cmp.w	r1, #12582912	; 0xc00000
 80026fa:	d037      	beq.n	800276c <HAL_RCCEx_PeriphCLKConfig+0x8c>
 80026fc:	2900      	cmp	r1, #0
 80026fe:	d040      	beq.n	8002782 <HAL_RCCEx_PeriphCLKConfig+0xa2>
 8002700:	2501      	movs	r5, #1
 8002702:	6823      	ldr	r3, [r4, #0]
 8002704:	039e      	lsls	r6, r3, #14
 8002706:	d551      	bpl.n	80027ac <HAL_RCCEx_PeriphCLKConfig+0xcc>
 8002708:	4eaf      	ldr	r6, [pc, #700]	; (80029c8 <HAL_RCCEx_PeriphCLKConfig+0x2e8>)
 800270a:	6db3      	ldr	r3, [r6, #88]	; 0x58
 800270c:	00d8      	lsls	r0, r3, #3
 800270e:	d43f      	bmi.n	8002790 <HAL_RCCEx_PeriphCLKConfig+0xb0>
 8002710:	6db3      	ldr	r3, [r6, #88]	; 0x58
 8002712:	f043 5380 	orr.w	r3, r3, #268435456	; 0x10000000
 8002716:	65b3      	str	r3, [r6, #88]	; 0x58
 8002718:	6db3      	ldr	r3, [r6, #88]	; 0x58
 800271a:	f003 5380 	and.w	r3, r3, #268435456	; 0x10000000
 800271e:	9301      	str	r3, [sp, #4]
 8002720:	9b01      	ldr	r3, [sp, #4]
 8002722:	2701      	movs	r7, #1
 8002724:	f8df 82a4 	ldr.w	r8, [pc, #676]	; 80029cc <HAL_RCCEx_PeriphCLKConfig+0x2ec>
 8002728:	f8d8 3000 	ldr.w	r3, [r8]
 800272c:	f443 7380 	orr.w	r3, r3, #256	; 0x100
 8002730:	f8c8 3000 	str.w	r3, [r8]
 8002734:	f7fe f9fa 	bl	8000b2c <HAL_GetTick>
 8002738:	4681      	mov	r9, r0
 800273a:	f8d8 3000 	ldr.w	r3, [r8]
 800273e:	05d9      	lsls	r1, r3, #23
 8002740:	d528      	bpl.n	8002794 <HAL_RCCEx_PeriphCLKConfig+0xb4>
 8002742:	bb75      	cbnz	r5, 80027a2 <HAL_RCCEx_PeriphCLKConfig+0xc2>
 8002744:	f8d6 3090 	ldr.w	r3, [r6, #144]	; 0x90
 8002748:	f413 7340 	ands.w	r3, r3, #768	; 0x300
 800274c:	f040 8106 	bne.w	800295c <HAL_RCCEx_PeriphCLKConfig+0x27c>
 8002750:	f8d6 3090 	ldr.w	r3, [r6, #144]	; 0x90
 8002754:	6e62      	ldr	r2, [r4, #100]	; 0x64
 8002756:	f423 7340 	bic.w	r3, r3, #768	; 0x300
 800275a:	4313      	orrs	r3, r2
 800275c:	f8c6 3090 	str.w	r3, [r6, #144]	; 0x90
 8002760:	e01f      	b.n	80027a2 <HAL_RCCEx_PeriphCLKConfig+0xc2>
 8002762:	4a99      	ldr	r2, [pc, #612]	; (80029c8 <HAL_RCCEx_PeriphCLKConfig+0x2e8>)
 8002764:	68d3      	ldr	r3, [r2, #12]
 8002766:	f443 3380 	orr.w	r3, r3, #65536	; 0x10000
 800276a:	60d3      	str	r3, [r2, #12]
 800276c:	4a96      	ldr	r2, [pc, #600]	; (80029c8 <HAL_RCCEx_PeriphCLKConfig+0x2e8>)
 800276e:	6ce1      	ldr	r1, [r4, #76]	; 0x4c
 8002770:	f8d2 3088 	ldr.w	r3, [r2, #136]	; 0x88
 8002774:	f423 0340 	bic.w	r3, r3, #12582912	; 0xc00000
 8002778:	430b      	orrs	r3, r1
 800277a:	f8c2 3088 	str.w	r3, [r2, #136]	; 0x88
 800277e:	2500      	movs	r5, #0
 8002780:	e7bf      	b.n	8002702 <HAL_RCCEx_PeriphCLKConfig+0x22>
 8002782:	3004      	adds	r0, #4
 8002784:	f7ff ff22 	bl	80025cc <RCCEx_PLLSAI1_Config>
 8002788:	4605      	mov	r5, r0
 800278a:	2800      	cmp	r0, #0
 800278c:	d1b9      	bne.n	8002702 <HAL_RCCEx_PeriphCLKConfig+0x22>
 800278e:	e7ed      	b.n	800276c <HAL_RCCEx_PeriphCLKConfig+0x8c>
 8002790:	2700      	movs	r7, #0
 8002792:	e7c7      	b.n	8002724 <HAL_RCCEx_PeriphCLKConfig+0x44>
 8002794:	f7fe f9ca 	bl	8000b2c <HAL_GetTick>
 8002798:	eba0 0009 	sub.w	r0, r0, r9
 800279c:	2802      	cmp	r0, #2
 800279e:	d9cc      	bls.n	800273a <HAL_RCCEx_PeriphCLKConfig+0x5a>
 80027a0:	2503      	movs	r5, #3
 80027a2:	b11f      	cbz	r7, 80027ac <HAL_RCCEx_PeriphCLKConfig+0xcc>
 80027a4:	6db3      	ldr	r3, [r6, #88]	; 0x58
 80027a6:	f023 5380 	bic.w	r3, r3, #268435456	; 0x10000000
 80027aa:	65b3      	str	r3, [r6, #88]	; 0x58
 80027ac:	6823      	ldr	r3, [r4, #0]
 80027ae:	07df      	lsls	r7, r3, #31
 80027b0:	d508      	bpl.n	80027c4 <HAL_RCCEx_PeriphCLKConfig+0xe4>
 80027b2:	4985      	ldr	r1, [pc, #532]	; (80029c8 <HAL_RCCEx_PeriphCLKConfig+0x2e8>)
 80027b4:	6a20      	ldr	r0, [r4, #32]
 80027b6:	f8d1 2088 	ldr.w	r2, [r1, #136]	; 0x88
 80027ba:	f022 0203 	bic.w	r2, r2, #3
 80027be:	4302      	orrs	r2, r0
 80027c0:	f8c1 2088 	str.w	r2, [r1, #136]	; 0x88
 80027c4:	079e      	lsls	r6, r3, #30
 80027c6:	d508      	bpl.n	80027da <HAL_RCCEx_PeriphCLKConfig+0xfa>
 80027c8:	497f      	ldr	r1, [pc, #508]	; (80029c8 <HAL_RCCEx_PeriphCLKConfig+0x2e8>)
 80027ca:	6a60      	ldr	r0, [r4, #36]	; 0x24
 80027cc:	f8d1 2088 	ldr.w	r2, [r1, #136]	; 0x88
 80027d0:	f022 020c 	bic.w	r2, r2, #12
 80027d4:	4302      	orrs	r2, r0
 80027d6:	f8c1 2088 	str.w	r2, [r1, #136]	; 0x88
 80027da:	0758      	lsls	r0, r3, #29
 80027dc:	d508      	bpl.n	80027f0 <HAL_RCCEx_PeriphCLKConfig+0x110>
 80027de:	497a      	ldr	r1, [pc, #488]	; (80029c8 <HAL_RCCEx_PeriphCLKConfig+0x2e8>)
 80027e0:	6aa0      	ldr	r0, [r4, #40]	; 0x28
 80027e2:	f8d1 2088 	ldr.w	r2, [r1, #136]	; 0x88
 80027e6:	f022 0230 	bic.w	r2, r2, #48	; 0x30
 80027ea:	4302      	orrs	r2, r0
 80027ec:	f8c1 2088 	str.w	r2, [r1, #136]	; 0x88
 80027f0:	0719      	lsls	r1, r3, #28
 80027f2:	d508      	bpl.n	8002806 <HAL_RCCEx_PeriphCLKConfig+0x126>
 80027f4:	4974      	ldr	r1, [pc, #464]	; (80029c8 <HAL_RCCEx_PeriphCLKConfig+0x2e8>)
 80027f6:	6ae0      	ldr	r0, [r4, #44]	; 0x2c
 80027f8:	f8d1 2088 	ldr.w	r2, [r1, #136]	; 0x88
 80027fc:	f022 02c0 	bic.w	r2, r2, #192	; 0xc0
 8002800:	4302      	orrs	r2, r0
 8002802:	f8c1 2088 	str.w	r2, [r1, #136]	; 0x88
 8002806:	069a      	lsls	r2, r3, #26
 8002808:	d508      	bpl.n	800281c <HAL_RCCEx_PeriphCLKConfig+0x13c>
 800280a:	496f      	ldr	r1, [pc, #444]	; (80029c8 <HAL_RCCEx_PeriphCLKConfig+0x2e8>)
 800280c:	6b20      	ldr	r0, [r4, #48]	; 0x30
 800280e:	f8d1 2088 	ldr.w	r2, [r1, #136]	; 0x88
 8002812:	f422 6240 	bic.w	r2, r2, #3072	; 0xc00
 8002816:	4302      	orrs	r2, r0
 8002818:	f8c1 2088 	str.w	r2, [r1, #136]	; 0x88
 800281c:	059f      	lsls	r7, r3, #22
 800281e:	d508      	bpl.n	8002832 <HAL_RCCEx_PeriphCLKConfig+0x152>
 8002820:	4969      	ldr	r1, [pc, #420]	; (80029c8 <HAL_RCCEx_PeriphCLKConfig+0x2e8>)
 8002822:	6c60      	ldr	r0, [r4, #68]	; 0x44
 8002824:	f8d1 2088 	ldr.w	r2, [r1, #136]	; 0x88
 8002828:	f422 2240 	bic.w	r2, r2, #786432	; 0xc0000
 800282c:	4302      	orrs	r2, r0
 800282e:	f8c1 2088 	str.w	r2, [r1, #136]	; 0x88
 8002832:	055e      	lsls	r6, r3, #21
 8002834:	d508      	bpl.n	8002848 <HAL_RCCEx_PeriphCLKConfig+0x168>
 8002836:	4964      	ldr	r1, [pc, #400]	; (80029c8 <HAL_RCCEx_PeriphCLKConfig+0x2e8>)
 8002838:	6ca0      	ldr	r0, [r4, #72]	; 0x48
 800283a:	f8d1 2088 	ldr.w	r2, [r1, #136]	; 0x88
 800283e:	f422 1240 	bic.w	r2, r2, #3145728	; 0x300000
 8002842:	4302      	orrs	r2, r0
 8002844:	f8c1 2088 	str.w	r2, [r1, #136]	; 0x88
 8002848:	0658      	lsls	r0, r3, #25
 800284a:	d508      	bpl.n	800285e <HAL_RCCEx_PeriphCLKConfig+0x17e>
 800284c:	495e      	ldr	r1, [pc, #376]	; (80029c8 <HAL_RCCEx_PeriphCLKConfig+0x2e8>)
 800284e:	6b60      	ldr	r0, [r4, #52]	; 0x34
 8002850:	f8d1 2088 	ldr.w	r2, [r1, #136]	; 0x88
 8002854:	f422 5240 	bic.w	r2, r2, #12288	; 0x3000
 8002858:	4302      	orrs	r2, r0
 800285a:	f8c1 2088 	str.w	r2, [r1, #136]	; 0x88
 800285e:	0619      	lsls	r1, r3, #24
 8002860:	d508      	bpl.n	8002874 <HAL_RCCEx_PeriphCLKConfig+0x194>
 8002862:	4959      	ldr	r1, [pc, #356]	; (80029c8 <HAL_RCCEx_PeriphCLKConfig+0x2e8>)
 8002864:	6ba0      	ldr	r0, [r4, #56]	; 0x38
 8002866:	f8d1 2088 	ldr.w	r2, [r1, #136]	; 0x88
 800286a:	f422 4240 	bic.w	r2, r2, #49152	; 0xc000
 800286e:	4302      	orrs	r2, r0
 8002870:	f8c1 2088 	str.w	r2, [r1, #136]	; 0x88
 8002874:	05da      	lsls	r2, r3, #23
 8002876:	d508      	bpl.n	800288a <HAL_RCCEx_PeriphCLKConfig+0x1aa>
 8002878:	4953      	ldr	r1, [pc, #332]	; (80029c8 <HAL_RCCEx_PeriphCLKConfig+0x2e8>)
 800287a:	6be0      	ldr	r0, [r4, #60]	; 0x3c
 800287c:	f8d1 2088 	ldr.w	r2, [r1, #136]	; 0x88
 8002880:	f422 3240 	bic.w	r2, r2, #196608	; 0x30000
 8002884:	4302      	orrs	r2, r0
 8002886:	f8c1 2088 	str.w	r2, [r1, #136]	; 0x88
 800288a:	02df      	lsls	r7, r3, #11
 800288c:	d508      	bpl.n	80028a0 <HAL_RCCEx_PeriphCLKConfig+0x1c0>
 800288e:	494e      	ldr	r1, [pc, #312]	; (80029c8 <HAL_RCCEx_PeriphCLKConfig+0x2e8>)
 8002890:	6c20      	ldr	r0, [r4, #64]	; 0x40
 8002892:	f8d1 209c 	ldr.w	r2, [r1, #156]	; 0x9c
 8002896:	f022 0203 	bic.w	r2, r2, #3
 800289a:	4302      	orrs	r2, r0
 800289c:	f8c1 209c 	str.w	r2, [r1, #156]	; 0x9c
 80028a0:	049e      	lsls	r6, r3, #18
 80028a2:	d50f      	bpl.n	80028c4 <HAL_RCCEx_PeriphCLKConfig+0x1e4>
 80028a4:	4a48      	ldr	r2, [pc, #288]	; (80029c8 <HAL_RCCEx_PeriphCLKConfig+0x2e8>)
 80028a6:	6d21      	ldr	r1, [r4, #80]	; 0x50
 80028a8:	f8d2 3088 	ldr.w	r3, [r2, #136]	; 0x88
 80028ac:	f023 6340 	bic.w	r3, r3, #201326592	; 0xc000000
 80028b0:	430b      	orrs	r3, r1
 80028b2:	f1b1 6f00 	cmp.w	r1, #134217728	; 0x8000000
 80028b6:	f8c2 3088 	str.w	r3, [r2, #136]	; 0x88
 80028ba:	d179      	bne.n	80029b0 <HAL_RCCEx_PeriphCLKConfig+0x2d0>
 80028bc:	68d3      	ldr	r3, [r2, #12]
 80028be:	f443 1380 	orr.w	r3, r3, #1048576	; 0x100000
 80028c2:	60d3      	str	r3, [r2, #12]
 80028c4:	6823      	ldr	r3, [r4, #0]
 80028c6:	0318      	lsls	r0, r3, #12
 80028c8:	d50f      	bpl.n	80028ea <HAL_RCCEx_PeriphCLKConfig+0x20a>
 80028ca:	4a3f      	ldr	r2, [pc, #252]	; (80029c8 <HAL_RCCEx_PeriphCLKConfig+0x2e8>)
 80028cc:	6d61      	ldr	r1, [r4, #84]	; 0x54
 80028ce:	f8d2 3088 	ldr.w	r3, [r2, #136]	; 0x88
 80028d2:	f023 6340 	bic.w	r3, r3, #201326592	; 0xc000000
 80028d6:	430b      	orrs	r3, r1
 80028d8:	f1b1 6f00 	cmp.w	r1, #134217728	; 0x8000000
 80028dc:	f8c2 3088 	str.w	r3, [r2, #136]	; 0x88
 80028e0:	d176      	bne.n	80029d0 <HAL_RCCEx_PeriphCLKConfig+0x2f0>
 80028e2:	68d3      	ldr	r3, [r2, #12]
 80028e4:	f443 1380 	orr.w	r3, r3, #1048576	; 0x100000
 80028e8:	60d3      	str	r3, [r2, #12]
 80028ea:	6823      	ldr	r3, [r4, #0]
 80028ec:	0359      	lsls	r1, r3, #13
 80028ee:	d50f      	bpl.n	8002910 <HAL_RCCEx_PeriphCLKConfig+0x230>
 80028f0:	4a35      	ldr	r2, [pc, #212]	; (80029c8 <HAL_RCCEx_PeriphCLKConfig+0x2e8>)
 80028f2:	6da1      	ldr	r1, [r4, #88]	; 0x58
 80028f4:	f8d2 3088 	ldr.w	r3, [r2, #136]	; 0x88
 80028f8:	f023 6340 	bic.w	r3, r3, #201326592	; 0xc000000
 80028fc:	430b      	orrs	r3, r1
 80028fe:	f1b1 6f00 	cmp.w	r1, #134217728	; 0x8000000
 8002902:	f8c2 3088 	str.w	r3, [r2, #136]	; 0x88
 8002906:	d16e      	bne.n	80029e6 <HAL_RCCEx_PeriphCLKConfig+0x306>
 8002908:	68d3      	ldr	r3, [r2, #12]
 800290a:	f443 1380 	orr.w	r3, r3, #1048576	; 0x100000
 800290e:	60d3      	str	r3, [r2, #12]
 8002910:	6823      	ldr	r3, [r4, #0]
 8002912:	045a      	lsls	r2, r3, #17
 8002914:	d512      	bpl.n	800293c <HAL_RCCEx_PeriphCLKConfig+0x25c>
 8002916:	492c      	ldr	r1, [pc, #176]	; (80029c8 <HAL_RCCEx_PeriphCLKConfig+0x2e8>)
 8002918:	6de2      	ldr	r2, [r4, #92]	; 0x5c
 800291a:	f8d1 3088 	ldr.w	r3, [r1, #136]	; 0x88
 800291e:	f023 5340 	bic.w	r3, r3, #805306368	; 0x30000000
 8002922:	4313      	orrs	r3, r2
 8002924:	f1b2 5f80 	cmp.w	r2, #268435456	; 0x10000000
 8002928:	f8c1 3088 	str.w	r3, [r1, #136]	; 0x88
 800292c:	d106      	bne.n	800293c <HAL_RCCEx_PeriphCLKConfig+0x25c>
 800292e:	2102      	movs	r1, #2
 8002930:	1d20      	adds	r0, r4, #4
 8002932:	f7ff fe4b 	bl	80025cc <RCCEx_PLLSAI1_Config>
 8002936:	2800      	cmp	r0, #0
 8002938:	bf18      	it	ne
 800293a:	4605      	movne	r5, r0
 800293c:	6823      	ldr	r3, [r4, #0]
 800293e:	03db      	lsls	r3, r3, #15
 8002940:	d508      	bpl.n	8002954 <HAL_RCCEx_PeriphCLKConfig+0x274>
 8002942:	4a21      	ldr	r2, [pc, #132]	; (80029c8 <HAL_RCCEx_PeriphCLKConfig+0x2e8>)
 8002944:	6e21      	ldr	r1, [r4, #96]	; 0x60
 8002946:	f8d2 3088 	ldr.w	r3, [r2, #136]	; 0x88
 800294a:	f023 4300 	bic.w	r3, r3, #2147483648	; 0x80000000
 800294e:	430b      	orrs	r3, r1
 8002950:	f8c2 3088 	str.w	r3, [r2, #136]	; 0x88
 8002954:	4628      	mov	r0, r5
 8002956:	b003      	add	sp, #12
 8002958:	e8bd 83f0 	ldmia.w	sp!, {r4, r5, r6, r7, r8, r9, pc}
 800295c:	6e62      	ldr	r2, [r4, #100]	; 0x64
 800295e:	4293      	cmp	r3, r2
 8002960:	f43f aef6 	beq.w	8002750 <HAL_RCCEx_PeriphCLKConfig+0x70>
 8002964:	f8d6 2090 	ldr.w	r2, [r6, #144]	; 0x90
 8002968:	f8d6 3090 	ldr.w	r3, [r6, #144]	; 0x90
 800296c:	f443 3380 	orr.w	r3, r3, #65536	; 0x10000
 8002970:	f8c6 3090 	str.w	r3, [r6, #144]	; 0x90
 8002974:	f8d6 3090 	ldr.w	r3, [r6, #144]	; 0x90
 8002978:	f422 7140 	bic.w	r1, r2, #768	; 0x300
 800297c:	f423 3380 	bic.w	r3, r3, #65536	; 0x10000
 8002980:	07d2      	lsls	r2, r2, #31
 8002982:	f8c6 3090 	str.w	r3, [r6, #144]	; 0x90
 8002986:	f8c6 1090 	str.w	r1, [r6, #144]	; 0x90
 800298a:	f57f aee1 	bpl.w	8002750 <HAL_RCCEx_PeriphCLKConfig+0x70>
 800298e:	f7fe f8cd 	bl	8000b2c <HAL_GetTick>
 8002992:	f241 3988 	movw	r9, #5000	; 0x1388
 8002996:	4680      	mov	r8, r0
 8002998:	f8d6 3090 	ldr.w	r3, [r6, #144]	; 0x90
 800299c:	079b      	lsls	r3, r3, #30
 800299e:	f53f aed7 	bmi.w	8002750 <HAL_RCCEx_PeriphCLKConfig+0x70>
 80029a2:	f7fe f8c3 	bl	8000b2c <HAL_GetTick>
 80029a6:	eba0 0008 	sub.w	r0, r0, r8
 80029aa:	4548      	cmp	r0, r9
 80029ac:	d9f4      	bls.n	8002998 <HAL_RCCEx_PeriphCLKConfig+0x2b8>
 80029ae:	e6f7      	b.n	80027a0 <HAL_RCCEx_PeriphCLKConfig+0xc0>
 80029b0:	f1b1 6f80 	cmp.w	r1, #67108864	; 0x4000000
 80029b4:	d186      	bne.n	80028c4 <HAL_RCCEx_PeriphCLKConfig+0x1e4>
 80029b6:	2101      	movs	r1, #1
 80029b8:	1d20      	adds	r0, r4, #4
 80029ba:	f7ff fe07 	bl	80025cc <RCCEx_PLLSAI1_Config>
 80029be:	2800      	cmp	r0, #0
 80029c0:	bf18      	it	ne
 80029c2:	4605      	movne	r5, r0
 80029c4:	e77e      	b.n	80028c4 <HAL_RCCEx_PeriphCLKConfig+0x1e4>
 80029c6:	bf00      	nop
 80029c8:	40021000 	.word	0x40021000
 80029cc:	40007000 	.word	0x40007000
 80029d0:	f1b1 6f80 	cmp.w	r1, #67108864	; 0x4000000
 80029d4:	d189      	bne.n	80028ea <HAL_RCCEx_PeriphCLKConfig+0x20a>
 80029d6:	2101      	movs	r1, #1
 80029d8:	1d20      	adds	r0, r4, #4
 80029da:	f7ff fdf7 	bl	80025cc <RCCEx_PLLSAI1_Config>
 80029de:	2800      	cmp	r0, #0
 80029e0:	bf18      	it	ne
 80029e2:	4605      	movne	r5, r0
 80029e4:	e781      	b.n	80028ea <HAL_RCCEx_PeriphCLKConfig+0x20a>
 80029e6:	f1b1 6f80 	cmp.w	r1, #67108864	; 0x4000000
 80029ea:	d191      	bne.n	8002910 <HAL_RCCEx_PeriphCLKConfig+0x230>
 80029ec:	2101      	movs	r1, #1
 80029ee:	1d20      	adds	r0, r4, #4
 80029f0:	f7ff fdec 	bl	80025cc <RCCEx_PLLSAI1_Config>
 80029f4:	2800      	cmp	r0, #0
 80029f6:	bf18      	it	ne
 80029f8:	4605      	movne	r5, r0
 80029fa:	e789      	b.n	8002910 <HAL_RCCEx_PeriphCLKConfig+0x230>

080029fc <HAL_SPI_Init>:
 80029fc:	b570      	push	{r4, r5, r6, lr}
 80029fe:	4604      	mov	r4, r0
 8002a00:	2800      	cmp	r0, #0
 8002a02:	d05f      	beq.n	8002ac4 <HAL_SPI_Init+0xc8>
 8002a04:	6a43      	ldr	r3, [r0, #36]	; 0x24
 8002a06:	2b00      	cmp	r3, #0
 8002a08:	d158      	bne.n	8002abc <HAL_SPI_Init+0xc0>
 8002a0a:	6842      	ldr	r2, [r0, #4]
 8002a0c:	f5b2 7f82 	cmp.w	r2, #260	; 0x104
 8002a10:	d000      	beq.n	8002a14 <HAL_SPI_Init+0x18>
 8002a12:	61c3      	str	r3, [r0, #28]
 8002a14:	2300      	movs	r3, #0
 8002a16:	62a3      	str	r3, [r4, #40]	; 0x28
 8002a18:	f894 305d 	ldrb.w	r3, [r4, #93]	; 0x5d
 8002a1c:	f003 02ff 	and.w	r2, r3, #255	; 0xff
 8002a20:	b923      	cbnz	r3, 8002a2c <HAL_SPI_Init+0x30>
 8002a22:	f884 205c 	strb.w	r2, [r4, #92]	; 0x5c
 8002a26:	4620      	mov	r0, r4
 8002a28:	f7fd ffae 	bl	8000988 <HAL_SPI_MspInit>
 8002a2c:	6825      	ldr	r5, [r4, #0]
 8002a2e:	68e1      	ldr	r1, [r4, #12]
 8002a30:	2302      	movs	r3, #2
 8002a32:	f884 305d 	strb.w	r3, [r4, #93]	; 0x5d
 8002a36:	682b      	ldr	r3, [r5, #0]
 8002a38:	f5b1 6fe0 	cmp.w	r1, #1792	; 0x700
 8002a3c:	f023 0340 	bic.w	r3, r3, #64	; 0x40
 8002a40:	602b      	str	r3, [r5, #0]
 8002a42:	f04f 0300 	mov.w	r3, #0
 8002a46:	d83f      	bhi.n	8002ac8 <HAL_SPI_Init+0xcc>
 8002a48:	f44f 5080 	mov.w	r0, #4096	; 0x1000
 8002a4c:	d000      	beq.n	8002a50 <HAL_SPI_Init+0x54>
 8002a4e:	62a3      	str	r3, [r4, #40]	; 0x28
 8002a50:	6863      	ldr	r3, [r4, #4]
 8002a52:	68a6      	ldr	r6, [r4, #8]
 8002a54:	69a2      	ldr	r2, [r4, #24]
 8002a56:	f406 4604 	and.w	r6, r6, #33792	; 0x8400
 8002a5a:	f403 7382 	and.w	r3, r3, #260	; 0x104
 8002a5e:	4333      	orrs	r3, r6
 8002a60:	6926      	ldr	r6, [r4, #16]
 8002a62:	f006 0602 	and.w	r6, r6, #2
 8002a66:	4333      	orrs	r3, r6
 8002a68:	6966      	ldr	r6, [r4, #20]
 8002a6a:	f006 0601 	and.w	r6, r6, #1
 8002a6e:	4333      	orrs	r3, r6
 8002a70:	f402 7600 	and.w	r6, r2, #512	; 0x200
 8002a74:	4333      	orrs	r3, r6
 8002a76:	69e6      	ldr	r6, [r4, #28]
 8002a78:	f006 0638 	and.w	r6, r6, #56	; 0x38
 8002a7c:	4333      	orrs	r3, r6
 8002a7e:	6a26      	ldr	r6, [r4, #32]
 8002a80:	f006 0680 	and.w	r6, r6, #128	; 0x80
 8002a84:	4333      	orrs	r3, r6
 8002a86:	6aa6      	ldr	r6, [r4, #40]	; 0x28
 8002a88:	f406 5600 	and.w	r6, r6, #8192	; 0x2000
 8002a8c:	4333      	orrs	r3, r6
 8002a8e:	602b      	str	r3, [r5, #0]
 8002a90:	6b66      	ldr	r6, [r4, #52]	; 0x34
 8002a92:	6a63      	ldr	r3, [r4, #36]	; 0x24
 8002a94:	f006 0608 	and.w	r6, r6, #8
 8002a98:	f003 0310 	and.w	r3, r3, #16
 8002a9c:	4333      	orrs	r3, r6
 8002a9e:	f401 6170 	and.w	r1, r1, #3840	; 0xf00
 8002aa2:	0c12      	lsrs	r2, r2, #16
 8002aa4:	4319      	orrs	r1, r3
 8002aa6:	f002 0204 	and.w	r2, r2, #4
 8002aaa:	430a      	orrs	r2, r1
 8002aac:	4310      	orrs	r0, r2
 8002aae:	6068      	str	r0, [r5, #4]
 8002ab0:	2301      	movs	r3, #1
 8002ab2:	2000      	movs	r0, #0
 8002ab4:	6620      	str	r0, [r4, #96]	; 0x60
 8002ab6:	f884 305d 	strb.w	r3, [r4, #93]	; 0x5d
 8002aba:	bd70      	pop	{r4, r5, r6, pc}
 8002abc:	2300      	movs	r3, #0
 8002abe:	e9c0 3304 	strd	r3, r3, [r0, #16]
 8002ac2:	e7a7      	b.n	8002a14 <HAL_SPI_Init+0x18>
 8002ac4:	2001      	movs	r0, #1
 8002ac6:	e7f8      	b.n	8002aba <HAL_SPI_Init+0xbe>
 8002ac8:	4618      	mov	r0, r3
 8002aca:	f5b1 6f70 	cmp.w	r1, #3840	; 0xf00
 8002ace:	e7bd      	b.n	8002a4c <HAL_SPI_Init+0x50>

08002ad0 <LED_enableLED>:
 8002ad0:	4b02      	ldr	r3, [pc, #8]	; (8002adc <LED_enableLED+0xc>)
 8002ad2:	2101      	movs	r1, #1
 8002ad4:	5c18      	ldrb	r0, [r3, r0]
 8002ad6:	f000 b85d 	b.w	8002b94 <MAX7300_setPin>
 8002ada:	bf00      	nop
 8002adc:	08002c7c 	.word	0x08002c7c

08002ae0 <LED_disableLED>:
 8002ae0:	4b02      	ldr	r3, [pc, #8]	; (8002aec <LED_disableLED+0xc>)
 8002ae2:	2100      	movs	r1, #0
 8002ae4:	5c18      	ldrb	r0, [r3, r0]
 8002ae6:	f000 b855 	b.w	8002b94 <MAX7300_setPin>
 8002aea:	bf00      	nop
 8002aec:	08002c7c 	.word	0x08002c7c

08002af0 <MAX7300_Init>:
 8002af0:	e92d 41f3 	stmdb	sp!, {r0, r1, r4, r5, r6, r7, r8, lr}
 8002af4:	4a23      	ldr	r2, [pc, #140]	; (8002b84 <MAX7300_Init+0x94>)
 8002af6:	232c      	movs	r3, #44	; 0x2c
 8002af8:	f802 3b01 	strb.w	r3, [r2], #1
 8002afc:	3301      	adds	r3, #1
 8002afe:	2b40      	cmp	r3, #64	; 0x40
 8002b00:	d1fa      	bne.n	8002af8 <MAX7300_Init+0x8>
 8002b02:	4c21      	ldr	r4, [pc, #132]	; (8002b88 <MAX7300_Init+0x98>)
 8002b04:	4821      	ldr	r0, [pc, #132]	; (8002b8c <MAX7300_Init+0x9c>)
 8002b06:	4e22      	ldr	r6, [pc, #136]	; (8002b90 <MAX7300_Init+0xa0>)
 8002b08:	250a      	movs	r5, #10
 8002b0a:	2304      	movs	r3, #4
 8002b0c:	2701      	movs	r7, #1
 8002b0e:	7023      	strb	r3, [r4, #0]
 8002b10:	9500      	str	r5, [sp, #0]
 8002b12:	2302      	movs	r3, #2
 8002b14:	4622      	mov	r2, r4
 8002b16:	2180      	movs	r1, #128	; 0x80
 8002b18:	7067      	strb	r7, [r4, #1]
 8002b1a:	f7ff f859 	bl	8001bd0 <HAL_I2C_Master_Transmit>
 8002b1e:	4620      	mov	r0, r4
 8002b20:	7b33      	ldrb	r3, [r6, #12]
 8002b22:	f800 3b0c 	strb.w	r3, [r0], #12
 8002b26:	4639      	mov	r1, r7
 8002b28:	2214      	movs	r2, #20
 8002b2a:	f000 f873 	bl	8002c14 <memset>
 8002b2e:	9500      	str	r5, [sp, #0]
 8002b30:	2315      	movs	r3, #21
 8002b32:	4622      	mov	r2, r4
 8002b34:	2180      	movs	r1, #128	; 0x80
 8002b36:	4815      	ldr	r0, [pc, #84]	; (8002b8c <MAX7300_Init+0x9c>)
 8002b38:	4f14      	ldr	r7, [pc, #80]	; (8002b8c <MAX7300_Init+0x9c>)
 8002b3a:	f7ff f849 	bl	8001bd0 <HAL_I2C_Master_Transmit>
 8002b3e:	230b      	movs	r3, #11
 8002b40:	7023      	strb	r3, [r4, #0]
 8002b42:	2355      	movs	r3, #85	; 0x55
 8002b44:	7063      	strb	r3, [r4, #1]
 8002b46:	70a3      	strb	r3, [r4, #2]
 8002b48:	70e3      	strb	r3, [r4, #3]
 8002b4a:	7123      	strb	r3, [r4, #4]
 8002b4c:	9500      	str	r5, [sp, #0]
 8002b4e:	480f      	ldr	r0, [pc, #60]	; (8002b8c <MAX7300_Init+0x9c>)
 8002b50:	2305      	movs	r3, #5
 8002b52:	4622      	mov	r2, r4
 8002b54:	2180      	movs	r1, #128	; 0x80
 8002b56:	f7ff f83b 	bl	8001bd0 <HAL_I2C_Master_Transmit>
 8002b5a:	250c      	movs	r5, #12
 8002b5c:	f04f 0800 	mov.w	r8, #0
 8002b60:	5d73      	ldrb	r3, [r6, r5]
 8002b62:	7023      	strb	r3, [r4, #0]
 8002b64:	230a      	movs	r3, #10
 8002b66:	9300      	str	r3, [sp, #0]
 8002b68:	4622      	mov	r2, r4
 8002b6a:	2302      	movs	r3, #2
 8002b6c:	2180      	movs	r1, #128	; 0x80
 8002b6e:	4638      	mov	r0, r7
 8002b70:	3501      	adds	r5, #1
 8002b72:	f884 8001 	strb.w	r8, [r4, #1]
 8002b76:	f7ff f82b 	bl	8001bd0 <HAL_I2C_Master_Transmit>
 8002b7a:	2d20      	cmp	r5, #32
 8002b7c:	d1f0      	bne.n	8002b60 <MAX7300_Init+0x70>
 8002b7e:	b002      	add	sp, #8
 8002b80:	e8bd 81f0 	ldmia.w	sp!, {r4, r5, r6, r7, r8, pc}
 8002b84:	200005d4 	.word	0x200005d4
 8002b88:	200005e8 	.word	0x200005e8
 8002b8c:	200000b8 	.word	0x200000b8
 8002b90:	200005c8 	.word	0x200005c8

08002b94 <MAX7300_setPin>:
 8002b94:	f1a0 030c 	sub.w	r3, r0, #12
 8002b98:	2b13      	cmp	r3, #19
 8002b9a:	b507      	push	{r0, r1, r2, lr}
 8002b9c:	d80d      	bhi.n	8002bba <MAX7300_setPin+0x26>
 8002b9e:	2901      	cmp	r1, #1
 8002ba0:	d80b      	bhi.n	8002bba <MAX7300_setPin+0x26>
 8002ba2:	4b07      	ldr	r3, [pc, #28]	; (8002bc0 <MAX7300_setPin+0x2c>)
 8002ba4:	4a07      	ldr	r2, [pc, #28]	; (8002bc4 <MAX7300_setPin+0x30>)
 8002ba6:	5c1b      	ldrb	r3, [r3, r0]
 8002ba8:	7013      	strb	r3, [r2, #0]
 8002baa:	230a      	movs	r3, #10
 8002bac:	7051      	strb	r1, [r2, #1]
 8002bae:	4806      	ldr	r0, [pc, #24]	; (8002bc8 <MAX7300_setPin+0x34>)
 8002bb0:	9300      	str	r3, [sp, #0]
 8002bb2:	2180      	movs	r1, #128	; 0x80
 8002bb4:	2302      	movs	r3, #2
 8002bb6:	f7ff f80b 	bl	8001bd0 <HAL_I2C_Master_Transmit>
 8002bba:	b003      	add	sp, #12
 8002bbc:	f85d fb04 	ldr.w	pc, [sp], #4
 8002bc0:	200005c8 	.word	0x200005c8
 8002bc4:	200005e8 	.word	0x200005e8
 8002bc8:	200000b8 	.word	0x200000b8

08002bcc <__libc_init_array>:
 8002bcc:	b570      	push	{r4, r5, r6, lr}
 8002bce:	4d0d      	ldr	r5, [pc, #52]	; (8002c04 <__libc_init_array+0x38>)
 8002bd0:	4c0d      	ldr	r4, [pc, #52]	; (8002c08 <__libc_init_array+0x3c>)
 8002bd2:	1b64      	subs	r4, r4, r5
 8002bd4:	10a4      	asrs	r4, r4, #2
 8002bd6:	2600      	movs	r6, #0
 8002bd8:	42a6      	cmp	r6, r4
 8002bda:	d109      	bne.n	8002bf0 <__libc_init_array+0x24>
 8002bdc:	4d0b      	ldr	r5, [pc, #44]	; (8002c0c <__libc_init_array+0x40>)
 8002bde:	4c0c      	ldr	r4, [pc, #48]	; (8002c10 <__libc_init_array+0x44>)
 8002be0:	f000 f820 	bl	8002c24 <_init>
 8002be4:	1b64      	subs	r4, r4, r5
 8002be6:	10a4      	asrs	r4, r4, #2
 8002be8:	2600      	movs	r6, #0
 8002bea:	42a6      	cmp	r6, r4
 8002bec:	d105      	bne.n	8002bfa <__libc_init_array+0x2e>
 8002bee:	bd70      	pop	{r4, r5, r6, pc}
 8002bf0:	f855 3b04 	ldr.w	r3, [r5], #4
 8002bf4:	4798      	blx	r3
 8002bf6:	3601      	adds	r6, #1
 8002bf8:	e7ee      	b.n	8002bd8 <__libc_init_array+0xc>
 8002bfa:	f855 3b04 	ldr.w	r3, [r5], #4
 8002bfe:	4798      	blx	r3
 8002c00:	3601      	adds	r6, #1
 8002c02:	e7f2      	b.n	8002bea <__libc_init_array+0x1e>
 8002c04:	08002c88 	.word	0x08002c88
 8002c08:	08002c88 	.word	0x08002c88
 8002c0c:	08002c88 	.word	0x08002c88
 8002c10:	08002c8c 	.word	0x08002c8c

08002c14 <memset>:
 8002c14:	4402      	add	r2, r0
 8002c16:	4603      	mov	r3, r0
 8002c18:	4293      	cmp	r3, r2
 8002c1a:	d100      	bne.n	8002c1e <memset+0xa>
 8002c1c:	4770      	bx	lr
 8002c1e:	f803 1b01 	strb.w	r1, [r3], #1
 8002c22:	e7f9      	b.n	8002c18 <memset+0x4>

08002c24 <_init>:
 8002c24:	b5f8      	push	{r3, r4, r5, r6, r7, lr}
 8002c26:	bf00      	nop
 8002c28:	bcf8      	pop	{r3, r4, r5, r6, r7}
 8002c2a:	bc08      	pop	{r3}
 8002c2c:	469e      	mov	lr, r3
 8002c2e:	4770      	bx	lr

08002c30 <_fini>:
 8002c30:	b5f8      	push	{r3, r4, r5, r6, r7, lr}
 8002c32:	bf00      	nop
 8002c34:	bcf8      	pop	{r3, r4, r5, r6, r7}
 8002c36:	bc08      	pop	{r3}
 8002c38:	469e      	mov	lr, r3
 8002c3a:	4770      	bx	lr
