
Payload PCB.elf:     file format elf32-littlearm

Sections:
Idx Name          Size      VMA       LMA       File off  Algn
  0 .isr_vector   00000194  08000000  08000000  00010000  2**0
                  CONTENTS, ALLOC, LOAD, READONLY, DATA
  1 .text         00002a3c  08000194  08000194  00010194  2**2
                  CONTENTS, ALLOC, LOAD, READONLY, CODE
  2 .rodata       00000040  08002bd0  08002bd0  00012bd0  2**2
                  CONTENTS, ALLOC, LOAD, READONLY, DATA
  3 .ARM.extab    00000000  08002c10  08002c10  0002000c  2**0
                  CONTENTS
  4 .ARM          00000000  08002c10  08002c10  0002000c  2**0
                  CONTENTS
  5 .preinit_array 00000000  08002c10  08002c10  0002000c  2**0
                  CONTENTS, ALLOC, LOAD, DATA
  6 .init_array   00000004  08002c10  08002c10  00012c10  2**2
                  CONTENTS, ALLOC, LOAD, DATA
  7 .fini_array   00000004  08002c14  08002c14  00012c14  2**2
                  CONTENTS, ALLOC, LOAD, DATA
  8 .data         0000000c  20000000  08002c18  00020000  2**2
                  CONTENTS, ALLOC, LOAD, DATA
  9 .bss          0000065c  2000000c  08002c24  0002000c  2**2
                  ALLOC
 10 ._user_heap_stack 00000600  20000668  08002c24  00020668  2**0
                  ALLOC
 11 .ARM.attributes 00000030  00000000  00000000  0002000c  2**0
                  CONTENTS, READONLY
 12 .comment      00000050  00000000  00000000  0002003c  2**0
                  CONTENTS, READONLY
 13 .debug_frame  0000004c  00000000  00000000  0002008c  2**2
                  CONTENTS, READONLY, DEBUGGING, OCTETS

Disassembly of section .text:

08000194 <__do_global_dtors_aux>:
 8000194:	b510      	push	{r4, lr}
 8000196:	4c05      	ldr	r4, [pc, #20]	; (80001ac <__do_global_dtors_aux+0x18>)
 8000198:	7823      	ldrb	r3, [r4, #0]
 800019a:	b933      	cbnz	r3, 80001aa <__do_global_dtors_aux+0x16>
 800019c:	4b04      	ldr	r3, [pc, #16]	; (80001b0 <__do_global_dtors_aux+0x1c>)
 800019e:	b113      	cbz	r3, 80001a6 <__do_global_dtors_aux+0x12>
 80001a0:	4804      	ldr	r0, [pc, #16]	; (80001b4 <__do_global_dtors_aux+0x20>)
 80001a2:	f3af 8000 	nop.w
 80001a6:	2301      	movs	r3, #1
 80001a8:	7023      	strb	r3, [r4, #0]
 80001aa:	bd10      	pop	{r4, pc}
 80001ac:	2000000c 	.word	0x2000000c
 80001b0:	00000000 	.word	0x00000000
 80001b4:	08002bb8 	.word	0x08002bb8

080001b8 <frame_dummy>:
 80001b8:	b508      	push	{r3, lr}
 80001ba:	4b03      	ldr	r3, [pc, #12]	; (80001c8 <frame_dummy+0x10>)
 80001bc:	b11b      	cbz	r3, 80001c6 <frame_dummy+0xe>
 80001be:	4903      	ldr	r1, [pc, #12]	; (80001cc <frame_dummy+0x14>)
 80001c0:	4803      	ldr	r0, [pc, #12]	; (80001d0 <frame_dummy+0x18>)
 80001c2:	f3af 8000 	nop.w
 80001c6:	bd08      	pop	{r3, pc}
 80001c8:	00000000 	.word	0x00000000
 80001cc:	20000010 	.word	0x20000010
 80001d0:	08002bb8 	.word	0x08002bb8

080001d4 <MX_ADC1_Init>:
 80001d4:	b57f      	push	{r0, r1, r2, r3, r4, r5, r6, lr}
 80001d6:	2218      	movs	r2, #24
 80001d8:	2100      	movs	r1, #0
 80001da:	4668      	mov	r0, sp
 80001dc:	f002 fce4 	bl	8002ba8 <memset>
 80001e0:	4817      	ldr	r0, [pc, #92]	; (8000240 <MX_ADC1_Init+0x6c>)
 80001e2:	4918      	ldr	r1, [pc, #96]	; (8000244 <MX_ADC1_Init+0x70>)
 80001e4:	2300      	movs	r3, #0
 80001e6:	2204      	movs	r2, #4
 80001e8:	6142      	str	r2, [r0, #20]
 80001ea:	8303      	strh	r3, [r0, #24]
 80001ec:	2201      	movs	r2, #1
 80001ee:	e9c0 1300 	strd	r1, r3, [r0]
 80001f2:	e9c0 3302 	strd	r3, r3, [r0, #8]
 80001f6:	e9c0 330a 	strd	r3, r3, [r0, #40]	; 0x28
 80001fa:	6103      	str	r3, [r0, #16]
 80001fc:	61c2      	str	r2, [r0, #28]
 80001fe:	f880 3020 	strb.w	r3, [r0, #32]
 8000202:	f880 3030 	strb.w	r3, [r0, #48]	; 0x30
 8000206:	6343      	str	r3, [r0, #52]	; 0x34
 8000208:	f880 3038 	strb.w	r3, [r0, #56]	; 0x38
 800020c:	f000 fca0 	bl	8000b50 <HAL_ADC_Init>
 8000210:	b108      	cbz	r0, 8000216 <MX_ADC1_Init+0x42>
 8000212:	f000 fb87 	bl	8000924 <Error_Handler>
 8000216:	4a0c      	ldr	r2, [pc, #48]	; (8000248 <MX_ADC1_Init+0x74>)
 8000218:	4809      	ldr	r0, [pc, #36]	; (8000240 <MX_ADC1_Init+0x6c>)
 800021a:	2306      	movs	r3, #6
 800021c:	e9cd 2300 	strd	r2, r3, [sp]
 8000220:	2300      	movs	r3, #0
 8000222:	227f      	movs	r2, #127	; 0x7f
 8000224:	e9cd 3202 	strd	r3, r2, [sp, #8]
 8000228:	4669      	mov	r1, sp
 800022a:	2204      	movs	r2, #4
 800022c:	e9cd 2304 	strd	r2, r3, [sp, #16]
 8000230:	f000 fd62 	bl	8000cf8 <HAL_ADC_ConfigChannel>
 8000234:	b108      	cbz	r0, 800023a <MX_ADC1_Init+0x66>
 8000236:	f000 fb75 	bl	8000924 <Error_Handler>
 800023a:	b007      	add	sp, #28
 800023c:	f85d fb04 	ldr.w	pc, [sp], #4
 8000240:	20000028 	.word	0x20000028
 8000244:	50040000 	.word	0x50040000
 8000248:	04300002 	.word	0x04300002

0800024c <HAL_ADC_MspInit>:
 800024c:	b530      	push	{r4, r5, lr}
 800024e:	b0a3      	sub	sp, #140	; 0x8c
 8000250:	4604      	mov	r4, r0
 8000252:	2214      	movs	r2, #20
 8000254:	2100      	movs	r1, #0
 8000256:	a803      	add	r0, sp, #12
 8000258:	f002 fca6 	bl	8002ba8 <memset>
 800025c:	2268      	movs	r2, #104	; 0x68
 800025e:	2100      	movs	r1, #0
 8000260:	a808      	add	r0, sp, #32
 8000262:	f002 fca1 	bl	8002ba8 <memset>
 8000266:	6822      	ldr	r2, [r4, #0]
 8000268:	4b26      	ldr	r3, [pc, #152]	; (8000304 <HAL_ADC_MspInit+0xb8>)
 800026a:	429a      	cmp	r2, r3
 800026c:	d147      	bne.n	80002fe <HAL_ADC_MspInit+0xb2>
 800026e:	f44f 4380 	mov.w	r3, #16384	; 0x4000
 8000272:	9308      	str	r3, [sp, #32]
 8000274:	f04f 5380 	mov.w	r3, #268435456	; 0x10000000
 8000278:	931f      	str	r3, [sp, #124]	; 0x7c
 800027a:	2301      	movs	r3, #1
 800027c:	2010      	movs	r0, #16
 800027e:	e9cd 3309 	strd	r3, r3, [sp, #36]	; 0x24
 8000282:	2307      	movs	r3, #7
 8000284:	e9cd 030b 	strd	r0, r3, [sp, #44]	; 0x2c
 8000288:	2302      	movs	r3, #2
 800028a:	e9cd 330d 	strd	r3, r3, [sp, #52]	; 0x34
 800028e:	a808      	add	r0, sp, #32
 8000290:	f04f 7380 	mov.w	r3, #16777216	; 0x1000000
 8000294:	930f      	str	r3, [sp, #60]	; 0x3c
 8000296:	f002 fa19 	bl	80026cc <HAL_RCCEx_PeriphCLKConfig>
 800029a:	b108      	cbz	r0, 80002a0 <HAL_ADC_MspInit+0x54>
 800029c:	f000 fb42 	bl	8000924 <Error_Handler>
 80002a0:	4b19      	ldr	r3, [pc, #100]	; (8000308 <HAL_ADC_MspInit+0xbc>)
 80002a2:	481a      	ldr	r0, [pc, #104]	; (800030c <HAL_ADC_MspInit+0xc0>)
 80002a4:	6cda      	ldr	r2, [r3, #76]	; 0x4c
 80002a6:	f442 5200 	orr.w	r2, r2, #8192	; 0x2000
 80002aa:	64da      	str	r2, [r3, #76]	; 0x4c
 80002ac:	6cda      	ldr	r2, [r3, #76]	; 0x4c
 80002ae:	f402 5200 	and.w	r2, r2, #8192	; 0x2000
 80002b2:	9200      	str	r2, [sp, #0]
 80002b4:	9a00      	ldr	r2, [sp, #0]
 80002b6:	6cda      	ldr	r2, [r3, #76]	; 0x4c
 80002b8:	f042 0204 	orr.w	r2, r2, #4
 80002bc:	64da      	str	r2, [r3, #76]	; 0x4c
 80002be:	6cda      	ldr	r2, [r3, #76]	; 0x4c
 80002c0:	f002 0204 	and.w	r2, r2, #4
 80002c4:	9201      	str	r2, [sp, #4]
 80002c6:	9a01      	ldr	r2, [sp, #4]
 80002c8:	6cda      	ldr	r2, [r3, #76]	; 0x4c
 80002ca:	f042 0201 	orr.w	r2, r2, #1
 80002ce:	64da      	str	r2, [r3, #76]	; 0x4c
 80002d0:	6cdb      	ldr	r3, [r3, #76]	; 0x4c
 80002d2:	f003 0301 	and.w	r3, r3, #1
 80002d6:	9302      	str	r3, [sp, #8]
 80002d8:	9b02      	ldr	r3, [sp, #8]
 80002da:	250b      	movs	r5, #11
 80002dc:	230f      	movs	r3, #15
 80002de:	2400      	movs	r4, #0
 80002e0:	a903      	add	r1, sp, #12
 80002e2:	e9cd 3503 	strd	r3, r5, [sp, #12]
 80002e6:	9405      	str	r4, [sp, #20]
 80002e8:	f001 fa28 	bl	800173c <HAL_GPIO_Init>
 80002ec:	233f      	movs	r3, #63	; 0x3f
 80002ee:	a903      	add	r1, sp, #12
 80002f0:	f04f 4090 	mov.w	r0, #1207959552	; 0x48000000
 80002f4:	e9cd 3503 	strd	r3, r5, [sp, #12]
 80002f8:	9405      	str	r4, [sp, #20]
 80002fa:	f001 fa1f 	bl	800173c <HAL_GPIO_Init>
 80002fe:	b023      	add	sp, #140	; 0x8c
 8000300:	bd30      	pop	{r4, r5, pc}
 8000302:	bf00      	nop
 8000304:	50040000 	.word	0x50040000
 8000308:	40021000 	.word	0x40021000
 800030c:	48000800 	.word	0x48000800

08000310 <MX_CAN1_Init>:
 8000310:	480a      	ldr	r0, [pc, #40]	; (800033c <MX_CAN1_Init+0x2c>)
 8000312:	4a0b      	ldr	r2, [pc, #44]	; (8000340 <MX_CAN1_Init+0x30>)
 8000314:	b508      	push	{r3, lr}
 8000316:	2310      	movs	r3, #16
 8000318:	e9c0 2300 	strd	r2, r3, [r0]
 800031c:	2300      	movs	r3, #0
 800031e:	6183      	str	r3, [r0, #24]
 8000320:	8383      	strh	r3, [r0, #28]
 8000322:	e9c0 3302 	strd	r3, r3, [r0, #8]
 8000326:	e9c0 3304 	strd	r3, r3, [r0, #16]
 800032a:	f000 fead 	bl	8001088 <HAL_CAN_Init>
 800032e:	b118      	cbz	r0, 8000338 <MX_CAN1_Init+0x28>
 8000330:	e8bd 4008 	ldmia.w	sp!, {r3, lr}
 8000334:	f000 baf6 	b.w	8000924 <Error_Handler>
 8000338:	bd08      	pop	{r3, pc}
 800033a:	bf00      	nop
 800033c:	20000090 	.word	0x20000090
 8000340:	40006400 	.word	0x40006400

08000344 <HAL_CAN_MspInit>:
 8000344:	b510      	push	{r4, lr}
 8000346:	4604      	mov	r4, r0
 8000348:	b088      	sub	sp, #32
 800034a:	2214      	movs	r2, #20
 800034c:	2100      	movs	r1, #0
 800034e:	a803      	add	r0, sp, #12
 8000350:	f002 fc2a 	bl	8002ba8 <memset>
 8000354:	6822      	ldr	r2, [r4, #0]
 8000356:	4b17      	ldr	r3, [pc, #92]	; (80003b4 <HAL_CAN_MspInit+0x70>)
 8000358:	429a      	cmp	r2, r3
 800035a:	d128      	bne.n	80003ae <HAL_CAN_MspInit+0x6a>
 800035c:	f503 33d6 	add.w	r3, r3, #109568	; 0x1ac00
 8000360:	2103      	movs	r1, #3
 8000362:	6d9a      	ldr	r2, [r3, #88]	; 0x58
 8000364:	4814      	ldr	r0, [pc, #80]	; (80003b8 <HAL_CAN_MspInit+0x74>)
 8000366:	f042 7200 	orr.w	r2, r2, #33554432	; 0x2000000
 800036a:	659a      	str	r2, [r3, #88]	; 0x58
 800036c:	6d9a      	ldr	r2, [r3, #88]	; 0x58
 800036e:	f002 7200 	and.w	r2, r2, #33554432	; 0x2000000
 8000372:	9201      	str	r2, [sp, #4]
 8000374:	9a01      	ldr	r2, [sp, #4]
 8000376:	6cda      	ldr	r2, [r3, #76]	; 0x4c
 8000378:	f042 0202 	orr.w	r2, r2, #2
 800037c:	64da      	str	r2, [r3, #76]	; 0x4c
 800037e:	6cdb      	ldr	r3, [r3, #76]	; 0x4c
 8000380:	f003 0302 	and.w	r3, r3, #2
 8000384:	9302      	str	r3, [sp, #8]
 8000386:	f44f 5240 	mov.w	r2, #12288	; 0x3000
 800038a:	9b02      	ldr	r3, [sp, #8]
 800038c:	2302      	movs	r3, #2
 800038e:	e9cd 2303 	strd	r2, r3, [sp, #12]
 8000392:	230a      	movs	r3, #10
 8000394:	e9cd 1306 	strd	r1, r3, [sp, #24]
 8000398:	a903      	add	r1, sp, #12
 800039a:	f001 f9cf 	bl	800173c <HAL_GPIO_Init>
 800039e:	2200      	movs	r2, #0
 80003a0:	2014      	movs	r0, #20
 80003a2:	4611      	mov	r1, r2
 80003a4:	f001 f976 	bl	8001694 <HAL_NVIC_SetPriority>
 80003a8:	2014      	movs	r0, #20
 80003aa:	f001 f9a5 	bl	80016f8 <HAL_NVIC_EnableIRQ>
 80003ae:	b008      	add	sp, #32
 80003b0:	bd10      	pop	{r4, pc}
 80003b2:	bf00      	nop
 80003b4:	40006400 	.word	0x40006400
 80003b8:	48000400 	.word	0x48000400

080003bc <CAN_Init>:
 80003bc:	b500      	push	{lr}
 80003be:	b08b      	sub	sp, #44	; 0x2c
 80003c0:	2300      	movs	r3, #0
 80003c2:	e9cd 3300 	strd	r3, r3, [sp]
 80003c6:	e9cd 3302 	strd	r3, r3, [sp, #8]
 80003ca:	e9cd 3304 	strd	r3, r3, [sp, #16]
 80003ce:	9306      	str	r3, [sp, #24]
 80003d0:	2301      	movs	r3, #1
 80003d2:	e9cd 3307 	strd	r3, r3, [sp, #28]
 80003d6:	4809      	ldr	r0, [pc, #36]	; (80003fc <CAN_Init+0x40>)
 80003d8:	230e      	movs	r3, #14
 80003da:	4669      	mov	r1, sp
 80003dc:	9309      	str	r3, [sp, #36]	; 0x24
 80003de:	f000 fece 	bl	800117e <HAL_CAN_ConfigFilter>
 80003e2:	b938      	cbnz	r0, 80003f4 <CAN_Init+0x38>
 80003e4:	4805      	ldr	r0, [pc, #20]	; (80003fc <CAN_Init+0x40>)
 80003e6:	f000 ff39 	bl	800125c <HAL_CAN_Start>
 80003ea:	b918      	cbnz	r0, 80003f4 <CAN_Init+0x38>
 80003ec:	4803      	ldr	r0, [pc, #12]	; (80003fc <CAN_Init+0x40>)
 80003ee:	2102      	movs	r1, #2
 80003f0:	f001 f823 	bl	800143a <HAL_CAN_ActivateNotification>
 80003f4:	b00b      	add	sp, #44	; 0x2c
 80003f6:	f85d fb04 	ldr.w	pc, [sp], #4
 80003fa:	bf00      	nop
 80003fc:	20000090 	.word	0x20000090

08000400 <CAN_Transmit_Message>:
 8000400:	b500      	push	{lr}
 8000402:	b08f      	sub	sp, #60	; 0x3c
 8000404:	ab01      	add	r3, sp, #4
 8000406:	e883 0007 	stmia.w	r3, {r0, r1, r2}
 800040a:	f89d 2004 	ldrb.w	r2, [sp, #4]
 800040e:	f89d 3006 	ldrb.w	r3, [sp, #6]
 8000412:	4819      	ldr	r0, [pc, #100]	; (8000478 <CAN_Transmit_Message+0x78>)
 8000414:	ea43 1302 	orr.w	r3, r3, r2, lsl #4
 8000418:	f89d 2007 	ldrb.w	r2, [sp, #7]
 800041c:	f88d 2018 	strb.w	r2, [sp, #24]
 8000420:	f89d 2008 	ldrb.w	r2, [sp, #8]
 8000424:	f88d 2019 	strb.w	r2, [sp, #25]
 8000428:	f89d 2009 	ldrb.w	r2, [sp, #9]
 800042c:	f88d 201a 	strb.w	r2, [sp, #26]
 8000430:	f89d 200a 	ldrb.w	r2, [sp, #10]
 8000434:	f88d 201b 	strb.w	r2, [sp, #27]
 8000438:	f89d 200b 	ldrb.w	r2, [sp, #11]
 800043c:	f88d 201c 	strb.w	r2, [sp, #28]
 8000440:	f043 0308 	orr.w	r3, r3, #8
 8000444:	f89d 200c 	ldrb.w	r2, [sp, #12]
 8000448:	f88d 201d 	strb.w	r2, [sp, #29]
 800044c:	9308      	str	r3, [sp, #32]
 800044e:	f89d 200d 	ldrb.w	r2, [sp, #13]
 8000452:	f88d 201e 	strb.w	r2, [sp, #30]
 8000456:	2300      	movs	r3, #0
 8000458:	f89d 200e 	ldrb.w	r2, [sp, #14]
 800045c:	f88d 201f 	strb.w	r2, [sp, #31]
 8000460:	e9cd 330a 	strd	r3, r3, [sp, #40]	; 0x28
 8000464:	2308      	movs	r3, #8
 8000466:	930c      	str	r3, [sp, #48]	; 0x30
 8000468:	aa06      	add	r2, sp, #24
 800046a:	ab05      	add	r3, sp, #20
 800046c:	a908      	add	r1, sp, #32
 800046e:	f000 ff23 	bl	80012b8 <HAL_CAN_AddTxMessage>
 8000472:	b00f      	add	sp, #60	; 0x3c
 8000474:	f85d fb04 	ldr.w	pc, [sp], #4
 8000478:	20000090 	.word	0x20000090

0800047c <CAN_Message_Received>:
 800047c:	b510      	push	{r4, lr}
 800047e:	b08c      	sub	sp, #48	; 0x30
 8000480:	4821      	ldr	r0, [pc, #132]	; (8000508 <CAN_Message_Received+0x8c>)
 8000482:	466b      	mov	r3, sp
 8000484:	aa05      	add	r2, sp, #20
 8000486:	2100      	movs	r1, #0
 8000488:	f000 ff60 	bl	800134c <HAL_CAN_GetRxMessage>
 800048c:	4604      	mov	r4, r0
 800048e:	bbc0      	cbnz	r0, 8000502 <CAN_Message_Received+0x86>
 8000490:	9b05      	ldr	r3, [sp, #20]
 8000492:	f003 0203 	and.w	r2, r3, #3
 8000496:	2a02      	cmp	r2, #2
 8000498:	d133      	bne.n	8000502 <CAN_Message_Received+0x86>
 800049a:	f3c3 0381 	ubfx	r3, r3, #2, #2
 800049e:	f88d 3009 	strb.w	r3, [sp, #9]
 80004a2:	2302      	movs	r3, #2
 80004a4:	f88d 300a 	strb.w	r3, [sp, #10]
 80004a8:	f89d 3000 	ldrb.w	r3, [sp]
 80004ac:	f88d 300b 	strb.w	r3, [sp, #11]
 80004b0:	f89d 3001 	ldrb.w	r3, [sp, #1]
 80004b4:	f88d 300c 	strb.w	r3, [sp, #12]
 80004b8:	f89d 3002 	ldrb.w	r3, [sp, #2]
 80004bc:	f88d 300d 	strb.w	r3, [sp, #13]
 80004c0:	f89d 3003 	ldrb.w	r3, [sp, #3]
 80004c4:	9a08      	ldr	r2, [sp, #32]
 80004c6:	f88d 300e 	strb.w	r3, [sp, #14]
 80004ca:	f89d 3004 	ldrb.w	r3, [sp, #4]
 80004ce:	f88d 300f 	strb.w	r3, [sp, #15]
 80004d2:	f89d 3005 	ldrb.w	r3, [sp, #5]
 80004d6:	f88d 3010 	strb.w	r3, [sp, #16]
 80004da:	2a02      	cmp	r2, #2
 80004dc:	f89d 3006 	ldrb.w	r3, [sp, #6]
 80004e0:	bf18      	it	ne
 80004e2:	f89d 201b 	ldrbne.w	r2, [sp, #27]
 80004e6:	f88d 3011 	strb.w	r3, [sp, #17]
 80004ea:	bf08      	it	eq
 80004ec:	227f      	moveq	r2, #127	; 0x7f
 80004ee:	f89d 3007 	ldrb.w	r3, [sp, #7]
 80004f2:	4806      	ldr	r0, [pc, #24]	; (800050c <CAN_Message_Received+0x90>)
 80004f4:	f88d 2008 	strb.w	r2, [sp, #8]
 80004f8:	a902      	add	r1, sp, #8
 80004fa:	f88d 3012 	strb.w	r3, [sp, #18]
 80004fe:	f000 f846 	bl	800058e <CAN_Queue_Enqueue>
 8000502:	4620      	mov	r0, r4
 8000504:	b00c      	add	sp, #48	; 0x30
 8000506:	bd10      	pop	{r4, pc}
 8000508:	20000090 	.word	0x20000090
 800050c:	2000010c 	.word	0x2000010c

08000510 <CAN_Send_Default_ACK>:
 8000510:	b088      	sub	sp, #32
 8000512:	ab01      	add	r3, sp, #4
 8000514:	e883 0007 	stmia.w	r3, {r0, r1, r2}
 8000518:	f89d 3004 	ldrb.w	r3, [sp, #4]
 800051c:	f88d 3014 	strb.w	r3, [sp, #20]
 8000520:	2302      	movs	r3, #2
 8000522:	f88d 3015 	strb.w	r3, [sp, #21]
 8000526:	f89d 3005 	ldrb.w	r3, [sp, #5]
 800052a:	f88d 3016 	strb.w	r3, [sp, #22]
 800052e:	2301      	movs	r3, #1
 8000530:	f88d 3017 	strb.w	r3, [sp, #23]
 8000534:	f89d 3007 	ldrb.w	r3, [sp, #7]
 8000538:	f88d 3018 	strb.w	r3, [sp, #24]
 800053c:	2300      	movs	r3, #0
 800053e:	f88d 3019 	strb.w	r3, [sp, #25]
 8000542:	f88d 301a 	strb.w	r3, [sp, #26]
 8000546:	f88d 301b 	strb.w	r3, [sp, #27]
 800054a:	f88d 301c 	strb.w	r3, [sp, #28]
 800054e:	f88d 301d 	strb.w	r3, [sp, #29]
 8000552:	f88d 301e 	strb.w	r3, [sp, #30]
 8000556:	ab08      	add	r3, sp, #32
 8000558:	e913 0007 	ldmdb	r3, {r0, r1, r2}
 800055c:	b008      	add	sp, #32
 800055e:	f7ff bf4f 	b.w	8000400 <CAN_Transmit_Message>

08000562 <CAN_Queue_Init>:
 8000562:	2300      	movs	r3, #0
 8000564:	e9c0 3300 	strd	r3, r3, [r0]
 8000568:	4770      	bx	lr

0800056a <CAN_Queue_IsEmpty>:
 800056a:	e9d0 2000 	ldrd	r2, r0, [r0]
 800056e:	1a13      	subs	r3, r2, r0
 8000570:	4258      	negs	r0, r3
 8000572:	4158      	adcs	r0, r3
 8000574:	4770      	bx	lr

08000576 <CAN_Queue_IsFull>:
 8000576:	6843      	ldr	r3, [r0, #4]
 8000578:	6800      	ldr	r0, [r0, #0]
 800057a:	2264      	movs	r2, #100	; 0x64
 800057c:	3301      	adds	r3, #1
 800057e:	fbb3 f1f2 	udiv	r1, r3, r2
 8000582:	fb02 3311 	mls	r3, r2, r1, r3
 8000586:	1a1b      	subs	r3, r3, r0
 8000588:	4258      	negs	r0, r3
 800058a:	4158      	adcs	r0, r3
 800058c:	4770      	bx	lr

0800058e <CAN_Queue_Enqueue>:
 800058e:	b538      	push	{r3, r4, r5, lr}
 8000590:	4604      	mov	r4, r0
 8000592:	460d      	mov	r5, r1
 8000594:	f7ff ffef 	bl	8000576 <CAN_Queue_IsFull>
 8000598:	b9b0      	cbnz	r0, 80005c8 <CAN_Queue_Enqueue+0x3a>
 800059a:	6863      	ldr	r3, [r4, #4]
 800059c:	6829      	ldr	r1, [r5, #0]
 800059e:	220b      	movs	r2, #11
 80005a0:	4353      	muls	r3, r2
 80005a2:	3308      	adds	r3, #8
 80005a4:	18e2      	adds	r2, r4, r3
 80005a6:	50e1      	str	r1, [r4, r3]
 80005a8:	6869      	ldr	r1, [r5, #4]
 80005aa:	6051      	str	r1, [r2, #4]
 80005ac:	892b      	ldrh	r3, [r5, #8]
 80005ae:	8113      	strh	r3, [r2, #8]
 80005b0:	7aab      	ldrb	r3, [r5, #10]
 80005b2:	7293      	strb	r3, [r2, #10]
 80005b4:	6863      	ldr	r3, [r4, #4]
 80005b6:	2264      	movs	r2, #100	; 0x64
 80005b8:	3301      	adds	r3, #1
 80005ba:	fbb3 f1f2 	udiv	r1, r3, r2
 80005be:	fb02 3311 	mls	r3, r2, r1, r3
 80005c2:	6063      	str	r3, [r4, #4]
 80005c4:	2001      	movs	r0, #1
 80005c6:	bd38      	pop	{r3, r4, r5, pc}
 80005c8:	2000      	movs	r0, #0
 80005ca:	e7fc      	b.n	80005c6 <CAN_Queue_Enqueue+0x38>

080005cc <CAN_Queue_Dequeue>:
 80005cc:	e9d0 3200 	ldrd	r3, r2, [r0]
 80005d0:	4293      	cmp	r3, r2
 80005d2:	d015      	beq.n	8000600 <CAN_Queue_Dequeue+0x34>
 80005d4:	220b      	movs	r2, #11
 80005d6:	4353      	muls	r3, r2
 80005d8:	3308      	adds	r3, #8
 80005da:	18c2      	adds	r2, r0, r3
 80005dc:	58c3      	ldr	r3, [r0, r3]
 80005de:	600b      	str	r3, [r1, #0]
 80005e0:	6853      	ldr	r3, [r2, #4]
 80005e2:	604b      	str	r3, [r1, #4]
 80005e4:	8913      	ldrh	r3, [r2, #8]
 80005e6:	810b      	strh	r3, [r1, #8]
 80005e8:	7a93      	ldrb	r3, [r2, #10]
 80005ea:	728b      	strb	r3, [r1, #10]
 80005ec:	6803      	ldr	r3, [r0, #0]
 80005ee:	2264      	movs	r2, #100	; 0x64
 80005f0:	3301      	adds	r3, #1
 80005f2:	fbb3 f1f2 	udiv	r1, r3, r2
 80005f6:	fb02 3311 	mls	r3, r2, r1, r3
 80005fa:	6003      	str	r3, [r0, #0]
 80005fc:	2001      	movs	r0, #1
 80005fe:	4770      	bx	lr
 8000600:	2000      	movs	r0, #0
 8000602:	4770      	bx	lr

08000604 <MX_GPIO_Init>:
 8000604:	b5f0      	push	{r4, r5, r6, r7, lr}
 8000606:	b089      	sub	sp, #36	; 0x24
 8000608:	2214      	movs	r2, #20
 800060a:	2100      	movs	r1, #0
 800060c:	a803      	add	r0, sp, #12
 800060e:	f002 facb 	bl	8002ba8 <memset>
 8000612:	4b2a      	ldr	r3, [pc, #168]	; (80006bc <MX_GPIO_Init+0xb8>)
 8000614:	4f2a      	ldr	r7, [pc, #168]	; (80006c0 <MX_GPIO_Init+0xbc>)
 8000616:	6cda      	ldr	r2, [r3, #76]	; 0x4c
 8000618:	4e2a      	ldr	r6, [pc, #168]	; (80006c4 <MX_GPIO_Init+0xc0>)
 800061a:	f042 0204 	orr.w	r2, r2, #4
 800061e:	64da      	str	r2, [r3, #76]	; 0x4c
 8000620:	6cda      	ldr	r2, [r3, #76]	; 0x4c
 8000622:	f002 0204 	and.w	r2, r2, #4
 8000626:	9200      	str	r2, [sp, #0]
 8000628:	9a00      	ldr	r2, [sp, #0]
 800062a:	6cda      	ldr	r2, [r3, #76]	; 0x4c
 800062c:	f042 0201 	orr.w	r2, r2, #1
 8000630:	64da      	str	r2, [r3, #76]	; 0x4c
 8000632:	6cda      	ldr	r2, [r3, #76]	; 0x4c
 8000634:	f002 0201 	and.w	r2, r2, #1
 8000638:	9201      	str	r2, [sp, #4]
 800063a:	9a01      	ldr	r2, [sp, #4]
 800063c:	6cda      	ldr	r2, [r3, #76]	; 0x4c
 800063e:	f042 0202 	orr.w	r2, r2, #2
 8000642:	64da      	str	r2, [r3, #76]	; 0x4c
 8000644:	6cdb      	ldr	r3, [r3, #76]	; 0x4c
 8000646:	f003 0302 	and.w	r3, r3, #2
 800064a:	9302      	str	r3, [sp, #8]
 800064c:	4638      	mov	r0, r7
 800064e:	2200      	movs	r2, #0
 8000650:	f240 71f7 	movw	r1, #2039	; 0x7f7
 8000654:	9b02      	ldr	r3, [sp, #8]
 8000656:	f001 f935 	bl	80018c4 <HAL_GPIO_WritePin>
 800065a:	4630      	mov	r0, r6
 800065c:	2200      	movs	r2, #0
 800065e:	f44f 7140 	mov.w	r1, #768	; 0x300
 8000662:	f001 f92f 	bl	80018c4 <HAL_GPIO_WritePin>
 8000666:	2200      	movs	r2, #0
 8000668:	f44f 7180 	mov.w	r1, #256	; 0x100
 800066c:	f04f 4090 	mov.w	r0, #1207959552	; 0x48000000
 8000670:	f001 f928 	bl	80018c4 <HAL_GPIO_WritePin>
 8000674:	2501      	movs	r5, #1
 8000676:	2400      	movs	r4, #0
 8000678:	f240 73f7 	movw	r3, #2039	; 0x7f7
 800067c:	a903      	add	r1, sp, #12
 800067e:	4638      	mov	r0, r7
 8000680:	e9cd 3503 	strd	r3, r5, [sp, #12]
 8000684:	e9cd 4405 	strd	r4, r4, [sp, #20]
 8000688:	f001 f858 	bl	800173c <HAL_GPIO_Init>
 800068c:	f44f 7340 	mov.w	r3, #768	; 0x300
 8000690:	a903      	add	r1, sp, #12
 8000692:	4630      	mov	r0, r6
 8000694:	e9cd 3503 	strd	r3, r5, [sp, #12]
 8000698:	e9cd 4405 	strd	r4, r4, [sp, #20]
 800069c:	f001 f84e 	bl	800173c <HAL_GPIO_Init>
 80006a0:	f44f 7380 	mov.w	r3, #256	; 0x100
 80006a4:	a903      	add	r1, sp, #12
 80006a6:	f04f 4090 	mov.w	r0, #1207959552	; 0x48000000
 80006aa:	e9cd 3503 	strd	r3, r5, [sp, #12]
 80006ae:	e9cd 4405 	strd	r4, r4, [sp, #20]
 80006b2:	f001 f843 	bl	800173c <HAL_GPIO_Init>
 80006b6:	b009      	add	sp, #36	; 0x24
 80006b8:	bdf0      	pop	{r4, r5, r6, r7, pc}
 80006ba:	bf00      	nop
 80006bc:	40021000 	.word	0x40021000
 80006c0:	48000400 	.word	0x48000400
 80006c4:	48000800 	.word	0x48000800

080006c8 <MX_I2C1_Init>:
 80006c8:	4812      	ldr	r0, [pc, #72]	; (8000714 <MX_I2C1_Init+0x4c>)
 80006ca:	4a13      	ldr	r2, [pc, #76]	; (8000718 <MX_I2C1_Init+0x50>)
 80006cc:	b508      	push	{r3, lr}
 80006ce:	f640 6314 	movw	r3, #3604	; 0xe14
 80006d2:	e9c0 2300 	strd	r2, r3, [r0]
 80006d6:	2300      	movs	r3, #0
 80006d8:	2201      	movs	r2, #1
 80006da:	e9c0 3202 	strd	r3, r2, [r0, #8]
 80006de:	e9c0 3304 	strd	r3, r3, [r0, #16]
 80006e2:	e9c0 3306 	strd	r3, r3, [r0, #24]
 80006e6:	6203      	str	r3, [r0, #32]
 80006e8:	f001 fa17 	bl	8001b1a <HAL_I2C_Init>
 80006ec:	b108      	cbz	r0, 80006f2 <MX_I2C1_Init+0x2a>
 80006ee:	f000 f919 	bl	8000924 <Error_Handler>
 80006f2:	4808      	ldr	r0, [pc, #32]	; (8000714 <MX_I2C1_Init+0x4c>)
 80006f4:	2100      	movs	r1, #0
 80006f6:	f001 faf7 	bl	8001ce8 <HAL_I2CEx_ConfigAnalogFilter>
 80006fa:	b108      	cbz	r0, 8000700 <MX_I2C1_Init+0x38>
 80006fc:	f000 f912 	bl	8000924 <Error_Handler>
 8000700:	4804      	ldr	r0, [pc, #16]	; (8000714 <MX_I2C1_Init+0x4c>)
 8000702:	2100      	movs	r1, #0
 8000704:	f001 fb16 	bl	8001d34 <HAL_I2CEx_ConfigDigitalFilter>
 8000708:	b118      	cbz	r0, 8000712 <MX_I2C1_Init+0x4a>
 800070a:	e8bd 4008 	ldmia.w	sp!, {r3, lr}
 800070e:	f000 b909 	b.w	8000924 <Error_Handler>
 8000712:	bd08      	pop	{r3, pc}
 8000714:	200000b8 	.word	0x200000b8
 8000718:	40005400 	.word	0x40005400

0800071c <HAL_I2C_MspInit>:
 800071c:	b510      	push	{r4, lr}
 800071e:	b0a2      	sub	sp, #136	; 0x88
 8000720:	4604      	mov	r4, r0
 8000722:	2214      	movs	r2, #20
 8000724:	2100      	movs	r1, #0
 8000726:	a803      	add	r0, sp, #12
 8000728:	f002 fa3e 	bl	8002ba8 <memset>
 800072c:	2268      	movs	r2, #104	; 0x68
 800072e:	2100      	movs	r1, #0
 8000730:	a808      	add	r0, sp, #32
 8000732:	f002 fa39 	bl	8002ba8 <memset>
 8000736:	6822      	ldr	r2, [r4, #0]
 8000738:	4b17      	ldr	r3, [pc, #92]	; (8000798 <HAL_I2C_MspInit+0x7c>)
 800073a:	429a      	cmp	r2, r3
 800073c:	d12a      	bne.n	8000794 <HAL_I2C_MspInit+0x78>
 800073e:	2340      	movs	r3, #64	; 0x40
 8000740:	a808      	add	r0, sp, #32
 8000742:	9308      	str	r3, [sp, #32]
 8000744:	f001 ffc2 	bl	80026cc <HAL_RCCEx_PeriphCLKConfig>
 8000748:	b108      	cbz	r0, 800074e <HAL_I2C_MspInit+0x32>
 800074a:	f000 f8eb 	bl	8000924 <Error_Handler>
 800074e:	4c13      	ldr	r4, [pc, #76]	; (800079c <HAL_I2C_MspInit+0x80>)
 8000750:	6ce3      	ldr	r3, [r4, #76]	; 0x4c
 8000752:	f043 0301 	orr.w	r3, r3, #1
 8000756:	64e3      	str	r3, [r4, #76]	; 0x4c
 8000758:	6ce3      	ldr	r3, [r4, #76]	; 0x4c
 800075a:	f003 0301 	and.w	r3, r3, #1
 800075e:	9301      	str	r3, [sp, #4]
 8000760:	9b01      	ldr	r3, [sp, #4]
 8000762:	f44f 62c0 	mov.w	r2, #1536	; 0x600
 8000766:	2312      	movs	r3, #18
 8000768:	e9cd 2303 	strd	r2, r3, [sp, #12]
 800076c:	2100      	movs	r1, #0
 800076e:	2303      	movs	r3, #3
 8000770:	e9cd 1305 	strd	r1, r3, [sp, #20]
 8000774:	f04f 4090 	mov.w	r0, #1207959552	; 0x48000000
 8000778:	2304      	movs	r3, #4
 800077a:	a903      	add	r1, sp, #12
 800077c:	9307      	str	r3, [sp, #28]
 800077e:	f000 ffdd 	bl	800173c <HAL_GPIO_Init>
 8000782:	6da3      	ldr	r3, [r4, #88]	; 0x58
 8000784:	f443 1300 	orr.w	r3, r3, #2097152	; 0x200000
 8000788:	65a3      	str	r3, [r4, #88]	; 0x58
 800078a:	6da3      	ldr	r3, [r4, #88]	; 0x58
 800078c:	f403 1300 	and.w	r3, r3, #2097152	; 0x200000
 8000790:	9302      	str	r3, [sp, #8]
 8000792:	9b02      	ldr	r3, [sp, #8]
 8000794:	b022      	add	sp, #136	; 0x88
 8000796:	bd10      	pop	{r4, pc}
 8000798:	40005400 	.word	0x40005400
 800079c:	40021000 	.word	0x40021000

080007a0 <HAL_CAN_RxFifo0MsgPendingCallback>:
 80007a0:	f7ff be6c 	b.w	800047c <CAN_Message_Received>

080007a4 <SystemClock_Config>:
 80007a4:	b500      	push	{lr}
 80007a6:	b097      	sub	sp, #92	; 0x5c
 80007a8:	2244      	movs	r2, #68	; 0x44
 80007aa:	2100      	movs	r1, #0
 80007ac:	a805      	add	r0, sp, #20
 80007ae:	f002 f9fb 	bl	8002ba8 <memset>
 80007b2:	2214      	movs	r2, #20
 80007b4:	2100      	movs	r1, #0
 80007b6:	4668      	mov	r0, sp
 80007b8:	f002 f9f6 	bl	8002ba8 <memset>
 80007bc:	f44f 7000 	mov.w	r0, #512	; 0x200
 80007c0:	f001 fae6 	bl	8001d90 <HAL_PWREx_ControlVoltageScaling>
 80007c4:	b108      	cbz	r0, 80007ca <SystemClock_Config+0x26>
 80007c6:	b672      	cpsid	i
 80007c8:	e7fe      	b.n	80007c8 <SystemClock_Config+0x24>
 80007ca:	2310      	movs	r3, #16
 80007cc:	9305      	str	r3, [sp, #20]
 80007ce:	2301      	movs	r3, #1
 80007d0:	e9cd 300b 	strd	r3, r0, [sp, #44]	; 0x2c
 80007d4:	900f      	str	r0, [sp, #60]	; 0x3c
 80007d6:	2360      	movs	r3, #96	; 0x60
 80007d8:	a805      	add	r0, sp, #20
 80007da:	930d      	str	r3, [sp, #52]	; 0x34
 80007dc:	f001 fb9e 	bl	8001f1c <HAL_RCC_OscConfig>
 80007e0:	4601      	mov	r1, r0
 80007e2:	b108      	cbz	r0, 80007e8 <SystemClock_Config+0x44>
 80007e4:	b672      	cpsid	i
 80007e6:	e7fe      	b.n	80007e6 <SystemClock_Config+0x42>
 80007e8:	230f      	movs	r3, #15
 80007ea:	e9cd 3000 	strd	r3, r0, [sp]
 80007ee:	e9cd 0002 	strd	r0, r0, [sp, #8]
 80007f2:	9004      	str	r0, [sp, #16]
 80007f4:	4668      	mov	r0, sp
 80007f6:	f001 fe35 	bl	8002464 <HAL_RCC_ClockConfig>
 80007fa:	b108      	cbz	r0, 8000800 <SystemClock_Config+0x5c>
 80007fc:	b672      	cpsid	i
 80007fe:	e7fe      	b.n	80007fe <SystemClock_Config+0x5a>
 8000800:	b017      	add	sp, #92	; 0x5c
 8000802:	f85d fb04 	ldr.w	pc, [sp], #4
	...

08000808 <main>:
 8000808:	b5f0      	push	{r4, r5, r6, r7, lr}
 800080a:	b087      	sub	sp, #28
 800080c:	f000 f968 	bl	8000ae0 <HAL_Init>
 8000810:	f7ff ffc8 	bl	80007a4 <SystemClock_Config>
 8000814:	f7ff fef6 	bl	8000604 <MX_GPIO_Init>
 8000818:	f7ff fcdc 	bl	80001d4 <MX_ADC1_Init>
 800081c:	f7ff fd78 	bl	8000310 <MX_CAN1_Init>
 8000820:	f7ff ff52 	bl	80006c8 <MX_I2C1_Init>
 8000824:	f000 f880 	bl	8000928 <MX_SPI3_Init>
 8000828:	f002 f948 	bl	8002abc <MAX7300_Init>
 800082c:	483c      	ldr	r0, [pc, #240]	; (8000920 <main+0x118>)
 800082e:	4f3c      	ldr	r7, [pc, #240]	; (8000920 <main+0x118>)
 8000830:	f7ff fe97 	bl	8000562 <CAN_Queue_Init>
 8000834:	f7ff fdc2 	bl	80003bc <CAN_Init>
 8000838:	2500      	movs	r5, #0
 800083a:	2603      	movs	r6, #3
 800083c:	4638      	mov	r0, r7
 800083e:	f7ff fe94 	bl	800056a <CAN_Queue_IsEmpty>
 8000842:	2800      	cmp	r0, #0
 8000844:	d1fa      	bne.n	800083c <main+0x34>
 8000846:	466c      	mov	r4, sp
 8000848:	4621      	mov	r1, r4
 800084a:	4638      	mov	r0, r7
 800084c:	f7ff febe 	bl	80005cc <CAN_Queue_Dequeue>
 8000850:	2301      	movs	r3, #1
 8000852:	f88d 300e 	strb.w	r3, [sp, #14]
 8000856:	f88d 300f 	strb.w	r3, [sp, #15]
 800085a:	f89d 3003 	ldrb.w	r3, [sp, #3]
 800085e:	f88d 600d 	strb.w	r6, [sp, #13]
 8000862:	3ba0      	subs	r3, #160	; 0xa0
 8000864:	2b06      	cmp	r3, #6
 8000866:	d8e9      	bhi.n	800083c <main+0x34>
 8000868:	e8df f003 	tbb	[pc, r3]
 800086c:	2e231404 	.word	0x2e231404
 8000870:	473c      	.short	0x473c
 8000872:	4f          	.byte	0x4f
 8000873:	00          	.byte	0x00
 8000874:	e894 0007 	ldmia.w	r4, {r0, r1, r2}
 8000878:	f7ff fe4a 	bl	8000510 <CAN_Send_Default_ACK>
 800087c:	2300      	movs	r3, #0
 800087e:	f88d 300c 	strb.w	r3, [sp, #12]
 8000882:	23a0      	movs	r3, #160	; 0xa0
 8000884:	f88d 3010 	strb.w	r3, [sp, #16]
 8000888:	ab06      	add	r3, sp, #24
 800088a:	e913 0007 	ldmdb	r3, {r0, r1, r2}
 800088e:	f7ff fdb7 	bl	8000400 <CAN_Transmit_Message>
 8000892:	e7d3      	b.n	800083c <main+0x34>
 8000894:	e894 0007 	ldmia.w	r4, {r0, r1, r2}
 8000898:	f7ff fe3a 	bl	8000510 <CAN_Send_Default_ACK>
 800089c:	220f      	movs	r2, #15
 800089e:	f89d 3004 	ldrb.w	r3, [sp, #4]
 80008a2:	f88d 200c 	strb.w	r2, [sp, #12]
 80008a6:	22a1      	movs	r2, #161	; 0xa1
 80008a8:	f88d 2010 	strb.w	r2, [sp, #16]
 80008ac:	f88d 3011 	strb.w	r3, [sp, #17]
 80008b0:	e7ea      	b.n	8000888 <main+0x80>
 80008b2:	e894 0007 	ldmia.w	r4, {r0, r1, r2}
 80008b6:	f7ff fe2b 	bl	8000510 <CAN_Send_Default_ACK>
 80008ba:	2207      	movs	r2, #7
 80008bc:	f88d 200c 	strb.w	r2, [sp, #12]
 80008c0:	f89d 3004 	ldrb.w	r3, [sp, #4]
 80008c4:	22a2      	movs	r2, #162	; 0xa2
 80008c6:	e7ef      	b.n	80008a8 <main+0xa0>
 80008c8:	e894 0007 	ldmia.w	r4, {r0, r1, r2}
 80008cc:	f7ff fe20 	bl	8000510 <CAN_Send_Default_ACK>
 80008d0:	f89d 5004 	ldrb.w	r5, [sp, #4]
 80008d4:	f88d 600c 	strb.w	r6, [sp, #12]
 80008d8:	23a3      	movs	r3, #163	; 0xa3
 80008da:	f88d 3010 	strb.w	r3, [sp, #16]
 80008de:	f88d 5011 	strb.w	r5, [sp, #17]
 80008e2:	e7d1      	b.n	8000888 <main+0x80>
 80008e4:	e894 0007 	ldmia.w	r4, {r0, r1, r2}
 80008e8:	f7ff fe12 	bl	8000510 <CAN_Send_Default_ACK>
 80008ec:	2301      	movs	r3, #1
 80008ee:	f88d 300c 	strb.w	r3, [sp, #12]
 80008f2:	f89d 5004 	ldrb.w	r5, [sp, #4]
 80008f6:	23a4      	movs	r3, #164	; 0xa4
 80008f8:	e7ef      	b.n	80008da <main+0xd2>
 80008fa:	e894 0007 	ldmia.w	r4, {r0, r1, r2}
 80008fe:	f7ff fe07 	bl	8000510 <CAN_Send_Default_ACK>
 8000902:	f88d 600c 	strb.w	r6, [sp, #12]
 8000906:	23a5      	movs	r3, #165	; 0xa5
 8000908:	e7e7      	b.n	80008da <main+0xd2>
 800090a:	e894 0007 	ldmia.w	r4, {r0, r1, r2}
 800090e:	f7ff fdff 	bl	8000510 <CAN_Send_Default_ACK>
 8000912:	2201      	movs	r2, #1
 8000914:	f88d 200c 	strb.w	r2, [sp, #12]
 8000918:	f89d 3004 	ldrb.w	r3, [sp, #4]
 800091c:	22a6      	movs	r2, #166	; 0xa6
 800091e:	e7c3      	b.n	80008a8 <main+0xa0>
 8000920:	2000010c 	.word	0x2000010c

08000924 <Error_Handler>:
 8000924:	b672      	cpsid	i
 8000926:	e7fe      	b.n	8000926 <Error_Handler+0x2>

08000928 <MX_SPI3_Init>:
 8000928:	4810      	ldr	r0, [pc, #64]	; (800096c <MX_SPI3_Init+0x44>)
 800092a:	4a11      	ldr	r2, [pc, #68]	; (8000970 <MX_SPI3_Init+0x48>)
 800092c:	b508      	push	{r3, lr}
 800092e:	f44f 7382 	mov.w	r3, #260	; 0x104
 8000932:	e9c0 2300 	strd	r2, r3, [r0]
 8000936:	2300      	movs	r3, #0
 8000938:	f44f 6270 	mov.w	r2, #3840	; 0xf00
 800093c:	e9c0 3202 	strd	r3, r2, [r0, #8]
 8000940:	f44f 7200 	mov.w	r2, #512	; 0x200
 8000944:	e9c0 2306 	strd	r2, r3, [r0, #24]
 8000948:	2207      	movs	r2, #7
 800094a:	e9c0 3304 	strd	r3, r3, [r0, #16]
 800094e:	e9c0 3308 	strd	r3, r3, [r0, #32]
 8000952:	e9c0 230b 	strd	r2, r3, [r0, #44]	; 0x2c
 8000956:	6283      	str	r3, [r0, #40]	; 0x28
 8000958:	2308      	movs	r3, #8
 800095a:	6343      	str	r3, [r0, #52]	; 0x34
 800095c:	f002 f844 	bl	80029e8 <HAL_SPI_Init>
 8000960:	b118      	cbz	r0, 800096a <MX_SPI3_Init+0x42>
 8000962:	e8bd 4008 	ldmia.w	sp!, {r3, lr}
 8000966:	f7ff bfdd 	b.w	8000924 <Error_Handler>
 800096a:	bd08      	pop	{r3, pc}
 800096c:	20000560 	.word	0x20000560
 8000970:	40003c00 	.word	0x40003c00

08000974 <HAL_SPI_MspInit>:
 8000974:	b510      	push	{r4, lr}
 8000976:	4604      	mov	r4, r0
 8000978:	b088      	sub	sp, #32
 800097a:	2214      	movs	r2, #20
 800097c:	2100      	movs	r1, #0
 800097e:	a803      	add	r0, sp, #12
 8000980:	f002 f912 	bl	8002ba8 <memset>
 8000984:	6822      	ldr	r2, [r4, #0]
 8000986:	4b13      	ldr	r3, [pc, #76]	; (80009d4 <HAL_SPI_MspInit+0x60>)
 8000988:	429a      	cmp	r2, r3
 800098a:	d120      	bne.n	80009ce <HAL_SPI_MspInit+0x5a>
 800098c:	f503 33ea 	add.w	r3, r3, #119808	; 0x1d400
 8000990:	2103      	movs	r1, #3
 8000992:	6d9a      	ldr	r2, [r3, #88]	; 0x58
 8000994:	4810      	ldr	r0, [pc, #64]	; (80009d8 <HAL_SPI_MspInit+0x64>)
 8000996:	f442 4200 	orr.w	r2, r2, #32768	; 0x8000
 800099a:	659a      	str	r2, [r3, #88]	; 0x58
 800099c:	6d9a      	ldr	r2, [r3, #88]	; 0x58
 800099e:	f402 4200 	and.w	r2, r2, #32768	; 0x8000
 80009a2:	9201      	str	r2, [sp, #4]
 80009a4:	9a01      	ldr	r2, [sp, #4]
 80009a6:	6cda      	ldr	r2, [r3, #76]	; 0x4c
 80009a8:	f042 0204 	orr.w	r2, r2, #4
 80009ac:	64da      	str	r2, [r3, #76]	; 0x4c
 80009ae:	6cdb      	ldr	r3, [r3, #76]	; 0x4c
 80009b0:	f003 0304 	and.w	r3, r3, #4
 80009b4:	9302      	str	r3, [sp, #8]
 80009b6:	9b02      	ldr	r3, [sp, #8]
 80009b8:	f44f 52e0 	mov.w	r2, #7168	; 0x1c00
 80009bc:	2302      	movs	r3, #2
 80009be:	e9cd 2303 	strd	r2, r3, [sp, #12]
 80009c2:	2306      	movs	r3, #6
 80009c4:	e9cd 1306 	strd	r1, r3, [sp, #24]
 80009c8:	a903      	add	r1, sp, #12
 80009ca:	f000 feb7 	bl	800173c <HAL_GPIO_Init>
 80009ce:	b008      	add	sp, #32
 80009d0:	bd10      	pop	{r4, pc}
 80009d2:	bf00      	nop
 80009d4:	40003c00 	.word	0x40003c00
 80009d8:	48000800 	.word	0x48000800

080009dc <HAL_MspInit>:
 80009dc:	4b0a      	ldr	r3, [pc, #40]	; (8000a08 <HAL_MspInit+0x2c>)
 80009de:	6e1a      	ldr	r2, [r3, #96]	; 0x60
 80009e0:	f042 0201 	orr.w	r2, r2, #1
 80009e4:	661a      	str	r2, [r3, #96]	; 0x60
 80009e6:	6e1a      	ldr	r2, [r3, #96]	; 0x60
 80009e8:	b082      	sub	sp, #8
 80009ea:	f002 0201 	and.w	r2, r2, #1
 80009ee:	9200      	str	r2, [sp, #0]
 80009f0:	9a00      	ldr	r2, [sp, #0]
 80009f2:	6d9a      	ldr	r2, [r3, #88]	; 0x58
 80009f4:	f042 5280 	orr.w	r2, r2, #268435456	; 0x10000000
 80009f8:	659a      	str	r2, [r3, #88]	; 0x58
 80009fa:	6d9b      	ldr	r3, [r3, #88]	; 0x58
 80009fc:	f003 5380 	and.w	r3, r3, #268435456	; 0x10000000
 8000a00:	9301      	str	r3, [sp, #4]
 8000a02:	9b01      	ldr	r3, [sp, #4]
 8000a04:	b002      	add	sp, #8
 8000a06:	4770      	bx	lr
 8000a08:	40021000 	.word	0x40021000

08000a0c <NMI_Handler>:
 8000a0c:	e7fe      	b.n	8000a0c <NMI_Handler>

08000a0e <HardFault_Handler>:
 8000a0e:	e7fe      	b.n	8000a0e <HardFault_Handler>

08000a10 <MemManage_Handler>:
 8000a10:	e7fe      	b.n	8000a10 <MemManage_Handler>

08000a12 <BusFault_Handler>:
 8000a12:	e7fe      	b.n	8000a12 <BusFault_Handler>

08000a14 <UsageFault_Handler>:
 8000a14:	e7fe      	b.n	8000a14 <UsageFault_Handler>

08000a16 <SVC_Handler>:
 8000a16:	4770      	bx	lr

08000a18 <DebugMon_Handler>:
 8000a18:	4770      	bx	lr

08000a1a <PendSV_Handler>:
 8000a1a:	4770      	bx	lr

08000a1c <SysTick_Handler>:
 8000a1c:	f000 b870 	b.w	8000b00 <HAL_IncTick>

08000a20 <CAN1_RX0_IRQHandler>:
 8000a20:	4801      	ldr	r0, [pc, #4]	; (8000a28 <CAN1_RX0_IRQHandler+0x8>)
 8000a22:	f000 bd27 	b.w	8001474 <HAL_CAN_IRQHandler>
 8000a26:	bf00      	nop
 8000a28:	20000090 	.word	0x20000090

08000a2c <SystemInit>:
 8000a2c:	4a03      	ldr	r2, [pc, #12]	; (8000a3c <SystemInit+0x10>)
 8000a2e:	f8d2 3088 	ldr.w	r3, [r2, #136]	; 0x88
 8000a32:	f443 0370 	orr.w	r3, r3, #15728640	; 0xf00000
 8000a36:	f8c2 3088 	str.w	r3, [r2, #136]	; 0x88
 8000a3a:	4770      	bx	lr
 8000a3c:	e000ed00 	.word	0xe000ed00

08000a40 <Reset_Handler>:
 8000a40:	f8df d034 	ldr.w	sp, [pc, #52]	; 8000a78 <LoopForever+0x2>
 8000a44:	f7ff fff2 	bl	8000a2c <SystemInit>
 8000a48:	480c      	ldr	r0, [pc, #48]	; (8000a7c <LoopForever+0x6>)
 8000a4a:	490d      	ldr	r1, [pc, #52]	; (8000a80 <LoopForever+0xa>)
 8000a4c:	4a0d      	ldr	r2, [pc, #52]	; (8000a84 <LoopForever+0xe>)
 8000a4e:	2300      	movs	r3, #0
 8000a50:	e002      	b.n	8000a58 <LoopCopyDataInit>

08000a52 <CopyDataInit>:
 8000a52:	58d4      	ldr	r4, [r2, r3]
 8000a54:	50c4      	str	r4, [r0, r3]
 8000a56:	3304      	adds	r3, #4

08000a58 <LoopCopyDataInit>:
 8000a58:	18c4      	adds	r4, r0, r3
 8000a5a:	428c      	cmp	r4, r1
 8000a5c:	d3f9      	bcc.n	8000a52 <CopyDataInit>
 8000a5e:	4a0a      	ldr	r2, [pc, #40]	; (8000a88 <LoopForever+0x12>)
 8000a60:	4c0a      	ldr	r4, [pc, #40]	; (8000a8c <LoopForever+0x16>)
 8000a62:	2300      	movs	r3, #0
 8000a64:	e001      	b.n	8000a6a <LoopFillZerobss>

08000a66 <FillZerobss>:
 8000a66:	6013      	str	r3, [r2, #0]
 8000a68:	3204      	adds	r2, #4

08000a6a <LoopFillZerobss>:
 8000a6a:	42a2      	cmp	r2, r4
 8000a6c:	d3fb      	bcc.n	8000a66 <FillZerobss>
 8000a6e:	f002 f877 	bl	8002b60 <__libc_init_array>
 8000a72:	f7ff fec9 	bl	8000808 <main>

08000a76 <LoopForever>:
 8000a76:	e7fe      	b.n	8000a76 <LoopForever>
 8000a78:	20028000 	.word	0x20028000
 8000a7c:	20000000 	.word	0x20000000
 8000a80:	2000000c 	.word	0x2000000c
 8000a84:	08002c18 	.word	0x08002c18
 8000a88:	2000000c 	.word	0x2000000c
 8000a8c:	20000668 	.word	0x20000668

08000a90 <ADC1_IRQHandler>:
 8000a90:	e7fe      	b.n	8000a90 <ADC1_IRQHandler>
	...

08000a94 <HAL_InitTick>:
 8000a94:	b538      	push	{r3, r4, r5, lr}
 8000a96:	4b0f      	ldr	r3, [pc, #60]	; (8000ad4 <HAL_InitTick+0x40>)
 8000a98:	4605      	mov	r5, r0
 8000a9a:	7818      	ldrb	r0, [r3, #0]
 8000a9c:	b908      	cbnz	r0, 8000aa2 <HAL_InitTick+0xe>
 8000a9e:	2001      	movs	r0, #1
 8000aa0:	bd38      	pop	{r3, r4, r5, pc}
 8000aa2:	4a0d      	ldr	r2, [pc, #52]	; (8000ad8 <HAL_InitTick+0x44>)
 8000aa4:	f44f 737a 	mov.w	r3, #1000	; 0x3e8
 8000aa8:	fbb3 f3f0 	udiv	r3, r3, r0
 8000aac:	6810      	ldr	r0, [r2, #0]
 8000aae:	fbb0 f0f3 	udiv	r0, r0, r3
 8000ab2:	f000 fe2f 	bl	8001714 <HAL_SYSTICK_Config>
 8000ab6:	4604      	mov	r4, r0
 8000ab8:	2800      	cmp	r0, #0
 8000aba:	d1f0      	bne.n	8000a9e <HAL_InitTick+0xa>
 8000abc:	2d0f      	cmp	r5, #15
 8000abe:	d8ee      	bhi.n	8000a9e <HAL_InitTick+0xa>
 8000ac0:	4602      	mov	r2, r0
 8000ac2:	4629      	mov	r1, r5
 8000ac4:	f04f 30ff 	mov.w	r0, #4294967295
 8000ac8:	f000 fde4 	bl	8001694 <HAL_NVIC_SetPriority>
 8000acc:	4b03      	ldr	r3, [pc, #12]	; (8000adc <HAL_InitTick+0x48>)
 8000ace:	4620      	mov	r0, r4
 8000ad0:	601d      	str	r5, [r3, #0]
 8000ad2:	e7e5      	b.n	8000aa0 <HAL_InitTick+0xc>
 8000ad4:	20000004 	.word	0x20000004
 8000ad8:	20000000 	.word	0x20000000
 8000adc:	20000008 	.word	0x20000008

08000ae0 <HAL_Init>:
 8000ae0:	b510      	push	{r4, lr}
 8000ae2:	2003      	movs	r0, #3
 8000ae4:	f000 fdc4 	bl	8001670 <HAL_NVIC_SetPriorityGrouping>
 8000ae8:	200f      	movs	r0, #15
 8000aea:	f7ff ffd3 	bl	8000a94 <HAL_InitTick>
 8000aee:	4604      	mov	r4, r0
 8000af0:	b918      	cbnz	r0, 8000afa <HAL_Init+0x1a>
 8000af2:	f7ff ff73 	bl	80009dc <HAL_MspInit>
 8000af6:	4620      	mov	r0, r4
 8000af8:	bd10      	pop	{r4, pc}
 8000afa:	2401      	movs	r4, #1
 8000afc:	e7fb      	b.n	8000af6 <HAL_Init+0x16>
	...

08000b00 <HAL_IncTick>:
 8000b00:	4a03      	ldr	r2, [pc, #12]	; (8000b10 <HAL_IncTick+0x10>)
 8000b02:	4b04      	ldr	r3, [pc, #16]	; (8000b14 <HAL_IncTick+0x14>)
 8000b04:	6811      	ldr	r1, [r2, #0]
 8000b06:	781b      	ldrb	r3, [r3, #0]
 8000b08:	440b      	add	r3, r1
 8000b0a:	6013      	str	r3, [r2, #0]
 8000b0c:	4770      	bx	lr
 8000b0e:	bf00      	nop
 8000b10:	200005c4 	.word	0x200005c4
 8000b14:	20000004 	.word	0x20000004

08000b18 <HAL_GetTick>:
 8000b18:	4b01      	ldr	r3, [pc, #4]	; (8000b20 <HAL_GetTick+0x8>)
 8000b1a:	6818      	ldr	r0, [r3, #0]
 8000b1c:	4770      	bx	lr
 8000b1e:	bf00      	nop
 8000b20:	200005c4 	.word	0x200005c4

08000b24 <LL_ADC_SetChannelSamplingTime>:
 8000b24:	b530      	push	{r4, r5, lr}
 8000b26:	0dcc      	lsrs	r4, r1, #23
 8000b28:	f004 0404 	and.w	r4, r4, #4
 8000b2c:	3014      	adds	r0, #20
 8000b2e:	f3c1 5104 	ubfx	r1, r1, #20, #5
 8000b32:	5823      	ldr	r3, [r4, r0]
 8000b34:	2507      	movs	r5, #7
 8000b36:	408d      	lsls	r5, r1
 8000b38:	ea23 0305 	bic.w	r3, r3, r5
 8000b3c:	fa02 f101 	lsl.w	r1, r2, r1
 8000b40:	430b      	orrs	r3, r1
 8000b42:	5023      	str	r3, [r4, r0]
 8000b44:	bd30      	pop	{r4, r5, pc}

08000b46 <LL_ADC_REG_IsConversionOngoing>:
 8000b46:	6880      	ldr	r0, [r0, #8]
 8000b48:	f3c0 0080 	ubfx	r0, r0, #2, #1
 8000b4c:	4770      	bx	lr
	...

08000b50 <HAL_ADC_Init>:
 8000b50:	b537      	push	{r0, r1, r2, r4, r5, lr}
 8000b52:	2300      	movs	r3, #0
 8000b54:	9301      	str	r3, [sp, #4]
 8000b56:	4604      	mov	r4, r0
 8000b58:	2800      	cmp	r0, #0
 8000b5a:	f000 80c1 	beq.w	8000ce0 <HAL_ADC_Init+0x190>
 8000b5e:	6d85      	ldr	r5, [r0, #88]	; 0x58
 8000b60:	b925      	cbnz	r5, 8000b6c <HAL_ADC_Init+0x1c>
 8000b62:	f7ff fb73 	bl	800024c <HAL_ADC_MspInit>
 8000b66:	65e5      	str	r5, [r4, #92]	; 0x5c
 8000b68:	f884 5054 	strb.w	r5, [r4, #84]	; 0x54
 8000b6c:	6820      	ldr	r0, [r4, #0]
 8000b6e:	6883      	ldr	r3, [r0, #8]
 8000b70:	009b      	lsls	r3, r3, #2
 8000b72:	bf41      	itttt	mi
 8000b74:	6883      	ldrmi	r3, [r0, #8]
 8000b76:	f023 4320 	bicmi.w	r3, r3, #2684354560	; 0xa0000000
 8000b7a:	f023 033f 	bicmi.w	r3, r3, #63	; 0x3f
 8000b7e:	6083      	strmi	r3, [r0, #8]
 8000b80:	6883      	ldr	r3, [r0, #8]
 8000b82:	00dd      	lsls	r5, r3, #3
 8000b84:	f140 808c 	bpl.w	8000ca0 <HAL_ADC_Init+0x150>
 8000b88:	6883      	ldr	r3, [r0, #8]
 8000b8a:	00d9      	lsls	r1, r3, #3
 8000b8c:	f100 809f 	bmi.w	8000cce <HAL_ADC_Init+0x17e>
 8000b90:	6da3      	ldr	r3, [r4, #88]	; 0x58
 8000b92:	f043 0310 	orr.w	r3, r3, #16
 8000b96:	65a3      	str	r3, [r4, #88]	; 0x58
 8000b98:	6de3      	ldr	r3, [r4, #92]	; 0x5c
 8000b9a:	f043 0301 	orr.w	r3, r3, #1
 8000b9e:	65e3      	str	r3, [r4, #92]	; 0x5c
 8000ba0:	2101      	movs	r1, #1
 8000ba2:	f7ff ffd0 	bl	8000b46 <LL_ADC_REG_IsConversionOngoing>
 8000ba6:	6da3      	ldr	r3, [r4, #88]	; 0x58
 8000ba8:	f003 0310 	and.w	r3, r3, #16
 8000bac:	4303      	orrs	r3, r0
 8000bae:	6da3      	ldr	r3, [r4, #88]	; 0x58
 8000bb0:	f040 8093 	bne.w	8000cda <HAL_ADC_Init+0x18a>
 8000bb4:	f423 7381 	bic.w	r3, r3, #258	; 0x102
 8000bb8:	f043 0302 	orr.w	r3, r3, #2
 8000bbc:	6820      	ldr	r0, [r4, #0]
 8000bbe:	65a3      	str	r3, [r4, #88]	; 0x58
 8000bc0:	6883      	ldr	r3, [r0, #8]
 8000bc2:	07da      	lsls	r2, r3, #31
 8000bc4:	d40a      	bmi.n	8000bdc <HAL_ADC_Init+0x8c>
 8000bc6:	4b47      	ldr	r3, [pc, #284]	; (8000ce4 <HAL_ADC_Init+0x194>)
 8000bc8:	689b      	ldr	r3, [r3, #8]
 8000bca:	07db      	lsls	r3, r3, #31
 8000bcc:	d406      	bmi.n	8000bdc <HAL_ADC_Init+0x8c>
 8000bce:	4a46      	ldr	r2, [pc, #280]	; (8000ce8 <HAL_ADC_Init+0x198>)
 8000bd0:	6865      	ldr	r5, [r4, #4]
 8000bd2:	6893      	ldr	r3, [r2, #8]
 8000bd4:	f423 137c 	bic.w	r3, r3, #4128768	; 0x3f0000
 8000bd8:	432b      	orrs	r3, r5
 8000bda:	6093      	str	r3, [r2, #8]
 8000bdc:	68e5      	ldr	r5, [r4, #12]
 8000bde:	6b63      	ldr	r3, [r4, #52]	; 0x34
 8000be0:	f894 2020 	ldrb.w	r2, [r4, #32]
 8000be4:	432b      	orrs	r3, r5
 8000be6:	68a5      	ldr	r5, [r4, #8]
 8000be8:	432b      	orrs	r3, r5
 8000bea:	7e65      	ldrb	r5, [r4, #25]
 8000bec:	2a01      	cmp	r2, #1
 8000bee:	ea43 3345 	orr.w	r3, r3, r5, lsl #13
 8000bf2:	ea43 4302 	orr.w	r3, r3, r2, lsl #16
 8000bf6:	bf02      	ittt	eq
 8000bf8:	6a62      	ldreq	r2, [r4, #36]	; 0x24
 8000bfa:	f102 32ff 	addeq.w	r2, r2, #4294967295
 8000bfe:	ea43 4342 	orreq.w	r3, r3, r2, lsl #17
 8000c02:	6aa2      	ldr	r2, [r4, #40]	; 0x28
 8000c04:	b122      	cbz	r2, 8000c10 <HAL_ADC_Init+0xc0>
 8000c06:	6ae5      	ldr	r5, [r4, #44]	; 0x2c
 8000c08:	f402 7270 	and.w	r2, r2, #960	; 0x3c0
 8000c0c:	432a      	orrs	r2, r5
 8000c0e:	4313      	orrs	r3, r2
 8000c10:	68c5      	ldr	r5, [r0, #12]
 8000c12:	4a36      	ldr	r2, [pc, #216]	; (8000cec <HAL_ADC_Init+0x19c>)
 8000c14:	402a      	ands	r2, r5
 8000c16:	4313      	orrs	r3, r2
 8000c18:	60c3      	str	r3, [r0, #12]
 8000c1a:	f7ff ff94 	bl	8000b46 <LL_ADC_REG_IsConversionOngoing>
 8000c1e:	6823      	ldr	r3, [r4, #0]
 8000c20:	689a      	ldr	r2, [r3, #8]
 8000c22:	f002 0208 	and.w	r2, r2, #8
 8000c26:	4302      	orrs	r2, r0
 8000c28:	d122      	bne.n	8000c70 <HAL_ADC_Init+0x120>
 8000c2a:	f894 2030 	ldrb.w	r2, [r4, #48]	; 0x30
 8000c2e:	7e25      	ldrb	r5, [r4, #24]
 8000c30:	68d8      	ldr	r0, [r3, #12]
 8000c32:	0052      	lsls	r2, r2, #1
 8000c34:	ea42 3285 	orr.w	r2, r2, r5, lsl #14
 8000c38:	6ce5      	ldr	r5, [r4, #76]	; 0x4c
 8000c3a:	f420 4080 	bic.w	r0, r0, #16384	; 0x4000
 8000c3e:	432a      	orrs	r2, r5
 8000c40:	f020 0006 	bic.w	r0, r0, #6
 8000c44:	4302      	orrs	r2, r0
 8000c46:	60da      	str	r2, [r3, #12]
 8000c48:	f894 2038 	ldrb.w	r2, [r4, #56]	; 0x38
 8000c4c:	2a01      	cmp	r2, #1
 8000c4e:	d140      	bne.n	8000cd2 <HAL_ADC_Init+0x182>
 8000c50:	e9d4 250f 	ldrd	r2, r5, [r4, #60]	; 0x3c
 8000c54:	6918      	ldr	r0, [r3, #16]
 8000c56:	f420 60ff 	bic.w	r0, r0, #2040	; 0x7f8
 8000c5a:	f020 0004 	bic.w	r0, r0, #4
 8000c5e:	432a      	orrs	r2, r5
 8000c60:	4302      	orrs	r2, r0
 8000c62:	6c60      	ldr	r0, [r4, #68]	; 0x44
 8000c64:	4302      	orrs	r2, r0
 8000c66:	6ca0      	ldr	r0, [r4, #72]	; 0x48
 8000c68:	4302      	orrs	r2, r0
 8000c6a:	f042 0201 	orr.w	r2, r2, #1
 8000c6e:	611a      	str	r2, [r3, #16]
 8000c70:	6922      	ldr	r2, [r4, #16]
 8000c72:	2a01      	cmp	r2, #1
 8000c74:	bf05      	ittet	eq
 8000c76:	6b18      	ldreq	r0, [r3, #48]	; 0x30
 8000c78:	69e2      	ldreq	r2, [r4, #28]
 8000c7a:	6b1a      	ldrne	r2, [r3, #48]	; 0x30
 8000c7c:	f102 32ff 	addeq.w	r2, r2, #4294967295
 8000c80:	bf06      	itte	eq
 8000c82:	f020 000f 	biceq.w	r0, r0, #15
 8000c86:	4302      	orreq	r2, r0
 8000c88:	f022 020f 	bicne.w	r2, r2, #15
 8000c8c:	631a      	str	r2, [r3, #48]	; 0x30
 8000c8e:	6da3      	ldr	r3, [r4, #88]	; 0x58
 8000c90:	f023 0303 	bic.w	r3, r3, #3
 8000c94:	f043 0301 	orr.w	r3, r3, #1
 8000c98:	65a3      	str	r3, [r4, #88]	; 0x58
 8000c9a:	4608      	mov	r0, r1
 8000c9c:	b003      	add	sp, #12
 8000c9e:	bd30      	pop	{r4, r5, pc}
 8000ca0:	6883      	ldr	r3, [r0, #8]
 8000ca2:	4a13      	ldr	r2, [pc, #76]	; (8000cf0 <HAL_ADC_Init+0x1a0>)
 8000ca4:	f023 4310 	bic.w	r3, r3, #2415919104	; 0x90000000
 8000ca8:	f023 033f 	bic.w	r3, r3, #63	; 0x3f
 8000cac:	f043 5380 	orr.w	r3, r3, #268435456	; 0x10000000
 8000cb0:	6083      	str	r3, [r0, #8]
 8000cb2:	4b10      	ldr	r3, [pc, #64]	; (8000cf4 <HAL_ADC_Init+0x1a4>)
 8000cb4:	681b      	ldr	r3, [r3, #0]
 8000cb6:	fbb3 f3f2 	udiv	r3, r3, r2
 8000cba:	3301      	adds	r3, #1
 8000cbc:	005b      	lsls	r3, r3, #1
 8000cbe:	9301      	str	r3, [sp, #4]
 8000cc0:	9b01      	ldr	r3, [sp, #4]
 8000cc2:	2b00      	cmp	r3, #0
 8000cc4:	f43f af60 	beq.w	8000b88 <HAL_ADC_Init+0x38>
 8000cc8:	9b01      	ldr	r3, [sp, #4]
 8000cca:	3b01      	subs	r3, #1
 8000ccc:	e7f7      	b.n	8000cbe <HAL_ADC_Init+0x16e>
 8000cce:	2100      	movs	r1, #0
 8000cd0:	e767      	b.n	8000ba2 <HAL_ADC_Init+0x52>
 8000cd2:	691a      	ldr	r2, [r3, #16]
 8000cd4:	f022 0201 	bic.w	r2, r2, #1
 8000cd8:	e7c9      	b.n	8000c6e <HAL_ADC_Init+0x11e>
 8000cda:	f043 0310 	orr.w	r3, r3, #16
 8000cde:	65a3      	str	r3, [r4, #88]	; 0x58
 8000ce0:	2101      	movs	r1, #1
 8000ce2:	e7da      	b.n	8000c9a <HAL_ADC_Init+0x14a>
 8000ce4:	50040000 	.word	0x50040000
 8000ce8:	50040300 	.word	0x50040300
 8000cec:	fff0c007 	.word	0xfff0c007
 8000cf0:	00030d40 	.word	0x00030d40
 8000cf4:	20000000 	.word	0x20000000

08000cf8 <HAL_ADC_ConfigChannel>:
 8000cf8:	b5f7      	push	{r0, r1, r2, r4, r5, r6, r7, lr}
 8000cfa:	2300      	movs	r3, #0
 8000cfc:	9301      	str	r3, [sp, #4]
 8000cfe:	f890 3054 	ldrb.w	r3, [r0, #84]	; 0x54
 8000d02:	2b01      	cmp	r3, #1
 8000d04:	4605      	mov	r5, r0
 8000d06:	460c      	mov	r4, r1
 8000d08:	f000 81a5 	beq.w	8001056 <HAL_ADC_ConfigChannel+0x35e>
 8000d0c:	2301      	movs	r3, #1
 8000d0e:	f880 3054 	strb.w	r3, [r0, #84]	; 0x54
 8000d12:	6800      	ldr	r0, [r0, #0]
 8000d14:	f7ff ff17 	bl	8000b46 <LL_ADC_REG_IsConversionOngoing>
 8000d18:	2800      	cmp	r0, #0
 8000d1a:	f040 8196 	bne.w	800104a <HAL_ADC_ConfigChannel+0x352>
 8000d1e:	684b      	ldr	r3, [r1, #4]
 8000d20:	2b05      	cmp	r3, #5
 8000d22:	d809      	bhi.n	8000d38 <HAL_ADC_ConfigChannel+0x40>
 8000d24:	3b02      	subs	r3, #2
 8000d26:	2b03      	cmp	r3, #3
 8000d28:	f200 8094 	bhi.w	8000e54 <HAL_ADC_ConfigChannel+0x15c>
 8000d2c:	e8df f003 	tbb	[pc, r3]
 8000d30:	8f8d8b02 	.word	0x8f8d8b02
 8000d34:	230c      	movs	r3, #12
 8000d36:	6063      	str	r3, [r4, #4]
 8000d38:	6862      	ldr	r2, [r4, #4]
 8000d3a:	6828      	ldr	r0, [r5, #0]
 8000d3c:	6823      	ldr	r3, [r4, #0]
 8000d3e:	0991      	lsrs	r1, r2, #6
 8000d40:	f001 010c 	and.w	r1, r1, #12
 8000d44:	f100 0730 	add.w	r7, r0, #48	; 0x30
 8000d48:	f002 021f 	and.w	r2, r2, #31
 8000d4c:	59ce      	ldr	r6, [r1, r7]
 8000d4e:	f04f 0c1f 	mov.w	ip, #31
 8000d52:	f3c3 6384 	ubfx	r3, r3, #26, #5
 8000d56:	4093      	lsls	r3, r2
 8000d58:	fa0c f202 	lsl.w	r2, ip, r2
 8000d5c:	ea26 0202 	bic.w	r2, r6, r2
 8000d60:	4313      	orrs	r3, r2
 8000d62:	51cb      	str	r3, [r1, r7]
 8000d64:	f7ff feef 	bl	8000b46 <LL_ADC_REG_IsConversionOngoing>
 8000d68:	4601      	mov	r1, r0
 8000d6a:	6828      	ldr	r0, [r5, #0]
 8000d6c:	6882      	ldr	r2, [r0, #8]
 8000d6e:	f002 0208 	and.w	r2, r2, #8
 8000d72:	430a      	orrs	r2, r1
 8000d74:	d124      	bne.n	8000dc0 <HAL_ADC_ConfigChannel+0xc8>
 8000d76:	68a3      	ldr	r3, [r4, #8]
 8000d78:	6821      	ldr	r1, [r4, #0]
 8000d7a:	f1b3 4f00 	cmp.w	r3, #2147483648	; 0x80000000
 8000d7e:	d16b      	bne.n	8000e58 <HAL_ADC_ConfigChannel+0x160>
 8000d80:	f7ff fed0 	bl	8000b24 <LL_ADC_SetChannelSamplingTime>
 8000d84:	682a      	ldr	r2, [r5, #0]
 8000d86:	6953      	ldr	r3, [r2, #20]
 8000d88:	f043 4300 	orr.w	r3, r3, #2147483648	; 0x80000000
 8000d8c:	6153      	str	r3, [r2, #20]
 8000d8e:	6926      	ldr	r6, [r4, #16]
 8000d90:	6828      	ldr	r0, [r5, #0]
 8000d92:	6822      	ldr	r2, [r4, #0]
 8000d94:	68c1      	ldr	r1, [r0, #12]
 8000d96:	2e04      	cmp	r6, #4
 8000d98:	f100 0360 	add.w	r3, r0, #96	; 0x60
 8000d9c:	d064      	beq.n	8000e68 <HAL_ADC_ConfigChannel+0x170>
 8000d9e:	f3c1 01c1 	ubfx	r1, r1, #3, #2
 8000da2:	0048      	lsls	r0, r1, #1
 8000da4:	6961      	ldr	r1, [r4, #20]
 8000da6:	f853 7026 	ldr.w	r7, [r3, r6, lsl #2]
 8000daa:	4081      	lsls	r1, r0
 8000dac:	48ab      	ldr	r0, [pc, #684]	; (800105c <HAL_ADC_ConfigChannel+0x364>)
 8000dae:	f002 42f8 	and.w	r2, r2, #2080374784	; 0x7c000000
 8000db2:	4038      	ands	r0, r7
 8000db4:	4310      	orrs	r0, r2
 8000db6:	4301      	orrs	r1, r0
 8000db8:	f041 4100 	orr.w	r1, r1, #2147483648	; 0x80000000
 8000dbc:	f843 1026 	str.w	r1, [r3, r6, lsl #2]
 8000dc0:	6828      	ldr	r0, [r5, #0]
 8000dc2:	6883      	ldr	r3, [r0, #8]
 8000dc4:	07d9      	lsls	r1, r3, #31
 8000dc6:	d433      	bmi.n	8000e30 <HAL_ADC_ConfigChannel+0x138>
 8000dc8:	68e7      	ldr	r7, [r4, #12]
 8000dca:	6823      	ldr	r3, [r4, #0]
 8000dcc:	4aa4      	ldr	r2, [pc, #656]	; (8001060 <HAL_ADC_ConfigChannel+0x368>)
 8000dce:	f8d0 10b0 	ldr.w	r1, [r0, #176]	; 0xb0
 8000dd2:	f007 0c18 	and.w	ip, r7, #24
 8000dd6:	f3c3 0612 	ubfx	r6, r3, #0, #19
 8000dda:	fa22 f20c 	lsr.w	r2, r2, ip
 8000dde:	401a      	ands	r2, r3
 8000de0:	ea21 0106 	bic.w	r1, r1, r6
 8000de4:	430a      	orrs	r2, r1
 8000de6:	f8c0 20b0 	str.w	r2, [r0, #176]	; 0xb0
 8000dea:	4a9e      	ldr	r2, [pc, #632]	; (8001064 <HAL_ADC_ConfigChannel+0x36c>)
 8000dec:	4297      	cmp	r7, r2
 8000dee:	d11f      	bne.n	8000e30 <HAL_ADC_ConfigChannel+0x138>
 8000df0:	2e00      	cmp	r6, #0
 8000df2:	f040 808e 	bne.w	8000f12 <HAL_ADC_ConfigChannel+0x21a>
 8000df6:	0e9a      	lsrs	r2, r3, #26
 8000df8:	3201      	adds	r2, #1
 8000dfa:	f002 071f 	and.w	r7, r2, #31
 8000dfe:	2101      	movs	r1, #1
 8000e00:	0692      	lsls	r2, r2, #26
 8000e02:	2f09      	cmp	r7, #9
 8000e04:	f002 42f8 	and.w	r2, r2, #2080374784	; 0x7c000000
 8000e08:	fa01 f107 	lsl.w	r1, r1, r7
 8000e0c:	f200 80b3 	bhi.w	8000f76 <HAL_ADC_ConfigChannel+0x27e>
 8000e10:	430a      	orrs	r2, r1
 8000e12:	2e00      	cmp	r6, #0
 8000e14:	f040 8099 	bne.w	8000f4a <HAL_ADC_ConfigChannel+0x252>
 8000e18:	0e9b      	lsrs	r3, r3, #26
 8000e1a:	3301      	adds	r3, #1
 8000e1c:	f003 031f 	and.w	r3, r3, #31
 8000e20:	eb03 0343 	add.w	r3, r3, r3, lsl #1
 8000e24:	051b      	lsls	r3, r3, #20
 8000e26:	ea42 0103 	orr.w	r1, r2, r3
 8000e2a:	68a2      	ldr	r2, [r4, #8]
 8000e2c:	f7ff fe7a 	bl	8000b24 <LL_ADC_SetChannelSamplingTime>
 8000e30:	6821      	ldr	r1, [r4, #0]
 8000e32:	4b8d      	ldr	r3, [pc, #564]	; (8001068 <HAL_ADC_ConfigChannel+0x370>)
 8000e34:	4219      	tst	r1, r3
 8000e36:	f040 80b9 	bne.w	8000fac <HAL_ADC_ConfigChannel+0x2b4>
 8000e3a:	2000      	movs	r0, #0
 8000e3c:	2300      	movs	r3, #0
 8000e3e:	f885 3054 	strb.w	r3, [r5, #84]	; 0x54
 8000e42:	b003      	add	sp, #12
 8000e44:	bdf0      	pop	{r4, r5, r6, r7, pc}
 8000e46:	2312      	movs	r3, #18
 8000e48:	e775      	b.n	8000d36 <HAL_ADC_ConfigChannel+0x3e>
 8000e4a:	2318      	movs	r3, #24
 8000e4c:	e773      	b.n	8000d36 <HAL_ADC_ConfigChannel+0x3e>
 8000e4e:	f44f 7380 	mov.w	r3, #256	; 0x100
 8000e52:	e770      	b.n	8000d36 <HAL_ADC_ConfigChannel+0x3e>
 8000e54:	2306      	movs	r3, #6
 8000e56:	e76e      	b.n	8000d36 <HAL_ADC_ConfigChannel+0x3e>
 8000e58:	461a      	mov	r2, r3
 8000e5a:	f7ff fe63 	bl	8000b24 <LL_ADC_SetChannelSamplingTime>
 8000e5e:	682a      	ldr	r2, [r5, #0]
 8000e60:	6953      	ldr	r3, [r2, #20]
 8000e62:	f023 4300 	bic.w	r3, r3, #2147483648	; 0x80000000
 8000e66:	e791      	b.n	8000d8c <HAL_ADC_ConfigChannel+0x94>
 8000e68:	6e01      	ldr	r1, [r0, #96]	; 0x60
 8000e6a:	6e01      	ldr	r1, [r0, #96]	; 0x60
 8000e6c:	f3c2 0612 	ubfx	r6, r2, #0, #19
 8000e70:	f3c1 6184 	ubfx	r1, r1, #26, #5
 8000e74:	2e00      	cmp	r6, #0
 8000e76:	d138      	bne.n	8000eea <HAL_ADC_ConfigChannel+0x1f2>
 8000e78:	f3c2 6284 	ubfx	r2, r2, #26, #5
 8000e7c:	4291      	cmp	r1, r2
 8000e7e:	bf02      	ittt	eq
 8000e80:	6e02      	ldreq	r2, [r0, #96]	; 0x60
 8000e82:	f022 4200 	biceq.w	r2, r2, #2147483648	; 0x80000000
 8000e86:	6602      	streq	r2, [r0, #96]	; 0x60
 8000e88:	685a      	ldr	r2, [r3, #4]
 8000e8a:	6822      	ldr	r2, [r4, #0]
 8000e8c:	6859      	ldr	r1, [r3, #4]
 8000e8e:	f3c2 0012 	ubfx	r0, r2, #0, #19
 8000e92:	f3c1 6184 	ubfx	r1, r1, #26, #5
 8000e96:	bb68      	cbnz	r0, 8000ef4 <HAL_ADC_ConfigChannel+0x1fc>
 8000e98:	f3c2 6284 	ubfx	r2, r2, #26, #5
 8000e9c:	4291      	cmp	r1, r2
 8000e9e:	bf02      	ittt	eq
 8000ea0:	685a      	ldreq	r2, [r3, #4]
 8000ea2:	f022 4200 	biceq.w	r2, r2, #2147483648	; 0x80000000
 8000ea6:	605a      	streq	r2, [r3, #4]
 8000ea8:	689a      	ldr	r2, [r3, #8]
 8000eaa:	6822      	ldr	r2, [r4, #0]
 8000eac:	6899      	ldr	r1, [r3, #8]
 8000eae:	f3c2 0012 	ubfx	r0, r2, #0, #19
 8000eb2:	f3c1 6184 	ubfx	r1, r1, #26, #5
 8000eb6:	bb10      	cbnz	r0, 8000efe <HAL_ADC_ConfigChannel+0x206>
 8000eb8:	f3c2 6284 	ubfx	r2, r2, #26, #5
 8000ebc:	4291      	cmp	r1, r2
 8000ebe:	bf02      	ittt	eq
 8000ec0:	689a      	ldreq	r2, [r3, #8]
 8000ec2:	f022 4200 	biceq.w	r2, r2, #2147483648	; 0x80000000
 8000ec6:	609a      	streq	r2, [r3, #8]
 8000ec8:	68da      	ldr	r2, [r3, #12]
 8000eca:	6822      	ldr	r2, [r4, #0]
 8000ecc:	68d9      	ldr	r1, [r3, #12]
 8000ece:	f3c2 0012 	ubfx	r0, r2, #0, #19
 8000ed2:	f3c1 6184 	ubfx	r1, r1, #26, #5
 8000ed6:	b9b8      	cbnz	r0, 8000f08 <HAL_ADC_ConfigChannel+0x210>
 8000ed8:	f3c2 6284 	ubfx	r2, r2, #26, #5
 8000edc:	4291      	cmp	r1, r2
 8000ede:	bf02      	ittt	eq
 8000ee0:	68da      	ldreq	r2, [r3, #12]
 8000ee2:	f022 4200 	biceq.w	r2, r2, #2147483648	; 0x80000000
 8000ee6:	60da      	streq	r2, [r3, #12]
 8000ee8:	e76a      	b.n	8000dc0 <HAL_ADC_ConfigChannel+0xc8>
 8000eea:	fa92 f2a2 	rbit	r2, r2
 8000eee:	fab2 f282 	clz	r2, r2
 8000ef2:	e7c3      	b.n	8000e7c <HAL_ADC_ConfigChannel+0x184>
 8000ef4:	fa92 f2a2 	rbit	r2, r2
 8000ef8:	fab2 f282 	clz	r2, r2
 8000efc:	e7ce      	b.n	8000e9c <HAL_ADC_ConfigChannel+0x1a4>
 8000efe:	fa92 f2a2 	rbit	r2, r2
 8000f02:	fab2 f282 	clz	r2, r2
 8000f06:	e7d9      	b.n	8000ebc <HAL_ADC_ConfigChannel+0x1c4>
 8000f08:	fa92 f2a2 	rbit	r2, r2
 8000f0c:	fab2 f282 	clz	r2, r2
 8000f10:	e7e4      	b.n	8000edc <HAL_ADC_ConfigChannel+0x1e4>
 8000f12:	fa93 f2a3 	rbit	r2, r3
 8000f16:	b132      	cbz	r2, 8000f26 <HAL_ADC_ConfigChannel+0x22e>
 8000f18:	fab2 f282 	clz	r2, r2
 8000f1c:	3201      	adds	r2, #1
 8000f1e:	f002 021f 	and.w	r2, r2, #31
 8000f22:	2a09      	cmp	r2, #9
 8000f24:	d816      	bhi.n	8000f54 <HAL_ADC_ConfigChannel+0x25c>
 8000f26:	fa93 f2a3 	rbit	r2, r3
 8000f2a:	fab2 f282 	clz	r2, r2
 8000f2e:	3201      	adds	r2, #1
 8000f30:	0692      	lsls	r2, r2, #26
 8000f32:	f002 42f8 	and.w	r2, r2, #2080374784	; 0x7c000000
 8000f36:	fa93 f1a3 	rbit	r1, r3
 8000f3a:	fab1 f181 	clz	r1, r1
 8000f3e:	3101      	adds	r1, #1
 8000f40:	f001 071f 	and.w	r7, r1, #31
 8000f44:	2101      	movs	r1, #1
 8000f46:	40b9      	lsls	r1, r7
 8000f48:	e762      	b.n	8000e10 <HAL_ADC_ConfigChannel+0x118>
 8000f4a:	fa93 f3a3 	rbit	r3, r3
 8000f4e:	fab3 f383 	clz	r3, r3
 8000f52:	e762      	b.n	8000e1a <HAL_ADC_ConfigChannel+0x122>
 8000f54:	fa93 f2a3 	rbit	r2, r3
 8000f58:	fab2 f282 	clz	r2, r2
 8000f5c:	3201      	adds	r2, #1
 8000f5e:	0692      	lsls	r2, r2, #26
 8000f60:	f002 42f8 	and.w	r2, r2, #2080374784	; 0x7c000000
 8000f64:	fa93 f1a3 	rbit	r1, r3
 8000f68:	fab1 f181 	clz	r1, r1
 8000f6c:	3101      	adds	r1, #1
 8000f6e:	f001 071f 	and.w	r7, r1, #31
 8000f72:	2101      	movs	r1, #1
 8000f74:	40b9      	lsls	r1, r7
 8000f76:	430a      	orrs	r2, r1
 8000f78:	b95e      	cbnz	r6, 8000f92 <HAL_ADC_ConfigChannel+0x29a>
 8000f7a:	0e9e      	lsrs	r6, r3, #26
 8000f7c:	3601      	adds	r6, #1
 8000f7e:	f006 061f 	and.w	r6, r6, #31
 8000f82:	eb06 0146 	add.w	r1, r6, r6, lsl #1
 8000f86:	391e      	subs	r1, #30
 8000f88:	0509      	lsls	r1, r1, #20
 8000f8a:	f041 7100 	orr.w	r1, r1, #33554432	; 0x2000000
 8000f8e:	4311      	orrs	r1, r2
 8000f90:	e74b      	b.n	8000e2a <HAL_ADC_ConfigChannel+0x132>
 8000f92:	fa93 f1a3 	rbit	r1, r3
 8000f96:	fab1 f181 	clz	r1, r1
 8000f9a:	3101      	adds	r1, #1
 8000f9c:	f001 031f 	and.w	r3, r1, #31
 8000fa0:	f06f 061d 	mvn.w	r6, #29
 8000fa4:	2103      	movs	r1, #3
 8000fa6:	fb11 6103 	smlabb	r1, r1, r3, r6
 8000faa:	e7ed      	b.n	8000f88 <HAL_ADC_ConfigChannel+0x290>
 8000fac:	4b2f      	ldr	r3, [pc, #188]	; (800106c <HAL_ADC_ConfigChannel+0x374>)
 8000fae:	4a30      	ldr	r2, [pc, #192]	; (8001070 <HAL_ADC_ConfigChannel+0x378>)
 8000fb0:	6898      	ldr	r0, [r3, #8]
 8000fb2:	4291      	cmp	r1, r2
 8000fb4:	f000 74e0 	and.w	r4, r0, #29360128	; 0x1c00000
 8000fb8:	d11e      	bne.n	8000ff8 <HAL_ADC_ConfigChannel+0x300>
 8000fba:	0202      	lsls	r2, r0, #8
 8000fbc:	f53f af3d 	bmi.w	8000e3a <HAL_ADC_ConfigChannel+0x142>
 8000fc0:	6829      	ldr	r1, [r5, #0]
 8000fc2:	4a2c      	ldr	r2, [pc, #176]	; (8001074 <HAL_ADC_ConfigChannel+0x37c>)
 8000fc4:	4291      	cmp	r1, r2
 8000fc6:	f47f af38 	bne.w	8000e3a <HAL_ADC_ConfigChannel+0x142>
 8000fca:	689a      	ldr	r2, [r3, #8]
 8000fcc:	f022 72e0 	bic.w	r2, r2, #29360128	; 0x1c00000
 8000fd0:	4322      	orrs	r2, r4
 8000fd2:	f442 0200 	orr.w	r2, r2, #8388608	; 0x800000
 8000fd6:	609a      	str	r2, [r3, #8]
 8000fd8:	4b27      	ldr	r3, [pc, #156]	; (8001078 <HAL_ADC_ConfigChannel+0x380>)
 8000fda:	4a28      	ldr	r2, [pc, #160]	; (800107c <HAL_ADC_ConfigChannel+0x384>)
 8000fdc:	681b      	ldr	r3, [r3, #0]
 8000fde:	fbb3 f2f2 	udiv	r2, r3, r2
 8000fe2:	230c      	movs	r3, #12
 8000fe4:	fb02 3303 	mla	r3, r2, r3, r3
 8000fe8:	9301      	str	r3, [sp, #4]
 8000fea:	9b01      	ldr	r3, [sp, #4]
 8000fec:	2b00      	cmp	r3, #0
 8000fee:	f43f af24 	beq.w	8000e3a <HAL_ADC_ConfigChannel+0x142>
 8000ff2:	9b01      	ldr	r3, [sp, #4]
 8000ff4:	3b01      	subs	r3, #1
 8000ff6:	e7f7      	b.n	8000fe8 <HAL_ADC_ConfigChannel+0x2f0>
 8000ff8:	4a21      	ldr	r2, [pc, #132]	; (8001080 <HAL_ADC_ConfigChannel+0x388>)
 8000ffa:	4291      	cmp	r1, r2
 8000ffc:	d111      	bne.n	8001022 <HAL_ADC_ConfigChannel+0x32a>
 8000ffe:	f010 7080 	ands.w	r0, r0, #16777216	; 0x1000000
 8001002:	f47f af1a 	bne.w	8000e3a <HAL_ADC_ConfigChannel+0x142>
 8001006:	6829      	ldr	r1, [r5, #0]
 8001008:	f1a2 42f7 	sub.w	r2, r2, #2071986176	; 0x7b800000
 800100c:	4291      	cmp	r1, r2
 800100e:	f47f af14 	bne.w	8000e3a <HAL_ADC_ConfigChannel+0x142>
 8001012:	689a      	ldr	r2, [r3, #8]
 8001014:	f022 72e0 	bic.w	r2, r2, #29360128	; 0x1c00000
 8001018:	4322      	orrs	r2, r4
 800101a:	f042 7280 	orr.w	r2, r2, #16777216	; 0x1000000
 800101e:	609a      	str	r2, [r3, #8]
 8001020:	e70c      	b.n	8000e3c <HAL_ADC_ConfigChannel+0x144>
 8001022:	4a18      	ldr	r2, [pc, #96]	; (8001084 <HAL_ADC_ConfigChannel+0x38c>)
 8001024:	4291      	cmp	r1, r2
 8001026:	f47f af08 	bne.w	8000e3a <HAL_ADC_ConfigChannel+0x142>
 800102a:	f410 0080 	ands.w	r0, r0, #4194304	; 0x400000
 800102e:	f47f af04 	bne.w	8000e3a <HAL_ADC_ConfigChannel+0x142>
 8001032:	6829      	ldr	r1, [r5, #0]
 8001034:	4a0f      	ldr	r2, [pc, #60]	; (8001074 <HAL_ADC_ConfigChannel+0x37c>)
 8001036:	4291      	cmp	r1, r2
 8001038:	f47f aeff 	bne.w	8000e3a <HAL_ADC_ConfigChannel+0x142>
 800103c:	689a      	ldr	r2, [r3, #8]
 800103e:	f022 72e0 	bic.w	r2, r2, #29360128	; 0x1c00000
 8001042:	4322      	orrs	r2, r4
 8001044:	f442 0280 	orr.w	r2, r2, #4194304	; 0x400000
 8001048:	e7e9      	b.n	800101e <HAL_ADC_ConfigChannel+0x326>
 800104a:	6daa      	ldr	r2, [r5, #88]	; 0x58
 800104c:	f042 0220 	orr.w	r2, r2, #32
 8001050:	65aa      	str	r2, [r5, #88]	; 0x58
 8001052:	4618      	mov	r0, r3
 8001054:	e6f2      	b.n	8000e3c <HAL_ADC_ConfigChannel+0x144>
 8001056:	2002      	movs	r0, #2
 8001058:	e6f3      	b.n	8000e42 <HAL_ADC_ConfigChannel+0x14a>
 800105a:	bf00      	nop
 800105c:	03fff000 	.word	0x03fff000
 8001060:	0007ffff 	.word	0x0007ffff
 8001064:	407f0000 	.word	0x407f0000
 8001068:	80080000 	.word	0x80080000
 800106c:	50040300 	.word	0x50040300
 8001070:	c7520000 	.word	0xc7520000
 8001074:	50040000 	.word	0x50040000
 8001078:	20000000 	.word	0x20000000
 800107c:	00030d40 	.word	0x00030d40
 8001080:	cb840000 	.word	0xcb840000
 8001084:	80000001 	.word	0x80000001

08001088 <HAL_CAN_Init>:
 8001088:	b538      	push	{r3, r4, r5, lr}
 800108a:	4604      	mov	r4, r0
 800108c:	2800      	cmp	r0, #0
 800108e:	d06e      	beq.n	800116e <HAL_CAN_Init+0xe6>
 8001090:	f890 3020 	ldrb.w	r3, [r0, #32]
 8001094:	b90b      	cbnz	r3, 800109a <HAL_CAN_Init+0x12>
 8001096:	f7ff f955 	bl	8000344 <HAL_CAN_MspInit>
 800109a:	6822      	ldr	r2, [r4, #0]
 800109c:	6813      	ldr	r3, [r2, #0]
 800109e:	f043 0301 	orr.w	r3, r3, #1
 80010a2:	6013      	str	r3, [r2, #0]
 80010a4:	f7ff fd38 	bl	8000b18 <HAL_GetTick>
 80010a8:	4605      	mov	r5, r0
 80010aa:	6823      	ldr	r3, [r4, #0]
 80010ac:	685a      	ldr	r2, [r3, #4]
 80010ae:	07d1      	lsls	r1, r2, #31
 80010b0:	d551      	bpl.n	8001156 <HAL_CAN_Init+0xce>
 80010b2:	681a      	ldr	r2, [r3, #0]
 80010b4:	f022 0202 	bic.w	r2, r2, #2
 80010b8:	601a      	str	r2, [r3, #0]
 80010ba:	f7ff fd2d 	bl	8000b18 <HAL_GetTick>
 80010be:	4605      	mov	r5, r0
 80010c0:	6823      	ldr	r3, [r4, #0]
 80010c2:	685a      	ldr	r2, [r3, #4]
 80010c4:	0792      	lsls	r2, r2, #30
 80010c6:	d454      	bmi.n	8001172 <HAL_CAN_Init+0xea>
 80010c8:	7e22      	ldrb	r2, [r4, #24]
 80010ca:	2a01      	cmp	r2, #1
 80010cc:	681a      	ldr	r2, [r3, #0]
 80010ce:	bf0c      	ite	eq
 80010d0:	f042 0280 	orreq.w	r2, r2, #128	; 0x80
 80010d4:	f022 0280 	bicne.w	r2, r2, #128	; 0x80
 80010d8:	601a      	str	r2, [r3, #0]
 80010da:	7e62      	ldrb	r2, [r4, #25]
 80010dc:	2a01      	cmp	r2, #1
 80010de:	681a      	ldr	r2, [r3, #0]
 80010e0:	bf0c      	ite	eq
 80010e2:	f042 0240 	orreq.w	r2, r2, #64	; 0x40
 80010e6:	f022 0240 	bicne.w	r2, r2, #64	; 0x40
 80010ea:	601a      	str	r2, [r3, #0]
 80010ec:	7ea2      	ldrb	r2, [r4, #26]
 80010ee:	2a01      	cmp	r2, #1
 80010f0:	681a      	ldr	r2, [r3, #0]
 80010f2:	bf0c      	ite	eq
 80010f4:	f042 0220 	orreq.w	r2, r2, #32
 80010f8:	f022 0220 	bicne.w	r2, r2, #32
 80010fc:	601a      	str	r2, [r3, #0]
 80010fe:	7ee2      	ldrb	r2, [r4, #27]
 8001100:	2a01      	cmp	r2, #1
 8001102:	681a      	ldr	r2, [r3, #0]
 8001104:	bf0c      	ite	eq
 8001106:	f022 0210 	biceq.w	r2, r2, #16
 800110a:	f042 0210 	orrne.w	r2, r2, #16
 800110e:	601a      	str	r2, [r3, #0]
 8001110:	7f22      	ldrb	r2, [r4, #28]
 8001112:	2a01      	cmp	r2, #1
 8001114:	681a      	ldr	r2, [r3, #0]
 8001116:	bf0c      	ite	eq
 8001118:	f042 0208 	orreq.w	r2, r2, #8
 800111c:	f022 0208 	bicne.w	r2, r2, #8
 8001120:	601a      	str	r2, [r3, #0]
 8001122:	7f62      	ldrb	r2, [r4, #29]
 8001124:	2a01      	cmp	r2, #1
 8001126:	681a      	ldr	r2, [r3, #0]
 8001128:	bf0c      	ite	eq
 800112a:	f042 0204 	orreq.w	r2, r2, #4
 800112e:	f022 0204 	bicne.w	r2, r2, #4
 8001132:	601a      	str	r2, [r3, #0]
 8001134:	e9d4 2102 	ldrd	r2, r1, [r4, #8]
 8001138:	430a      	orrs	r2, r1
 800113a:	6921      	ldr	r1, [r4, #16]
 800113c:	430a      	orrs	r2, r1
 800113e:	6961      	ldr	r1, [r4, #20]
 8001140:	430a      	orrs	r2, r1
 8001142:	6861      	ldr	r1, [r4, #4]
 8001144:	3901      	subs	r1, #1
 8001146:	430a      	orrs	r2, r1
 8001148:	61da      	str	r2, [r3, #28]
 800114a:	2000      	movs	r0, #0
 800114c:	2301      	movs	r3, #1
 800114e:	6260      	str	r0, [r4, #36]	; 0x24
 8001150:	f884 3020 	strb.w	r3, [r4, #32]
 8001154:	bd38      	pop	{r3, r4, r5, pc}
 8001156:	f7ff fcdf 	bl	8000b18 <HAL_GetTick>
 800115a:	1b40      	subs	r0, r0, r5
 800115c:	280a      	cmp	r0, #10
 800115e:	d9a4      	bls.n	80010aa <HAL_CAN_Init+0x22>
 8001160:	6a63      	ldr	r3, [r4, #36]	; 0x24
 8001162:	f443 3300 	orr.w	r3, r3, #131072	; 0x20000
 8001166:	6263      	str	r3, [r4, #36]	; 0x24
 8001168:	2305      	movs	r3, #5
 800116a:	f884 3020 	strb.w	r3, [r4, #32]
 800116e:	2001      	movs	r0, #1
 8001170:	e7f0      	b.n	8001154 <HAL_CAN_Init+0xcc>
 8001172:	f7ff fcd1 	bl	8000b18 <HAL_GetTick>
 8001176:	1b40      	subs	r0, r0, r5
 8001178:	280a      	cmp	r0, #10
 800117a:	d9a1      	bls.n	80010c0 <HAL_CAN_Init+0x38>
 800117c:	e7f0      	b.n	8001160 <HAL_CAN_Init+0xd8>

0800117e <HAL_CAN_ConfigFilter>:
 800117e:	b570      	push	{r4, r5, r6, lr}
 8001180:	f890 3020 	ldrb.w	r3, [r0, #32]
 8001184:	3b01      	subs	r3, #1
 8001186:	2b01      	cmp	r3, #1
 8001188:	d862      	bhi.n	8001250 <HAL_CAN_ConfigFilter+0xd2>
 800118a:	6803      	ldr	r3, [r0, #0]
 800118c:	f8d3 2200 	ldr.w	r2, [r3, #512]	; 0x200
 8001190:	f042 0201 	orr.w	r2, r2, #1
 8001194:	f8c3 2200 	str.w	r2, [r3, #512]	; 0x200
 8001198:	694a      	ldr	r2, [r1, #20]
 800119a:	f8d3 521c 	ldr.w	r5, [r3, #540]	; 0x21c
 800119e:	2401      	movs	r4, #1
 80011a0:	f002 001f 	and.w	r0, r2, #31
 80011a4:	fa04 f000 	lsl.w	r0, r4, r0
 80011a8:	ea25 0500 	bic.w	r5, r5, r0
 80011ac:	f8c3 521c 	str.w	r5, [r3, #540]	; 0x21c
 80011b0:	69cd      	ldr	r5, [r1, #28]
 80011b2:	43c4      	mvns	r4, r0
 80011b4:	bb85      	cbnz	r5, 8001218 <HAL_CAN_ConfigFilter+0x9a>
 80011b6:	f8d3 520c 	ldr.w	r5, [r3, #524]	; 0x20c
 80011ba:	68ce      	ldr	r6, [r1, #12]
 80011bc:	4025      	ands	r5, r4
 80011be:	f8c3 520c 	str.w	r5, [r3, #524]	; 0x20c
 80011c2:	888d      	ldrh	r5, [r1, #4]
 80011c4:	eb03 02c2 	add.w	r2, r3, r2, lsl #3
 80011c8:	ea45 4506 	orr.w	r5, r5, r6, lsl #16
 80011cc:	f8c2 5240 	str.w	r5, [r2, #576]	; 0x240
 80011d0:	688e      	ldr	r6, [r1, #8]
 80011d2:	880d      	ldrh	r5, [r1, #0]
 80011d4:	ea45 4506 	orr.w	r5, r5, r6, lsl #16
 80011d8:	f8c2 5244 	str.w	r5, [r2, #580]	; 0x244
 80011dc:	698a      	ldr	r2, [r1, #24]
 80011de:	bb6a      	cbnz	r2, 800123c <HAL_CAN_ConfigFilter+0xbe>
 80011e0:	f8d3 2204 	ldr.w	r2, [r3, #516]	; 0x204
 80011e4:	4022      	ands	r2, r4
 80011e6:	f8c3 2204 	str.w	r2, [r3, #516]	; 0x204
 80011ea:	690a      	ldr	r2, [r1, #16]
 80011ec:	bb52      	cbnz	r2, 8001244 <HAL_CAN_ConfigFilter+0xc6>
 80011ee:	f8d3 2214 	ldr.w	r2, [r3, #532]	; 0x214
 80011f2:	4014      	ands	r4, r2
 80011f4:	f8c3 4214 	str.w	r4, [r3, #532]	; 0x214
 80011f8:	6a0a      	ldr	r2, [r1, #32]
 80011fa:	2a01      	cmp	r2, #1
 80011fc:	bf02      	ittt	eq
 80011fe:	f8d3 221c 	ldreq.w	r2, [r3, #540]	; 0x21c
 8001202:	4310      	orreq	r0, r2
 8001204:	f8c3 021c 	streq.w	r0, [r3, #540]	; 0x21c
 8001208:	f8d3 2200 	ldr.w	r2, [r3, #512]	; 0x200
 800120c:	f022 0201 	bic.w	r2, r2, #1
 8001210:	f8c3 2200 	str.w	r2, [r3, #512]	; 0x200
 8001214:	2000      	movs	r0, #0
 8001216:	bd70      	pop	{r4, r5, r6, pc}
 8001218:	2d01      	cmp	r5, #1
 800121a:	d1df      	bne.n	80011dc <HAL_CAN_ConfigFilter+0x5e>
 800121c:	f8d3 520c 	ldr.w	r5, [r3, #524]	; 0x20c
 8001220:	680e      	ldr	r6, [r1, #0]
 8001222:	4305      	orrs	r5, r0
 8001224:	f8c3 520c 	str.w	r5, [r3, #524]	; 0x20c
 8001228:	888d      	ldrh	r5, [r1, #4]
 800122a:	eb03 02c2 	add.w	r2, r3, r2, lsl #3
 800122e:	ea45 4506 	orr.w	r5, r5, r6, lsl #16
 8001232:	f8c2 5240 	str.w	r5, [r2, #576]	; 0x240
 8001236:	688e      	ldr	r6, [r1, #8]
 8001238:	898d      	ldrh	r5, [r1, #12]
 800123a:	e7cb      	b.n	80011d4 <HAL_CAN_ConfigFilter+0x56>
 800123c:	f8d3 2204 	ldr.w	r2, [r3, #516]	; 0x204
 8001240:	4302      	orrs	r2, r0
 8001242:	e7d0      	b.n	80011e6 <HAL_CAN_ConfigFilter+0x68>
 8001244:	f8d3 2214 	ldr.w	r2, [r3, #532]	; 0x214
 8001248:	4302      	orrs	r2, r0
 800124a:	f8c3 2214 	str.w	r2, [r3, #532]	; 0x214
 800124e:	e7d3      	b.n	80011f8 <HAL_CAN_ConfigFilter+0x7a>
 8001250:	6a43      	ldr	r3, [r0, #36]	; 0x24
 8001252:	f443 2380 	orr.w	r3, r3, #262144	; 0x40000
 8001256:	6243      	str	r3, [r0, #36]	; 0x24
 8001258:	2001      	movs	r0, #1
 800125a:	e7dc      	b.n	8001216 <HAL_CAN_ConfigFilter+0x98>

0800125c <HAL_CAN_Start>:
 800125c:	b570      	push	{r4, r5, r6, lr}
 800125e:	f890 3020 	ldrb.w	r3, [r0, #32]
 8001262:	2b01      	cmp	r3, #1
 8001264:	4604      	mov	r4, r0
 8001266:	b2dd      	uxtb	r5, r3
 8001268:	d120      	bne.n	80012ac <HAL_CAN_Start+0x50>
 800126a:	6802      	ldr	r2, [r0, #0]
 800126c:	2302      	movs	r3, #2
 800126e:	f880 3020 	strb.w	r3, [r0, #32]
 8001272:	6813      	ldr	r3, [r2, #0]
 8001274:	f023 0301 	bic.w	r3, r3, #1
 8001278:	6013      	str	r3, [r2, #0]
 800127a:	f7ff fc4d 	bl	8000b18 <HAL_GetTick>
 800127e:	4606      	mov	r6, r0
 8001280:	6823      	ldr	r3, [r4, #0]
 8001282:	685b      	ldr	r3, [r3, #4]
 8001284:	f013 0301 	ands.w	r3, r3, #1
 8001288:	d102      	bne.n	8001290 <HAL_CAN_Start+0x34>
 800128a:	6263      	str	r3, [r4, #36]	; 0x24
 800128c:	461d      	mov	r5, r3
 800128e:	e00b      	b.n	80012a8 <HAL_CAN_Start+0x4c>
 8001290:	f7ff fc42 	bl	8000b18 <HAL_GetTick>
 8001294:	1b80      	subs	r0, r0, r6
 8001296:	280a      	cmp	r0, #10
 8001298:	d9f2      	bls.n	8001280 <HAL_CAN_Start+0x24>
 800129a:	6a63      	ldr	r3, [r4, #36]	; 0x24
 800129c:	f443 3300 	orr.w	r3, r3, #131072	; 0x20000
 80012a0:	6263      	str	r3, [r4, #36]	; 0x24
 80012a2:	2305      	movs	r3, #5
 80012a4:	f884 3020 	strb.w	r3, [r4, #32]
 80012a8:	4628      	mov	r0, r5
 80012aa:	bd70      	pop	{r4, r5, r6, pc}
 80012ac:	6a43      	ldr	r3, [r0, #36]	; 0x24
 80012ae:	f443 2300 	orr.w	r3, r3, #524288	; 0x80000
 80012b2:	6243      	str	r3, [r0, #36]	; 0x24
 80012b4:	2501      	movs	r5, #1
 80012b6:	e7f7      	b.n	80012a8 <HAL_CAN_Start+0x4c>

080012b8 <HAL_CAN_AddTxMessage>:
 80012b8:	b5f0      	push	{r4, r5, r6, r7, lr}
 80012ba:	f890 5020 	ldrb.w	r5, [r0, #32]
 80012be:	6806      	ldr	r6, [r0, #0]
 80012c0:	3d01      	subs	r5, #1
 80012c2:	2d01      	cmp	r5, #1
 80012c4:	68b4      	ldr	r4, [r6, #8]
 80012c6:	d83d      	bhi.n	8001344 <HAL_CAN_AddTxMessage+0x8c>
 80012c8:	f014 5fe0 	tst.w	r4, #469762048	; 0x1c000000
 80012cc:	f04f 0501 	mov.w	r5, #1
 80012d0:	d032      	beq.n	8001338 <HAL_CAN_AddTxMessage+0x80>
 80012d2:	f3c4 6401 	ubfx	r4, r4, #24, #2
 80012d6:	40a5      	lsls	r5, r4
 80012d8:	601d      	str	r5, [r3, #0]
 80012da:	e9d1 0702 	ldrd	r0, r7, [r1, #8]
 80012de:	f104 0318 	add.w	r3, r4, #24
 80012e2:	bb20      	cbnz	r0, 800132e <HAL_CAN_AddTxMessage+0x76>
 80012e4:	6808      	ldr	r0, [r1, #0]
 80012e6:	ea47 5040 	orr.w	r0, r7, r0, lsl #21
 80012ea:	011b      	lsls	r3, r3, #4
 80012ec:	50f0      	str	r0, [r6, r3]
 80012ee:	eb06 1304 	add.w	r3, r6, r4, lsl #4
 80012f2:	690d      	ldr	r5, [r1, #16]
 80012f4:	f8c3 5184 	str.w	r5, [r3, #388]	; 0x184
 80012f8:	7d09      	ldrb	r1, [r1, #20]
 80012fa:	2901      	cmp	r1, #1
 80012fc:	bf08      	it	eq
 80012fe:	f8d3 1184 	ldreq.w	r1, [r3, #388]	; 0x184
 8001302:	ea4f 1004 	mov.w	r0, r4, lsl #4
 8001306:	bf04      	itt	eq
 8001308:	f441 7180 	orreq.w	r1, r1, #256	; 0x100
 800130c:	f8c3 1184 	streq.w	r1, [r3, #388]	; 0x184
 8001310:	4406      	add	r6, r0
 8001312:	6851      	ldr	r1, [r2, #4]
 8001314:	f8c6 118c 	str.w	r1, [r6, #396]	; 0x18c
 8001318:	6812      	ldr	r2, [r2, #0]
 800131a:	f8c6 2188 	str.w	r2, [r6, #392]	; 0x188
 800131e:	f8d3 2180 	ldr.w	r2, [r3, #384]	; 0x180
 8001322:	f042 0201 	orr.w	r2, r2, #1
 8001326:	f8c3 2180 	str.w	r2, [r3, #384]	; 0x180
 800132a:	2000      	movs	r0, #0
 800132c:	bdf0      	pop	{r4, r5, r6, r7, pc}
 800132e:	684d      	ldr	r5, [r1, #4]
 8001330:	4338      	orrs	r0, r7
 8001332:	ea40 00c5 	orr.w	r0, r0, r5, lsl #3
 8001336:	e7d8      	b.n	80012ea <HAL_CAN_AddTxMessage+0x32>
 8001338:	6a43      	ldr	r3, [r0, #36]	; 0x24
 800133a:	f443 1300 	orr.w	r3, r3, #2097152	; 0x200000
 800133e:	6243      	str	r3, [r0, #36]	; 0x24
 8001340:	2001      	movs	r0, #1
 8001342:	e7f3      	b.n	800132c <HAL_CAN_AddTxMessage+0x74>
 8001344:	6a43      	ldr	r3, [r0, #36]	; 0x24
 8001346:	f443 2380 	orr.w	r3, r3, #262144	; 0x40000
 800134a:	e7f8      	b.n	800133e <HAL_CAN_AddTxMessage+0x86>

0800134c <HAL_CAN_GetRxMessage>:
 800134c:	b5f0      	push	{r4, r5, r6, r7, lr}
 800134e:	f890 4020 	ldrb.w	r4, [r0, #32]
 8001352:	3c01      	subs	r4, #1
 8001354:	2c01      	cmp	r4, #1
 8001356:	d86c      	bhi.n	8001432 <HAL_CAN_GetRxMessage+0xe6>
 8001358:	6806      	ldr	r6, [r0, #0]
 800135a:	b941      	cbnz	r1, 800136e <HAL_CAN_GetRxMessage+0x22>
 800135c:	68f4      	ldr	r4, [r6, #12]
 800135e:	07a4      	lsls	r4, r4, #30
 8001360:	d107      	bne.n	8001372 <HAL_CAN_GetRxMessage+0x26>
 8001362:	6a43      	ldr	r3, [r0, #36]	; 0x24
 8001364:	f443 1300 	orr.w	r3, r3, #2097152	; 0x200000
 8001368:	6243      	str	r3, [r0, #36]	; 0x24
 800136a:	2001      	movs	r0, #1
 800136c:	e056      	b.n	800141c <HAL_CAN_GetRxMessage+0xd0>
 800136e:	6934      	ldr	r4, [r6, #16]
 8001370:	e7f5      	b.n	800135e <HAL_CAN_GetRxMessage+0x12>
 8001372:	eb06 1501 	add.w	r5, r6, r1, lsl #4
 8001376:	010c      	lsls	r4, r1, #4
 8001378:	f8d5 71b0 	ldr.w	r7, [r5, #432]	; 0x1b0
 800137c:	f007 0704 	and.w	r7, r7, #4
 8001380:	6097      	str	r7, [r2, #8]
 8001382:	2f00      	cmp	r7, #0
 8001384:	d14b      	bne.n	800141e <HAL_CAN_GetRxMessage+0xd2>
 8001386:	f8d5 71b0 	ldr.w	r7, [r5, #432]	; 0x1b0
 800138a:	0d7f      	lsrs	r7, r7, #21
 800138c:	6017      	str	r7, [r2, #0]
 800138e:	f8d5 71b0 	ldr.w	r7, [r5, #432]	; 0x1b0
 8001392:	f007 0702 	and.w	r7, r7, #2
 8001396:	60d7      	str	r7, [r2, #12]
 8001398:	f8d5 71b4 	ldr.w	r7, [r5, #436]	; 0x1b4
 800139c:	f007 070f 	and.w	r7, r7, #15
 80013a0:	6117      	str	r7, [r2, #16]
 80013a2:	f8d5 71b4 	ldr.w	r7, [r5, #436]	; 0x1b4
 80013a6:	f8d5 51b4 	ldr.w	r5, [r5, #436]	; 0x1b4
 80013aa:	4426      	add	r6, r4
 80013ac:	f3c7 2707 	ubfx	r7, r7, #8, #8
 80013b0:	0c2d      	lsrs	r5, r5, #16
 80013b2:	6197      	str	r7, [r2, #24]
 80013b4:	6155      	str	r5, [r2, #20]
 80013b6:	f8d6 21b8 	ldr.w	r2, [r6, #440]	; 0x1b8
 80013ba:	701a      	strb	r2, [r3, #0]
 80013bc:	6802      	ldr	r2, [r0, #0]
 80013be:	4422      	add	r2, r4
 80013c0:	f8d2 21b8 	ldr.w	r2, [r2, #440]	; 0x1b8
 80013c4:	0a12      	lsrs	r2, r2, #8
 80013c6:	705a      	strb	r2, [r3, #1]
 80013c8:	6802      	ldr	r2, [r0, #0]
 80013ca:	4422      	add	r2, r4
 80013cc:	f8d2 21b8 	ldr.w	r2, [r2, #440]	; 0x1b8
 80013d0:	0c12      	lsrs	r2, r2, #16
 80013d2:	709a      	strb	r2, [r3, #2]
 80013d4:	6802      	ldr	r2, [r0, #0]
 80013d6:	4422      	add	r2, r4
 80013d8:	f8d2 21b8 	ldr.w	r2, [r2, #440]	; 0x1b8
 80013dc:	0e12      	lsrs	r2, r2, #24
 80013de:	70da      	strb	r2, [r3, #3]
 80013e0:	6802      	ldr	r2, [r0, #0]
 80013e2:	4422      	add	r2, r4
 80013e4:	f8d2 21bc 	ldr.w	r2, [r2, #444]	; 0x1bc
 80013e8:	711a      	strb	r2, [r3, #4]
 80013ea:	6802      	ldr	r2, [r0, #0]
 80013ec:	4422      	add	r2, r4
 80013ee:	f8d2 21bc 	ldr.w	r2, [r2, #444]	; 0x1bc
 80013f2:	0a12      	lsrs	r2, r2, #8
 80013f4:	715a      	strb	r2, [r3, #5]
 80013f6:	6802      	ldr	r2, [r0, #0]
 80013f8:	4422      	add	r2, r4
 80013fa:	f8d2 21bc 	ldr.w	r2, [r2, #444]	; 0x1bc
 80013fe:	0c12      	lsrs	r2, r2, #16
 8001400:	719a      	strb	r2, [r3, #6]
 8001402:	6802      	ldr	r2, [r0, #0]
 8001404:	4422      	add	r2, r4
 8001406:	f8d2 21bc 	ldr.w	r2, [r2, #444]	; 0x1bc
 800140a:	0e12      	lsrs	r2, r2, #24
 800140c:	71da      	strb	r2, [r3, #7]
 800140e:	6803      	ldr	r3, [r0, #0]
 8001410:	b951      	cbnz	r1, 8001428 <HAL_CAN_GetRxMessage+0xdc>
 8001412:	68da      	ldr	r2, [r3, #12]
 8001414:	f042 0220 	orr.w	r2, r2, #32
 8001418:	60da      	str	r2, [r3, #12]
 800141a:	2000      	movs	r0, #0
 800141c:	bdf0      	pop	{r4, r5, r6, r7, pc}
 800141e:	f8d5 71b0 	ldr.w	r7, [r5, #432]	; 0x1b0
 8001422:	08ff      	lsrs	r7, r7, #3
 8001424:	6057      	str	r7, [r2, #4]
 8001426:	e7b2      	b.n	800138e <HAL_CAN_GetRxMessage+0x42>
 8001428:	691a      	ldr	r2, [r3, #16]
 800142a:	f042 0220 	orr.w	r2, r2, #32
 800142e:	611a      	str	r2, [r3, #16]
 8001430:	e7f3      	b.n	800141a <HAL_CAN_GetRxMessage+0xce>
 8001432:	6a43      	ldr	r3, [r0, #36]	; 0x24
 8001434:	f443 2380 	orr.w	r3, r3, #262144	; 0x40000
 8001438:	e796      	b.n	8001368 <HAL_CAN_GetRxMessage+0x1c>

0800143a <HAL_CAN_ActivateNotification>:
 800143a:	f890 3020 	ldrb.w	r3, [r0, #32]
 800143e:	3b01      	subs	r3, #1
 8001440:	2b01      	cmp	r3, #1
 8001442:	d805      	bhi.n	8001450 <HAL_CAN_ActivateNotification+0x16>
 8001444:	6802      	ldr	r2, [r0, #0]
 8001446:	6953      	ldr	r3, [r2, #20]
 8001448:	4319      	orrs	r1, r3
 800144a:	6151      	str	r1, [r2, #20]
 800144c:	2000      	movs	r0, #0
 800144e:	4770      	bx	lr
 8001450:	6a43      	ldr	r3, [r0, #36]	; 0x24
 8001452:	f443 2380 	orr.w	r3, r3, #262144	; 0x40000
 8001456:	6243      	str	r3, [r0, #36]	; 0x24
 8001458:	2001      	movs	r0, #1
 800145a:	4770      	bx	lr

0800145c <HAL_CAN_TxMailbox0CompleteCallback>:
 800145c:	4770      	bx	lr

0800145e <HAL_CAN_TxMailbox1CompleteCallback>:
 800145e:	4770      	bx	lr

08001460 <HAL_CAN_TxMailbox2CompleteCallback>:
 8001460:	4770      	bx	lr

08001462 <HAL_CAN_TxMailbox0AbortCallback>:
 8001462:	4770      	bx	lr

08001464 <HAL_CAN_TxMailbox1AbortCallback>:
 8001464:	4770      	bx	lr

08001466 <HAL_CAN_TxMailbox2AbortCallback>:
 8001466:	4770      	bx	lr

08001468 <HAL_CAN_RxFifo0FullCallback>:
 8001468:	4770      	bx	lr

0800146a <HAL_CAN_RxFifo1MsgPendingCallback>:
 800146a:	4770      	bx	lr

0800146c <HAL_CAN_RxFifo1FullCallback>:
 800146c:	4770      	bx	lr

0800146e <HAL_CAN_SleepCallback>:
 800146e:	4770      	bx	lr

08001470 <HAL_CAN_WakeUpFromRxMsgCallback>:
 8001470:	4770      	bx	lr

08001472 <HAL_CAN_ErrorCallback>:
 8001472:	4770      	bx	lr

08001474 <HAL_CAN_IRQHandler>:
 8001474:	e92d 4ff8 	stmdb	sp!, {r3, r4, r5, r6, r7, r8, r9, sl, fp, lr}
 8001478:	6803      	ldr	r3, [r0, #0]
 800147a:	695e      	ldr	r6, [r3, #20]
 800147c:	f8d3 9004 	ldr.w	r9, [r3, #4]
 8001480:	689f      	ldr	r7, [r3, #8]
 8001482:	f8d3 b00c 	ldr.w	fp, [r3, #12]
 8001486:	f8d3 a010 	ldr.w	sl, [r3, #16]
 800148a:	f8d3 8018 	ldr.w	r8, [r3, #24]
 800148e:	f016 0401 	ands.w	r4, r6, #1
 8001492:	4605      	mov	r5, r0
 8001494:	d022      	beq.n	80014dc <HAL_CAN_IRQHandler+0x68>
 8001496:	f017 0401 	ands.w	r4, r7, #1
 800149a:	d007      	beq.n	80014ac <HAL_CAN_IRQHandler+0x38>
 800149c:	2201      	movs	r2, #1
 800149e:	07b9      	lsls	r1, r7, #30
 80014a0:	609a      	str	r2, [r3, #8]
 80014a2:	f140 80a5 	bpl.w	80015f0 <HAL_CAN_IRQHandler+0x17c>
 80014a6:	f7ff ffd9 	bl	800145c <HAL_CAN_TxMailbox0CompleteCallback>
 80014aa:	2400      	movs	r4, #0
 80014ac:	05fb      	lsls	r3, r7, #23
 80014ae:	d509      	bpl.n	80014c4 <HAL_CAN_IRQHandler+0x50>
 80014b0:	682b      	ldr	r3, [r5, #0]
 80014b2:	f44f 7280 	mov.w	r2, #256	; 0x100
 80014b6:	05b8      	lsls	r0, r7, #22
 80014b8:	609a      	str	r2, [r3, #8]
 80014ba:	f140 80a7 	bpl.w	800160c <HAL_CAN_IRQHandler+0x198>
 80014be:	4628      	mov	r0, r5
 80014c0:	f7ff ffcd 	bl	800145e <HAL_CAN_TxMailbox1CompleteCallback>
 80014c4:	03fb      	lsls	r3, r7, #15
 80014c6:	d509      	bpl.n	80014dc <HAL_CAN_IRQHandler+0x68>
 80014c8:	682b      	ldr	r3, [r5, #0]
 80014ca:	f44f 3280 	mov.w	r2, #65536	; 0x10000
 80014ce:	03b8      	lsls	r0, r7, #14
 80014d0:	609a      	str	r2, [r3, #8]
 80014d2:	f140 80a9 	bpl.w	8001628 <HAL_CAN_IRQHandler+0x1b4>
 80014d6:	4628      	mov	r0, r5
 80014d8:	f7ff ffc2 	bl	8001460 <HAL_CAN_TxMailbox2CompleteCallback>
 80014dc:	0733      	lsls	r3, r6, #28
 80014de:	d507      	bpl.n	80014f0 <HAL_CAN_IRQHandler+0x7c>
 80014e0:	f01b 0f10 	tst.w	fp, #16
 80014e4:	bf1f      	itttt	ne
 80014e6:	682b      	ldrne	r3, [r5, #0]
 80014e8:	2210      	movne	r2, #16
 80014ea:	f444 7400 	orrne.w	r4, r4, #512	; 0x200
 80014ee:	60da      	strne	r2, [r3, #12]
 80014f0:	0777      	lsls	r7, r6, #29
 80014f2:	d508      	bpl.n	8001506 <HAL_CAN_IRQHandler+0x92>
 80014f4:	f01b 0f08 	tst.w	fp, #8
 80014f8:	d005      	beq.n	8001506 <HAL_CAN_IRQHandler+0x92>
 80014fa:	682b      	ldr	r3, [r5, #0]
 80014fc:	2208      	movs	r2, #8
 80014fe:	60da      	str	r2, [r3, #12]
 8001500:	4628      	mov	r0, r5
 8001502:	f7ff ffb1 	bl	8001468 <HAL_CAN_RxFifo0FullCallback>
 8001506:	07b0      	lsls	r0, r6, #30
 8001508:	d506      	bpl.n	8001518 <HAL_CAN_IRQHandler+0xa4>
 800150a:	682b      	ldr	r3, [r5, #0]
 800150c:	68db      	ldr	r3, [r3, #12]
 800150e:	0799      	lsls	r1, r3, #30
 8001510:	d002      	beq.n	8001518 <HAL_CAN_IRQHandler+0xa4>
 8001512:	4628      	mov	r0, r5
 8001514:	f7ff f944 	bl	80007a0 <HAL_CAN_RxFifo0MsgPendingCallback>
 8001518:	0672      	lsls	r2, r6, #25
 800151a:	d507      	bpl.n	800152c <HAL_CAN_IRQHandler+0xb8>
 800151c:	f01a 0f10 	tst.w	sl, #16
 8001520:	bf1f      	itttt	ne
 8001522:	682b      	ldrne	r3, [r5, #0]
 8001524:	2210      	movne	r2, #16
 8001526:	f444 6480 	orrne.w	r4, r4, #1024	; 0x400
 800152a:	611a      	strne	r2, [r3, #16]
 800152c:	06b3      	lsls	r3, r6, #26
 800152e:	d508      	bpl.n	8001542 <HAL_CAN_IRQHandler+0xce>
 8001530:	f01a 0f08 	tst.w	sl, #8
 8001534:	d005      	beq.n	8001542 <HAL_CAN_IRQHandler+0xce>
 8001536:	682b      	ldr	r3, [r5, #0]
 8001538:	2208      	movs	r2, #8
 800153a:	611a      	str	r2, [r3, #16]
 800153c:	4628      	mov	r0, r5
 800153e:	f7ff ff95 	bl	800146c <HAL_CAN_RxFifo1FullCallback>
 8001542:	06f7      	lsls	r7, r6, #27
 8001544:	d506      	bpl.n	8001554 <HAL_CAN_IRQHandler+0xe0>
 8001546:	682b      	ldr	r3, [r5, #0]
 8001548:	691b      	ldr	r3, [r3, #16]
 800154a:	0798      	lsls	r0, r3, #30
 800154c:	d002      	beq.n	8001554 <HAL_CAN_IRQHandler+0xe0>
 800154e:	4628      	mov	r0, r5
 8001550:	f7ff ff8b 	bl	800146a <HAL_CAN_RxFifo1MsgPendingCallback>
 8001554:	03b1      	lsls	r1, r6, #14
 8001556:	d508      	bpl.n	800156a <HAL_CAN_IRQHandler+0xf6>
 8001558:	f019 0f10 	tst.w	r9, #16
 800155c:	d005      	beq.n	800156a <HAL_CAN_IRQHandler+0xf6>
 800155e:	682b      	ldr	r3, [r5, #0]
 8001560:	2210      	movs	r2, #16
 8001562:	605a      	str	r2, [r3, #4]
 8001564:	4628      	mov	r0, r5
 8001566:	f7ff ff82 	bl	800146e <HAL_CAN_SleepCallback>
 800156a:	03f2      	lsls	r2, r6, #15
 800156c:	d508      	bpl.n	8001580 <HAL_CAN_IRQHandler+0x10c>
 800156e:	f019 0f08 	tst.w	r9, #8
 8001572:	d005      	beq.n	8001580 <HAL_CAN_IRQHandler+0x10c>
 8001574:	682b      	ldr	r3, [r5, #0]
 8001576:	2208      	movs	r2, #8
 8001578:	605a      	str	r2, [r3, #4]
 800157a:	4628      	mov	r0, r5
 800157c:	f7ff ff78 	bl	8001470 <HAL_CAN_WakeUpFromRxMsgCallback>
 8001580:	0433      	lsls	r3, r6, #16
 8001582:	d52c      	bpl.n	80015de <HAL_CAN_IRQHandler+0x16a>
 8001584:	f019 0f04 	tst.w	r9, #4
 8001588:	682a      	ldr	r2, [r5, #0]
 800158a:	d026      	beq.n	80015da <HAL_CAN_IRQHandler+0x166>
 800158c:	05f7      	lsls	r7, r6, #23
 800158e:	d504      	bpl.n	800159a <HAL_CAN_IRQHandler+0x126>
 8001590:	f018 0f01 	tst.w	r8, #1
 8001594:	bf18      	it	ne
 8001596:	f044 0401 	orrne.w	r4, r4, #1
 800159a:	05b0      	lsls	r0, r6, #22
 800159c:	d504      	bpl.n	80015a8 <HAL_CAN_IRQHandler+0x134>
 800159e:	f018 0f02 	tst.w	r8, #2
 80015a2:	bf18      	it	ne
 80015a4:	f044 0402 	orrne.w	r4, r4, #2
 80015a8:	0571      	lsls	r1, r6, #21
 80015aa:	d504      	bpl.n	80015b6 <HAL_CAN_IRQHandler+0x142>
 80015ac:	f018 0f04 	tst.w	r8, #4
 80015b0:	bf18      	it	ne
 80015b2:	f044 0404 	orrne.w	r4, r4, #4
 80015b6:	0533      	lsls	r3, r6, #20
 80015b8:	d50f      	bpl.n	80015da <HAL_CAN_IRQHandler+0x166>
 80015ba:	f018 0370 	ands.w	r3, r8, #112	; 0x70
 80015be:	d00c      	beq.n	80015da <HAL_CAN_IRQHandler+0x166>
 80015c0:	2b40      	cmp	r3, #64	; 0x40
 80015c2:	d04f      	beq.n	8001664 <HAL_CAN_IRQHandler+0x1f0>
 80015c4:	d83e      	bhi.n	8001644 <HAL_CAN_IRQHandler+0x1d0>
 80015c6:	2b20      	cmp	r3, #32
 80015c8:	d046      	beq.n	8001658 <HAL_CAN_IRQHandler+0x1e4>
 80015ca:	2b30      	cmp	r3, #48	; 0x30
 80015cc:	d047      	beq.n	800165e <HAL_CAN_IRQHandler+0x1ea>
 80015ce:	2b10      	cmp	r3, #16
 80015d0:	d03f      	beq.n	8001652 <HAL_CAN_IRQHandler+0x1de>
 80015d2:	6993      	ldr	r3, [r2, #24]
 80015d4:	f023 0370 	bic.w	r3, r3, #112	; 0x70
 80015d8:	6193      	str	r3, [r2, #24]
 80015da:	2304      	movs	r3, #4
 80015dc:	6053      	str	r3, [r2, #4]
 80015de:	b12c      	cbz	r4, 80015ec <HAL_CAN_IRQHandler+0x178>
 80015e0:	6a6b      	ldr	r3, [r5, #36]	; 0x24
 80015e2:	431c      	orrs	r4, r3
 80015e4:	626c      	str	r4, [r5, #36]	; 0x24
 80015e6:	4628      	mov	r0, r5
 80015e8:	f7ff ff43 	bl	8001472 <HAL_CAN_ErrorCallback>
 80015ec:	e8bd 8ff8 	ldmia.w	sp!, {r3, r4, r5, r6, r7, r8, r9, sl, fp, pc}
 80015f0:	077a      	lsls	r2, r7, #29
 80015f2:	d405      	bmi.n	8001600 <HAL_CAN_IRQHandler+0x18c>
 80015f4:	f017 0408 	ands.w	r4, r7, #8
 80015f8:	d105      	bne.n	8001606 <HAL_CAN_IRQHandler+0x192>
 80015fa:	f7ff ff32 	bl	8001462 <HAL_CAN_TxMailbox0AbortCallback>
 80015fe:	e755      	b.n	80014ac <HAL_CAN_IRQHandler+0x38>
 8001600:	f44f 6400 	mov.w	r4, #2048	; 0x800
 8001604:	e752      	b.n	80014ac <HAL_CAN_IRQHandler+0x38>
 8001606:	f44f 5480 	mov.w	r4, #4096	; 0x1000
 800160a:	e74f      	b.n	80014ac <HAL_CAN_IRQHandler+0x38>
 800160c:	0579      	lsls	r1, r7, #21
 800160e:	d502      	bpl.n	8001616 <HAL_CAN_IRQHandler+0x1a2>
 8001610:	f444 5400 	orr.w	r4, r4, #8192	; 0x2000
 8001614:	e756      	b.n	80014c4 <HAL_CAN_IRQHandler+0x50>
 8001616:	053a      	lsls	r2, r7, #20
 8001618:	d502      	bpl.n	8001620 <HAL_CAN_IRQHandler+0x1ac>
 800161a:	f444 4480 	orr.w	r4, r4, #16384	; 0x4000
 800161e:	e751      	b.n	80014c4 <HAL_CAN_IRQHandler+0x50>
 8001620:	4628      	mov	r0, r5
 8001622:	f7ff ff1f 	bl	8001464 <HAL_CAN_TxMailbox1AbortCallback>
 8001626:	e74d      	b.n	80014c4 <HAL_CAN_IRQHandler+0x50>
 8001628:	0379      	lsls	r1, r7, #13
 800162a:	d502      	bpl.n	8001632 <HAL_CAN_IRQHandler+0x1be>
 800162c:	f444 4400 	orr.w	r4, r4, #32768	; 0x8000
 8001630:	e754      	b.n	80014dc <HAL_CAN_IRQHandler+0x68>
 8001632:	033a      	lsls	r2, r7, #12
 8001634:	d502      	bpl.n	800163c <HAL_CAN_IRQHandler+0x1c8>
 8001636:	f444 3480 	orr.w	r4, r4, #65536	; 0x10000
 800163a:	e74f      	b.n	80014dc <HAL_CAN_IRQHandler+0x68>
 800163c:	4628      	mov	r0, r5
 800163e:	f7ff ff12 	bl	8001466 <HAL_CAN_TxMailbox2AbortCallback>
 8001642:	e74b      	b.n	80014dc <HAL_CAN_IRQHandler+0x68>
 8001644:	2b50      	cmp	r3, #80	; 0x50
 8001646:	d010      	beq.n	800166a <HAL_CAN_IRQHandler+0x1f6>
 8001648:	2b60      	cmp	r3, #96	; 0x60
 800164a:	d1c2      	bne.n	80015d2 <HAL_CAN_IRQHandler+0x15e>
 800164c:	f444 7480 	orr.w	r4, r4, #256	; 0x100
 8001650:	e7bf      	b.n	80015d2 <HAL_CAN_IRQHandler+0x15e>
 8001652:	f044 0408 	orr.w	r4, r4, #8
 8001656:	e7bc      	b.n	80015d2 <HAL_CAN_IRQHandler+0x15e>
 8001658:	f044 0410 	orr.w	r4, r4, #16
 800165c:	e7b9      	b.n	80015d2 <HAL_CAN_IRQHandler+0x15e>
 800165e:	f044 0420 	orr.w	r4, r4, #32
 8001662:	e7b6      	b.n	80015d2 <HAL_CAN_IRQHandler+0x15e>
 8001664:	f044 0440 	orr.w	r4, r4, #64	; 0x40
 8001668:	e7b3      	b.n	80015d2 <HAL_CAN_IRQHandler+0x15e>
 800166a:	f044 0480 	orr.w	r4, r4, #128	; 0x80
 800166e:	e7b0      	b.n	80015d2 <HAL_CAN_IRQHandler+0x15e>

08001670 <HAL_NVIC_SetPriorityGrouping>:
 8001670:	4907      	ldr	r1, [pc, #28]	; (8001690 <HAL_NVIC_SetPriorityGrouping+0x20>)
 8001672:	68ca      	ldr	r2, [r1, #12]
 8001674:	f422 62e0 	bic.w	r2, r2, #1792	; 0x700
 8001678:	0203      	lsls	r3, r0, #8
 800167a:	0412      	lsls	r2, r2, #16
 800167c:	f403 63e0 	and.w	r3, r3, #1792	; 0x700
 8001680:	0c12      	lsrs	r2, r2, #16
 8001682:	4313      	orrs	r3, r2
 8001684:	f043 63bf 	orr.w	r3, r3, #100139008	; 0x5f80000
 8001688:	f443 3300 	orr.w	r3, r3, #131072	; 0x20000
 800168c:	60cb      	str	r3, [r1, #12]
 800168e:	4770      	bx	lr
 8001690:	e000ed00 	.word	0xe000ed00

08001694 <HAL_NVIC_SetPriority>:
 8001694:	4b16      	ldr	r3, [pc, #88]	; (80016f0 <HAL_NVIC_SetPriority+0x5c>)
 8001696:	b530      	push	{r4, r5, lr}
 8001698:	68dc      	ldr	r4, [r3, #12]
 800169a:	f3c4 2402 	ubfx	r4, r4, #8, #3
 800169e:	f1c4 0507 	rsb	r5, r4, #7
 80016a2:	1d23      	adds	r3, r4, #4
 80016a4:	2d04      	cmp	r5, #4
 80016a6:	bf28      	it	cs
 80016a8:	2504      	movcs	r5, #4
 80016aa:	2b06      	cmp	r3, #6
 80016ac:	f04f 33ff 	mov.w	r3, #4294967295
 80016b0:	bf8c      	ite	hi
 80016b2:	3c03      	subhi	r4, #3
 80016b4:	2400      	movls	r4, #0
 80016b6:	fa03 f505 	lsl.w	r5, r3, r5
 80016ba:	ea21 0105 	bic.w	r1, r1, r5
 80016be:	40a3      	lsls	r3, r4
 80016c0:	ea22 0203 	bic.w	r2, r2, r3
 80016c4:	40a1      	lsls	r1, r4
 80016c6:	2800      	cmp	r0, #0
 80016c8:	ea41 0302 	orr.w	r3, r1, r2
 80016cc:	bfac      	ite	ge
 80016ce:	f100 4060 	addge.w	r0, r0, #3758096384	; 0xe0000000
 80016d2:	4a08      	ldrlt	r2, [pc, #32]	; (80016f4 <HAL_NVIC_SetPriority+0x60>)
 80016d4:	ea4f 1303 	mov.w	r3, r3, lsl #4
 80016d8:	bfb8      	it	lt
 80016da:	f000 000f 	andlt.w	r0, r0, #15
 80016de:	b2db      	uxtb	r3, r3
 80016e0:	bfaa      	itet	ge
 80016e2:	f500 4061 	addge.w	r0, r0, #57600	; 0xe100
 80016e6:	5413      	strblt	r3, [r2, r0]
 80016e8:	f880 3300 	strbge.w	r3, [r0, #768]	; 0x300
 80016ec:	bd30      	pop	{r4, r5, pc}
 80016ee:	bf00      	nop
 80016f0:	e000ed00 	.word	0xe000ed00
 80016f4:	e000ed14 	.word	0xe000ed14

080016f8 <HAL_NVIC_EnableIRQ>:
 80016f8:	2800      	cmp	r0, #0
 80016fa:	db08      	blt.n	800170e <HAL_NVIC_EnableIRQ+0x16>
 80016fc:	2301      	movs	r3, #1
 80016fe:	0942      	lsrs	r2, r0, #5
 8001700:	f000 001f 	and.w	r0, r0, #31
 8001704:	fa03 f000 	lsl.w	r0, r3, r0
 8001708:	4b01      	ldr	r3, [pc, #4]	; (8001710 <HAL_NVIC_EnableIRQ+0x18>)
 800170a:	f843 0022 	str.w	r0, [r3, r2, lsl #2]
 800170e:	4770      	bx	lr
 8001710:	e000e100 	.word	0xe000e100

08001714 <HAL_SYSTICK_Config>:
 8001714:	3801      	subs	r0, #1
 8001716:	f1b0 7f80 	cmp.w	r0, #16777216	; 0x1000000
 800171a:	d20b      	bcs.n	8001734 <HAL_SYSTICK_Config+0x20>
 800171c:	f04f 23e0 	mov.w	r3, #3758153728	; 0xe000e000
 8001720:	4a05      	ldr	r2, [pc, #20]	; (8001738 <HAL_SYSTICK_Config+0x24>)
 8001722:	6158      	str	r0, [r3, #20]
 8001724:	21f0      	movs	r1, #240	; 0xf0
 8001726:	f882 1023 	strb.w	r1, [r2, #35]	; 0x23
 800172a:	2000      	movs	r0, #0
 800172c:	2207      	movs	r2, #7
 800172e:	6198      	str	r0, [r3, #24]
 8001730:	611a      	str	r2, [r3, #16]
 8001732:	4770      	bx	lr
 8001734:	2001      	movs	r0, #1
 8001736:	4770      	bx	lr
 8001738:	e000ed00 	.word	0xe000ed00

0800173c <HAL_GPIO_Init>:
 800173c:	e92d 4ff7 	stmdb	sp!, {r0, r1, r2, r4, r5, r6, r7, r8, r9, sl, fp, lr}
 8001740:	f8df 917c 	ldr.w	r9, [pc, #380]	; 80018c0 <HAL_GPIO_Init+0x184>
 8001744:	4c5c      	ldr	r4, [pc, #368]	; (80018b8 <HAL_GPIO_Init+0x17c>)
 8001746:	2300      	movs	r3, #0
 8001748:	680a      	ldr	r2, [r1, #0]
 800174a:	fa32 f503 	lsrs.w	r5, r2, r3
 800174e:	d102      	bne.n	8001756 <HAL_GPIO_Init+0x1a>
 8001750:	b003      	add	sp, #12
 8001752:	e8bd 8ff0 	ldmia.w	sp!, {r4, r5, r6, r7, r8, r9, sl, fp, pc}
 8001756:	2501      	movs	r5, #1
 8001758:	fa05 fe03 	lsl.w	lr, r5, r3
 800175c:	ea1e 0202 	ands.w	r2, lr, r2
 8001760:	f000 80a0 	beq.w	80018a4 <HAL_GPIO_Init+0x168>
 8001764:	684e      	ldr	r6, [r1, #4]
 8001766:	2703      	movs	r7, #3
 8001768:	f006 0503 	and.w	r5, r6, #3
 800176c:	ea4f 0843 	mov.w	r8, r3, lsl #1
 8001770:	fa07 fc08 	lsl.w	ip, r7, r8
 8001774:	1e6f      	subs	r7, r5, #1
 8001776:	2f01      	cmp	r7, #1
 8001778:	ea6f 0c0c 	mvn.w	ip, ip
 800177c:	d834      	bhi.n	80017e8 <HAL_GPIO_Init+0xac>
 800177e:	6887      	ldr	r7, [r0, #8]
 8001780:	ea07 0a0c 	and.w	sl, r7, ip
 8001784:	68cf      	ldr	r7, [r1, #12]
 8001786:	fa07 f708 	lsl.w	r7, r7, r8
 800178a:	ea47 070a 	orr.w	r7, r7, sl
 800178e:	6087      	str	r7, [r0, #8]
 8001790:	6847      	ldr	r7, [r0, #4]
 8001792:	ea27 0e0e 	bic.w	lr, r7, lr
 8001796:	f3c6 1700 	ubfx	r7, r6, #4, #1
 800179a:	409f      	lsls	r7, r3
 800179c:	ea47 070e 	orr.w	r7, r7, lr
 80017a0:	6047      	str	r7, [r0, #4]
 80017a2:	68c7      	ldr	r7, [r0, #12]
 80017a4:	ea07 0e0c 	and.w	lr, r7, ip
 80017a8:	688f      	ldr	r7, [r1, #8]
 80017aa:	fa07 f708 	lsl.w	r7, r7, r8
 80017ae:	ea47 070e 	orr.w	r7, r7, lr
 80017b2:	2d02      	cmp	r5, #2
 80017b4:	60c7      	str	r7, [r0, #12]
 80017b6:	d119      	bne.n	80017ec <HAL_GPIO_Init+0xb0>
 80017b8:	ea4f 0ad3 	mov.w	sl, r3, lsr #3
 80017bc:	eb00 0a8a 	add.w	sl, r0, sl, lsl #2
 80017c0:	f003 0b07 	and.w	fp, r3, #7
 80017c4:	f8da 7020 	ldr.w	r7, [sl, #32]
 80017c8:	ea4f 0b8b 	mov.w	fp, fp, lsl #2
 80017cc:	f04f 0e0f 	mov.w	lr, #15
 80017d0:	fa0e fe0b 	lsl.w	lr, lr, fp
 80017d4:	ea27 0e0e 	bic.w	lr, r7, lr
 80017d8:	690f      	ldr	r7, [r1, #16]
 80017da:	fa07 f70b 	lsl.w	r7, r7, fp
 80017de:	ea47 070e 	orr.w	r7, r7, lr
 80017e2:	f8ca 7020 	str.w	r7, [sl, #32]
 80017e6:	e001      	b.n	80017ec <HAL_GPIO_Init+0xb0>
 80017e8:	2d03      	cmp	r5, #3
 80017ea:	d1da      	bne.n	80017a2 <HAL_GPIO_Init+0x66>
 80017ec:	6807      	ldr	r7, [r0, #0]
 80017ee:	fa05 f508 	lsl.w	r5, r5, r8
 80017f2:	ea07 070c 	and.w	r7, r7, ip
 80017f6:	432f      	orrs	r7, r5
 80017f8:	f416 3f40 	tst.w	r6, #196608	; 0x30000
 80017fc:	6007      	str	r7, [r0, #0]
 80017fe:	d051      	beq.n	80018a4 <HAL_GPIO_Init+0x168>
 8001800:	f8d9 5060 	ldr.w	r5, [r9, #96]	; 0x60
 8001804:	f045 0501 	orr.w	r5, r5, #1
 8001808:	f8c9 5060 	str.w	r5, [r9, #96]	; 0x60
 800180c:	f8d9 5060 	ldr.w	r5, [r9, #96]	; 0x60
 8001810:	f023 0703 	bic.w	r7, r3, #3
 8001814:	f107 4780 	add.w	r7, r7, #1073741824	; 0x40000000
 8001818:	f005 0501 	and.w	r5, r5, #1
 800181c:	f507 3780 	add.w	r7, r7, #65536	; 0x10000
 8001820:	9501      	str	r5, [sp, #4]
 8001822:	f003 0e03 	and.w	lr, r3, #3
 8001826:	9d01      	ldr	r5, [sp, #4]
 8001828:	68bd      	ldr	r5, [r7, #8]
 800182a:	ea4f 0e8e 	mov.w	lr, lr, lsl #2
 800182e:	f04f 0c0f 	mov.w	ip, #15
 8001832:	fa0c fc0e 	lsl.w	ip, ip, lr
 8001836:	f1b0 4f90 	cmp.w	r0, #1207959552	; 0x48000000
 800183a:	ea25 0c0c 	bic.w	ip, r5, ip
 800183e:	d033      	beq.n	80018a8 <HAL_GPIO_Init+0x16c>
 8001840:	4d1e      	ldr	r5, [pc, #120]	; (80018bc <HAL_GPIO_Init+0x180>)
 8001842:	42a8      	cmp	r0, r5
 8001844:	d032      	beq.n	80018ac <HAL_GPIO_Init+0x170>
 8001846:	f505 6580 	add.w	r5, r5, #1024	; 0x400
 800184a:	42a8      	cmp	r0, r5
 800184c:	d030      	beq.n	80018b0 <HAL_GPIO_Init+0x174>
 800184e:	f505 6580 	add.w	r5, r5, #1024	; 0x400
 8001852:	42a8      	cmp	r0, r5
 8001854:	d02e      	beq.n	80018b4 <HAL_GPIO_Init+0x178>
 8001856:	f505 6580 	add.w	r5, r5, #1024	; 0x400
 800185a:	42a8      	cmp	r0, r5
 800185c:	bf0c      	ite	eq
 800185e:	2504      	moveq	r5, #4
 8001860:	2507      	movne	r5, #7
 8001862:	fa05 f50e 	lsl.w	r5, r5, lr
 8001866:	ea45 050c 	orr.w	r5, r5, ip
 800186a:	60bd      	str	r5, [r7, #8]
 800186c:	68a5      	ldr	r5, [r4, #8]
 800186e:	43d7      	mvns	r7, r2
 8001870:	f416 1f80 	tst.w	r6, #1048576	; 0x100000
 8001874:	bf0c      	ite	eq
 8001876:	403d      	andeq	r5, r7
 8001878:	4315      	orrne	r5, r2
 800187a:	60a5      	str	r5, [r4, #8]
 800187c:	68e5      	ldr	r5, [r4, #12]
 800187e:	f416 1f00 	tst.w	r6, #2097152	; 0x200000
 8001882:	bf0c      	ite	eq
 8001884:	403d      	andeq	r5, r7
 8001886:	4315      	orrne	r5, r2
 8001888:	60e5      	str	r5, [r4, #12]
 800188a:	6865      	ldr	r5, [r4, #4]
 800188c:	f416 3f00 	tst.w	r6, #131072	; 0x20000
 8001890:	bf0c      	ite	eq
 8001892:	403d      	andeq	r5, r7
 8001894:	4315      	orrne	r5, r2
 8001896:	6065      	str	r5, [r4, #4]
 8001898:	6825      	ldr	r5, [r4, #0]
 800189a:	03f6      	lsls	r6, r6, #15
 800189c:	bf54      	ite	pl
 800189e:	403d      	andpl	r5, r7
 80018a0:	4315      	orrmi	r5, r2
 80018a2:	6025      	str	r5, [r4, #0]
 80018a4:	3301      	adds	r3, #1
 80018a6:	e74f      	b.n	8001748 <HAL_GPIO_Init+0xc>
 80018a8:	2500      	movs	r5, #0
 80018aa:	e7da      	b.n	8001862 <HAL_GPIO_Init+0x126>
 80018ac:	2501      	movs	r5, #1
 80018ae:	e7d8      	b.n	8001862 <HAL_GPIO_Init+0x126>
 80018b0:	2502      	movs	r5, #2
 80018b2:	e7d6      	b.n	8001862 <HAL_GPIO_Init+0x126>
 80018b4:	2503      	movs	r5, #3
 80018b6:	e7d4      	b.n	8001862 <HAL_GPIO_Init+0x126>
 80018b8:	40010400 	.word	0x40010400
 80018bc:	48000400 	.word	0x48000400
 80018c0:	40021000 	.word	0x40021000

080018c4 <HAL_GPIO_WritePin>:
 80018c4:	b10a      	cbz	r2, 80018ca <HAL_GPIO_WritePin+0x6>
 80018c6:	6181      	str	r1, [r0, #24]
 80018c8:	4770      	bx	lr
 80018ca:	6281      	str	r1, [r0, #40]	; 0x28
 80018cc:	4770      	bx	lr

080018ce <I2C_Flush_TXDR>:
 80018ce:	6803      	ldr	r3, [r0, #0]
 80018d0:	699a      	ldr	r2, [r3, #24]
 80018d2:	0791      	lsls	r1, r2, #30
 80018d4:	bf44      	itt	mi
 80018d6:	2200      	movmi	r2, #0
 80018d8:	629a      	strmi	r2, [r3, #40]	; 0x28
 80018da:	699a      	ldr	r2, [r3, #24]
 80018dc:	07d2      	lsls	r2, r2, #31
 80018de:	bf5e      	ittt	pl
 80018e0:	699a      	ldrpl	r2, [r3, #24]
 80018e2:	f042 0201 	orrpl.w	r2, r2, #1
 80018e6:	619a      	strpl	r2, [r3, #24]
 80018e8:	4770      	bx	lr
	...

080018ec <I2C_TransferConfig>:
 80018ec:	b530      	push	{r4, r5, lr}
 80018ee:	9d03      	ldr	r5, [sp, #12]
 80018f0:	6804      	ldr	r4, [r0, #0]
 80018f2:	432b      	orrs	r3, r5
 80018f4:	ea43 4302 	orr.w	r3, r3, r2, lsl #16
 80018f8:	4a06      	ldr	r2, [pc, #24]	; (8001914 <I2C_TransferConfig+0x28>)
 80018fa:	6860      	ldr	r0, [r4, #4]
 80018fc:	f3c1 0109 	ubfx	r1, r1, #0, #10
 8001900:	430b      	orrs	r3, r1
 8001902:	ea42 5255 	orr.w	r2, r2, r5, lsr #21
 8001906:	f023 4300 	bic.w	r3, r3, #2147483648	; 0x80000000
 800190a:	ea20 0002 	bic.w	r0, r0, r2
 800190e:	4303      	orrs	r3, r0
 8001910:	6063      	str	r3, [r4, #4]
 8001912:	bd30      	pop	{r4, r5, pc}
 8001914:	03ff63ff 	.word	0x03ff63ff

08001918 <I2C_IsErrorOccurred>:
 8001918:	e92d 43f8 	stmdb	sp!, {r3, r4, r5, r6, r7, r8, r9, lr}
 800191c:	6803      	ldr	r3, [r0, #0]
 800191e:	699c      	ldr	r4, [r3, #24]
 8001920:	f014 0410 	ands.w	r4, r4, #16
 8001924:	4605      	mov	r5, r0
 8001926:	4688      	mov	r8, r1
 8001928:	4617      	mov	r7, r2
 800192a:	d079      	beq.n	8001a20 <I2C_IsErrorOccurred+0x108>
 800192c:	2210      	movs	r2, #16
 800192e:	61da      	str	r2, [r3, #28]
 8001930:	2600      	movs	r6, #0
 8001932:	f04f 0920 	mov.w	r9, #32
 8001936:	682b      	ldr	r3, [r5, #0]
 8001938:	699a      	ldr	r2, [r3, #24]
 800193a:	0694      	lsls	r4, r2, #26
 800193c:	d436      	bmi.n	80019ac <I2C_IsErrorOccurred+0x94>
 800193e:	b10e      	cbz	r6, 8001944 <I2C_IsErrorOccurred+0x2c>
 8001940:	2404      	movs	r4, #4
 8001942:	e039      	b.n	80019b8 <I2C_IsErrorOccurred+0xa0>
 8001944:	f1b8 3fff 	cmp.w	r8, #4294967295
 8001948:	d0f6      	beq.n	8001938 <I2C_IsErrorOccurred+0x20>
 800194a:	f7ff f8e5 	bl	8000b18 <HAL_GetTick>
 800194e:	1bc0      	subs	r0, r0, r7
 8001950:	4540      	cmp	r0, r8
 8001952:	d802      	bhi.n	800195a <I2C_IsErrorOccurred+0x42>
 8001954:	f1b8 0f00 	cmp.w	r8, #0
 8001958:	d1ed      	bne.n	8001936 <I2C_IsErrorOccurred+0x1e>
 800195a:	682b      	ldr	r3, [r5, #0]
 800195c:	6859      	ldr	r1, [r3, #4]
 800195e:	f895 2042 	ldrb.w	r2, [r5, #66]	; 0x42
 8001962:	6998      	ldr	r0, [r3, #24]
 8001964:	0400      	lsls	r0, r0, #16
 8001966:	b2d2      	uxtb	r2, r2
 8001968:	d50a      	bpl.n	8001980 <I2C_IsErrorOccurred+0x68>
 800196a:	0449      	lsls	r1, r1, #17
 800196c:	d408      	bmi.n	8001980 <I2C_IsErrorOccurred+0x68>
 800196e:	2a20      	cmp	r2, #32
 8001970:	d006      	beq.n	8001980 <I2C_IsErrorOccurred+0x68>
 8001972:	685a      	ldr	r2, [r3, #4]
 8001974:	f442 4280 	orr.w	r2, r2, #16384	; 0x4000
 8001978:	605a      	str	r2, [r3, #4]
 800197a:	f7ff f8cd 	bl	8000b18 <HAL_GetTick>
 800197e:	4607      	mov	r7, r0
 8001980:	682b      	ldr	r3, [r5, #0]
 8001982:	699c      	ldr	r4, [r3, #24]
 8001984:	f014 0420 	ands.w	r4, r4, #32
 8001988:	d1d5      	bne.n	8001936 <I2C_IsErrorOccurred+0x1e>
 800198a:	f7ff f8c5 	bl	8000b18 <HAL_GetTick>
 800198e:	1bc0      	subs	r0, r0, r7
 8001990:	2819      	cmp	r0, #25
 8001992:	d9f5      	bls.n	8001980 <I2C_IsErrorOccurred+0x68>
 8001994:	6c6b      	ldr	r3, [r5, #68]	; 0x44
 8001996:	f885 4040 	strb.w	r4, [r5, #64]	; 0x40
 800199a:	f043 0320 	orr.w	r3, r3, #32
 800199e:	646b      	str	r3, [r5, #68]	; 0x44
 80019a0:	2601      	movs	r6, #1
 80019a2:	f885 9041 	strb.w	r9, [r5, #65]	; 0x41
 80019a6:	f885 4042 	strb.w	r4, [r5, #66]	; 0x42
 80019aa:	e7e9      	b.n	8001980 <I2C_IsErrorOccurred+0x68>
 80019ac:	2e00      	cmp	r6, #0
 80019ae:	d1c7      	bne.n	8001940 <I2C_IsErrorOccurred+0x28>
 80019b0:	2220      	movs	r2, #32
 80019b2:	61da      	str	r2, [r3, #28]
 80019b4:	2404      	movs	r4, #4
 80019b6:	2601      	movs	r6, #1
 80019b8:	682b      	ldr	r3, [r5, #0]
 80019ba:	699a      	ldr	r2, [r3, #24]
 80019bc:	05d0      	lsls	r0, r2, #23
 80019be:	bf41      	itttt	mi
 80019c0:	f44f 7180 	movmi.w	r1, #256	; 0x100
 80019c4:	61d9      	strmi	r1, [r3, #28]
 80019c6:	f044 0401 	orrmi.w	r4, r4, #1
 80019ca:	2601      	movmi	r6, #1
 80019cc:	0551      	lsls	r1, r2, #21
 80019ce:	bf41      	itttt	mi
 80019d0:	f44f 6180 	movmi.w	r1, #1024	; 0x400
 80019d4:	f044 0408 	orrmi.w	r4, r4, #8
 80019d8:	61d9      	strmi	r1, [r3, #28]
 80019da:	2601      	movmi	r6, #1
 80019dc:	0592      	lsls	r2, r2, #22
 80019de:	d521      	bpl.n	8001a24 <I2C_IsErrorOccurred+0x10c>
 80019e0:	f44f 7200 	mov.w	r2, #512	; 0x200
 80019e4:	f044 0402 	orr.w	r4, r4, #2
 80019e8:	61da      	str	r2, [r3, #28]
 80019ea:	4628      	mov	r0, r5
 80019ec:	f7ff ff6f 	bl	80018ce <I2C_Flush_TXDR>
 80019f0:	682a      	ldr	r2, [r5, #0]
 80019f2:	6853      	ldr	r3, [r2, #4]
 80019f4:	f023 73ff 	bic.w	r3, r3, #33423360	; 0x1fe0000
 80019f8:	f423 338b 	bic.w	r3, r3, #71168	; 0x11600
 80019fc:	f423 73ff 	bic.w	r3, r3, #510	; 0x1fe
 8001a00:	f023 0301 	bic.w	r3, r3, #1
 8001a04:	6053      	str	r3, [r2, #4]
 8001a06:	6c6b      	ldr	r3, [r5, #68]	; 0x44
 8001a08:	431c      	orrs	r4, r3
 8001a0a:	2320      	movs	r3, #32
 8001a0c:	646c      	str	r4, [r5, #68]	; 0x44
 8001a0e:	f885 3041 	strb.w	r3, [r5, #65]	; 0x41
 8001a12:	2300      	movs	r3, #0
 8001a14:	f885 3042 	strb.w	r3, [r5, #66]	; 0x42
 8001a18:	f885 3040 	strb.w	r3, [r5, #64]	; 0x40
 8001a1c:	2601      	movs	r6, #1
 8001a1e:	e003      	b.n	8001a28 <I2C_IsErrorOccurred+0x110>
 8001a20:	4626      	mov	r6, r4
 8001a22:	e7c9      	b.n	80019b8 <I2C_IsErrorOccurred+0xa0>
 8001a24:	2e00      	cmp	r6, #0
 8001a26:	d1e0      	bne.n	80019ea <I2C_IsErrorOccurred+0xd2>
 8001a28:	4630      	mov	r0, r6
 8001a2a:	e8bd 83f8 	ldmia.w	sp!, {r3, r4, r5, r6, r7, r8, r9, pc}

08001a2e <I2C_WaitOnTXISFlagUntilTimeout>:
 8001a2e:	b570      	push	{r4, r5, r6, lr}
 8001a30:	4604      	mov	r4, r0
 8001a32:	460d      	mov	r5, r1
 8001a34:	4616      	mov	r6, r2
 8001a36:	6823      	ldr	r3, [r4, #0]
 8001a38:	699b      	ldr	r3, [r3, #24]
 8001a3a:	079b      	lsls	r3, r3, #30
 8001a3c:	d501      	bpl.n	8001a42 <I2C_WaitOnTXISFlagUntilTimeout+0x14>
 8001a3e:	2000      	movs	r0, #0
 8001a40:	bd70      	pop	{r4, r5, r6, pc}
 8001a42:	4632      	mov	r2, r6
 8001a44:	4629      	mov	r1, r5
 8001a46:	4620      	mov	r0, r4
 8001a48:	f7ff ff66 	bl	8001918 <I2C_IsErrorOccurred>
 8001a4c:	b9a0      	cbnz	r0, 8001a78 <I2C_WaitOnTXISFlagUntilTimeout+0x4a>
 8001a4e:	1c6a      	adds	r2, r5, #1
 8001a50:	d0f1      	beq.n	8001a36 <I2C_WaitOnTXISFlagUntilTimeout+0x8>
 8001a52:	f7ff f861 	bl	8000b18 <HAL_GetTick>
 8001a56:	1b80      	subs	r0, r0, r6
 8001a58:	42a8      	cmp	r0, r5
 8001a5a:	d801      	bhi.n	8001a60 <I2C_WaitOnTXISFlagUntilTimeout+0x32>
 8001a5c:	2d00      	cmp	r5, #0
 8001a5e:	d1ea      	bne.n	8001a36 <I2C_WaitOnTXISFlagUntilTimeout+0x8>
 8001a60:	6c63      	ldr	r3, [r4, #68]	; 0x44
 8001a62:	f043 0320 	orr.w	r3, r3, #32
 8001a66:	6463      	str	r3, [r4, #68]	; 0x44
 8001a68:	2320      	movs	r3, #32
 8001a6a:	f884 3041 	strb.w	r3, [r4, #65]	; 0x41
 8001a6e:	2300      	movs	r3, #0
 8001a70:	f884 3042 	strb.w	r3, [r4, #66]	; 0x42
 8001a74:	f884 3040 	strb.w	r3, [r4, #64]	; 0x40
 8001a78:	2001      	movs	r0, #1
 8001a7a:	e7e1      	b.n	8001a40 <I2C_WaitOnTXISFlagUntilTimeout+0x12>

08001a7c <I2C_WaitOnFlagUntilTimeout>:
 8001a7c:	e92d 41f0 	stmdb	sp!, {r4, r5, r6, r7, r8, lr}
 8001a80:	9f06      	ldr	r7, [sp, #24]
 8001a82:	4604      	mov	r4, r0
 8001a84:	4688      	mov	r8, r1
 8001a86:	4616      	mov	r6, r2
 8001a88:	461d      	mov	r5, r3
 8001a8a:	6822      	ldr	r2, [r4, #0]
 8001a8c:	6993      	ldr	r3, [r2, #24]
 8001a8e:	ea38 0303 	bics.w	r3, r8, r3
 8001a92:	bf0c      	ite	eq
 8001a94:	2301      	moveq	r3, #1
 8001a96:	2300      	movne	r3, #0
 8001a98:	42b3      	cmp	r3, r6
 8001a9a:	d001      	beq.n	8001aa0 <I2C_WaitOnFlagUntilTimeout+0x24>
 8001a9c:	2000      	movs	r0, #0
 8001a9e:	e015      	b.n	8001acc <I2C_WaitOnFlagUntilTimeout+0x50>
 8001aa0:	1c6b      	adds	r3, r5, #1
 8001aa2:	d0f3      	beq.n	8001a8c <I2C_WaitOnFlagUntilTimeout+0x10>
 8001aa4:	f7ff f838 	bl	8000b18 <HAL_GetTick>
 8001aa8:	1bc0      	subs	r0, r0, r7
 8001aaa:	42a8      	cmp	r0, r5
 8001aac:	d801      	bhi.n	8001ab2 <I2C_WaitOnFlagUntilTimeout+0x36>
 8001aae:	2d00      	cmp	r5, #0
 8001ab0:	d1eb      	bne.n	8001a8a <I2C_WaitOnFlagUntilTimeout+0xe>
 8001ab2:	6c63      	ldr	r3, [r4, #68]	; 0x44
 8001ab4:	f043 0320 	orr.w	r3, r3, #32
 8001ab8:	6463      	str	r3, [r4, #68]	; 0x44
 8001aba:	2320      	movs	r3, #32
 8001abc:	f884 3041 	strb.w	r3, [r4, #65]	; 0x41
 8001ac0:	2300      	movs	r3, #0
 8001ac2:	f884 3042 	strb.w	r3, [r4, #66]	; 0x42
 8001ac6:	f884 3040 	strb.w	r3, [r4, #64]	; 0x40
 8001aca:	2001      	movs	r0, #1
 8001acc:	e8bd 81f0 	ldmia.w	sp!, {r4, r5, r6, r7, r8, pc}

08001ad0 <I2C_WaitOnSTOPFlagUntilTimeout>:
 8001ad0:	b570      	push	{r4, r5, r6, lr}
 8001ad2:	4604      	mov	r4, r0
 8001ad4:	460d      	mov	r5, r1
 8001ad6:	4616      	mov	r6, r2
 8001ad8:	6823      	ldr	r3, [r4, #0]
 8001ada:	699b      	ldr	r3, [r3, #24]
 8001adc:	069b      	lsls	r3, r3, #26
 8001ade:	d501      	bpl.n	8001ae4 <I2C_WaitOnSTOPFlagUntilTimeout+0x14>
 8001ae0:	2000      	movs	r0, #0
 8001ae2:	bd70      	pop	{r4, r5, r6, pc}
 8001ae4:	4632      	mov	r2, r6
 8001ae6:	4629      	mov	r1, r5
 8001ae8:	4620      	mov	r0, r4
 8001aea:	f7ff ff15 	bl	8001918 <I2C_IsErrorOccurred>
 8001aee:	b990      	cbnz	r0, 8001b16 <I2C_WaitOnSTOPFlagUntilTimeout+0x46>
 8001af0:	f7ff f812 	bl	8000b18 <HAL_GetTick>
 8001af4:	1b80      	subs	r0, r0, r6
 8001af6:	42a8      	cmp	r0, r5
 8001af8:	d801      	bhi.n	8001afe <I2C_WaitOnSTOPFlagUntilTimeout+0x2e>
 8001afa:	2d00      	cmp	r5, #0
 8001afc:	d1ec      	bne.n	8001ad8 <I2C_WaitOnSTOPFlagUntilTimeout+0x8>
 8001afe:	6c63      	ldr	r3, [r4, #68]	; 0x44
 8001b00:	f043 0320 	orr.w	r3, r3, #32
 8001b04:	6463      	str	r3, [r4, #68]	; 0x44
 8001b06:	2320      	movs	r3, #32
 8001b08:	f884 3041 	strb.w	r3, [r4, #65]	; 0x41
 8001b0c:	2300      	movs	r3, #0
 8001b0e:	f884 3042 	strb.w	r3, [r4, #66]	; 0x42
 8001b12:	f884 3040 	strb.w	r3, [r4, #64]	; 0x40
 8001b16:	2001      	movs	r0, #1
 8001b18:	e7e3      	b.n	8001ae2 <I2C_WaitOnSTOPFlagUntilTimeout+0x12>

08001b1a <HAL_I2C_Init>:
 8001b1a:	b510      	push	{r4, lr}
 8001b1c:	4604      	mov	r4, r0
 8001b1e:	2800      	cmp	r0, #0
 8001b20:	d04a      	beq.n	8001bb8 <HAL_I2C_Init+0x9e>
 8001b22:	f890 3041 	ldrb.w	r3, [r0, #65]	; 0x41
 8001b26:	f003 02ff 	and.w	r2, r3, #255	; 0xff
 8001b2a:	b91b      	cbnz	r3, 8001b34 <HAL_I2C_Init+0x1a>
 8001b2c:	f880 2040 	strb.w	r2, [r0, #64]	; 0x40
 8001b30:	f7fe fdf4 	bl	800071c <HAL_I2C_MspInit>
 8001b34:	2324      	movs	r3, #36	; 0x24
 8001b36:	f884 3041 	strb.w	r3, [r4, #65]	; 0x41
 8001b3a:	6823      	ldr	r3, [r4, #0]
 8001b3c:	681a      	ldr	r2, [r3, #0]
 8001b3e:	f022 0201 	bic.w	r2, r2, #1
 8001b42:	601a      	str	r2, [r3, #0]
 8001b44:	6862      	ldr	r2, [r4, #4]
 8001b46:	f022 6270 	bic.w	r2, r2, #251658240	; 0xf000000
 8001b4a:	611a      	str	r2, [r3, #16]
 8001b4c:	689a      	ldr	r2, [r3, #8]
 8001b4e:	f422 4200 	bic.w	r2, r2, #32768	; 0x8000
 8001b52:	609a      	str	r2, [r3, #8]
 8001b54:	e9d4 2102 	ldrd	r2, r1, [r4, #8]
 8001b58:	2901      	cmp	r1, #1
 8001b5a:	d124      	bne.n	8001ba6 <HAL_I2C_Init+0x8c>
 8001b5c:	f442 4200 	orr.w	r2, r2, #32768	; 0x8000
 8001b60:	609a      	str	r2, [r3, #8]
 8001b62:	685a      	ldr	r2, [r3, #4]
 8001b64:	f042 7200 	orr.w	r2, r2, #33554432	; 0x2000000
 8001b68:	f442 4200 	orr.w	r2, r2, #32768	; 0x8000
 8001b6c:	605a      	str	r2, [r3, #4]
 8001b6e:	68da      	ldr	r2, [r3, #12]
 8001b70:	f422 4200 	bic.w	r2, r2, #32768	; 0x8000
 8001b74:	60da      	str	r2, [r3, #12]
 8001b76:	e9d4 2104 	ldrd	r2, r1, [r4, #16]
 8001b7a:	430a      	orrs	r2, r1
 8001b7c:	69a1      	ldr	r1, [r4, #24]
 8001b7e:	ea42 2201 	orr.w	r2, r2, r1, lsl #8
 8001b82:	60da      	str	r2, [r3, #12]
 8001b84:	e9d4 2107 	ldrd	r2, r1, [r4, #28]
 8001b88:	430a      	orrs	r2, r1
 8001b8a:	601a      	str	r2, [r3, #0]
 8001b8c:	681a      	ldr	r2, [r3, #0]
 8001b8e:	f042 0201 	orr.w	r2, r2, #1
 8001b92:	601a      	str	r2, [r3, #0]
 8001b94:	2000      	movs	r0, #0
 8001b96:	2320      	movs	r3, #32
 8001b98:	6460      	str	r0, [r4, #68]	; 0x44
 8001b9a:	f884 3041 	strb.w	r3, [r4, #65]	; 0x41
 8001b9e:	6320      	str	r0, [r4, #48]	; 0x30
 8001ba0:	f884 0042 	strb.w	r0, [r4, #66]	; 0x42
 8001ba4:	bd10      	pop	{r4, pc}
 8001ba6:	f442 4204 	orr.w	r2, r2, #33792	; 0x8400
 8001baa:	2902      	cmp	r1, #2
 8001bac:	609a      	str	r2, [r3, #8]
 8001bae:	bf04      	itt	eq
 8001bb0:	f44f 6200 	moveq.w	r2, #2048	; 0x800
 8001bb4:	605a      	streq	r2, [r3, #4]
 8001bb6:	e7d4      	b.n	8001b62 <HAL_I2C_Init+0x48>
 8001bb8:	2001      	movs	r0, #1
 8001bba:	e7f3      	b.n	8001ba4 <HAL_I2C_Init+0x8a>

08001bbc <HAL_I2C_Master_Transmit>:
 8001bbc:	e92d 47f3 	stmdb	sp!, {r0, r1, r4, r5, r6, r7, r8, r9, sl, lr}
 8001bc0:	4698      	mov	r8, r3
 8001bc2:	f890 3041 	ldrb.w	r3, [r0, #65]	; 0x41
 8001bc6:	9f0a      	ldr	r7, [sp, #40]	; 0x28
 8001bc8:	2b20      	cmp	r3, #32
 8001bca:	4604      	mov	r4, r0
 8001bcc:	460e      	mov	r6, r1
 8001bce:	4691      	mov	r9, r2
 8001bd0:	f040 8086 	bne.w	8001ce0 <HAL_I2C_Master_Transmit+0x124>
 8001bd4:	f890 3040 	ldrb.w	r3, [r0, #64]	; 0x40
 8001bd8:	2b01      	cmp	r3, #1
 8001bda:	f000 8081 	beq.w	8001ce0 <HAL_I2C_Master_Transmit+0x124>
 8001bde:	f04f 0a01 	mov.w	sl, #1
 8001be2:	f880 a040 	strb.w	sl, [r0, #64]	; 0x40
 8001be6:	f7fe ff97 	bl	8000b18 <HAL_GetTick>
 8001bea:	2319      	movs	r3, #25
 8001bec:	4605      	mov	r5, r0
 8001bee:	9000      	str	r0, [sp, #0]
 8001bf0:	4652      	mov	r2, sl
 8001bf2:	f44f 4100 	mov.w	r1, #32768	; 0x8000
 8001bf6:	4620      	mov	r0, r4
 8001bf8:	f7ff ff40 	bl	8001a7c <I2C_WaitOnFlagUntilTimeout>
 8001bfc:	b118      	cbz	r0, 8001c06 <HAL_I2C_Master_Transmit+0x4a>
 8001bfe:	2001      	movs	r0, #1
 8001c00:	b002      	add	sp, #8
 8001c02:	e8bd 87f0 	ldmia.w	sp!, {r4, r5, r6, r7, r8, r9, sl, pc}
 8001c06:	2321      	movs	r3, #33	; 0x21
 8001c08:	f884 3041 	strb.w	r3, [r4, #65]	; 0x41
 8001c0c:	2310      	movs	r3, #16
 8001c0e:	f884 3042 	strb.w	r3, [r4, #66]	; 0x42
 8001c12:	6460      	str	r0, [r4, #68]	; 0x44
 8001c14:	f8a4 802a 	strh.w	r8, [r4, #42]	; 0x2a
 8001c18:	8d63      	ldrh	r3, [r4, #42]	; 0x2a
 8001c1a:	f8c4 9024 	str.w	r9, [r4, #36]	; 0x24
 8001c1e:	b29b      	uxth	r3, r3
 8001c20:	2bff      	cmp	r3, #255	; 0xff
 8001c22:	6360      	str	r0, [r4, #52]	; 0x34
 8001c24:	4b2f      	ldr	r3, [pc, #188]	; (8001ce4 <HAL_I2C_Master_Transmit+0x128>)
 8001c26:	d926      	bls.n	8001c76 <HAL_I2C_Master_Transmit+0xba>
 8001c28:	22ff      	movs	r2, #255	; 0xff
 8001c2a:	8522      	strh	r2, [r4, #40]	; 0x28
 8001c2c:	9300      	str	r3, [sp, #0]
 8001c2e:	f04f 7380 	mov.w	r3, #16777216	; 0x1000000
 8001c32:	4631      	mov	r1, r6
 8001c34:	4620      	mov	r0, r4
 8001c36:	f7ff fe59 	bl	80018ec <I2C_TransferConfig>
 8001c3a:	8d63      	ldrh	r3, [r4, #42]	; 0x2a
 8001c3c:	b29b      	uxth	r3, r3
 8001c3e:	462a      	mov	r2, r5
 8001c40:	4639      	mov	r1, r7
 8001c42:	4620      	mov	r0, r4
 8001c44:	b9fb      	cbnz	r3, 8001c86 <HAL_I2C_Master_Transmit+0xca>
 8001c46:	f7ff ff43 	bl	8001ad0 <I2C_WaitOnSTOPFlagUntilTimeout>
 8001c4a:	2800      	cmp	r0, #0
 8001c4c:	d1d7      	bne.n	8001bfe <HAL_I2C_Master_Transmit+0x42>
 8001c4e:	6823      	ldr	r3, [r4, #0]
 8001c50:	2120      	movs	r1, #32
 8001c52:	61d9      	str	r1, [r3, #28]
 8001c54:	685a      	ldr	r2, [r3, #4]
 8001c56:	f022 72ff 	bic.w	r2, r2, #33423360	; 0x1fe0000
 8001c5a:	f422 328b 	bic.w	r2, r2, #71168	; 0x11600
 8001c5e:	f422 72ff 	bic.w	r2, r2, #510	; 0x1fe
 8001c62:	f022 0201 	bic.w	r2, r2, #1
 8001c66:	605a      	str	r2, [r3, #4]
 8001c68:	f884 1041 	strb.w	r1, [r4, #65]	; 0x41
 8001c6c:	f884 0040 	strb.w	r0, [r4, #64]	; 0x40
 8001c70:	f884 0042 	strb.w	r0, [r4, #66]	; 0x42
 8001c74:	e7c4      	b.n	8001c00 <HAL_I2C_Master_Transmit+0x44>
 8001c76:	8d62      	ldrh	r2, [r4, #42]	; 0x2a
 8001c78:	9300      	str	r3, [sp, #0]
 8001c7a:	b292      	uxth	r2, r2
 8001c7c:	8522      	strh	r2, [r4, #40]	; 0x28
 8001c7e:	f04f 7300 	mov.w	r3, #33554432	; 0x2000000
 8001c82:	b2d2      	uxtb	r2, r2
 8001c84:	e7d5      	b.n	8001c32 <HAL_I2C_Master_Transmit+0x76>
 8001c86:	f7ff fed2 	bl	8001a2e <I2C_WaitOnTXISFlagUntilTimeout>
 8001c8a:	2800      	cmp	r0, #0
 8001c8c:	d1b7      	bne.n	8001bfe <HAL_I2C_Master_Transmit+0x42>
 8001c8e:	6a63      	ldr	r3, [r4, #36]	; 0x24
 8001c90:	6822      	ldr	r2, [r4, #0]
 8001c92:	f813 1b01 	ldrb.w	r1, [r3], #1
 8001c96:	6291      	str	r1, [r2, #40]	; 0x28
 8001c98:	6263      	str	r3, [r4, #36]	; 0x24
 8001c9a:	8d63      	ldrh	r3, [r4, #42]	; 0x2a
 8001c9c:	8d22      	ldrh	r2, [r4, #40]	; 0x28
 8001c9e:	3b01      	subs	r3, #1
 8001ca0:	b29b      	uxth	r3, r3
 8001ca2:	8563      	strh	r3, [r4, #42]	; 0x2a
 8001ca4:	8d63      	ldrh	r3, [r4, #42]	; 0x2a
 8001ca6:	3a01      	subs	r2, #1
 8001ca8:	b292      	uxth	r2, r2
 8001caa:	b29b      	uxth	r3, r3
 8001cac:	8522      	strh	r2, [r4, #40]	; 0x28
 8001cae:	2b00      	cmp	r3, #0
 8001cb0:	d0c3      	beq.n	8001c3a <HAL_I2C_Master_Transmit+0x7e>
 8001cb2:	2a00      	cmp	r2, #0
 8001cb4:	d1c1      	bne.n	8001c3a <HAL_I2C_Master_Transmit+0x7e>
 8001cb6:	9500      	str	r5, [sp, #0]
 8001cb8:	463b      	mov	r3, r7
 8001cba:	2180      	movs	r1, #128	; 0x80
 8001cbc:	4620      	mov	r0, r4
 8001cbe:	f7ff fedd 	bl	8001a7c <I2C_WaitOnFlagUntilTimeout>
 8001cc2:	2800      	cmp	r0, #0
 8001cc4:	d19b      	bne.n	8001bfe <HAL_I2C_Master_Transmit+0x42>
 8001cc6:	8d63      	ldrh	r3, [r4, #42]	; 0x2a
 8001cc8:	b29b      	uxth	r3, r3
 8001cca:	2bff      	cmp	r3, #255	; 0xff
 8001ccc:	d903      	bls.n	8001cd6 <HAL_I2C_Master_Transmit+0x11a>
 8001cce:	22ff      	movs	r2, #255	; 0xff
 8001cd0:	8522      	strh	r2, [r4, #40]	; 0x28
 8001cd2:	9000      	str	r0, [sp, #0]
 8001cd4:	e7ab      	b.n	8001c2e <HAL_I2C_Master_Transmit+0x72>
 8001cd6:	8d62      	ldrh	r2, [r4, #42]	; 0x2a
 8001cd8:	9000      	str	r0, [sp, #0]
 8001cda:	b292      	uxth	r2, r2
 8001cdc:	8522      	strh	r2, [r4, #40]	; 0x28
 8001cde:	e7ce      	b.n	8001c7e <HAL_I2C_Master_Transmit+0xc2>
 8001ce0:	2002      	movs	r0, #2
 8001ce2:	e78d      	b.n	8001c00 <HAL_I2C_Master_Transmit+0x44>
 8001ce4:	80002000 	.word	0x80002000

08001ce8 <HAL_I2CEx_ConfigAnalogFilter>:
 8001ce8:	b510      	push	{r4, lr}
 8001cea:	f890 3041 	ldrb.w	r3, [r0, #65]	; 0x41
 8001cee:	2b20      	cmp	r3, #32
 8001cf0:	b2dc      	uxtb	r4, r3
 8001cf2:	d11d      	bne.n	8001d30 <HAL_I2CEx_ConfigAnalogFilter+0x48>
 8001cf4:	f890 3040 	ldrb.w	r3, [r0, #64]	; 0x40
 8001cf8:	2b01      	cmp	r3, #1
 8001cfa:	d019      	beq.n	8001d30 <HAL_I2CEx_ConfigAnalogFilter+0x48>
 8001cfc:	2324      	movs	r3, #36	; 0x24
 8001cfe:	f880 3041 	strb.w	r3, [r0, #65]	; 0x41
 8001d02:	6803      	ldr	r3, [r0, #0]
 8001d04:	681a      	ldr	r2, [r3, #0]
 8001d06:	f022 0201 	bic.w	r2, r2, #1
 8001d0a:	601a      	str	r2, [r3, #0]
 8001d0c:	681a      	ldr	r2, [r3, #0]
 8001d0e:	f422 5280 	bic.w	r2, r2, #4096	; 0x1000
 8001d12:	601a      	str	r2, [r3, #0]
 8001d14:	681a      	ldr	r2, [r3, #0]
 8001d16:	4311      	orrs	r1, r2
 8001d18:	6019      	str	r1, [r3, #0]
 8001d1a:	681a      	ldr	r2, [r3, #0]
 8001d1c:	f042 0201 	orr.w	r2, r2, #1
 8001d20:	601a      	str	r2, [r3, #0]
 8001d22:	2300      	movs	r3, #0
 8001d24:	f880 4041 	strb.w	r4, [r0, #65]	; 0x41
 8001d28:	f880 3040 	strb.w	r3, [r0, #64]	; 0x40
 8001d2c:	4618      	mov	r0, r3
 8001d2e:	bd10      	pop	{r4, pc}
 8001d30:	2002      	movs	r0, #2
 8001d32:	e7fc      	b.n	8001d2e <HAL_I2CEx_ConfigAnalogFilter+0x46>

08001d34 <HAL_I2CEx_ConfigDigitalFilter>:
 8001d34:	b510      	push	{r4, lr}
 8001d36:	f890 3041 	ldrb.w	r3, [r0, #65]	; 0x41
 8001d3a:	2b20      	cmp	r3, #32
 8001d3c:	b2dc      	uxtb	r4, r3
 8001d3e:	d11c      	bne.n	8001d7a <HAL_I2CEx_ConfigDigitalFilter+0x46>
 8001d40:	f890 3040 	ldrb.w	r3, [r0, #64]	; 0x40
 8001d44:	2b01      	cmp	r3, #1
 8001d46:	d018      	beq.n	8001d7a <HAL_I2CEx_ConfigDigitalFilter+0x46>
 8001d48:	2324      	movs	r3, #36	; 0x24
 8001d4a:	f880 3041 	strb.w	r3, [r0, #65]	; 0x41
 8001d4e:	6803      	ldr	r3, [r0, #0]
 8001d50:	681a      	ldr	r2, [r3, #0]
 8001d52:	f022 0201 	bic.w	r2, r2, #1
 8001d56:	601a      	str	r2, [r3, #0]
 8001d58:	681a      	ldr	r2, [r3, #0]
 8001d5a:	f422 6270 	bic.w	r2, r2, #3840	; 0xf00
 8001d5e:	ea42 2101 	orr.w	r1, r2, r1, lsl #8
 8001d62:	6019      	str	r1, [r3, #0]
 8001d64:	681a      	ldr	r2, [r3, #0]
 8001d66:	f042 0201 	orr.w	r2, r2, #1
 8001d6a:	601a      	str	r2, [r3, #0]
 8001d6c:	2300      	movs	r3, #0
 8001d6e:	f880 4041 	strb.w	r4, [r0, #65]	; 0x41
 8001d72:	f880 3040 	strb.w	r3, [r0, #64]	; 0x40
 8001d76:	4618      	mov	r0, r3
 8001d78:	bd10      	pop	{r4, pc}
 8001d7a:	2002      	movs	r0, #2
 8001d7c:	e7fc      	b.n	8001d78 <HAL_I2CEx_ConfigDigitalFilter+0x44>
	...

08001d80 <HAL_PWREx_GetVoltageRange>:
 8001d80:	4b02      	ldr	r3, [pc, #8]	; (8001d8c <HAL_PWREx_GetVoltageRange+0xc>)
 8001d82:	6818      	ldr	r0, [r3, #0]
 8001d84:	f400 60c0 	and.w	r0, r0, #1536	; 0x600
 8001d88:	4770      	bx	lr
 8001d8a:	bf00      	nop
 8001d8c:	40007000 	.word	0x40007000

08001d90 <HAL_PWREx_ControlVoltageScaling>:
 8001d90:	4a17      	ldr	r2, [pc, #92]	; (8001df0 <HAL_PWREx_ControlVoltageScaling+0x60>)
 8001d92:	6813      	ldr	r3, [r2, #0]
 8001d94:	f5b0 7f00 	cmp.w	r0, #512	; 0x200
 8001d98:	f403 63c0 	and.w	r3, r3, #1536	; 0x600
 8001d9c:	d11d      	bne.n	8001dda <HAL_PWREx_ControlVoltageScaling+0x4a>
 8001d9e:	f5b3 7f00 	cmp.w	r3, #512	; 0x200
 8001da2:	d101      	bne.n	8001da8 <HAL_PWREx_ControlVoltageScaling+0x18>
 8001da4:	2000      	movs	r0, #0
 8001da6:	4770      	bx	lr
 8001da8:	6813      	ldr	r3, [r2, #0]
 8001daa:	f423 63c0 	bic.w	r3, r3, #1536	; 0x600
 8001dae:	f443 7300 	orr.w	r3, r3, #512	; 0x200
 8001db2:	6013      	str	r3, [r2, #0]
 8001db4:	4b0f      	ldr	r3, [pc, #60]	; (8001df4 <HAL_PWREx_ControlVoltageScaling+0x64>)
 8001db6:	681b      	ldr	r3, [r3, #0]
 8001db8:	2132      	movs	r1, #50	; 0x32
 8001dba:	434b      	muls	r3, r1
 8001dbc:	490e      	ldr	r1, [pc, #56]	; (8001df8 <HAL_PWREx_ControlVoltageScaling+0x68>)
 8001dbe:	fbb3 f3f1 	udiv	r3, r3, r1
 8001dc2:	3301      	adds	r3, #1
 8001dc4:	6951      	ldr	r1, [r2, #20]
 8001dc6:	0549      	lsls	r1, r1, #21
 8001dc8:	d500      	bpl.n	8001dcc <HAL_PWREx_ControlVoltageScaling+0x3c>
 8001dca:	b923      	cbnz	r3, 8001dd6 <HAL_PWREx_ControlVoltageScaling+0x46>
 8001dcc:	6953      	ldr	r3, [r2, #20]
 8001dce:	055b      	lsls	r3, r3, #21
 8001dd0:	d5e8      	bpl.n	8001da4 <HAL_PWREx_ControlVoltageScaling+0x14>
 8001dd2:	2003      	movs	r0, #3
 8001dd4:	4770      	bx	lr
 8001dd6:	3b01      	subs	r3, #1
 8001dd8:	e7f4      	b.n	8001dc4 <HAL_PWREx_ControlVoltageScaling+0x34>
 8001dda:	f5b3 6f80 	cmp.w	r3, #1024	; 0x400
 8001dde:	bf1f      	itttt	ne
 8001de0:	6813      	ldrne	r3, [r2, #0]
 8001de2:	f423 63c0 	bicne.w	r3, r3, #1536	; 0x600
 8001de6:	f443 6380 	orrne.w	r3, r3, #1024	; 0x400
 8001dea:	6013      	strne	r3, [r2, #0]
 8001dec:	e7da      	b.n	8001da4 <HAL_PWREx_ControlVoltageScaling+0x14>
 8001dee:	bf00      	nop
 8001df0:	40007000 	.word	0x40007000
 8001df4:	20000000 	.word	0x20000000
 8001df8:	000f4240 	.word	0x000f4240

08001dfc <RCC_SetFlashLatencyFromMSIRange>:
 8001dfc:	b537      	push	{r0, r1, r2, r4, r5, lr}
 8001dfe:	4d1e      	ldr	r5, [pc, #120]	; (8001e78 <RCC_SetFlashLatencyFromMSIRange+0x7c>)
 8001e00:	6dab      	ldr	r3, [r5, #88]	; 0x58
 8001e02:	00da      	lsls	r2, r3, #3
 8001e04:	4604      	mov	r4, r0
 8001e06:	d518      	bpl.n	8001e3a <RCC_SetFlashLatencyFromMSIRange+0x3e>
 8001e08:	f7ff ffba 	bl	8001d80 <HAL_PWREx_GetVoltageRange>
 8001e0c:	f5b0 7f00 	cmp.w	r0, #512	; 0x200
 8001e10:	d123      	bne.n	8001e5a <RCC_SetFlashLatencyFromMSIRange+0x5e>
 8001e12:	2c80      	cmp	r4, #128	; 0x80
 8001e14:	d929      	bls.n	8001e6a <RCC_SetFlashLatencyFromMSIRange+0x6e>
 8001e16:	2ca0      	cmp	r4, #160	; 0xa0
 8001e18:	bf8c      	ite	hi
 8001e1a:	2002      	movhi	r0, #2
 8001e1c:	2001      	movls	r0, #1
 8001e1e:	4a17      	ldr	r2, [pc, #92]	; (8001e7c <RCC_SetFlashLatencyFromMSIRange+0x80>)
 8001e20:	6813      	ldr	r3, [r2, #0]
 8001e22:	f023 0307 	bic.w	r3, r3, #7
 8001e26:	4303      	orrs	r3, r0
 8001e28:	6013      	str	r3, [r2, #0]
 8001e2a:	6813      	ldr	r3, [r2, #0]
 8001e2c:	f003 0307 	and.w	r3, r3, #7
 8001e30:	1a18      	subs	r0, r3, r0
 8001e32:	bf18      	it	ne
 8001e34:	2001      	movne	r0, #1
 8001e36:	b003      	add	sp, #12
 8001e38:	bd30      	pop	{r4, r5, pc}
 8001e3a:	6dab      	ldr	r3, [r5, #88]	; 0x58
 8001e3c:	f043 5380 	orr.w	r3, r3, #268435456	; 0x10000000
 8001e40:	65ab      	str	r3, [r5, #88]	; 0x58
 8001e42:	6dab      	ldr	r3, [r5, #88]	; 0x58
 8001e44:	f003 5380 	and.w	r3, r3, #268435456	; 0x10000000
 8001e48:	9301      	str	r3, [sp, #4]
 8001e4a:	9b01      	ldr	r3, [sp, #4]
 8001e4c:	f7ff ff98 	bl	8001d80 <HAL_PWREx_GetVoltageRange>
 8001e50:	6dab      	ldr	r3, [r5, #88]	; 0x58
 8001e52:	f023 5380 	bic.w	r3, r3, #268435456	; 0x10000000
 8001e56:	65ab      	str	r3, [r5, #88]	; 0x58
 8001e58:	e7d8      	b.n	8001e0c <RCC_SetFlashLatencyFromMSIRange+0x10>
 8001e5a:	2c80      	cmp	r4, #128	; 0x80
 8001e5c:	d807      	bhi.n	8001e6e <RCC_SetFlashLatencyFromMSIRange+0x72>
 8001e5e:	d008      	beq.n	8001e72 <RCC_SetFlashLatencyFromMSIRange+0x76>
 8001e60:	f1a4 0370 	sub.w	r3, r4, #112	; 0x70
 8001e64:	4258      	negs	r0, r3
 8001e66:	4158      	adcs	r0, r3
 8001e68:	e7d9      	b.n	8001e1e <RCC_SetFlashLatencyFromMSIRange+0x22>
 8001e6a:	2000      	movs	r0, #0
 8001e6c:	e7d7      	b.n	8001e1e <RCC_SetFlashLatencyFromMSIRange+0x22>
 8001e6e:	2003      	movs	r0, #3
 8001e70:	e7d5      	b.n	8001e1e <RCC_SetFlashLatencyFromMSIRange+0x22>
 8001e72:	2002      	movs	r0, #2
 8001e74:	e7d3      	b.n	8001e1e <RCC_SetFlashLatencyFromMSIRange+0x22>
 8001e76:	bf00      	nop
 8001e78:	40021000 	.word	0x40021000
 8001e7c:	40022000 	.word	0x40022000

08001e80 <HAL_RCC_GetSysClockFreq>:
 8001e80:	4b22      	ldr	r3, [pc, #136]	; (8001f0c <HAL_RCC_GetSysClockFreq+0x8c>)
 8001e82:	689a      	ldr	r2, [r3, #8]
 8001e84:	68d9      	ldr	r1, [r3, #12]
 8001e86:	f012 020c 	ands.w	r2, r2, #12
 8001e8a:	d005      	beq.n	8001e98 <HAL_RCC_GetSysClockFreq+0x18>
 8001e8c:	2a0c      	cmp	r2, #12
 8001e8e:	d115      	bne.n	8001ebc <HAL_RCC_GetSysClockFreq+0x3c>
 8001e90:	f001 0103 	and.w	r1, r1, #3
 8001e94:	2901      	cmp	r1, #1
 8001e96:	d118      	bne.n	8001eca <HAL_RCC_GetSysClockFreq+0x4a>
 8001e98:	6819      	ldr	r1, [r3, #0]
 8001e9a:	481d      	ldr	r0, [pc, #116]	; (8001f10 <HAL_RCC_GetSysClockFreq+0x90>)
 8001e9c:	0709      	lsls	r1, r1, #28
 8001e9e:	bf55      	itete	pl
 8001ea0:	f8d3 1094 	ldrpl.w	r1, [r3, #148]	; 0x94
 8001ea4:	6819      	ldrmi	r1, [r3, #0]
 8001ea6:	f3c1 2103 	ubfxpl	r1, r1, #8, #4
 8001eaa:	f3c1 1103 	ubfxmi	r1, r1, #4, #4
 8001eae:	f850 0021 	ldr.w	r0, [r0, r1, lsl #2]
 8001eb2:	b34a      	cbz	r2, 8001f08 <HAL_RCC_GetSysClockFreq+0x88>
 8001eb4:	2a0c      	cmp	r2, #12
 8001eb6:	d009      	beq.n	8001ecc <HAL_RCC_GetSysClockFreq+0x4c>
 8001eb8:	2000      	movs	r0, #0
 8001eba:	4770      	bx	lr
 8001ebc:	2a04      	cmp	r2, #4
 8001ebe:	d022      	beq.n	8001f06 <HAL_RCC_GetSysClockFreq+0x86>
 8001ec0:	2a08      	cmp	r2, #8
 8001ec2:	4814      	ldr	r0, [pc, #80]	; (8001f14 <HAL_RCC_GetSysClockFreq+0x94>)
 8001ec4:	bf18      	it	ne
 8001ec6:	2000      	movne	r0, #0
 8001ec8:	4770      	bx	lr
 8001eca:	2000      	movs	r0, #0
 8001ecc:	68da      	ldr	r2, [r3, #12]
 8001ece:	f002 0203 	and.w	r2, r2, #3
 8001ed2:	2a02      	cmp	r2, #2
 8001ed4:	d015      	beq.n	8001f02 <HAL_RCC_GetSysClockFreq+0x82>
 8001ed6:	490f      	ldr	r1, [pc, #60]	; (8001f14 <HAL_RCC_GetSysClockFreq+0x94>)
 8001ed8:	2a03      	cmp	r2, #3
 8001eda:	bf08      	it	eq
 8001edc:	4608      	moveq	r0, r1
 8001ede:	68d9      	ldr	r1, [r3, #12]
 8001ee0:	68da      	ldr	r2, [r3, #12]
 8001ee2:	f3c2 2206 	ubfx	r2, r2, #8, #7
 8001ee6:	4342      	muls	r2, r0
 8001ee8:	68d8      	ldr	r0, [r3, #12]
 8001eea:	f3c0 6041 	ubfx	r0, r0, #25, #2
 8001eee:	f3c1 1102 	ubfx	r1, r1, #4, #3
 8001ef2:	3001      	adds	r0, #1
 8001ef4:	3101      	adds	r1, #1
 8001ef6:	0040      	lsls	r0, r0, #1
 8001ef8:	fbb2 f2f1 	udiv	r2, r2, r1
 8001efc:	fbb2 f0f0 	udiv	r0, r2, r0
 8001f00:	4770      	bx	lr
 8001f02:	4805      	ldr	r0, [pc, #20]	; (8001f18 <HAL_RCC_GetSysClockFreq+0x98>)
 8001f04:	e7eb      	b.n	8001ede <HAL_RCC_GetSysClockFreq+0x5e>
 8001f06:	4804      	ldr	r0, [pc, #16]	; (8001f18 <HAL_RCC_GetSysClockFreq+0x98>)
 8001f08:	4770      	bx	lr
 8001f0a:	bf00      	nop
 8001f0c:	40021000 	.word	0x40021000
 8001f10:	08002be0 	.word	0x08002be0
 8001f14:	007a1200 	.word	0x007a1200
 8001f18:	00f42400 	.word	0x00f42400

08001f1c <HAL_RCC_OscConfig>:
 8001f1c:	e92d 43f7 	stmdb	sp!, {r0, r1, r2, r4, r5, r6, r7, r8, r9, lr}
 8001f20:	4605      	mov	r5, r0
 8001f22:	b908      	cbnz	r0, 8001f28 <HAL_RCC_OscConfig+0xc>
 8001f24:	2001      	movs	r0, #1
 8001f26:	e047      	b.n	8001fb8 <HAL_RCC_OscConfig+0x9c>
 8001f28:	4c94      	ldr	r4, [pc, #592]	; (800217c <HAL_RCC_OscConfig+0x260>)
 8001f2a:	6803      	ldr	r3, [r0, #0]
 8001f2c:	68a6      	ldr	r6, [r4, #8]
 8001f2e:	68e7      	ldr	r7, [r4, #12]
 8001f30:	06db      	lsls	r3, r3, #27
 8001f32:	f006 060c 	and.w	r6, r6, #12
 8001f36:	f007 0703 	and.w	r7, r7, #3
 8001f3a:	d575      	bpl.n	8002028 <HAL_RCC_OscConfig+0x10c>
 8001f3c:	b11e      	cbz	r6, 8001f46 <HAL_RCC_OscConfig+0x2a>
 8001f3e:	2e0c      	cmp	r6, #12
 8001f40:	d154      	bne.n	8001fec <HAL_RCC_OscConfig+0xd0>
 8001f42:	2f01      	cmp	r7, #1
 8001f44:	d152      	bne.n	8001fec <HAL_RCC_OscConfig+0xd0>
 8001f46:	6823      	ldr	r3, [r4, #0]
 8001f48:	0798      	lsls	r0, r3, #30
 8001f4a:	d502      	bpl.n	8001f52 <HAL_RCC_OscConfig+0x36>
 8001f4c:	69ab      	ldr	r3, [r5, #24]
 8001f4e:	2b00      	cmp	r3, #0
 8001f50:	d0e8      	beq.n	8001f24 <HAL_RCC_OscConfig+0x8>
 8001f52:	6823      	ldr	r3, [r4, #0]
 8001f54:	6a28      	ldr	r0, [r5, #32]
 8001f56:	0719      	lsls	r1, r3, #28
 8001f58:	bf56      	itet	pl
 8001f5a:	f8d4 3094 	ldrpl.w	r3, [r4, #148]	; 0x94
 8001f5e:	6823      	ldrmi	r3, [r4, #0]
 8001f60:	091b      	lsrpl	r3, r3, #4
 8001f62:	f003 03f0 	and.w	r3, r3, #240	; 0xf0
 8001f66:	4298      	cmp	r0, r3
 8001f68:	d929      	bls.n	8001fbe <HAL_RCC_OscConfig+0xa2>
 8001f6a:	f7ff ff47 	bl	8001dfc <RCC_SetFlashLatencyFromMSIRange>
 8001f6e:	2800      	cmp	r0, #0
 8001f70:	d1d8      	bne.n	8001f24 <HAL_RCC_OscConfig+0x8>
 8001f72:	6823      	ldr	r3, [r4, #0]
 8001f74:	f043 0308 	orr.w	r3, r3, #8
 8001f78:	6023      	str	r3, [r4, #0]
 8001f7a:	6823      	ldr	r3, [r4, #0]
 8001f7c:	6a2a      	ldr	r2, [r5, #32]
 8001f7e:	f023 03f0 	bic.w	r3, r3, #240	; 0xf0
 8001f82:	4313      	orrs	r3, r2
 8001f84:	6023      	str	r3, [r4, #0]
 8001f86:	6863      	ldr	r3, [r4, #4]
 8001f88:	69ea      	ldr	r2, [r5, #28]
 8001f8a:	f423 437f 	bic.w	r3, r3, #65280	; 0xff00
 8001f8e:	ea43 2302 	orr.w	r3, r3, r2, lsl #8
 8001f92:	6063      	str	r3, [r4, #4]
 8001f94:	f7ff ff74 	bl	8001e80 <HAL_RCC_GetSysClockFreq>
 8001f98:	68a3      	ldr	r3, [r4, #8]
 8001f9a:	4a79      	ldr	r2, [pc, #484]	; (8002180 <HAL_RCC_OscConfig+0x264>)
 8001f9c:	f3c3 1303 	ubfx	r3, r3, #4, #4
 8001fa0:	5cd3      	ldrb	r3, [r2, r3]
 8001fa2:	f003 031f 	and.w	r3, r3, #31
 8001fa6:	40d8      	lsrs	r0, r3
 8001fa8:	4b76      	ldr	r3, [pc, #472]	; (8002184 <HAL_RCC_OscConfig+0x268>)
 8001faa:	6018      	str	r0, [r3, #0]
 8001fac:	4b76      	ldr	r3, [pc, #472]	; (8002188 <HAL_RCC_OscConfig+0x26c>)
 8001fae:	6818      	ldr	r0, [r3, #0]
 8001fb0:	f7fe fd70 	bl	8000a94 <HAL_InitTick>
 8001fb4:	2800      	cmp	r0, #0
 8001fb6:	d037      	beq.n	8002028 <HAL_RCC_OscConfig+0x10c>
 8001fb8:	b003      	add	sp, #12
 8001fba:	e8bd 83f0 	ldmia.w	sp!, {r4, r5, r6, r7, r8, r9, pc}
 8001fbe:	6823      	ldr	r3, [r4, #0]
 8001fc0:	f043 0308 	orr.w	r3, r3, #8
 8001fc4:	6023      	str	r3, [r4, #0]
 8001fc6:	6823      	ldr	r3, [r4, #0]
 8001fc8:	f023 03f0 	bic.w	r3, r3, #240	; 0xf0
 8001fcc:	4303      	orrs	r3, r0
 8001fce:	6023      	str	r3, [r4, #0]
 8001fd0:	6863      	ldr	r3, [r4, #4]
 8001fd2:	69ea      	ldr	r2, [r5, #28]
 8001fd4:	f423 437f 	bic.w	r3, r3, #65280	; 0xff00
 8001fd8:	ea43 2302 	orr.w	r3, r3, r2, lsl #8
 8001fdc:	6063      	str	r3, [r4, #4]
 8001fde:	2e00      	cmp	r6, #0
 8001fe0:	d1d8      	bne.n	8001f94 <HAL_RCC_OscConfig+0x78>
 8001fe2:	f7ff ff0b 	bl	8001dfc <RCC_SetFlashLatencyFromMSIRange>
 8001fe6:	2800      	cmp	r0, #0
 8001fe8:	d0d4      	beq.n	8001f94 <HAL_RCC_OscConfig+0x78>
 8001fea:	e79b      	b.n	8001f24 <HAL_RCC_OscConfig+0x8>
 8001fec:	69ab      	ldr	r3, [r5, #24]
 8001fee:	2b00      	cmp	r3, #0
 8001ff0:	d03a      	beq.n	8002068 <HAL_RCC_OscConfig+0x14c>
 8001ff2:	6823      	ldr	r3, [r4, #0]
 8001ff4:	f043 0301 	orr.w	r3, r3, #1
 8001ff8:	6023      	str	r3, [r4, #0]
 8001ffa:	f7fe fd8d 	bl	8000b18 <HAL_GetTick>
 8001ffe:	4680      	mov	r8, r0
 8002000:	6823      	ldr	r3, [r4, #0]
 8002002:	079a      	lsls	r2, r3, #30
 8002004:	d528      	bpl.n	8002058 <HAL_RCC_OscConfig+0x13c>
 8002006:	6823      	ldr	r3, [r4, #0]
 8002008:	f043 0308 	orr.w	r3, r3, #8
 800200c:	6023      	str	r3, [r4, #0]
 800200e:	6823      	ldr	r3, [r4, #0]
 8002010:	6a2a      	ldr	r2, [r5, #32]
 8002012:	f023 03f0 	bic.w	r3, r3, #240	; 0xf0
 8002016:	4313      	orrs	r3, r2
 8002018:	6023      	str	r3, [r4, #0]
 800201a:	6863      	ldr	r3, [r4, #4]
 800201c:	69ea      	ldr	r2, [r5, #28]
 800201e:	f423 437f 	bic.w	r3, r3, #65280	; 0xff00
 8002022:	ea43 2302 	orr.w	r3, r3, r2, lsl #8
 8002026:	6063      	str	r3, [r4, #4]
 8002028:	682b      	ldr	r3, [r5, #0]
 800202a:	07d8      	lsls	r0, r3, #31
 800202c:	d42d      	bmi.n	800208a <HAL_RCC_OscConfig+0x16e>
 800202e:	682b      	ldr	r3, [r5, #0]
 8002030:	0799      	lsls	r1, r3, #30
 8002032:	d46b      	bmi.n	800210c <HAL_RCC_OscConfig+0x1f0>
 8002034:	682b      	ldr	r3, [r5, #0]
 8002036:	0718      	lsls	r0, r3, #28
 8002038:	f100 80a8 	bmi.w	800218c <HAL_RCC_OscConfig+0x270>
 800203c:	682b      	ldr	r3, [r5, #0]
 800203e:	0759      	lsls	r1, r3, #29
 8002040:	f100 80ce 	bmi.w	80021e0 <HAL_RCC_OscConfig+0x2c4>
 8002044:	682b      	ldr	r3, [r5, #0]
 8002046:	0699      	lsls	r1, r3, #26
 8002048:	f100 8137 	bmi.w	80022ba <HAL_RCC_OscConfig+0x39e>
 800204c:	6aab      	ldr	r3, [r5, #40]	; 0x28
 800204e:	2b00      	cmp	r3, #0
 8002050:	f040 815d 	bne.w	800230e <HAL_RCC_OscConfig+0x3f2>
 8002054:	2000      	movs	r0, #0
 8002056:	e7af      	b.n	8001fb8 <HAL_RCC_OscConfig+0x9c>
 8002058:	f7fe fd5e 	bl	8000b18 <HAL_GetTick>
 800205c:	eba0 0008 	sub.w	r0, r0, r8
 8002060:	2802      	cmp	r0, #2
 8002062:	d9cd      	bls.n	8002000 <HAL_RCC_OscConfig+0xe4>
 8002064:	2003      	movs	r0, #3
 8002066:	e7a7      	b.n	8001fb8 <HAL_RCC_OscConfig+0x9c>
 8002068:	6823      	ldr	r3, [r4, #0]
 800206a:	f023 0301 	bic.w	r3, r3, #1
 800206e:	6023      	str	r3, [r4, #0]
 8002070:	f7fe fd52 	bl	8000b18 <HAL_GetTick>
 8002074:	4680      	mov	r8, r0
 8002076:	6823      	ldr	r3, [r4, #0]
 8002078:	079b      	lsls	r3, r3, #30
 800207a:	d5d5      	bpl.n	8002028 <HAL_RCC_OscConfig+0x10c>
 800207c:	f7fe fd4c 	bl	8000b18 <HAL_GetTick>
 8002080:	eba0 0008 	sub.w	r0, r0, r8
 8002084:	2802      	cmp	r0, #2
 8002086:	d9f6      	bls.n	8002076 <HAL_RCC_OscConfig+0x15a>
 8002088:	e7ec      	b.n	8002064 <HAL_RCC_OscConfig+0x148>
 800208a:	2e08      	cmp	r6, #8
 800208c:	d003      	beq.n	8002096 <HAL_RCC_OscConfig+0x17a>
 800208e:	2e0c      	cmp	r6, #12
 8002090:	d108      	bne.n	80020a4 <HAL_RCC_OscConfig+0x188>
 8002092:	2f03      	cmp	r7, #3
 8002094:	d106      	bne.n	80020a4 <HAL_RCC_OscConfig+0x188>
 8002096:	6823      	ldr	r3, [r4, #0]
 8002098:	039a      	lsls	r2, r3, #14
 800209a:	d5c8      	bpl.n	800202e <HAL_RCC_OscConfig+0x112>
 800209c:	686b      	ldr	r3, [r5, #4]
 800209e:	2b00      	cmp	r3, #0
 80020a0:	d1c5      	bne.n	800202e <HAL_RCC_OscConfig+0x112>
 80020a2:	e73f      	b.n	8001f24 <HAL_RCC_OscConfig+0x8>
 80020a4:	686b      	ldr	r3, [r5, #4]
 80020a6:	f5b3 3f80 	cmp.w	r3, #65536	; 0x10000
 80020aa:	d110      	bne.n	80020ce <HAL_RCC_OscConfig+0x1b2>
 80020ac:	6823      	ldr	r3, [r4, #0]
 80020ae:	f443 3380 	orr.w	r3, r3, #65536	; 0x10000
 80020b2:	6023      	str	r3, [r4, #0]
 80020b4:	f7fe fd30 	bl	8000b18 <HAL_GetTick>
 80020b8:	4680      	mov	r8, r0
 80020ba:	6823      	ldr	r3, [r4, #0]
 80020bc:	039b      	lsls	r3, r3, #14
 80020be:	d4b6      	bmi.n	800202e <HAL_RCC_OscConfig+0x112>
 80020c0:	f7fe fd2a 	bl	8000b18 <HAL_GetTick>
 80020c4:	eba0 0008 	sub.w	r0, r0, r8
 80020c8:	2864      	cmp	r0, #100	; 0x64
 80020ca:	d9f6      	bls.n	80020ba <HAL_RCC_OscConfig+0x19e>
 80020cc:	e7ca      	b.n	8002064 <HAL_RCC_OscConfig+0x148>
 80020ce:	f5b3 2fa0 	cmp.w	r3, #327680	; 0x50000
 80020d2:	d104      	bne.n	80020de <HAL_RCC_OscConfig+0x1c2>
 80020d4:	6823      	ldr	r3, [r4, #0]
 80020d6:	f443 2380 	orr.w	r3, r3, #262144	; 0x40000
 80020da:	6023      	str	r3, [r4, #0]
 80020dc:	e7e6      	b.n	80020ac <HAL_RCC_OscConfig+0x190>
 80020de:	6822      	ldr	r2, [r4, #0]
 80020e0:	f422 3280 	bic.w	r2, r2, #65536	; 0x10000
 80020e4:	6022      	str	r2, [r4, #0]
 80020e6:	6822      	ldr	r2, [r4, #0]
 80020e8:	f422 2280 	bic.w	r2, r2, #262144	; 0x40000
 80020ec:	6022      	str	r2, [r4, #0]
 80020ee:	2b00      	cmp	r3, #0
 80020f0:	d1e0      	bne.n	80020b4 <HAL_RCC_OscConfig+0x198>
 80020f2:	f7fe fd11 	bl	8000b18 <HAL_GetTick>
 80020f6:	4680      	mov	r8, r0
 80020f8:	6823      	ldr	r3, [r4, #0]
 80020fa:	0398      	lsls	r0, r3, #14
 80020fc:	d597      	bpl.n	800202e <HAL_RCC_OscConfig+0x112>
 80020fe:	f7fe fd0b 	bl	8000b18 <HAL_GetTick>
 8002102:	eba0 0008 	sub.w	r0, r0, r8
 8002106:	2864      	cmp	r0, #100	; 0x64
 8002108:	d9f6      	bls.n	80020f8 <HAL_RCC_OscConfig+0x1dc>
 800210a:	e7ab      	b.n	8002064 <HAL_RCC_OscConfig+0x148>
 800210c:	2e04      	cmp	r6, #4
 800210e:	d003      	beq.n	8002118 <HAL_RCC_OscConfig+0x1fc>
 8002110:	2e0c      	cmp	r6, #12
 8002112:	d110      	bne.n	8002136 <HAL_RCC_OscConfig+0x21a>
 8002114:	2f02      	cmp	r7, #2
 8002116:	d10e      	bne.n	8002136 <HAL_RCC_OscConfig+0x21a>
 8002118:	6823      	ldr	r3, [r4, #0]
 800211a:	0559      	lsls	r1, r3, #21
 800211c:	d503      	bpl.n	8002126 <HAL_RCC_OscConfig+0x20a>
 800211e:	68eb      	ldr	r3, [r5, #12]
 8002120:	2b00      	cmp	r3, #0
 8002122:	f43f aeff 	beq.w	8001f24 <HAL_RCC_OscConfig+0x8>
 8002126:	6863      	ldr	r3, [r4, #4]
 8002128:	692a      	ldr	r2, [r5, #16]
 800212a:	f023 43fe 	bic.w	r3, r3, #2130706432	; 0x7f000000
 800212e:	ea43 6302 	orr.w	r3, r3, r2, lsl #24
 8002132:	6063      	str	r3, [r4, #4]
 8002134:	e77e      	b.n	8002034 <HAL_RCC_OscConfig+0x118>
 8002136:	68eb      	ldr	r3, [r5, #12]
 8002138:	b17b      	cbz	r3, 800215a <HAL_RCC_OscConfig+0x23e>
 800213a:	6823      	ldr	r3, [r4, #0]
 800213c:	f443 7380 	orr.w	r3, r3, #256	; 0x100
 8002140:	6023      	str	r3, [r4, #0]
 8002142:	f7fe fce9 	bl	8000b18 <HAL_GetTick>
 8002146:	4607      	mov	r7, r0
 8002148:	6823      	ldr	r3, [r4, #0]
 800214a:	055a      	lsls	r2, r3, #21
 800214c:	d4eb      	bmi.n	8002126 <HAL_RCC_OscConfig+0x20a>
 800214e:	f7fe fce3 	bl	8000b18 <HAL_GetTick>
 8002152:	1bc0      	subs	r0, r0, r7
 8002154:	2802      	cmp	r0, #2
 8002156:	d9f7      	bls.n	8002148 <HAL_RCC_OscConfig+0x22c>
 8002158:	e784      	b.n	8002064 <HAL_RCC_OscConfig+0x148>
 800215a:	6823      	ldr	r3, [r4, #0]
 800215c:	f423 7380 	bic.w	r3, r3, #256	; 0x100
 8002160:	6023      	str	r3, [r4, #0]
 8002162:	f7fe fcd9 	bl	8000b18 <HAL_GetTick>
 8002166:	4607      	mov	r7, r0
 8002168:	6823      	ldr	r3, [r4, #0]
 800216a:	055b      	lsls	r3, r3, #21
 800216c:	f57f af62 	bpl.w	8002034 <HAL_RCC_OscConfig+0x118>
 8002170:	f7fe fcd2 	bl	8000b18 <HAL_GetTick>
 8002174:	1bc0      	subs	r0, r0, r7
 8002176:	2802      	cmp	r0, #2
 8002178:	d9f6      	bls.n	8002168 <HAL_RCC_OscConfig+0x24c>
 800217a:	e773      	b.n	8002064 <HAL_RCC_OscConfig+0x148>
 800217c:	40021000 	.word	0x40021000
 8002180:	08002bd0 	.word	0x08002bd0
 8002184:	20000000 	.word	0x20000000
 8002188:	20000008 	.word	0x20000008
 800218c:	696b      	ldr	r3, [r5, #20]
 800218e:	b19b      	cbz	r3, 80021b8 <HAL_RCC_OscConfig+0x29c>
 8002190:	f8d4 3094 	ldr.w	r3, [r4, #148]	; 0x94
 8002194:	f043 0301 	orr.w	r3, r3, #1
 8002198:	f8c4 3094 	str.w	r3, [r4, #148]	; 0x94
 800219c:	f7fe fcbc 	bl	8000b18 <HAL_GetTick>
 80021a0:	4607      	mov	r7, r0
 80021a2:	f8d4 3094 	ldr.w	r3, [r4, #148]	; 0x94
 80021a6:	079a      	lsls	r2, r3, #30
 80021a8:	f53f af48 	bmi.w	800203c <HAL_RCC_OscConfig+0x120>
 80021ac:	f7fe fcb4 	bl	8000b18 <HAL_GetTick>
 80021b0:	1bc0      	subs	r0, r0, r7
 80021b2:	2802      	cmp	r0, #2
 80021b4:	d9f5      	bls.n	80021a2 <HAL_RCC_OscConfig+0x286>
 80021b6:	e755      	b.n	8002064 <HAL_RCC_OscConfig+0x148>
 80021b8:	f8d4 3094 	ldr.w	r3, [r4, #148]	; 0x94
 80021bc:	f023 0301 	bic.w	r3, r3, #1
 80021c0:	f8c4 3094 	str.w	r3, [r4, #148]	; 0x94
 80021c4:	f7fe fca8 	bl	8000b18 <HAL_GetTick>
 80021c8:	4607      	mov	r7, r0
 80021ca:	f8d4 3094 	ldr.w	r3, [r4, #148]	; 0x94
 80021ce:	079b      	lsls	r3, r3, #30
 80021d0:	f57f af34 	bpl.w	800203c <HAL_RCC_OscConfig+0x120>
 80021d4:	f7fe fca0 	bl	8000b18 <HAL_GetTick>
 80021d8:	1bc0      	subs	r0, r0, r7
 80021da:	2802      	cmp	r0, #2
 80021dc:	d9f5      	bls.n	80021ca <HAL_RCC_OscConfig+0x2ae>
 80021de:	e741      	b.n	8002064 <HAL_RCC_OscConfig+0x148>
 80021e0:	6da3      	ldr	r3, [r4, #88]	; 0x58
 80021e2:	00d8      	lsls	r0, r3, #3
 80021e4:	d429      	bmi.n	800223a <HAL_RCC_OscConfig+0x31e>
 80021e6:	6da3      	ldr	r3, [r4, #88]	; 0x58
 80021e8:	f043 5380 	orr.w	r3, r3, #268435456	; 0x10000000
 80021ec:	65a3      	str	r3, [r4, #88]	; 0x58
 80021ee:	6da3      	ldr	r3, [r4, #88]	; 0x58
 80021f0:	f003 5380 	and.w	r3, r3, #268435456	; 0x10000000
 80021f4:	9301      	str	r3, [sp, #4]
 80021f6:	9b01      	ldr	r3, [sp, #4]
 80021f8:	f04f 0801 	mov.w	r8, #1
 80021fc:	4f96      	ldr	r7, [pc, #600]	; (8002458 <HAL_RCC_OscConfig+0x53c>)
 80021fe:	683b      	ldr	r3, [r7, #0]
 8002200:	05d9      	lsls	r1, r3, #23
 8002202:	d51d      	bpl.n	8002240 <HAL_RCC_OscConfig+0x324>
 8002204:	68ab      	ldr	r3, [r5, #8]
 8002206:	2b01      	cmp	r3, #1
 8002208:	d12b      	bne.n	8002262 <HAL_RCC_OscConfig+0x346>
 800220a:	f8d4 3090 	ldr.w	r3, [r4, #144]	; 0x90
 800220e:	f043 0301 	orr.w	r3, r3, #1
 8002212:	f8c4 3090 	str.w	r3, [r4, #144]	; 0x90
 8002216:	f7fe fc7f 	bl	8000b18 <HAL_GetTick>
 800221a:	f241 3988 	movw	r9, #5000	; 0x1388
 800221e:	4607      	mov	r7, r0
 8002220:	f8d4 3090 	ldr.w	r3, [r4, #144]	; 0x90
 8002224:	079b      	lsls	r3, r3, #30
 8002226:	d542      	bpl.n	80022ae <HAL_RCC_OscConfig+0x392>
 8002228:	f1b8 0f00 	cmp.w	r8, #0
 800222c:	f43f af0a 	beq.w	8002044 <HAL_RCC_OscConfig+0x128>
 8002230:	6da3      	ldr	r3, [r4, #88]	; 0x58
 8002232:	f023 5380 	bic.w	r3, r3, #268435456	; 0x10000000
 8002236:	65a3      	str	r3, [r4, #88]	; 0x58
 8002238:	e704      	b.n	8002044 <HAL_RCC_OscConfig+0x128>
 800223a:	f04f 0800 	mov.w	r8, #0
 800223e:	e7dd      	b.n	80021fc <HAL_RCC_OscConfig+0x2e0>
 8002240:	683b      	ldr	r3, [r7, #0]
 8002242:	f443 7380 	orr.w	r3, r3, #256	; 0x100
 8002246:	603b      	str	r3, [r7, #0]
 8002248:	f7fe fc66 	bl	8000b18 <HAL_GetTick>
 800224c:	4681      	mov	r9, r0
 800224e:	683b      	ldr	r3, [r7, #0]
 8002250:	05da      	lsls	r2, r3, #23
 8002252:	d4d7      	bmi.n	8002204 <HAL_RCC_OscConfig+0x2e8>
 8002254:	f7fe fc60 	bl	8000b18 <HAL_GetTick>
 8002258:	eba0 0009 	sub.w	r0, r0, r9
 800225c:	2802      	cmp	r0, #2
 800225e:	d9f6      	bls.n	800224e <HAL_RCC_OscConfig+0x332>
 8002260:	e700      	b.n	8002064 <HAL_RCC_OscConfig+0x148>
 8002262:	2b05      	cmp	r3, #5
 8002264:	d106      	bne.n	8002274 <HAL_RCC_OscConfig+0x358>
 8002266:	f8d4 3090 	ldr.w	r3, [r4, #144]	; 0x90
 800226a:	f043 0304 	orr.w	r3, r3, #4
 800226e:	f8c4 3090 	str.w	r3, [r4, #144]	; 0x90
 8002272:	e7ca      	b.n	800220a <HAL_RCC_OscConfig+0x2ee>
 8002274:	f8d4 2090 	ldr.w	r2, [r4, #144]	; 0x90
 8002278:	f022 0201 	bic.w	r2, r2, #1
 800227c:	f8c4 2090 	str.w	r2, [r4, #144]	; 0x90
 8002280:	f8d4 2090 	ldr.w	r2, [r4, #144]	; 0x90
 8002284:	f022 0204 	bic.w	r2, r2, #4
 8002288:	f8c4 2090 	str.w	r2, [r4, #144]	; 0x90
 800228c:	2b00      	cmp	r3, #0
 800228e:	d1c2      	bne.n	8002216 <HAL_RCC_OscConfig+0x2fa>
 8002290:	f7fe fc42 	bl	8000b18 <HAL_GetTick>
 8002294:	f241 3988 	movw	r9, #5000	; 0x1388
 8002298:	4607      	mov	r7, r0
 800229a:	f8d4 3090 	ldr.w	r3, [r4, #144]	; 0x90
 800229e:	0798      	lsls	r0, r3, #30
 80022a0:	d5c2      	bpl.n	8002228 <HAL_RCC_OscConfig+0x30c>
 80022a2:	f7fe fc39 	bl	8000b18 <HAL_GetTick>
 80022a6:	1bc0      	subs	r0, r0, r7
 80022a8:	4548      	cmp	r0, r9
 80022aa:	d9f6      	bls.n	800229a <HAL_RCC_OscConfig+0x37e>
 80022ac:	e6da      	b.n	8002064 <HAL_RCC_OscConfig+0x148>
 80022ae:	f7fe fc33 	bl	8000b18 <HAL_GetTick>
 80022b2:	1bc0      	subs	r0, r0, r7
 80022b4:	4548      	cmp	r0, r9
 80022b6:	d9b3      	bls.n	8002220 <HAL_RCC_OscConfig+0x304>
 80022b8:	e6d4      	b.n	8002064 <HAL_RCC_OscConfig+0x148>
 80022ba:	6a6b      	ldr	r3, [r5, #36]	; 0x24
 80022bc:	b19b      	cbz	r3, 80022e6 <HAL_RCC_OscConfig+0x3ca>
 80022be:	f8d4 3098 	ldr.w	r3, [r4, #152]	; 0x98
 80022c2:	f043 0301 	orr.w	r3, r3, #1
 80022c6:	f8c4 3098 	str.w	r3, [r4, #152]	; 0x98
 80022ca:	f7fe fc25 	bl	8000b18 <HAL_GetTick>
 80022ce:	4607      	mov	r7, r0
 80022d0:	f8d4 3098 	ldr.w	r3, [r4, #152]	; 0x98
 80022d4:	079a      	lsls	r2, r3, #30
 80022d6:	f53f aeb9 	bmi.w	800204c <HAL_RCC_OscConfig+0x130>
 80022da:	f7fe fc1d 	bl	8000b18 <HAL_GetTick>
 80022de:	1bc0      	subs	r0, r0, r7
 80022e0:	2802      	cmp	r0, #2
 80022e2:	d9f5      	bls.n	80022d0 <HAL_RCC_OscConfig+0x3b4>
 80022e4:	e6be      	b.n	8002064 <HAL_RCC_OscConfig+0x148>
 80022e6:	f8d4 3098 	ldr.w	r3, [r4, #152]	; 0x98
 80022ea:	f023 0301 	bic.w	r3, r3, #1
 80022ee:	f8c4 3098 	str.w	r3, [r4, #152]	; 0x98
 80022f2:	f7fe fc11 	bl	8000b18 <HAL_GetTick>
 80022f6:	4607      	mov	r7, r0
 80022f8:	f8d4 3098 	ldr.w	r3, [r4, #152]	; 0x98
 80022fc:	079b      	lsls	r3, r3, #30
 80022fe:	f57f aea5 	bpl.w	800204c <HAL_RCC_OscConfig+0x130>
 8002302:	f7fe fc09 	bl	8000b18 <HAL_GetTick>
 8002306:	1bc0      	subs	r0, r0, r7
 8002308:	2802      	cmp	r0, #2
 800230a:	d9f5      	bls.n	80022f8 <HAL_RCC_OscConfig+0x3dc>
 800230c:	e6aa      	b.n	8002064 <HAL_RCC_OscConfig+0x148>
 800230e:	2b02      	cmp	r3, #2
 8002310:	f040 8088 	bne.w	8002424 <HAL_RCC_OscConfig+0x508>
 8002314:	68e3      	ldr	r3, [r4, #12]
 8002316:	6aea      	ldr	r2, [r5, #44]	; 0x2c
 8002318:	f003 0103 	and.w	r1, r3, #3
 800231c:	4291      	cmp	r1, r2
 800231e:	d122      	bne.n	8002366 <HAL_RCC_OscConfig+0x44a>
 8002320:	6b29      	ldr	r1, [r5, #48]	; 0x30
 8002322:	f003 0270 	and.w	r2, r3, #112	; 0x70
 8002326:	3901      	subs	r1, #1
 8002328:	ebb2 1f01 	cmp.w	r2, r1, lsl #4
 800232c:	d11b      	bne.n	8002366 <HAL_RCC_OscConfig+0x44a>
 800232e:	6b69      	ldr	r1, [r5, #52]	; 0x34
 8002330:	f403 42fe 	and.w	r2, r3, #32512	; 0x7f00
 8002334:	ebb2 2f01 	cmp.w	r2, r1, lsl #8
 8002338:	d115      	bne.n	8002366 <HAL_RCC_OscConfig+0x44a>
 800233a:	6ba9      	ldr	r1, [r5, #56]	; 0x38
 800233c:	f003 4278 	and.w	r2, r3, #4160749568	; 0xf8000000
 8002340:	ebb2 6fc1 	cmp.w	r2, r1, lsl #27
 8002344:	d10f      	bne.n	8002366 <HAL_RCC_OscConfig+0x44a>
 8002346:	6bea      	ldr	r2, [r5, #60]	; 0x3c
 8002348:	0852      	lsrs	r2, r2, #1
 800234a:	f403 01c0 	and.w	r1, r3, #6291456	; 0x600000
 800234e:	3a01      	subs	r2, #1
 8002350:	ebb1 5f42 	cmp.w	r1, r2, lsl #21
 8002354:	d107      	bne.n	8002366 <HAL_RCC_OscConfig+0x44a>
 8002356:	6c2a      	ldr	r2, [r5, #64]	; 0x40
 8002358:	0852      	lsrs	r2, r2, #1
 800235a:	f003 63c0 	and.w	r3, r3, #100663296	; 0x6000000
 800235e:	3a01      	subs	r2, #1
 8002360:	ebb3 6f42 	cmp.w	r3, r2, lsl #25
 8002364:	d045      	beq.n	80023f2 <HAL_RCC_OscConfig+0x4d6>
 8002366:	2e0c      	cmp	r6, #12
 8002368:	f43f addc 	beq.w	8001f24 <HAL_RCC_OscConfig+0x8>
 800236c:	6823      	ldr	r3, [r4, #0]
 800236e:	015e      	lsls	r6, r3, #5
 8002370:	f53f add8 	bmi.w	8001f24 <HAL_RCC_OscConfig+0x8>
 8002374:	6823      	ldr	r3, [r4, #0]
 8002376:	f023 7380 	bic.w	r3, r3, #16777216	; 0x1000000
 800237a:	6023      	str	r3, [r4, #0]
 800237c:	f7fe fbcc 	bl	8000b18 <HAL_GetTick>
 8002380:	4606      	mov	r6, r0
 8002382:	6823      	ldr	r3, [r4, #0]
 8002384:	0198      	lsls	r0, r3, #6
 8002386:	d42e      	bmi.n	80023e6 <HAL_RCC_OscConfig+0x4ca>
 8002388:	68e2      	ldr	r2, [r4, #12]
 800238a:	4b34      	ldr	r3, [pc, #208]	; (800245c <HAL_RCC_OscConfig+0x540>)
 800238c:	4013      	ands	r3, r2
 800238e:	6aea      	ldr	r2, [r5, #44]	; 0x2c
 8002390:	4313      	orrs	r3, r2
 8002392:	6b6a      	ldr	r2, [r5, #52]	; 0x34
 8002394:	ea43 2302 	orr.w	r3, r3, r2, lsl #8
 8002398:	6baa      	ldr	r2, [r5, #56]	; 0x38
 800239a:	ea43 63c2 	orr.w	r3, r3, r2, lsl #27
 800239e:	6b2a      	ldr	r2, [r5, #48]	; 0x30
 80023a0:	3a01      	subs	r2, #1
 80023a2:	ea43 1302 	orr.w	r3, r3, r2, lsl #4
 80023a6:	6bea      	ldr	r2, [r5, #60]	; 0x3c
 80023a8:	0852      	lsrs	r2, r2, #1
 80023aa:	3a01      	subs	r2, #1
 80023ac:	ea43 5342 	orr.w	r3, r3, r2, lsl #21
 80023b0:	6c2a      	ldr	r2, [r5, #64]	; 0x40
 80023b2:	0852      	lsrs	r2, r2, #1
 80023b4:	3a01      	subs	r2, #1
 80023b6:	ea43 6342 	orr.w	r3, r3, r2, lsl #25
 80023ba:	60e3      	str	r3, [r4, #12]
 80023bc:	6823      	ldr	r3, [r4, #0]
 80023be:	f043 7380 	orr.w	r3, r3, #16777216	; 0x1000000
 80023c2:	6023      	str	r3, [r4, #0]
 80023c4:	68e3      	ldr	r3, [r4, #12]
 80023c6:	f043 7380 	orr.w	r3, r3, #16777216	; 0x1000000
 80023ca:	60e3      	str	r3, [r4, #12]
 80023cc:	f7fe fba4 	bl	8000b18 <HAL_GetTick>
 80023d0:	4605      	mov	r5, r0
 80023d2:	6823      	ldr	r3, [r4, #0]
 80023d4:	0199      	lsls	r1, r3, #6
 80023d6:	f53f ae3d 	bmi.w	8002054 <HAL_RCC_OscConfig+0x138>
 80023da:	f7fe fb9d 	bl	8000b18 <HAL_GetTick>
 80023de:	1b40      	subs	r0, r0, r5
 80023e0:	2802      	cmp	r0, #2
 80023e2:	d9f6      	bls.n	80023d2 <HAL_RCC_OscConfig+0x4b6>
 80023e4:	e63e      	b.n	8002064 <HAL_RCC_OscConfig+0x148>
 80023e6:	f7fe fb97 	bl	8000b18 <HAL_GetTick>
 80023ea:	1b80      	subs	r0, r0, r6
 80023ec:	2802      	cmp	r0, #2
 80023ee:	d9c8      	bls.n	8002382 <HAL_RCC_OscConfig+0x466>
 80023f0:	e638      	b.n	8002064 <HAL_RCC_OscConfig+0x148>
 80023f2:	6823      	ldr	r3, [r4, #0]
 80023f4:	019a      	lsls	r2, r3, #6
 80023f6:	f53f ae2d 	bmi.w	8002054 <HAL_RCC_OscConfig+0x138>
 80023fa:	6823      	ldr	r3, [r4, #0]
 80023fc:	f043 7380 	orr.w	r3, r3, #16777216	; 0x1000000
 8002400:	6023      	str	r3, [r4, #0]
 8002402:	68e3      	ldr	r3, [r4, #12]
 8002404:	f043 7380 	orr.w	r3, r3, #16777216	; 0x1000000
 8002408:	60e3      	str	r3, [r4, #12]
 800240a:	f7fe fb85 	bl	8000b18 <HAL_GetTick>
 800240e:	4605      	mov	r5, r0
 8002410:	6823      	ldr	r3, [r4, #0]
 8002412:	019b      	lsls	r3, r3, #6
 8002414:	f53f ae1e 	bmi.w	8002054 <HAL_RCC_OscConfig+0x138>
 8002418:	f7fe fb7e 	bl	8000b18 <HAL_GetTick>
 800241c:	1b40      	subs	r0, r0, r5
 800241e:	2802      	cmp	r0, #2
 8002420:	d9f6      	bls.n	8002410 <HAL_RCC_OscConfig+0x4f4>
 8002422:	e61f      	b.n	8002064 <HAL_RCC_OscConfig+0x148>
 8002424:	2e0c      	cmp	r6, #12
 8002426:	f43f ad7d 	beq.w	8001f24 <HAL_RCC_OscConfig+0x8>
 800242a:	6823      	ldr	r3, [r4, #0]
 800242c:	f023 7380 	bic.w	r3, r3, #16777216	; 0x1000000
 8002430:	6023      	str	r3, [r4, #0]
 8002432:	f7fe fb71 	bl	8000b18 <HAL_GetTick>
 8002436:	4605      	mov	r5, r0
 8002438:	6823      	ldr	r3, [r4, #0]
 800243a:	f013 7300 	ands.w	r3, r3, #33554432	; 0x2000000
 800243e:	d104      	bne.n	800244a <HAL_RCC_OscConfig+0x52e>
 8002440:	68e1      	ldr	r1, [r4, #12]
 8002442:	4a07      	ldr	r2, [pc, #28]	; (8002460 <HAL_RCC_OscConfig+0x544>)
 8002444:	400a      	ands	r2, r1
 8002446:	60e2      	str	r2, [r4, #12]
 8002448:	e604      	b.n	8002054 <HAL_RCC_OscConfig+0x138>
 800244a:	f7fe fb65 	bl	8000b18 <HAL_GetTick>
 800244e:	1b40      	subs	r0, r0, r5
 8002450:	2802      	cmp	r0, #2
 8002452:	d9f1      	bls.n	8002438 <HAL_RCC_OscConfig+0x51c>
 8002454:	e606      	b.n	8002064 <HAL_RCC_OscConfig+0x148>
 8002456:	bf00      	nop
 8002458:	40007000 	.word	0x40007000
 800245c:	019d808c 	.word	0x019d808c
 8002460:	feeefffc 	.word	0xfeeefffc

08002464 <HAL_RCC_ClockConfig>:
 8002464:	e92d 41f0 	stmdb	sp!, {r4, r5, r6, r7, r8, lr}
 8002468:	460d      	mov	r5, r1
 800246a:	4604      	mov	r4, r0
 800246c:	b910      	cbnz	r0, 8002474 <HAL_RCC_ClockConfig+0x10>
 800246e:	2001      	movs	r0, #1
 8002470:	e8bd 81f0 	ldmia.w	sp!, {r4, r5, r6, r7, r8, pc}
 8002474:	4a4b      	ldr	r2, [pc, #300]	; (80025a4 <HAL_RCC_ClockConfig+0x140>)
 8002476:	6813      	ldr	r3, [r2, #0]
 8002478:	f003 0307 	and.w	r3, r3, #7
 800247c:	428b      	cmp	r3, r1
 800247e:	d32c      	bcc.n	80024da <HAL_RCC_ClockConfig+0x76>
 8002480:	6820      	ldr	r0, [r4, #0]
 8002482:	0786      	lsls	r6, r0, #30
 8002484:	d434      	bmi.n	80024f0 <HAL_RCC_ClockConfig+0x8c>
 8002486:	07c1      	lsls	r1, r0, #31
 8002488:	d43f      	bmi.n	800250a <HAL_RCC_ClockConfig+0xa6>
 800248a:	6821      	ldr	r1, [r4, #0]
 800248c:	078a      	lsls	r2, r1, #30
 800248e:	d468      	bmi.n	8002562 <HAL_RCC_ClockConfig+0xfe>
 8002490:	4a44      	ldr	r2, [pc, #272]	; (80025a4 <HAL_RCC_ClockConfig+0x140>)
 8002492:	6813      	ldr	r3, [r2, #0]
 8002494:	f003 0307 	and.w	r3, r3, #7
 8002498:	42ab      	cmp	r3, r5
 800249a:	d86f      	bhi.n	800257c <HAL_RCC_ClockConfig+0x118>
 800249c:	f011 0f04 	tst.w	r1, #4
 80024a0:	4d41      	ldr	r5, [pc, #260]	; (80025a8 <HAL_RCC_ClockConfig+0x144>)
 80024a2:	d177      	bne.n	8002594 <HAL_RCC_ClockConfig+0x130>
 80024a4:	070b      	lsls	r3, r1, #28
 80024a6:	d506      	bpl.n	80024b6 <HAL_RCC_ClockConfig+0x52>
 80024a8:	68ab      	ldr	r3, [r5, #8]
 80024aa:	6922      	ldr	r2, [r4, #16]
 80024ac:	f423 5360 	bic.w	r3, r3, #14336	; 0x3800
 80024b0:	ea43 03c2 	orr.w	r3, r3, r2, lsl #3
 80024b4:	60ab      	str	r3, [r5, #8]
 80024b6:	f7ff fce3 	bl	8001e80 <HAL_RCC_GetSysClockFreq>
 80024ba:	68ab      	ldr	r3, [r5, #8]
 80024bc:	4a3b      	ldr	r2, [pc, #236]	; (80025ac <HAL_RCC_ClockConfig+0x148>)
 80024be:	f3c3 1303 	ubfx	r3, r3, #4, #4
 80024c2:	e8bd 41f0 	ldmia.w	sp!, {r4, r5, r6, r7, r8, lr}
 80024c6:	5cd3      	ldrb	r3, [r2, r3]
 80024c8:	f003 031f 	and.w	r3, r3, #31
 80024cc:	40d8      	lsrs	r0, r3
 80024ce:	4b38      	ldr	r3, [pc, #224]	; (80025b0 <HAL_RCC_ClockConfig+0x14c>)
 80024d0:	6018      	str	r0, [r3, #0]
 80024d2:	4b38      	ldr	r3, [pc, #224]	; (80025b4 <HAL_RCC_ClockConfig+0x150>)
 80024d4:	6818      	ldr	r0, [r3, #0]
 80024d6:	f7fe badd 	b.w	8000a94 <HAL_InitTick>
 80024da:	6813      	ldr	r3, [r2, #0]
 80024dc:	f023 0307 	bic.w	r3, r3, #7
 80024e0:	430b      	orrs	r3, r1
 80024e2:	6013      	str	r3, [r2, #0]
 80024e4:	6813      	ldr	r3, [r2, #0]
 80024e6:	f003 0307 	and.w	r3, r3, #7
 80024ea:	428b      	cmp	r3, r1
 80024ec:	d1bf      	bne.n	800246e <HAL_RCC_ClockConfig+0xa>
 80024ee:	e7c7      	b.n	8002480 <HAL_RCC_ClockConfig+0x1c>
 80024f0:	4a2d      	ldr	r2, [pc, #180]	; (80025a8 <HAL_RCC_ClockConfig+0x144>)
 80024f2:	68a6      	ldr	r6, [r4, #8]
 80024f4:	6891      	ldr	r1, [r2, #8]
 80024f6:	f001 01f0 	and.w	r1, r1, #240	; 0xf0
 80024fa:	428e      	cmp	r6, r1
 80024fc:	bf81      	itttt	hi
 80024fe:	6893      	ldrhi	r3, [r2, #8]
 8002500:	f023 03f0 	bichi.w	r3, r3, #240	; 0xf0
 8002504:	4333      	orrhi	r3, r6
 8002506:	6093      	strhi	r3, [r2, #8]
 8002508:	e7bd      	b.n	8002486 <HAL_RCC_ClockConfig+0x22>
 800250a:	6862      	ldr	r2, [r4, #4]
 800250c:	4e26      	ldr	r6, [pc, #152]	; (80025a8 <HAL_RCC_ClockConfig+0x144>)
 800250e:	2a03      	cmp	r2, #3
 8002510:	6833      	ldr	r3, [r6, #0]
 8002512:	d11a      	bne.n	800254a <HAL_RCC_ClockConfig+0xe6>
 8002514:	f013 7f00 	tst.w	r3, #33554432	; 0x2000000
 8002518:	d0a9      	beq.n	800246e <HAL_RCC_ClockConfig+0xa>
 800251a:	68b3      	ldr	r3, [r6, #8]
 800251c:	f023 0303 	bic.w	r3, r3, #3
 8002520:	4313      	orrs	r3, r2
 8002522:	60b3      	str	r3, [r6, #8]
 8002524:	f7fe faf8 	bl	8000b18 <HAL_GetTick>
 8002528:	f241 3888 	movw	r8, #5000	; 0x1388
 800252c:	4607      	mov	r7, r0
 800252e:	68b3      	ldr	r3, [r6, #8]
 8002530:	6862      	ldr	r2, [r4, #4]
 8002532:	f003 030c 	and.w	r3, r3, #12
 8002536:	ebb3 0f82 	cmp.w	r3, r2, lsl #2
 800253a:	d0a6      	beq.n	800248a <HAL_RCC_ClockConfig+0x26>
 800253c:	f7fe faec 	bl	8000b18 <HAL_GetTick>
 8002540:	1bc0      	subs	r0, r0, r7
 8002542:	4540      	cmp	r0, r8
 8002544:	d9f3      	bls.n	800252e <HAL_RCC_ClockConfig+0xca>
 8002546:	2003      	movs	r0, #3
 8002548:	e792      	b.n	8002470 <HAL_RCC_ClockConfig+0xc>
 800254a:	2a02      	cmp	r2, #2
 800254c:	d102      	bne.n	8002554 <HAL_RCC_ClockConfig+0xf0>
 800254e:	f413 3f00 	tst.w	r3, #131072	; 0x20000
 8002552:	e7e1      	b.n	8002518 <HAL_RCC_ClockConfig+0xb4>
 8002554:	b912      	cbnz	r2, 800255c <HAL_RCC_ClockConfig+0xf8>
 8002556:	f013 0f02 	tst.w	r3, #2
 800255a:	e7dd      	b.n	8002518 <HAL_RCC_ClockConfig+0xb4>
 800255c:	f413 6f80 	tst.w	r3, #1024	; 0x400
 8002560:	e7da      	b.n	8002518 <HAL_RCC_ClockConfig+0xb4>
 8002562:	4a11      	ldr	r2, [pc, #68]	; (80025a8 <HAL_RCC_ClockConfig+0x144>)
 8002564:	68a6      	ldr	r6, [r4, #8]
 8002566:	6890      	ldr	r0, [r2, #8]
 8002568:	f000 00f0 	and.w	r0, r0, #240	; 0xf0
 800256c:	4286      	cmp	r6, r0
 800256e:	bf3f      	itttt	cc
 8002570:	6893      	ldrcc	r3, [r2, #8]
 8002572:	f023 03f0 	biccc.w	r3, r3, #240	; 0xf0
 8002576:	4333      	orrcc	r3, r6
 8002578:	6093      	strcc	r3, [r2, #8]
 800257a:	e789      	b.n	8002490 <HAL_RCC_ClockConfig+0x2c>
 800257c:	6813      	ldr	r3, [r2, #0]
 800257e:	f023 0307 	bic.w	r3, r3, #7
 8002582:	432b      	orrs	r3, r5
 8002584:	6013      	str	r3, [r2, #0]
 8002586:	6813      	ldr	r3, [r2, #0]
 8002588:	f003 0307 	and.w	r3, r3, #7
 800258c:	42ab      	cmp	r3, r5
 800258e:	f47f af6e 	bne.w	800246e <HAL_RCC_ClockConfig+0xa>
 8002592:	e783      	b.n	800249c <HAL_RCC_ClockConfig+0x38>
 8002594:	68ab      	ldr	r3, [r5, #8]
 8002596:	68e2      	ldr	r2, [r4, #12]
 8002598:	f423 63e0 	bic.w	r3, r3, #1792	; 0x700
 800259c:	4313      	orrs	r3, r2
 800259e:	60ab      	str	r3, [r5, #8]
 80025a0:	e780      	b.n	80024a4 <HAL_RCC_ClockConfig+0x40>
 80025a2:	bf00      	nop
 80025a4:	40022000 	.word	0x40022000
 80025a8:	40021000 	.word	0x40021000
 80025ac:	08002bd0 	.word	0x08002bd0
 80025b0:	20000000 	.word	0x20000000
 80025b4:	20000008 	.word	0x20000008

080025b8 <RCCEx_PLLSAI1_Config>:
 80025b8:	b5f8      	push	{r3, r4, r5, r6, r7, lr}
 80025ba:	4c43      	ldr	r4, [pc, #268]	; (80026c8 <RCCEx_PLLSAI1_Config+0x110>)
 80025bc:	6803      	ldr	r3, [r0, #0]
 80025be:	68e2      	ldr	r2, [r4, #12]
 80025c0:	4605      	mov	r5, r0
 80025c2:	0790      	lsls	r0, r2, #30
 80025c4:	460e      	mov	r6, r1
 80025c6:	d039      	beq.n	800263c <RCCEx_PLLSAI1_Config+0x84>
 80025c8:	68e2      	ldr	r2, [r4, #12]
 80025ca:	f002 0203 	and.w	r2, r2, #3
 80025ce:	429a      	cmp	r2, r3
 80025d0:	d177      	bne.n	80026c2 <RCCEx_PLLSAI1_Config+0x10a>
 80025d2:	2a00      	cmp	r2, #0
 80025d4:	d075      	beq.n	80026c2 <RCCEx_PLLSAI1_Config+0x10a>
 80025d6:	68e3      	ldr	r3, [r4, #12]
 80025d8:	686a      	ldr	r2, [r5, #4]
 80025da:	f3c3 1302 	ubfx	r3, r3, #4, #3
 80025de:	3301      	adds	r3, #1
 80025e0:	4293      	cmp	r3, r2
 80025e2:	d16e      	bne.n	80026c2 <RCCEx_PLLSAI1_Config+0x10a>
 80025e4:	6823      	ldr	r3, [r4, #0]
 80025e6:	f023 6380 	bic.w	r3, r3, #67108864	; 0x4000000
 80025ea:	6023      	str	r3, [r4, #0]
 80025ec:	f7fe fa94 	bl	8000b18 <HAL_GetTick>
 80025f0:	4607      	mov	r7, r0
 80025f2:	6823      	ldr	r3, [r4, #0]
 80025f4:	011a      	lsls	r2, r3, #4
 80025f6:	d440      	bmi.n	800267a <RCCEx_PLLSAI1_Config+0xc2>
 80025f8:	68ab      	ldr	r3, [r5, #8]
 80025fa:	0218      	lsls	r0, r3, #8
 80025fc:	2e00      	cmp	r6, #0
 80025fe:	d043      	beq.n	8002688 <RCCEx_PLLSAI1_Config+0xd0>
 8002600:	2e01      	cmp	r6, #1
 8002602:	d14c      	bne.n	800269e <RCCEx_PLLSAI1_Config+0xe6>
 8002604:	692a      	ldr	r2, [r5, #16]
 8002606:	6921      	ldr	r1, [r4, #16]
 8002608:	0852      	lsrs	r2, r2, #1
 800260a:	1e53      	subs	r3, r2, #1
 800260c:	f421 02c0 	bic.w	r2, r1, #6291456	; 0x600000
 8002610:	f422 42fe 	bic.w	r2, r2, #32512	; 0x7f00
 8002614:	4302      	orrs	r2, r0
 8002616:	ea42 5243 	orr.w	r2, r2, r3, lsl #21
 800261a:	6122      	str	r2, [r4, #16]
 800261c:	6823      	ldr	r3, [r4, #0]
 800261e:	f043 6380 	orr.w	r3, r3, #67108864	; 0x4000000
 8002622:	6023      	str	r3, [r4, #0]
 8002624:	f7fe fa78 	bl	8000b18 <HAL_GetTick>
 8002628:	4606      	mov	r6, r0
 800262a:	6823      	ldr	r3, [r4, #0]
 800262c:	011b      	lsls	r3, r3, #4
 800262e:	d542      	bpl.n	80026b6 <RCCEx_PLLSAI1_Config+0xfe>
 8002630:	6923      	ldr	r3, [r4, #16]
 8002632:	69aa      	ldr	r2, [r5, #24]
 8002634:	4313      	orrs	r3, r2
 8002636:	6123      	str	r3, [r4, #16]
 8002638:	2000      	movs	r0, #0
 800263a:	e024      	b.n	8002686 <RCCEx_PLLSAI1_Config+0xce>
 800263c:	2b02      	cmp	r3, #2
 800263e:	d011      	beq.n	8002664 <RCCEx_PLLSAI1_Config+0xac>
 8002640:	2b03      	cmp	r3, #3
 8002642:	d013      	beq.n	800266c <RCCEx_PLLSAI1_Config+0xb4>
 8002644:	2b01      	cmp	r3, #1
 8002646:	d13c      	bne.n	80026c2 <RCCEx_PLLSAI1_Config+0x10a>
 8002648:	6822      	ldr	r2, [r4, #0]
 800264a:	f012 0f02 	tst.w	r2, #2
 800264e:	d038      	beq.n	80026c2 <RCCEx_PLLSAI1_Config+0x10a>
 8002650:	68e0      	ldr	r0, [r4, #12]
 8002652:	686a      	ldr	r2, [r5, #4]
 8002654:	f020 0073 	bic.w	r0, r0, #115	; 0x73
 8002658:	3a01      	subs	r2, #1
 800265a:	4318      	orrs	r0, r3
 800265c:	ea40 1002 	orr.w	r0, r0, r2, lsl #4
 8002660:	60e0      	str	r0, [r4, #12]
 8002662:	e7bf      	b.n	80025e4 <RCCEx_PLLSAI1_Config+0x2c>
 8002664:	6822      	ldr	r2, [r4, #0]
 8002666:	f412 6f80 	tst.w	r2, #1024	; 0x400
 800266a:	e7f0      	b.n	800264e <RCCEx_PLLSAI1_Config+0x96>
 800266c:	6822      	ldr	r2, [r4, #0]
 800266e:	0391      	lsls	r1, r2, #14
 8002670:	d4ee      	bmi.n	8002650 <RCCEx_PLLSAI1_Config+0x98>
 8002672:	6822      	ldr	r2, [r4, #0]
 8002674:	f412 2f80 	tst.w	r2, #262144	; 0x40000
 8002678:	e7e9      	b.n	800264e <RCCEx_PLLSAI1_Config+0x96>
 800267a:	f7fe fa4d 	bl	8000b18 <HAL_GetTick>
 800267e:	1bc0      	subs	r0, r0, r7
 8002680:	2802      	cmp	r0, #2
 8002682:	d9b6      	bls.n	80025f2 <RCCEx_PLLSAI1_Config+0x3a>
 8002684:	2003      	movs	r0, #3
 8002686:	bdf8      	pop	{r3, r4, r5, r6, r7, pc}
 8002688:	6922      	ldr	r2, [r4, #16]
 800268a:	68eb      	ldr	r3, [r5, #12]
 800268c:	ea40 63c3 	orr.w	r3, r0, r3, lsl #27
 8002690:	f022 4078 	bic.w	r0, r2, #4160749568	; 0xf8000000
 8002694:	f420 40fe 	bic.w	r0, r0, #32512	; 0x7f00
 8002698:	4303      	orrs	r3, r0
 800269a:	6123      	str	r3, [r4, #16]
 800269c:	e7be      	b.n	800261c <RCCEx_PLLSAI1_Config+0x64>
 800269e:	696b      	ldr	r3, [r5, #20]
 80026a0:	6922      	ldr	r2, [r4, #16]
 80026a2:	085b      	lsrs	r3, r3, #1
 80026a4:	1e59      	subs	r1, r3, #1
 80026a6:	f022 63c0 	bic.w	r3, r2, #100663296	; 0x6000000
 80026aa:	f423 43fe 	bic.w	r3, r3, #32512	; 0x7f00
 80026ae:	4303      	orrs	r3, r0
 80026b0:	ea43 6341 	orr.w	r3, r3, r1, lsl #25
 80026b4:	e7f1      	b.n	800269a <RCCEx_PLLSAI1_Config+0xe2>
 80026b6:	f7fe fa2f 	bl	8000b18 <HAL_GetTick>
 80026ba:	1b80      	subs	r0, r0, r6
 80026bc:	2802      	cmp	r0, #2
 80026be:	d9b4      	bls.n	800262a <RCCEx_PLLSAI1_Config+0x72>
 80026c0:	e7e0      	b.n	8002684 <RCCEx_PLLSAI1_Config+0xcc>
 80026c2:	2001      	movs	r0, #1
 80026c4:	e7df      	b.n	8002686 <RCCEx_PLLSAI1_Config+0xce>
 80026c6:	bf00      	nop
 80026c8:	40021000 	.word	0x40021000

080026cc <HAL_RCCEx_PeriphCLKConfig>:
 80026cc:	e92d 43f7 	stmdb	sp!, {r0, r1, r2, r4, r5, r6, r7, r8, r9, lr}
 80026d0:	6805      	ldr	r5, [r0, #0]
 80026d2:	f415 6500 	ands.w	r5, r5, #2048	; 0x800
 80026d6:	4604      	mov	r4, r0
 80026d8:	d009      	beq.n	80026ee <HAL_RCCEx_PeriphCLKConfig+0x22>
 80026da:	6cc1      	ldr	r1, [r0, #76]	; 0x4c
 80026dc:	f5b1 0f00 	cmp.w	r1, #8388608	; 0x800000
 80026e0:	d035      	beq.n	800274e <HAL_RCCEx_PeriphCLKConfig+0x82>
 80026e2:	f5b1 0f40 	cmp.w	r1, #12582912	; 0xc00000
 80026e6:	d037      	beq.n	8002758 <HAL_RCCEx_PeriphCLKConfig+0x8c>
 80026e8:	2900      	cmp	r1, #0
 80026ea:	d040      	beq.n	800276e <HAL_RCCEx_PeriphCLKConfig+0xa2>
 80026ec:	2501      	movs	r5, #1
 80026ee:	6823      	ldr	r3, [r4, #0]
 80026f0:	039e      	lsls	r6, r3, #14
 80026f2:	d551      	bpl.n	8002798 <HAL_RCCEx_PeriphCLKConfig+0xcc>
 80026f4:	4eaf      	ldr	r6, [pc, #700]	; (80029b4 <HAL_RCCEx_PeriphCLKConfig+0x2e8>)
 80026f6:	6db3      	ldr	r3, [r6, #88]	; 0x58
 80026f8:	00d8      	lsls	r0, r3, #3
 80026fa:	d43f      	bmi.n	800277c <HAL_RCCEx_PeriphCLKConfig+0xb0>
 80026fc:	6db3      	ldr	r3, [r6, #88]	; 0x58
 80026fe:	f043 5380 	orr.w	r3, r3, #268435456	; 0x10000000
 8002702:	65b3      	str	r3, [r6, #88]	; 0x58
 8002704:	6db3      	ldr	r3, [r6, #88]	; 0x58
 8002706:	f003 5380 	and.w	r3, r3, #268435456	; 0x10000000
 800270a:	9301      	str	r3, [sp, #4]
 800270c:	9b01      	ldr	r3, [sp, #4]
 800270e:	2701      	movs	r7, #1
 8002710:	f8df 82a4 	ldr.w	r8, [pc, #676]	; 80029b8 <HAL_RCCEx_PeriphCLKConfig+0x2ec>
 8002714:	f8d8 3000 	ldr.w	r3, [r8]
 8002718:	f443 7380 	orr.w	r3, r3, #256	; 0x100
 800271c:	f8c8 3000 	str.w	r3, [r8]
 8002720:	f7fe f9fa 	bl	8000b18 <HAL_GetTick>
 8002724:	4681      	mov	r9, r0
 8002726:	f8d8 3000 	ldr.w	r3, [r8]
 800272a:	05d9      	lsls	r1, r3, #23
 800272c:	d528      	bpl.n	8002780 <HAL_RCCEx_PeriphCLKConfig+0xb4>
 800272e:	bb75      	cbnz	r5, 800278e <HAL_RCCEx_PeriphCLKConfig+0xc2>
 8002730:	f8d6 3090 	ldr.w	r3, [r6, #144]	; 0x90
 8002734:	f413 7340 	ands.w	r3, r3, #768	; 0x300
 8002738:	f040 8106 	bne.w	8002948 <HAL_RCCEx_PeriphCLKConfig+0x27c>
 800273c:	f8d6 3090 	ldr.w	r3, [r6, #144]	; 0x90
 8002740:	6e62      	ldr	r2, [r4, #100]	; 0x64
 8002742:	f423 7340 	bic.w	r3, r3, #768	; 0x300
 8002746:	4313      	orrs	r3, r2
 8002748:	f8c6 3090 	str.w	r3, [r6, #144]	; 0x90
 800274c:	e01f      	b.n	800278e <HAL_RCCEx_PeriphCLKConfig+0xc2>
 800274e:	4a99      	ldr	r2, [pc, #612]	; (80029b4 <HAL_RCCEx_PeriphCLKConfig+0x2e8>)
 8002750:	68d3      	ldr	r3, [r2, #12]
 8002752:	f443 3380 	orr.w	r3, r3, #65536	; 0x10000
 8002756:	60d3      	str	r3, [r2, #12]
 8002758:	4a96      	ldr	r2, [pc, #600]	; (80029b4 <HAL_RCCEx_PeriphCLKConfig+0x2e8>)
 800275a:	6ce1      	ldr	r1, [r4, #76]	; 0x4c
 800275c:	f8d2 3088 	ldr.w	r3, [r2, #136]	; 0x88
 8002760:	f423 0340 	bic.w	r3, r3, #12582912	; 0xc00000
 8002764:	430b      	orrs	r3, r1
 8002766:	f8c2 3088 	str.w	r3, [r2, #136]	; 0x88
 800276a:	2500      	movs	r5, #0
 800276c:	e7bf      	b.n	80026ee <HAL_RCCEx_PeriphCLKConfig+0x22>
 800276e:	3004      	adds	r0, #4
 8002770:	f7ff ff22 	bl	80025b8 <RCCEx_PLLSAI1_Config>
 8002774:	4605      	mov	r5, r0
 8002776:	2800      	cmp	r0, #0
 8002778:	d1b9      	bne.n	80026ee <HAL_RCCEx_PeriphCLKConfig+0x22>
 800277a:	e7ed      	b.n	8002758 <HAL_RCCEx_PeriphCLKConfig+0x8c>
 800277c:	2700      	movs	r7, #0
 800277e:	e7c7      	b.n	8002710 <HAL_RCCEx_PeriphCLKConfig+0x44>
 8002780:	f7fe f9ca 	bl	8000b18 <HAL_GetTick>
 8002784:	eba0 0009 	sub.w	r0, r0, r9
 8002788:	2802      	cmp	r0, #2
 800278a:	d9cc      	bls.n	8002726 <HAL_RCCEx_PeriphCLKConfig+0x5a>
 800278c:	2503      	movs	r5, #3
 800278e:	b11f      	cbz	r7, 8002798 <HAL_RCCEx_PeriphCLKConfig+0xcc>
 8002790:	6db3      	ldr	r3, [r6, #88]	; 0x58
 8002792:	f023 5380 	bic.w	r3, r3, #268435456	; 0x10000000
 8002796:	65b3      	str	r3, [r6, #88]	; 0x58
 8002798:	6823      	ldr	r3, [r4, #0]
 800279a:	07df      	lsls	r7, r3, #31
 800279c:	d508      	bpl.n	80027b0 <HAL_RCCEx_PeriphCLKConfig+0xe4>
 800279e:	4985      	ldr	r1, [pc, #532]	; (80029b4 <HAL_RCCEx_PeriphCLKConfig+0x2e8>)
 80027a0:	6a20      	ldr	r0, [r4, #32]
 80027a2:	f8d1 2088 	ldr.w	r2, [r1, #136]	; 0x88
 80027a6:	f022 0203 	bic.w	r2, r2, #3
 80027aa:	4302      	orrs	r2, r0
 80027ac:	f8c1 2088 	str.w	r2, [r1, #136]	; 0x88
 80027b0:	079e      	lsls	r6, r3, #30
 80027b2:	d508      	bpl.n	80027c6 <HAL_RCCEx_PeriphCLKConfig+0xfa>
 80027b4:	497f      	ldr	r1, [pc, #508]	; (80029b4 <HAL_RCCEx_PeriphCLKConfig+0x2e8>)
 80027b6:	6a60      	ldr	r0, [r4, #36]	; 0x24
 80027b8:	f8d1 2088 	ldr.w	r2, [r1, #136]	; 0x88
 80027bc:	f022 020c 	bic.w	r2, r2, #12
 80027c0:	4302      	orrs	r2, r0
 80027c2:	f8c1 2088 	str.w	r2, [r1, #136]	; 0x88
 80027c6:	0758      	lsls	r0, r3, #29
 80027c8:	d508      	bpl.n	80027dc <HAL_RCCEx_PeriphCLKConfig+0x110>
 80027ca:	497a      	ldr	r1, [pc, #488]	; (80029b4 <HAL_RCCEx_PeriphCLKConfig+0x2e8>)
 80027cc:	6aa0      	ldr	r0, [r4, #40]	; 0x28
 80027ce:	f8d1 2088 	ldr.w	r2, [r1, #136]	; 0x88
 80027d2:	f022 0230 	bic.w	r2, r2, #48	; 0x30
 80027d6:	4302      	orrs	r2, r0
 80027d8:	f8c1 2088 	str.w	r2, [r1, #136]	; 0x88
 80027dc:	0719      	lsls	r1, r3, #28
 80027de:	d508      	bpl.n	80027f2 <HAL_RCCEx_PeriphCLKConfig+0x126>
 80027e0:	4974      	ldr	r1, [pc, #464]	; (80029b4 <HAL_RCCEx_PeriphCLKConfig+0x2e8>)
 80027e2:	6ae0      	ldr	r0, [r4, #44]	; 0x2c
 80027e4:	f8d1 2088 	ldr.w	r2, [r1, #136]	; 0x88
 80027e8:	f022 02c0 	bic.w	r2, r2, #192	; 0xc0
 80027ec:	4302      	orrs	r2, r0
 80027ee:	f8c1 2088 	str.w	r2, [r1, #136]	; 0x88
 80027f2:	069a      	lsls	r2, r3, #26
 80027f4:	d508      	bpl.n	8002808 <HAL_RCCEx_PeriphCLKConfig+0x13c>
 80027f6:	496f      	ldr	r1, [pc, #444]	; (80029b4 <HAL_RCCEx_PeriphCLKConfig+0x2e8>)
 80027f8:	6b20      	ldr	r0, [r4, #48]	; 0x30
 80027fa:	f8d1 2088 	ldr.w	r2, [r1, #136]	; 0x88
 80027fe:	f422 6240 	bic.w	r2, r2, #3072	; 0xc00
 8002802:	4302      	orrs	r2, r0
 8002804:	f8c1 2088 	str.w	r2, [r1, #136]	; 0x88
 8002808:	059f      	lsls	r7, r3, #22
 800280a:	d508      	bpl.n	800281e <HAL_RCCEx_PeriphCLKConfig+0x152>
 800280c:	4969      	ldr	r1, [pc, #420]	; (80029b4 <HAL_RCCEx_PeriphCLKConfig+0x2e8>)
 800280e:	6c60      	ldr	r0, [r4, #68]	; 0x44
 8002810:	f8d1 2088 	ldr.w	r2, [r1, #136]	; 0x88
 8002814:	f422 2240 	bic.w	r2, r2, #786432	; 0xc0000
 8002818:	4302      	orrs	r2, r0
 800281a:	f8c1 2088 	str.w	r2, [r1, #136]	; 0x88
 800281e:	055e      	lsls	r6, r3, #21
 8002820:	d508      	bpl.n	8002834 <HAL_RCCEx_PeriphCLKConfig+0x168>
 8002822:	4964      	ldr	r1, [pc, #400]	; (80029b4 <HAL_RCCEx_PeriphCLKConfig+0x2e8>)
 8002824:	6ca0      	ldr	r0, [r4, #72]	; 0x48
 8002826:	f8d1 2088 	ldr.w	r2, [r1, #136]	; 0x88
 800282a:	f422 1240 	bic.w	r2, r2, #3145728	; 0x300000
 800282e:	4302      	orrs	r2, r0
 8002830:	f8c1 2088 	str.w	r2, [r1, #136]	; 0x88
 8002834:	0658      	lsls	r0, r3, #25
 8002836:	d508      	bpl.n	800284a <HAL_RCCEx_PeriphCLKConfig+0x17e>
 8002838:	495e      	ldr	r1, [pc, #376]	; (80029b4 <HAL_RCCEx_PeriphCLKConfig+0x2e8>)
 800283a:	6b60      	ldr	r0, [r4, #52]	; 0x34
 800283c:	f8d1 2088 	ldr.w	r2, [r1, #136]	; 0x88
 8002840:	f422 5240 	bic.w	r2, r2, #12288	; 0x3000
 8002844:	4302      	orrs	r2, r0
 8002846:	f8c1 2088 	str.w	r2, [r1, #136]	; 0x88
 800284a:	0619      	lsls	r1, r3, #24
 800284c:	d508      	bpl.n	8002860 <HAL_RCCEx_PeriphCLKConfig+0x194>
 800284e:	4959      	ldr	r1, [pc, #356]	; (80029b4 <HAL_RCCEx_PeriphCLKConfig+0x2e8>)
 8002850:	6ba0      	ldr	r0, [r4, #56]	; 0x38
 8002852:	f8d1 2088 	ldr.w	r2, [r1, #136]	; 0x88
 8002856:	f422 4240 	bic.w	r2, r2, #49152	; 0xc000
 800285a:	4302      	orrs	r2, r0
 800285c:	f8c1 2088 	str.w	r2, [r1, #136]	; 0x88
 8002860:	05da      	lsls	r2, r3, #23
 8002862:	d508      	bpl.n	8002876 <HAL_RCCEx_PeriphCLKConfig+0x1aa>
 8002864:	4953      	ldr	r1, [pc, #332]	; (80029b4 <HAL_RCCEx_PeriphCLKConfig+0x2e8>)
 8002866:	6be0      	ldr	r0, [r4, #60]	; 0x3c
 8002868:	f8d1 2088 	ldr.w	r2, [r1, #136]	; 0x88
 800286c:	f422 3240 	bic.w	r2, r2, #196608	; 0x30000
 8002870:	4302      	orrs	r2, r0
 8002872:	f8c1 2088 	str.w	r2, [r1, #136]	; 0x88
 8002876:	02df      	lsls	r7, r3, #11
 8002878:	d508      	bpl.n	800288c <HAL_RCCEx_PeriphCLKConfig+0x1c0>
 800287a:	494e      	ldr	r1, [pc, #312]	; (80029b4 <HAL_RCCEx_PeriphCLKConfig+0x2e8>)
 800287c:	6c20      	ldr	r0, [r4, #64]	; 0x40
 800287e:	f8d1 209c 	ldr.w	r2, [r1, #156]	; 0x9c
 8002882:	f022 0203 	bic.w	r2, r2, #3
 8002886:	4302      	orrs	r2, r0
 8002888:	f8c1 209c 	str.w	r2, [r1, #156]	; 0x9c
 800288c:	049e      	lsls	r6, r3, #18
 800288e:	d50f      	bpl.n	80028b0 <HAL_RCCEx_PeriphCLKConfig+0x1e4>
 8002890:	4a48      	ldr	r2, [pc, #288]	; (80029b4 <HAL_RCCEx_PeriphCLKConfig+0x2e8>)
 8002892:	6d21      	ldr	r1, [r4, #80]	; 0x50
 8002894:	f8d2 3088 	ldr.w	r3, [r2, #136]	; 0x88
 8002898:	f023 6340 	bic.w	r3, r3, #201326592	; 0xc000000
 800289c:	430b      	orrs	r3, r1
 800289e:	f1b1 6f00 	cmp.w	r1, #134217728	; 0x8000000
 80028a2:	f8c2 3088 	str.w	r3, [r2, #136]	; 0x88
 80028a6:	d179      	bne.n	800299c <HAL_RCCEx_PeriphCLKConfig+0x2d0>
 80028a8:	68d3      	ldr	r3, [r2, #12]
 80028aa:	f443 1380 	orr.w	r3, r3, #1048576	; 0x100000
 80028ae:	60d3      	str	r3, [r2, #12]
 80028b0:	6823      	ldr	r3, [r4, #0]
 80028b2:	0318      	lsls	r0, r3, #12
 80028b4:	d50f      	bpl.n	80028d6 <HAL_RCCEx_PeriphCLKConfig+0x20a>
 80028b6:	4a3f      	ldr	r2, [pc, #252]	; (80029b4 <HAL_RCCEx_PeriphCLKConfig+0x2e8>)
 80028b8:	6d61      	ldr	r1, [r4, #84]	; 0x54
 80028ba:	f8d2 3088 	ldr.w	r3, [r2, #136]	; 0x88
 80028be:	f023 6340 	bic.w	r3, r3, #201326592	; 0xc000000
 80028c2:	430b      	orrs	r3, r1
 80028c4:	f1b1 6f00 	cmp.w	r1, #134217728	; 0x8000000
 80028c8:	f8c2 3088 	str.w	r3, [r2, #136]	; 0x88
 80028cc:	d176      	bne.n	80029bc <HAL_RCCEx_PeriphCLKConfig+0x2f0>
 80028ce:	68d3      	ldr	r3, [r2, #12]
 80028d0:	f443 1380 	orr.w	r3, r3, #1048576	; 0x100000
 80028d4:	60d3      	str	r3, [r2, #12]
 80028d6:	6823      	ldr	r3, [r4, #0]
 80028d8:	0359      	lsls	r1, r3, #13
 80028da:	d50f      	bpl.n	80028fc <HAL_RCCEx_PeriphCLKConfig+0x230>
 80028dc:	4a35      	ldr	r2, [pc, #212]	; (80029b4 <HAL_RCCEx_PeriphCLKConfig+0x2e8>)
 80028de:	6da1      	ldr	r1, [r4, #88]	; 0x58
 80028e0:	f8d2 3088 	ldr.w	r3, [r2, #136]	; 0x88
 80028e4:	f023 6340 	bic.w	r3, r3, #201326592	; 0xc000000
 80028e8:	430b      	orrs	r3, r1
 80028ea:	f1b1 6f00 	cmp.w	r1, #134217728	; 0x8000000
 80028ee:	f8c2 3088 	str.w	r3, [r2, #136]	; 0x88
 80028f2:	d16e      	bne.n	80029d2 <HAL_RCCEx_PeriphCLKConfig+0x306>
 80028f4:	68d3      	ldr	r3, [r2, #12]
 80028f6:	f443 1380 	orr.w	r3, r3, #1048576	; 0x100000
 80028fa:	60d3      	str	r3, [r2, #12]
 80028fc:	6823      	ldr	r3, [r4, #0]
 80028fe:	045a      	lsls	r2, r3, #17
 8002900:	d512      	bpl.n	8002928 <HAL_RCCEx_PeriphCLKConfig+0x25c>
 8002902:	492c      	ldr	r1, [pc, #176]	; (80029b4 <HAL_RCCEx_PeriphCLKConfig+0x2e8>)
 8002904:	6de2      	ldr	r2, [r4, #92]	; 0x5c
 8002906:	f8d1 3088 	ldr.w	r3, [r1, #136]	; 0x88
 800290a:	f023 5340 	bic.w	r3, r3, #805306368	; 0x30000000
 800290e:	4313      	orrs	r3, r2
 8002910:	f1b2 5f80 	cmp.w	r2, #268435456	; 0x10000000
 8002914:	f8c1 3088 	str.w	r3, [r1, #136]	; 0x88
 8002918:	d106      	bne.n	8002928 <HAL_RCCEx_PeriphCLKConfig+0x25c>
 800291a:	2102      	movs	r1, #2
 800291c:	1d20      	adds	r0, r4, #4
 800291e:	f7ff fe4b 	bl	80025b8 <RCCEx_PLLSAI1_Config>
 8002922:	2800      	cmp	r0, #0
 8002924:	bf18      	it	ne
 8002926:	4605      	movne	r5, r0
 8002928:	6823      	ldr	r3, [r4, #0]
 800292a:	03db      	lsls	r3, r3, #15
 800292c:	d508      	bpl.n	8002940 <HAL_RCCEx_PeriphCLKConfig+0x274>
 800292e:	4a21      	ldr	r2, [pc, #132]	; (80029b4 <HAL_RCCEx_PeriphCLKConfig+0x2e8>)
 8002930:	6e21      	ldr	r1, [r4, #96]	; 0x60
 8002932:	f8d2 3088 	ldr.w	r3, [r2, #136]	; 0x88
 8002936:	f023 4300 	bic.w	r3, r3, #2147483648	; 0x80000000
 800293a:	430b      	orrs	r3, r1
 800293c:	f8c2 3088 	str.w	r3, [r2, #136]	; 0x88
 8002940:	4628      	mov	r0, r5
 8002942:	b003      	add	sp, #12
 8002944:	e8bd 83f0 	ldmia.w	sp!, {r4, r5, r6, r7, r8, r9, pc}
 8002948:	6e62      	ldr	r2, [r4, #100]	; 0x64
 800294a:	4293      	cmp	r3, r2
 800294c:	f43f aef6 	beq.w	800273c <HAL_RCCEx_PeriphCLKConfig+0x70>
 8002950:	f8d6 2090 	ldr.w	r2, [r6, #144]	; 0x90
 8002954:	f8d6 3090 	ldr.w	r3, [r6, #144]	; 0x90
 8002958:	f443 3380 	orr.w	r3, r3, #65536	; 0x10000
 800295c:	f8c6 3090 	str.w	r3, [r6, #144]	; 0x90
 8002960:	f8d6 3090 	ldr.w	r3, [r6, #144]	; 0x90
 8002964:	f422 7140 	bic.w	r1, r2, #768	; 0x300
 8002968:	f423 3380 	bic.w	r3, r3, #65536	; 0x10000
 800296c:	07d2      	lsls	r2, r2, #31
 800296e:	f8c6 3090 	str.w	r3, [r6, #144]	; 0x90
 8002972:	f8c6 1090 	str.w	r1, [r6, #144]	; 0x90
 8002976:	f57f aee1 	bpl.w	800273c <HAL_RCCEx_PeriphCLKConfig+0x70>
 800297a:	f7fe f8cd 	bl	8000b18 <HAL_GetTick>
 800297e:	f241 3988 	movw	r9, #5000	; 0x1388
 8002982:	4680      	mov	r8, r0
 8002984:	f8d6 3090 	ldr.w	r3, [r6, #144]	; 0x90
 8002988:	079b      	lsls	r3, r3, #30
 800298a:	f53f aed7 	bmi.w	800273c <HAL_RCCEx_PeriphCLKConfig+0x70>
 800298e:	f7fe f8c3 	bl	8000b18 <HAL_GetTick>
 8002992:	eba0 0008 	sub.w	r0, r0, r8
 8002996:	4548      	cmp	r0, r9
 8002998:	d9f4      	bls.n	8002984 <HAL_RCCEx_PeriphCLKConfig+0x2b8>
 800299a:	e6f7      	b.n	800278c <HAL_RCCEx_PeriphCLKConfig+0xc0>
 800299c:	f1b1 6f80 	cmp.w	r1, #67108864	; 0x4000000
 80029a0:	d186      	bne.n	80028b0 <HAL_RCCEx_PeriphCLKConfig+0x1e4>
 80029a2:	2101      	movs	r1, #1
 80029a4:	1d20      	adds	r0, r4, #4
 80029a6:	f7ff fe07 	bl	80025b8 <RCCEx_PLLSAI1_Config>
 80029aa:	2800      	cmp	r0, #0
 80029ac:	bf18      	it	ne
 80029ae:	4605      	movne	r5, r0
 80029b0:	e77e      	b.n	80028b0 <HAL_RCCEx_PeriphCLKConfig+0x1e4>
 80029b2:	bf00      	nop
 80029b4:	40021000 	.word	0x40021000
 80029b8:	40007000 	.word	0x40007000
 80029bc:	f1b1 6f80 	cmp.w	r1, #67108864	; 0x4000000
 80029c0:	d189      	bne.n	80028d6 <HAL_RCCEx_PeriphCLKConfig+0x20a>
 80029c2:	2101      	movs	r1, #1
 80029c4:	1d20      	adds	r0, r4, #4
 80029c6:	f7ff fdf7 	bl	80025b8 <RCCEx_PLLSAI1_Config>
 80029ca:	2800      	cmp	r0, #0
 80029cc:	bf18      	it	ne
 80029ce:	4605      	movne	r5, r0
 80029d0:	e781      	b.n	80028d6 <HAL_RCCEx_PeriphCLKConfig+0x20a>
 80029d2:	f1b1 6f80 	cmp.w	r1, #67108864	; 0x4000000
 80029d6:	d191      	bne.n	80028fc <HAL_RCCEx_PeriphCLKConfig+0x230>
 80029d8:	2101      	movs	r1, #1
 80029da:	1d20      	adds	r0, r4, #4
 80029dc:	f7ff fdec 	bl	80025b8 <RCCEx_PLLSAI1_Config>
 80029e0:	2800      	cmp	r0, #0
 80029e2:	bf18      	it	ne
 80029e4:	4605      	movne	r5, r0
 80029e6:	e789      	b.n	80028fc <HAL_RCCEx_PeriphCLKConfig+0x230>

080029e8 <HAL_SPI_Init>:
 80029e8:	b570      	push	{r4, r5, r6, lr}
 80029ea:	4604      	mov	r4, r0
 80029ec:	2800      	cmp	r0, #0
 80029ee:	d05f      	beq.n	8002ab0 <HAL_SPI_Init+0xc8>
 80029f0:	6a43      	ldr	r3, [r0, #36]	; 0x24
 80029f2:	2b00      	cmp	r3, #0
 80029f4:	d158      	bne.n	8002aa8 <HAL_SPI_Init+0xc0>
 80029f6:	6842      	ldr	r2, [r0, #4]
 80029f8:	f5b2 7f82 	cmp.w	r2, #260	; 0x104
 80029fc:	d000      	beq.n	8002a00 <HAL_SPI_Init+0x18>
 80029fe:	61c3      	str	r3, [r0, #28]
 8002a00:	2300      	movs	r3, #0
 8002a02:	62a3      	str	r3, [r4, #40]	; 0x28
 8002a04:	f894 305d 	ldrb.w	r3, [r4, #93]	; 0x5d
 8002a08:	f003 02ff 	and.w	r2, r3, #255	; 0xff
 8002a0c:	b923      	cbnz	r3, 8002a18 <HAL_SPI_Init+0x30>
 8002a0e:	f884 205c 	strb.w	r2, [r4, #92]	; 0x5c
 8002a12:	4620      	mov	r0, r4
 8002a14:	f7fd ffae 	bl	8000974 <HAL_SPI_MspInit>
 8002a18:	6825      	ldr	r5, [r4, #0]
 8002a1a:	68e1      	ldr	r1, [r4, #12]
 8002a1c:	2302      	movs	r3, #2
 8002a1e:	f884 305d 	strb.w	r3, [r4, #93]	; 0x5d
 8002a22:	682b      	ldr	r3, [r5, #0]
 8002a24:	f5b1 6fe0 	cmp.w	r1, #1792	; 0x700
 8002a28:	f023 0340 	bic.w	r3, r3, #64	; 0x40
 8002a2c:	602b      	str	r3, [r5, #0]
 8002a2e:	f04f 0300 	mov.w	r3, #0
 8002a32:	d83f      	bhi.n	8002ab4 <HAL_SPI_Init+0xcc>
 8002a34:	f44f 5080 	mov.w	r0, #4096	; 0x1000
 8002a38:	d000      	beq.n	8002a3c <HAL_SPI_Init+0x54>
 8002a3a:	62a3      	str	r3, [r4, #40]	; 0x28
 8002a3c:	6863      	ldr	r3, [r4, #4]
 8002a3e:	68a6      	ldr	r6, [r4, #8]
 8002a40:	69a2      	ldr	r2, [r4, #24]
 8002a42:	f406 4604 	and.w	r6, r6, #33792	; 0x8400
 8002a46:	f403 7382 	and.w	r3, r3, #260	; 0x104
 8002a4a:	4333      	orrs	r3, r6
 8002a4c:	6926      	ldr	r6, [r4, #16]
 8002a4e:	f006 0602 	and.w	r6, r6, #2
 8002a52:	4333      	orrs	r3, r6
 8002a54:	6966      	ldr	r6, [r4, #20]
 8002a56:	f006 0601 	and.w	r6, r6, #1
 8002a5a:	4333      	orrs	r3, r6
 8002a5c:	f402 7600 	and.w	r6, r2, #512	; 0x200
 8002a60:	4333      	orrs	r3, r6
 8002a62:	69e6      	ldr	r6, [r4, #28]
 8002a64:	f006 0638 	and.w	r6, r6, #56	; 0x38
 8002a68:	4333      	orrs	r3, r6
 8002a6a:	6a26      	ldr	r6, [r4, #32]
 8002a6c:	f006 0680 	and.w	r6, r6, #128	; 0x80
 8002a70:	4333      	orrs	r3, r6
 8002a72:	6aa6      	ldr	r6, [r4, #40]	; 0x28
 8002a74:	f406 5600 	and.w	r6, r6, #8192	; 0x2000
 8002a78:	4333      	orrs	r3, r6
 8002a7a:	602b      	str	r3, [r5, #0]
 8002a7c:	6b66      	ldr	r6, [r4, #52]	; 0x34
 8002a7e:	6a63      	ldr	r3, [r4, #36]	; 0x24
 8002a80:	f006 0608 	and.w	r6, r6, #8
 8002a84:	f003 0310 	and.w	r3, r3, #16
 8002a88:	4333      	orrs	r3, r6
 8002a8a:	f401 6170 	and.w	r1, r1, #3840	; 0xf00
 8002a8e:	0c12      	lsrs	r2, r2, #16
 8002a90:	4319      	orrs	r1, r3
 8002a92:	f002 0204 	and.w	r2, r2, #4
 8002a96:	430a      	orrs	r2, r1
 8002a98:	4310      	orrs	r0, r2
 8002a9a:	6068      	str	r0, [r5, #4]
 8002a9c:	2301      	movs	r3, #1
 8002a9e:	2000      	movs	r0, #0
 8002aa0:	6620      	str	r0, [r4, #96]	; 0x60
 8002aa2:	f884 305d 	strb.w	r3, [r4, #93]	; 0x5d
 8002aa6:	bd70      	pop	{r4, r5, r6, pc}
 8002aa8:	2300      	movs	r3, #0
 8002aaa:	e9c0 3304 	strd	r3, r3, [r0, #16]
 8002aae:	e7a7      	b.n	8002a00 <HAL_SPI_Init+0x18>
 8002ab0:	2001      	movs	r0, #1
 8002ab2:	e7f8      	b.n	8002aa6 <HAL_SPI_Init+0xbe>
 8002ab4:	4618      	mov	r0, r3
 8002ab6:	f5b1 6f70 	cmp.w	r1, #3840	; 0xf00
 8002aba:	e7bd      	b.n	8002a38 <HAL_SPI_Init+0x50>

08002abc <MAX7300_Init>:
 8002abc:	e92d 41f3 	stmdb	sp!, {r0, r1, r4, r5, r6, r7, r8, lr}
 8002ac0:	4a23      	ldr	r2, [pc, #140]	; (8002b50 <MAX7300_Init+0x94>)
 8002ac2:	232c      	movs	r3, #44	; 0x2c
 8002ac4:	f802 3b01 	strb.w	r3, [r2], #1
 8002ac8:	3301      	adds	r3, #1
 8002aca:	2b40      	cmp	r3, #64	; 0x40
 8002acc:	d1fa      	bne.n	8002ac4 <MAX7300_Init+0x8>
 8002ace:	4c21      	ldr	r4, [pc, #132]	; (8002b54 <MAX7300_Init+0x98>)
 8002ad0:	4821      	ldr	r0, [pc, #132]	; (8002b58 <MAX7300_Init+0x9c>)
 8002ad2:	4e22      	ldr	r6, [pc, #136]	; (8002b5c <MAX7300_Init+0xa0>)
 8002ad4:	250a      	movs	r5, #10
 8002ad6:	2304      	movs	r3, #4
 8002ad8:	2701      	movs	r7, #1
 8002ada:	7023      	strb	r3, [r4, #0]
 8002adc:	9500      	str	r5, [sp, #0]
 8002ade:	2302      	movs	r3, #2
 8002ae0:	4622      	mov	r2, r4
 8002ae2:	2180      	movs	r1, #128	; 0x80
 8002ae4:	7067      	strb	r7, [r4, #1]
 8002ae6:	f7ff f869 	bl	8001bbc <HAL_I2C_Master_Transmit>
 8002aea:	4620      	mov	r0, r4
 8002aec:	7b33      	ldrb	r3, [r6, #12]
 8002aee:	f800 3b0c 	strb.w	r3, [r0], #12
 8002af2:	4639      	mov	r1, r7
 8002af4:	2214      	movs	r2, #20
 8002af6:	f000 f857 	bl	8002ba8 <memset>
 8002afa:	9500      	str	r5, [sp, #0]
 8002afc:	2315      	movs	r3, #21
 8002afe:	4622      	mov	r2, r4
 8002b00:	2180      	movs	r1, #128	; 0x80
 8002b02:	4815      	ldr	r0, [pc, #84]	; (8002b58 <MAX7300_Init+0x9c>)
 8002b04:	4f14      	ldr	r7, [pc, #80]	; (8002b58 <MAX7300_Init+0x9c>)
 8002b06:	f7ff f859 	bl	8001bbc <HAL_I2C_Master_Transmit>
 8002b0a:	230b      	movs	r3, #11
 8002b0c:	7023      	strb	r3, [r4, #0]
 8002b0e:	2355      	movs	r3, #85	; 0x55
 8002b10:	7063      	strb	r3, [r4, #1]
 8002b12:	70a3      	strb	r3, [r4, #2]
 8002b14:	70e3      	strb	r3, [r4, #3]
 8002b16:	7123      	strb	r3, [r4, #4]
 8002b18:	9500      	str	r5, [sp, #0]
 8002b1a:	480f      	ldr	r0, [pc, #60]	; (8002b58 <MAX7300_Init+0x9c>)
 8002b1c:	2305      	movs	r3, #5
 8002b1e:	4622      	mov	r2, r4
 8002b20:	2180      	movs	r1, #128	; 0x80
 8002b22:	f7ff f84b 	bl	8001bbc <HAL_I2C_Master_Transmit>
 8002b26:	250c      	movs	r5, #12
 8002b28:	f04f 0800 	mov.w	r8, #0
 8002b2c:	5d73      	ldrb	r3, [r6, r5]
 8002b2e:	7023      	strb	r3, [r4, #0]
 8002b30:	230a      	movs	r3, #10
 8002b32:	9300      	str	r3, [sp, #0]
 8002b34:	4622      	mov	r2, r4
 8002b36:	2302      	movs	r3, #2
 8002b38:	2180      	movs	r1, #128	; 0x80
 8002b3a:	4638      	mov	r0, r7
 8002b3c:	3501      	adds	r5, #1
 8002b3e:	f884 8001 	strb.w	r8, [r4, #1]
 8002b42:	f7ff f83b 	bl	8001bbc <HAL_I2C_Master_Transmit>
 8002b46:	2d20      	cmp	r5, #32
 8002b48:	d1f0      	bne.n	8002b2c <MAX7300_Init+0x70>
 8002b4a:	b002      	add	sp, #8
 8002b4c:	e8bd 81f0 	ldmia.w	sp!, {r4, r5, r6, r7, r8, pc}
 8002b50:	200005d4 	.word	0x200005d4
 8002b54:	200005e8 	.word	0x200005e8
 8002b58:	200000b8 	.word	0x200000b8
 8002b5c:	200005c8 	.word	0x200005c8

08002b60 <__libc_init_array>:
 8002b60:	b570      	push	{r4, r5, r6, lr}
 8002b62:	4d0d      	ldr	r5, [pc, #52]	; (8002b98 <__libc_init_array+0x38>)
 8002b64:	4c0d      	ldr	r4, [pc, #52]	; (8002b9c <__libc_init_array+0x3c>)
 8002b66:	1b64      	subs	r4, r4, r5
 8002b68:	10a4      	asrs	r4, r4, #2
 8002b6a:	2600      	movs	r6, #0
 8002b6c:	42a6      	cmp	r6, r4
 8002b6e:	d109      	bne.n	8002b84 <__libc_init_array+0x24>
 8002b70:	4d0b      	ldr	r5, [pc, #44]	; (8002ba0 <__libc_init_array+0x40>)
 8002b72:	4c0c      	ldr	r4, [pc, #48]	; (8002ba4 <__libc_init_array+0x44>)
 8002b74:	f000 f820 	bl	8002bb8 <_init>
 8002b78:	1b64      	subs	r4, r4, r5
 8002b7a:	10a4      	asrs	r4, r4, #2
 8002b7c:	2600      	movs	r6, #0
 8002b7e:	42a6      	cmp	r6, r4
 8002b80:	d105      	bne.n	8002b8e <__libc_init_array+0x2e>
 8002b82:	bd70      	pop	{r4, r5, r6, pc}
 8002b84:	f855 3b04 	ldr.w	r3, [r5], #4
 8002b88:	4798      	blx	r3
 8002b8a:	3601      	adds	r6, #1
 8002b8c:	e7ee      	b.n	8002b6c <__libc_init_array+0xc>
 8002b8e:	f855 3b04 	ldr.w	r3, [r5], #4
 8002b92:	4798      	blx	r3
 8002b94:	3601      	adds	r6, #1
 8002b96:	e7f2      	b.n	8002b7e <__libc_init_array+0x1e>
 8002b98:	08002c10 	.word	0x08002c10
 8002b9c:	08002c10 	.word	0x08002c10
 8002ba0:	08002c10 	.word	0x08002c10
 8002ba4:	08002c14 	.word	0x08002c14

08002ba8 <memset>:
 8002ba8:	4402      	add	r2, r0
 8002baa:	4603      	mov	r3, r0
 8002bac:	4293      	cmp	r3, r2
 8002bae:	d100      	bne.n	8002bb2 <memset+0xa>
 8002bb0:	4770      	bx	lr
 8002bb2:	f803 1b01 	strb.w	r1, [r3], #1
 8002bb6:	e7f9      	b.n	8002bac <memset+0x4>

08002bb8 <_init>:
 8002bb8:	b5f8      	push	{r3, r4, r5, r6, r7, lr}
 8002bba:	bf00      	nop
 8002bbc:	bcf8      	pop	{r3, r4, r5, r6, r7}
 8002bbe:	bc08      	pop	{r3}
 8002bc0:	469e      	mov	lr, r3
 8002bc2:	4770      	bx	lr

08002bc4 <_fini>:
 8002bc4:	b5f8      	push	{r3, r4, r5, r6, r7, lr}
 8002bc6:	bf00      	nop
 8002bc8:	bcf8      	pop	{r3, r4, r5, r6, r7}
 8002bca:	bc08      	pop	{r3}
 8002bcc:	469e      	mov	lr, r3
 8002bce:	4770      	bx	lr
