
Payload PCB.elf:     file format elf32-littlearm

Sections:
Idx Name          Size      VMA       LMA       File off  Algn
  0 .isr_vector   00000194  08000000  08000000  00010000  2**0
                  CONTENTS, ALLOC, LOAD, READONLY, DATA
  1 .text         000034e8  08000194  08000194  00010194  2**2
                  CONTENTS, ALLOC, LOAD, READONLY, CODE
  2 .rodata       0000009c  0800367c  0800367c  0001367c  2**2
                  CONTENTS, ALLOC, LOAD, READONLY, DATA
  3 .ARM.extab    00000000  08003718  08003718  0002000c  2**0
                  CONTENTS
  4 .ARM          00000000  08003718  08003718  0002000c  2**0
                  CONTENTS
  5 .preinit_array 00000000  08003718  08003718  0002000c  2**0
                  CONTENTS, ALLOC, LOAD, DATA
  6 .init_array   00000004  08003718  08003718  00013718  2**2
                  CONTENTS, ALLOC, LOAD, DATA
  7 .fini_array   00000004  0800371c  0800371c  0001371c  2**2
                  CONTENTS, ALLOC, LOAD, DATA
  8 .data         0000000c  20000000  08003720  00020000  2**2
                  CONTENTS, ALLOC, LOAD, DATA
  9 .bss          000006ac  2000000c  0800372c  0002000c  2**2
                  ALLOC
 10 ._user_heap_stack 00000600  200006b8  0800372c  000206b8  2**0
                  ALLOC
 11 .ARM.attributes 00000030  00000000  00000000  0002000c  2**0
                  CONTENTS, READONLY
 12 .comment      00000050  00000000  00000000  0002003c  2**0
                  CONTENTS, READONLY
 13 .debug_frame  0000004c  00000000  00000000  0002008c  2**2
                  CONTENTS, READONLY, DEBUGGING, OCTETS

Disassembly of section .text:

08000194 <__do_global_dtors_aux>:
 8000194:	b510      	push	{r4, lr}
 8000196:	4c05      	ldr	r4, [pc, #20]	; (80001ac <__do_global_dtors_aux+0x18>)
 8000198:	7823      	ldrb	r3, [r4, #0]
 800019a:	b933      	cbnz	r3, 80001aa <__do_global_dtors_aux+0x16>
 800019c:	4b04      	ldr	r3, [pc, #16]	; (80001b0 <__do_global_dtors_aux+0x1c>)
 800019e:	b113      	cbz	r3, 80001a6 <__do_global_dtors_aux+0x12>
 80001a0:	4804      	ldr	r0, [pc, #16]	; (80001b4 <__do_global_dtors_aux+0x20>)
 80001a2:	f3af 8000 	nop.w
 80001a6:	2301      	movs	r3, #1
 80001a8:	7023      	strb	r3, [r4, #0]
 80001aa:	bd10      	pop	{r4, pc}
 80001ac:	2000000c 	.word	0x2000000c
 80001b0:	00000000 	.word	0x00000000
 80001b4:	08003664 	.word	0x08003664

080001b8 <frame_dummy>:
 80001b8:	b508      	push	{r3, lr}
 80001ba:	4b03      	ldr	r3, [pc, #12]	; (80001c8 <frame_dummy+0x10>)
 80001bc:	b11b      	cbz	r3, 80001c6 <frame_dummy+0xe>
 80001be:	4903      	ldr	r1, [pc, #12]	; (80001cc <frame_dummy+0x14>)
 80001c0:	4803      	ldr	r0, [pc, #12]	; (80001d0 <frame_dummy+0x18>)
 80001c2:	f3af 8000 	nop.w
 80001c6:	bd08      	pop	{r3, pc}
 80001c8:	00000000 	.word	0x00000000
 80001cc:	20000010 	.word	0x20000010
 80001d0:	08003664 	.word	0x08003664

080001d4 <MX_ADC1_Init>:
 80001d4:	b57f      	push	{r0, r1, r2, r3, r4, r5, r6, lr}
 80001d6:	2218      	movs	r2, #24
 80001d8:	2100      	movs	r1, #0
 80001da:	4668      	mov	r0, sp
 80001dc:	f003 fa3a 	bl	8003654 <memset>
 80001e0:	4817      	ldr	r0, [pc, #92]	; (8000240 <MX_ADC1_Init+0x6c>)
 80001e2:	4918      	ldr	r1, [pc, #96]	; (8000244 <MX_ADC1_Init+0x70>)
 80001e4:	2300      	movs	r3, #0
 80001e6:	2204      	movs	r2, #4
 80001e8:	6142      	str	r2, [r0, #20]
 80001ea:	8303      	strh	r3, [r0, #24]
 80001ec:	2201      	movs	r2, #1
 80001ee:	e9c0 1300 	strd	r1, r3, [r0]
 80001f2:	e9c0 3302 	strd	r3, r3, [r0, #8]
 80001f6:	e9c0 330a 	strd	r3, r3, [r0, #40]	; 0x28
 80001fa:	6103      	str	r3, [r0, #16]
 80001fc:	61c2      	str	r2, [r0, #28]
 80001fe:	f880 3020 	strb.w	r3, [r0, #32]
 8000202:	f880 3030 	strb.w	r3, [r0, #48]	; 0x30
 8000206:	6343      	str	r3, [r0, #52]	; 0x34
 8000208:	f880 3038 	strb.w	r3, [r0, #56]	; 0x38
 800020c:	f000 fd62 	bl	8000cd4 <HAL_ADC_Init>
 8000210:	b108      	cbz	r0, 8000216 <MX_ADC1_Init+0x42>
 8000212:	f000 fbed 	bl	80009f0 <Error_Handler>
 8000216:	4a0c      	ldr	r2, [pc, #48]	; (8000248 <MX_ADC1_Init+0x74>)
 8000218:	4809      	ldr	r0, [pc, #36]	; (8000240 <MX_ADC1_Init+0x6c>)
 800021a:	2306      	movs	r3, #6
 800021c:	e9cd 2300 	strd	r2, r3, [sp]
 8000220:	2300      	movs	r3, #0
 8000222:	227f      	movs	r2, #127	; 0x7f
 8000224:	e9cd 3202 	strd	r3, r2, [sp, #8]
 8000228:	4669      	mov	r1, sp
 800022a:	2204      	movs	r2, #4
 800022c:	e9cd 2304 	strd	r2, r3, [sp, #16]
 8000230:	f000 fe78 	bl	8000f24 <HAL_ADC_ConfigChannel>
 8000234:	b108      	cbz	r0, 800023a <MX_ADC1_Init+0x66>
 8000236:	f000 fbdb 	bl	80009f0 <Error_Handler>
 800023a:	b007      	add	sp, #28
 800023c:	f85d fb04 	ldr.w	pc, [sp], #4
 8000240:	20000028 	.word	0x20000028
 8000244:	50040000 	.word	0x50040000
 8000248:	04300002 	.word	0x04300002

0800024c <HAL_ADC_MspInit>:
 800024c:	b530      	push	{r4, r5, lr}
 800024e:	b0a3      	sub	sp, #140	; 0x8c
 8000250:	4604      	mov	r4, r0
 8000252:	2214      	movs	r2, #20
 8000254:	2100      	movs	r1, #0
 8000256:	a803      	add	r0, sp, #12
 8000258:	f003 f9fc 	bl	8003654 <memset>
 800025c:	2268      	movs	r2, #104	; 0x68
 800025e:	2100      	movs	r1, #0
 8000260:	a808      	add	r0, sp, #32
 8000262:	f003 f9f7 	bl	8003654 <memset>
 8000266:	6822      	ldr	r2, [r4, #0]
 8000268:	4b26      	ldr	r3, [pc, #152]	; (8000304 <HAL_ADC_MspInit+0xb8>)
 800026a:	429a      	cmp	r2, r3
 800026c:	d147      	bne.n	80002fe <HAL_ADC_MspInit+0xb2>
 800026e:	f44f 4380 	mov.w	r3, #16384	; 0x4000
 8000272:	9308      	str	r3, [sp, #32]
 8000274:	f04f 5380 	mov.w	r3, #268435456	; 0x10000000
 8000278:	931f      	str	r3, [sp, #124]	; 0x7c
 800027a:	2301      	movs	r3, #1
 800027c:	2010      	movs	r0, #16
 800027e:	e9cd 3309 	strd	r3, r3, [sp, #36]	; 0x24
 8000282:	2307      	movs	r3, #7
 8000284:	e9cd 030b 	strd	r0, r3, [sp, #44]	; 0x2c
 8000288:	2302      	movs	r3, #2
 800028a:	e9cd 330d 	strd	r3, r3, [sp, #52]	; 0x34
 800028e:	a808      	add	r0, sp, #32
 8000290:	f04f 7380 	mov.w	r3, #16777216	; 0x1000000
 8000294:	930f      	str	r3, [sp, #60]	; 0x3c
 8000296:	f002 fcd5 	bl	8002c44 <HAL_RCCEx_PeriphCLKConfig>
 800029a:	b108      	cbz	r0, 80002a0 <HAL_ADC_MspInit+0x54>
 800029c:	f000 fba8 	bl	80009f0 <Error_Handler>
 80002a0:	4b19      	ldr	r3, [pc, #100]	; (8000308 <HAL_ADC_MspInit+0xbc>)
 80002a2:	481a      	ldr	r0, [pc, #104]	; (800030c <HAL_ADC_MspInit+0xc0>)
 80002a4:	6cda      	ldr	r2, [r3, #76]	; 0x4c
 80002a6:	f442 5200 	orr.w	r2, r2, #8192	; 0x2000
 80002aa:	64da      	str	r2, [r3, #76]	; 0x4c
 80002ac:	6cda      	ldr	r2, [r3, #76]	; 0x4c
 80002ae:	f402 5200 	and.w	r2, r2, #8192	; 0x2000
 80002b2:	9200      	str	r2, [sp, #0]
 80002b4:	9a00      	ldr	r2, [sp, #0]
 80002b6:	6cda      	ldr	r2, [r3, #76]	; 0x4c
 80002b8:	f042 0204 	orr.w	r2, r2, #4
 80002bc:	64da      	str	r2, [r3, #76]	; 0x4c
 80002be:	6cda      	ldr	r2, [r3, #76]	; 0x4c
 80002c0:	f002 0204 	and.w	r2, r2, #4
 80002c4:	9201      	str	r2, [sp, #4]
 80002c6:	9a01      	ldr	r2, [sp, #4]
 80002c8:	6cda      	ldr	r2, [r3, #76]	; 0x4c
 80002ca:	f042 0201 	orr.w	r2, r2, #1
 80002ce:	64da      	str	r2, [r3, #76]	; 0x4c
 80002d0:	6cdb      	ldr	r3, [r3, #76]	; 0x4c
 80002d2:	f003 0301 	and.w	r3, r3, #1
 80002d6:	9302      	str	r3, [sp, #8]
 80002d8:	9b02      	ldr	r3, [sp, #8]
 80002da:	250b      	movs	r5, #11
 80002dc:	230f      	movs	r3, #15
 80002de:	2400      	movs	r4, #0
 80002e0:	a903      	add	r1, sp, #12
 80002e2:	e9cd 3503 	strd	r3, r5, [sp, #12]
 80002e6:	9405      	str	r4, [sp, #20]
 80002e8:	f001 fcdc 	bl	8001ca4 <HAL_GPIO_Init>
 80002ec:	233f      	movs	r3, #63	; 0x3f
 80002ee:	a903      	add	r1, sp, #12
 80002f0:	f04f 4090 	mov.w	r0, #1207959552	; 0x48000000
 80002f4:	e9cd 3503 	strd	r3, r5, [sp, #12]
 80002f8:	9405      	str	r4, [sp, #20]
 80002fa:	f001 fcd3 	bl	8001ca4 <HAL_GPIO_Init>
 80002fe:	b023      	add	sp, #140	; 0x8c
 8000300:	bd30      	pop	{r4, r5, pc}
 8000302:	bf00      	nop
 8000304:	50040000 	.word	0x50040000
 8000308:	40021000 	.word	0x40021000
 800030c:	48000800 	.word	0x48000800

08000310 <MX_CAN1_Init>:
 8000310:	480c      	ldr	r0, [pc, #48]	; (8000344 <MX_CAN1_Init+0x34>)
 8000312:	4a0d      	ldr	r2, [pc, #52]	; (8000348 <MX_CAN1_Init+0x38>)
 8000314:	b508      	push	{r3, lr}
 8000316:	2310      	movs	r3, #16
 8000318:	e9c0 2300 	strd	r2, r3, [r0]
 800031c:	2300      	movs	r3, #0
 800031e:	f44f 2180 	mov.w	r1, #262144	; 0x40000
 8000322:	f44f 1240 	mov.w	r2, #3145728	; 0x300000
 8000326:	6183      	str	r3, [r0, #24]
 8000328:	8383      	strh	r3, [r0, #28]
 800032a:	e9c0 3302 	strd	r3, r3, [r0, #8]
 800032e:	e9c0 1204 	strd	r1, r2, [r0, #16]
 8000332:	f001 f95d 	bl	80015f0 <HAL_CAN_Init>
 8000336:	b118      	cbz	r0, 8000340 <MX_CAN1_Init+0x30>
 8000338:	e8bd 4008 	ldmia.w	sp!, {r3, lr}
 800033c:	f000 bb58 	b.w	80009f0 <Error_Handler>
 8000340:	bd08      	pop	{r3, pc}
 8000342:	bf00      	nop
 8000344:	20000090 	.word	0x20000090
 8000348:	40006400 	.word	0x40006400

0800034c <HAL_CAN_MspInit>:
 800034c:	b510      	push	{r4, lr}
 800034e:	4604      	mov	r4, r0
 8000350:	b088      	sub	sp, #32
 8000352:	2214      	movs	r2, #20
 8000354:	2100      	movs	r1, #0
 8000356:	a803      	add	r0, sp, #12
 8000358:	f003 f97c 	bl	8003654 <memset>
 800035c:	6822      	ldr	r2, [r4, #0]
 800035e:	4b17      	ldr	r3, [pc, #92]	; (80003bc <HAL_CAN_MspInit+0x70>)
 8000360:	429a      	cmp	r2, r3
 8000362:	d128      	bne.n	80003b6 <HAL_CAN_MspInit+0x6a>
 8000364:	f503 33d6 	add.w	r3, r3, #109568	; 0x1ac00
 8000368:	2103      	movs	r1, #3
 800036a:	6d9a      	ldr	r2, [r3, #88]	; 0x58
 800036c:	4814      	ldr	r0, [pc, #80]	; (80003c0 <HAL_CAN_MspInit+0x74>)
 800036e:	f042 7200 	orr.w	r2, r2, #33554432	; 0x2000000
 8000372:	659a      	str	r2, [r3, #88]	; 0x58
 8000374:	6d9a      	ldr	r2, [r3, #88]	; 0x58
 8000376:	f002 7200 	and.w	r2, r2, #33554432	; 0x2000000
 800037a:	9201      	str	r2, [sp, #4]
 800037c:	9a01      	ldr	r2, [sp, #4]
 800037e:	6cda      	ldr	r2, [r3, #76]	; 0x4c
 8000380:	f042 0202 	orr.w	r2, r2, #2
 8000384:	64da      	str	r2, [r3, #76]	; 0x4c
 8000386:	6cdb      	ldr	r3, [r3, #76]	; 0x4c
 8000388:	f003 0302 	and.w	r3, r3, #2
 800038c:	9302      	str	r3, [sp, #8]
 800038e:	f44f 5240 	mov.w	r2, #12288	; 0x3000
 8000392:	9b02      	ldr	r3, [sp, #8]
 8000394:	2302      	movs	r3, #2
 8000396:	e9cd 2303 	strd	r2, r3, [sp, #12]
 800039a:	230a      	movs	r3, #10
 800039c:	e9cd 1306 	strd	r1, r3, [sp, #24]
 80003a0:	a903      	add	r1, sp, #12
 80003a2:	f001 fc7f 	bl	8001ca4 <HAL_GPIO_Init>
 80003a6:	2200      	movs	r2, #0
 80003a8:	2014      	movs	r0, #20
 80003aa:	4611      	mov	r1, r2
 80003ac:	f001 fc26 	bl	8001bfc <HAL_NVIC_SetPriority>
 80003b0:	2014      	movs	r0, #20
 80003b2:	f001 fc55 	bl	8001c60 <HAL_NVIC_EnableIRQ>
 80003b6:	b008      	add	sp, #32
 80003b8:	bd10      	pop	{r4, pc}
 80003ba:	bf00      	nop
 80003bc:	40006400 	.word	0x40006400
 80003c0:	48000400 	.word	0x48000400

080003c4 <CAN_Init>:
 80003c4:	b500      	push	{lr}
 80003c6:	b08b      	sub	sp, #44	; 0x2c
 80003c8:	2300      	movs	r3, #0
 80003ca:	e9cd 3300 	strd	r3, r3, [sp]
 80003ce:	e9cd 3302 	strd	r3, r3, [sp, #8]
 80003d2:	e9cd 3304 	strd	r3, r3, [sp, #16]
 80003d6:	9306      	str	r3, [sp, #24]
 80003d8:	2301      	movs	r3, #1
 80003da:	e9cd 3307 	strd	r3, r3, [sp, #28]
 80003de:	4809      	ldr	r0, [pc, #36]	; (8000404 <CAN_Init+0x40>)
 80003e0:	230e      	movs	r3, #14
 80003e2:	4669      	mov	r1, sp
 80003e4:	9309      	str	r3, [sp, #36]	; 0x24
 80003e6:	f001 f97e 	bl	80016e6 <HAL_CAN_ConfigFilter>
 80003ea:	b938      	cbnz	r0, 80003fc <CAN_Init+0x38>
 80003ec:	4805      	ldr	r0, [pc, #20]	; (8000404 <CAN_Init+0x40>)
 80003ee:	f001 f9e9 	bl	80017c4 <HAL_CAN_Start>
 80003f2:	b918      	cbnz	r0, 80003fc <CAN_Init+0x38>
 80003f4:	4803      	ldr	r0, [pc, #12]	; (8000404 <CAN_Init+0x40>)
 80003f6:	2102      	movs	r1, #2
 80003f8:	f001 fad3 	bl	80019a2 <HAL_CAN_ActivateNotification>
 80003fc:	b00b      	add	sp, #44	; 0x2c
 80003fe:	f85d fb04 	ldr.w	pc, [sp], #4
 8000402:	bf00      	nop
 8000404:	20000090 	.word	0x20000090

08000408 <CAN_Transmit_Message>:
 8000408:	b500      	push	{lr}
 800040a:	b08f      	sub	sp, #60	; 0x3c
 800040c:	ab01      	add	r3, sp, #4
 800040e:	e883 0007 	stmia.w	r3, {r0, r1, r2}
 8000412:	f89d 2004 	ldrb.w	r2, [sp, #4]
 8000416:	f89d 3006 	ldrb.w	r3, [sp, #6]
 800041a:	4819      	ldr	r0, [pc, #100]	; (8000480 <CAN_Transmit_Message+0x78>)
 800041c:	ea43 1302 	orr.w	r3, r3, r2, lsl #4
 8000420:	f89d 2007 	ldrb.w	r2, [sp, #7]
 8000424:	f88d 2018 	strb.w	r2, [sp, #24]
 8000428:	f89d 2008 	ldrb.w	r2, [sp, #8]
 800042c:	f88d 2019 	strb.w	r2, [sp, #25]
 8000430:	f89d 2009 	ldrb.w	r2, [sp, #9]
 8000434:	f88d 201a 	strb.w	r2, [sp, #26]
 8000438:	f89d 200a 	ldrb.w	r2, [sp, #10]
 800043c:	f88d 201b 	strb.w	r2, [sp, #27]
 8000440:	f89d 200b 	ldrb.w	r2, [sp, #11]
 8000444:	f88d 201c 	strb.w	r2, [sp, #28]
 8000448:	f043 0308 	orr.w	r3, r3, #8
 800044c:	f89d 200c 	ldrb.w	r2, [sp, #12]
 8000450:	f88d 201d 	strb.w	r2, [sp, #29]
 8000454:	9308      	str	r3, [sp, #32]
 8000456:	f89d 200d 	ldrb.w	r2, [sp, #13]
 800045a:	f88d 201e 	strb.w	r2, [sp, #30]
 800045e:	2300      	movs	r3, #0
 8000460:	f89d 200e 	ldrb.w	r2, [sp, #14]
 8000464:	f88d 201f 	strb.w	r2, [sp, #31]
 8000468:	e9cd 330a 	strd	r3, r3, [sp, #40]	; 0x28
 800046c:	2308      	movs	r3, #8
 800046e:	930c      	str	r3, [sp, #48]	; 0x30
 8000470:	aa06      	add	r2, sp, #24
 8000472:	ab05      	add	r3, sp, #20
 8000474:	a908      	add	r1, sp, #32
 8000476:	f001 f9d3 	bl	8001820 <HAL_CAN_AddTxMessage>
 800047a:	b00f      	add	sp, #60	; 0x3c
 800047c:	f85d fb04 	ldr.w	pc, [sp], #4
 8000480:	20000090 	.word	0x20000090

08000484 <CAN_Message_Received>:
 8000484:	b510      	push	{r4, lr}
 8000486:	b08c      	sub	sp, #48	; 0x30
 8000488:	4821      	ldr	r0, [pc, #132]	; (8000510 <CAN_Message_Received+0x8c>)
 800048a:	466b      	mov	r3, sp
 800048c:	aa05      	add	r2, sp, #20
 800048e:	2100      	movs	r1, #0
 8000490:	f001 fa10 	bl	80018b4 <HAL_CAN_GetRxMessage>
 8000494:	4604      	mov	r4, r0
 8000496:	bbc0      	cbnz	r0, 800050a <CAN_Message_Received+0x86>
 8000498:	9b05      	ldr	r3, [sp, #20]
 800049a:	f003 0203 	and.w	r2, r3, #3
 800049e:	2a02      	cmp	r2, #2
 80004a0:	d133      	bne.n	800050a <CAN_Message_Received+0x86>
 80004a2:	f3c3 0381 	ubfx	r3, r3, #2, #2
 80004a6:	f88d 3009 	strb.w	r3, [sp, #9]
 80004aa:	2302      	movs	r3, #2
 80004ac:	f88d 300a 	strb.w	r3, [sp, #10]
 80004b0:	f89d 3000 	ldrb.w	r3, [sp]
 80004b4:	f88d 300b 	strb.w	r3, [sp, #11]
 80004b8:	f89d 3001 	ldrb.w	r3, [sp, #1]
 80004bc:	f88d 300c 	strb.w	r3, [sp, #12]
 80004c0:	f89d 3002 	ldrb.w	r3, [sp, #2]
 80004c4:	f88d 300d 	strb.w	r3, [sp, #13]
 80004c8:	f89d 3003 	ldrb.w	r3, [sp, #3]
 80004cc:	9a08      	ldr	r2, [sp, #32]
 80004ce:	f88d 300e 	strb.w	r3, [sp, #14]
 80004d2:	f89d 3004 	ldrb.w	r3, [sp, #4]
 80004d6:	f88d 300f 	strb.w	r3, [sp, #15]
 80004da:	f89d 3005 	ldrb.w	r3, [sp, #5]
 80004de:	f88d 3010 	strb.w	r3, [sp, #16]
 80004e2:	2a02      	cmp	r2, #2
 80004e4:	f89d 3006 	ldrb.w	r3, [sp, #6]
 80004e8:	bf18      	it	ne
 80004ea:	f89d 201b 	ldrbne.w	r2, [sp, #27]
 80004ee:	f88d 3011 	strb.w	r3, [sp, #17]
 80004f2:	bf08      	it	eq
 80004f4:	227f      	moveq	r2, #127	; 0x7f
 80004f6:	f89d 3007 	ldrb.w	r3, [sp, #7]
 80004fa:	4806      	ldr	r0, [pc, #24]	; (8000514 <CAN_Message_Received+0x90>)
 80004fc:	f88d 2008 	strb.w	r2, [sp, #8]
 8000500:	a902      	add	r1, sp, #8
 8000502:	f88d 3012 	strb.w	r3, [sp, #18]
 8000506:	f000 f846 	bl	8000596 <CAN_Queue_Enqueue>
 800050a:	4620      	mov	r0, r4
 800050c:	b00c      	add	sp, #48	; 0x30
 800050e:	bd10      	pop	{r4, pc}
 8000510:	20000090 	.word	0x20000090
 8000514:	2000010c 	.word	0x2000010c

08000518 <CAN_Send_Default_ACK>:
 8000518:	b088      	sub	sp, #32
 800051a:	ab01      	add	r3, sp, #4
 800051c:	e883 0007 	stmia.w	r3, {r0, r1, r2}
 8000520:	f89d 3004 	ldrb.w	r3, [sp, #4]
 8000524:	f88d 3014 	strb.w	r3, [sp, #20]
 8000528:	2302      	movs	r3, #2
 800052a:	f88d 3015 	strb.w	r3, [sp, #21]
 800052e:	f89d 3005 	ldrb.w	r3, [sp, #5]
 8000532:	f88d 3016 	strb.w	r3, [sp, #22]
 8000536:	2301      	movs	r3, #1
 8000538:	f88d 3017 	strb.w	r3, [sp, #23]
 800053c:	f89d 3007 	ldrb.w	r3, [sp, #7]
 8000540:	f88d 3018 	strb.w	r3, [sp, #24]
 8000544:	2300      	movs	r3, #0
 8000546:	f88d 3019 	strb.w	r3, [sp, #25]
 800054a:	f88d 301a 	strb.w	r3, [sp, #26]
 800054e:	f88d 301b 	strb.w	r3, [sp, #27]
 8000552:	f88d 301c 	strb.w	r3, [sp, #28]
 8000556:	f88d 301d 	strb.w	r3, [sp, #29]
 800055a:	f88d 301e 	strb.w	r3, [sp, #30]
 800055e:	ab08      	add	r3, sp, #32
 8000560:	e913 0007 	ldmdb	r3, {r0, r1, r2}
 8000564:	b008      	add	sp, #32
 8000566:	f7ff bf4f 	b.w	8000408 <CAN_Transmit_Message>

0800056a <CAN_Queue_Init>:
 800056a:	2300      	movs	r3, #0
 800056c:	e9c0 3300 	strd	r3, r3, [r0]
 8000570:	4770      	bx	lr

08000572 <CAN_Queue_IsEmpty>:
 8000572:	e9d0 2000 	ldrd	r2, r0, [r0]
 8000576:	1a13      	subs	r3, r2, r0
 8000578:	4258      	negs	r0, r3
 800057a:	4158      	adcs	r0, r3
 800057c:	4770      	bx	lr

0800057e <CAN_Queue_IsFull>:
 800057e:	6843      	ldr	r3, [r0, #4]
 8000580:	6800      	ldr	r0, [r0, #0]
 8000582:	2264      	movs	r2, #100	; 0x64
 8000584:	3301      	adds	r3, #1
 8000586:	fbb3 f1f2 	udiv	r1, r3, r2
 800058a:	fb02 3311 	mls	r3, r2, r1, r3
 800058e:	1a1b      	subs	r3, r3, r0
 8000590:	4258      	negs	r0, r3
 8000592:	4158      	adcs	r0, r3
 8000594:	4770      	bx	lr

08000596 <CAN_Queue_Enqueue>:
 8000596:	b538      	push	{r3, r4, r5, lr}
 8000598:	4604      	mov	r4, r0
 800059a:	460d      	mov	r5, r1
 800059c:	f7ff ffef 	bl	800057e <CAN_Queue_IsFull>
 80005a0:	b9b0      	cbnz	r0, 80005d0 <CAN_Queue_Enqueue+0x3a>
 80005a2:	6863      	ldr	r3, [r4, #4]
 80005a4:	6829      	ldr	r1, [r5, #0]
 80005a6:	220b      	movs	r2, #11
 80005a8:	4353      	muls	r3, r2
 80005aa:	3308      	adds	r3, #8
 80005ac:	18e2      	adds	r2, r4, r3
 80005ae:	50e1      	str	r1, [r4, r3]
 80005b0:	6869      	ldr	r1, [r5, #4]
 80005b2:	6051      	str	r1, [r2, #4]
 80005b4:	892b      	ldrh	r3, [r5, #8]
 80005b6:	8113      	strh	r3, [r2, #8]
 80005b8:	7aab      	ldrb	r3, [r5, #10]
 80005ba:	7293      	strb	r3, [r2, #10]
 80005bc:	6863      	ldr	r3, [r4, #4]
 80005be:	2264      	movs	r2, #100	; 0x64
 80005c0:	3301      	adds	r3, #1
 80005c2:	fbb3 f1f2 	udiv	r1, r3, r2
 80005c6:	fb02 3311 	mls	r3, r2, r1, r3
 80005ca:	6063      	str	r3, [r4, #4]
 80005cc:	2001      	movs	r0, #1
 80005ce:	bd38      	pop	{r3, r4, r5, pc}
 80005d0:	2000      	movs	r0, #0
 80005d2:	e7fc      	b.n	80005ce <CAN_Queue_Enqueue+0x38>

080005d4 <CAN_Queue_Dequeue>:
 80005d4:	e9d0 3200 	ldrd	r3, r2, [r0]
 80005d8:	4293      	cmp	r3, r2
 80005da:	d015      	beq.n	8000608 <CAN_Queue_Dequeue+0x34>
 80005dc:	220b      	movs	r2, #11
 80005de:	4353      	muls	r3, r2
 80005e0:	3308      	adds	r3, #8
 80005e2:	18c2      	adds	r2, r0, r3
 80005e4:	58c3      	ldr	r3, [r0, r3]
 80005e6:	600b      	str	r3, [r1, #0]
 80005e8:	6853      	ldr	r3, [r2, #4]
 80005ea:	604b      	str	r3, [r1, #4]
 80005ec:	8913      	ldrh	r3, [r2, #8]
 80005ee:	810b      	strh	r3, [r1, #8]
 80005f0:	7a93      	ldrb	r3, [r2, #10]
 80005f2:	728b      	strb	r3, [r1, #10]
 80005f4:	6803      	ldr	r3, [r0, #0]
 80005f6:	2264      	movs	r2, #100	; 0x64
 80005f8:	3301      	adds	r3, #1
 80005fa:	fbb3 f1f2 	udiv	r1, r3, r2
 80005fe:	fb02 3311 	mls	r3, r2, r1, r3
 8000602:	6003      	str	r3, [r0, #0]
 8000604:	2001      	movs	r0, #1
 8000606:	4770      	bx	lr
 8000608:	2000      	movs	r0, #0
 800060a:	4770      	bx	lr

0800060c <MX_GPIO_Init>:
 800060c:	b5f0      	push	{r4, r5, r6, r7, lr}
 800060e:	b089      	sub	sp, #36	; 0x24
 8000610:	2214      	movs	r2, #20
 8000612:	2100      	movs	r1, #0
 8000614:	a803      	add	r0, sp, #12
 8000616:	f003 f81d 	bl	8003654 <memset>
 800061a:	4b2d      	ldr	r3, [pc, #180]	; (80006d0 <MX_GPIO_Init+0xc4>)
 800061c:	4f2d      	ldr	r7, [pc, #180]	; (80006d4 <MX_GPIO_Init+0xc8>)
 800061e:	6cda      	ldr	r2, [r3, #76]	; 0x4c
 8000620:	4e2d      	ldr	r6, [pc, #180]	; (80006d8 <MX_GPIO_Init+0xcc>)
 8000622:	f042 0204 	orr.w	r2, r2, #4
 8000626:	64da      	str	r2, [r3, #76]	; 0x4c
 8000628:	6cda      	ldr	r2, [r3, #76]	; 0x4c
 800062a:	f002 0204 	and.w	r2, r2, #4
 800062e:	9200      	str	r2, [sp, #0]
 8000630:	9a00      	ldr	r2, [sp, #0]
 8000632:	6cda      	ldr	r2, [r3, #76]	; 0x4c
 8000634:	f042 0201 	orr.w	r2, r2, #1
 8000638:	64da      	str	r2, [r3, #76]	; 0x4c
 800063a:	6cda      	ldr	r2, [r3, #76]	; 0x4c
 800063c:	f002 0201 	and.w	r2, r2, #1
 8000640:	9201      	str	r2, [sp, #4]
 8000642:	9a01      	ldr	r2, [sp, #4]
 8000644:	6cda      	ldr	r2, [r3, #76]	; 0x4c
 8000646:	f042 0202 	orr.w	r2, r2, #2
 800064a:	64da      	str	r2, [r3, #76]	; 0x4c
 800064c:	6cdb      	ldr	r3, [r3, #76]	; 0x4c
 800064e:	f003 0302 	and.w	r3, r3, #2
 8000652:	9302      	str	r3, [sp, #8]
 8000654:	4638      	mov	r0, r7
 8000656:	2200      	movs	r2, #0
 8000658:	f240 71f7 	movw	r1, #2039	; 0x7f7
 800065c:	9b02      	ldr	r3, [sp, #8]
 800065e:	f001 fbe5 	bl	8001e2c <HAL_GPIO_WritePin>
 8000662:	4630      	mov	r0, r6
 8000664:	2201      	movs	r2, #1
 8000666:	f44f 7180 	mov.w	r1, #256	; 0x100
 800066a:	f001 fbdf 	bl	8001e2c <HAL_GPIO_WritePin>
 800066e:	4630      	mov	r0, r6
 8000670:	2200      	movs	r2, #0
 8000672:	f44f 7100 	mov.w	r1, #512	; 0x200
 8000676:	f001 fbd9 	bl	8001e2c <HAL_GPIO_WritePin>
 800067a:	2201      	movs	r2, #1
 800067c:	f44f 7180 	mov.w	r1, #256	; 0x100
 8000680:	f04f 4090 	mov.w	r0, #1207959552	; 0x48000000
 8000684:	f001 fbd2 	bl	8001e2c <HAL_GPIO_WritePin>
 8000688:	2501      	movs	r5, #1
 800068a:	2400      	movs	r4, #0
 800068c:	f240 73f7 	movw	r3, #2039	; 0x7f7
 8000690:	a903      	add	r1, sp, #12
 8000692:	4638      	mov	r0, r7
 8000694:	e9cd 3503 	strd	r3, r5, [sp, #12]
 8000698:	e9cd 4405 	strd	r4, r4, [sp, #20]
 800069c:	f001 fb02 	bl	8001ca4 <HAL_GPIO_Init>
 80006a0:	f44f 7340 	mov.w	r3, #768	; 0x300
 80006a4:	a903      	add	r1, sp, #12
 80006a6:	4630      	mov	r0, r6
 80006a8:	e9cd 3503 	strd	r3, r5, [sp, #12]
 80006ac:	e9cd 4405 	strd	r4, r4, [sp, #20]
 80006b0:	f001 faf8 	bl	8001ca4 <HAL_GPIO_Init>
 80006b4:	f44f 7380 	mov.w	r3, #256	; 0x100
 80006b8:	a903      	add	r1, sp, #12
 80006ba:	f04f 4090 	mov.w	r0, #1207959552	; 0x48000000
 80006be:	e9cd 3503 	strd	r3, r5, [sp, #12]
 80006c2:	e9cd 4405 	strd	r4, r4, [sp, #20]
 80006c6:	f001 faed 	bl	8001ca4 <HAL_GPIO_Init>
 80006ca:	b009      	add	sp, #36	; 0x24
 80006cc:	bdf0      	pop	{r4, r5, r6, r7, pc}
 80006ce:	bf00      	nop
 80006d0:	40021000 	.word	0x40021000
 80006d4:	48000400 	.word	0x48000400
 80006d8:	48000800 	.word	0x48000800

080006dc <MX_I2C1_Init>:
 80006dc:	b508      	push	{r3, lr}
 80006de:	4812      	ldr	r0, [pc, #72]	; (8000728 <MX_I2C1_Init+0x4c>)
 80006e0:	4a12      	ldr	r2, [pc, #72]	; (800072c <MX_I2C1_Init+0x50>)
 80006e2:	4b13      	ldr	r3, [pc, #76]	; (8000730 <MX_I2C1_Init+0x54>)
 80006e4:	e9c0 2300 	strd	r2, r3, [r0]
 80006e8:	2300      	movs	r3, #0
 80006ea:	2201      	movs	r2, #1
 80006ec:	e9c0 3202 	strd	r3, r2, [r0, #8]
 80006f0:	e9c0 3304 	strd	r3, r3, [r0, #16]
 80006f4:	e9c0 3306 	strd	r3, r3, [r0, #24]
 80006f8:	6203      	str	r3, [r0, #32]
 80006fa:	f001 fcca 	bl	8002092 <HAL_I2C_Init>
 80006fe:	b108      	cbz	r0, 8000704 <MX_I2C1_Init+0x28>
 8000700:	f000 f976 	bl	80009f0 <Error_Handler>
 8000704:	4808      	ldr	r0, [pc, #32]	; (8000728 <MX_I2C1_Init+0x4c>)
 8000706:	2100      	movs	r1, #0
 8000708:	f001 fdaa 	bl	8002260 <HAL_I2CEx_ConfigAnalogFilter>
 800070c:	b108      	cbz	r0, 8000712 <MX_I2C1_Init+0x36>
 800070e:	f000 f96f 	bl	80009f0 <Error_Handler>
 8000712:	4805      	ldr	r0, [pc, #20]	; (8000728 <MX_I2C1_Init+0x4c>)
 8000714:	2100      	movs	r1, #0
 8000716:	f001 fdc9 	bl	80022ac <HAL_I2CEx_ConfigDigitalFilter>
 800071a:	b118      	cbz	r0, 8000724 <MX_I2C1_Init+0x48>
 800071c:	e8bd 4008 	ldmia.w	sp!, {r3, lr}
 8000720:	f000 b966 	b.w	80009f0 <Error_Handler>
 8000724:	bd08      	pop	{r3, pc}
 8000726:	bf00      	nop
 8000728:	200000b8 	.word	0x200000b8
 800072c:	40005400 	.word	0x40005400
 8000730:	10909cec 	.word	0x10909cec

08000734 <HAL_I2C_MspInit>:
 8000734:	b510      	push	{r4, lr}
 8000736:	b0a2      	sub	sp, #136	; 0x88
 8000738:	4604      	mov	r4, r0
 800073a:	2214      	movs	r2, #20
 800073c:	2100      	movs	r1, #0
 800073e:	a803      	add	r0, sp, #12
 8000740:	f002 ff88 	bl	8003654 <memset>
 8000744:	2268      	movs	r2, #104	; 0x68
 8000746:	2100      	movs	r1, #0
 8000748:	a808      	add	r0, sp, #32
 800074a:	f002 ff83 	bl	8003654 <memset>
 800074e:	6822      	ldr	r2, [r4, #0]
 8000750:	4b17      	ldr	r3, [pc, #92]	; (80007b0 <HAL_I2C_MspInit+0x7c>)
 8000752:	429a      	cmp	r2, r3
 8000754:	d12a      	bne.n	80007ac <HAL_I2C_MspInit+0x78>
 8000756:	2340      	movs	r3, #64	; 0x40
 8000758:	a808      	add	r0, sp, #32
 800075a:	9308      	str	r3, [sp, #32]
 800075c:	f002 fa72 	bl	8002c44 <HAL_RCCEx_PeriphCLKConfig>
 8000760:	b108      	cbz	r0, 8000766 <HAL_I2C_MspInit+0x32>
 8000762:	f000 f945 	bl	80009f0 <Error_Handler>
 8000766:	4c13      	ldr	r4, [pc, #76]	; (80007b4 <HAL_I2C_MspInit+0x80>)
 8000768:	6ce3      	ldr	r3, [r4, #76]	; 0x4c
 800076a:	f043 0301 	orr.w	r3, r3, #1
 800076e:	64e3      	str	r3, [r4, #76]	; 0x4c
 8000770:	6ce3      	ldr	r3, [r4, #76]	; 0x4c
 8000772:	f003 0301 	and.w	r3, r3, #1
 8000776:	9301      	str	r3, [sp, #4]
 8000778:	9b01      	ldr	r3, [sp, #4]
 800077a:	f44f 62c0 	mov.w	r2, #1536	; 0x600
 800077e:	2312      	movs	r3, #18
 8000780:	e9cd 2303 	strd	r2, r3, [sp, #12]
 8000784:	2100      	movs	r1, #0
 8000786:	2303      	movs	r3, #3
 8000788:	e9cd 1305 	strd	r1, r3, [sp, #20]
 800078c:	f04f 4090 	mov.w	r0, #1207959552	; 0x48000000
 8000790:	2304      	movs	r3, #4
 8000792:	a903      	add	r1, sp, #12
 8000794:	9307      	str	r3, [sp, #28]
 8000796:	f001 fa85 	bl	8001ca4 <HAL_GPIO_Init>
 800079a:	6da3      	ldr	r3, [r4, #88]	; 0x58
 800079c:	f443 1300 	orr.w	r3, r3, #2097152	; 0x200000
 80007a0:	65a3      	str	r3, [r4, #88]	; 0x58
 80007a2:	6da3      	ldr	r3, [r4, #88]	; 0x58
 80007a4:	f403 1300 	and.w	r3, r3, #2097152	; 0x200000
 80007a8:	9302      	str	r3, [sp, #8]
 80007aa:	9b02      	ldr	r3, [sp, #8]
 80007ac:	b022      	add	sp, #136	; 0x88
 80007ae:	bd10      	pop	{r4, pc}
 80007b0:	40005400 	.word	0x40005400
 80007b4:	40021000 	.word	0x40021000

080007b8 <TEMP_transmitTemperatureData>:
 80007b8:	b51f      	push	{r0, r1, r2, r3, r4, lr}
 80007ba:	4604      	mov	r4, r0
 80007bc:	f002 fe60 	bl	8003480 <TEMP_getWellTemperatureReading>
 80007c0:	2303      	movs	r3, #3
 80007c2:	2201      	movs	r2, #1
 80007c4:	f88d 3005 	strb.w	r3, [sp, #5]
 80007c8:	f88d 2006 	strb.w	r2, [sp, #6]
 80007cc:	f88d 3004 	strb.w	r3, [sp, #4]
 80007d0:	2234      	movs	r2, #52	; 0x34
 80007d2:	0a03      	lsrs	r3, r0, #8
 80007d4:	f88d 300a 	strb.w	r3, [sp, #10]
 80007d8:	f88d 2007 	strb.w	r2, [sp, #7]
 80007dc:	f88d 4008 	strb.w	r4, [sp, #8]
 80007e0:	f88d 4009 	strb.w	r4, [sp, #9]
 80007e4:	f88d 000b 	strb.w	r0, [sp, #11]
 80007e8:	ab04      	add	r3, sp, #16
 80007ea:	e913 0007 	ldmdb	r3, {r0, r1, r2}
 80007ee:	b004      	add	sp, #16
 80007f0:	e8bd 4010 	ldmia.w	sp!, {r4, lr}
 80007f4:	f7ff be08 	b.w	8000408 <CAN_Transmit_Message>

080007f8 <HAL_CAN_RxFifo0MsgPendingCallback>:
 80007f8:	f7ff be44 	b.w	8000484 <CAN_Message_Received>

080007fc <HAL_TIM_PeriodElapsedCallback>:
 80007fc:	b510      	push	{r4, lr}
 80007fe:	4a09      	ldr	r2, [pc, #36]	; (8000824 <HAL_TIM_PeriodElapsedCallback+0x28>)
 8000800:	7813      	ldrb	r3, [r2, #0]
 8000802:	3301      	adds	r3, #1
 8000804:	b2db      	uxtb	r3, r3
 8000806:	2b3b      	cmp	r3, #59	; 0x3b
 8000808:	d909      	bls.n	800081e <HAL_TIM_PeriodElapsedCallback+0x22>
 800080a:	2300      	movs	r3, #0
 800080c:	7013      	strb	r3, [r2, #0]
 800080e:	2401      	movs	r4, #1
 8000810:	b2e0      	uxtb	r0, r4
 8000812:	3401      	adds	r4, #1
 8000814:	f7ff ffd0 	bl	80007b8 <TEMP_transmitTemperatureData>
 8000818:	2c0b      	cmp	r4, #11
 800081a:	d1f9      	bne.n	8000810 <HAL_TIM_PeriodElapsedCallback+0x14>
 800081c:	bd10      	pop	{r4, pc}
 800081e:	7013      	strb	r3, [r2, #0]
 8000820:	e7fc      	b.n	800081c <HAL_TIM_PeriodElapsedCallback+0x20>
 8000822:	bf00      	nop
 8000824:	20000560 	.word	0x20000560

08000828 <SystemClock_Config>:
 8000828:	b500      	push	{lr}
 800082a:	b097      	sub	sp, #92	; 0x5c
 800082c:	2244      	movs	r2, #68	; 0x44
 800082e:	2100      	movs	r1, #0
 8000830:	a805      	add	r0, sp, #20
 8000832:	f002 ff0f 	bl	8003654 <memset>
 8000836:	2214      	movs	r2, #20
 8000838:	2100      	movs	r1, #0
 800083a:	4668      	mov	r0, sp
 800083c:	f002 ff0a 	bl	8003654 <memset>
 8000840:	f44f 7000 	mov.w	r0, #512	; 0x200
 8000844:	f001 fd60 	bl	8002308 <HAL_PWREx_ControlVoltageScaling>
 8000848:	b108      	cbz	r0, 800084e <SystemClock_Config+0x26>
 800084a:	b672      	cpsid	i
 800084c:	e7fe      	b.n	800084c <SystemClock_Config+0x24>
 800084e:	2310      	movs	r3, #16
 8000850:	9305      	str	r3, [sp, #20]
 8000852:	2360      	movs	r3, #96	; 0x60
 8000854:	2201      	movs	r2, #1
 8000856:	930d      	str	r3, [sp, #52]	; 0x34
 8000858:	2302      	movs	r3, #2
 800085a:	e9cd 200b 	strd	r2, r0, [sp, #44]	; 0x2c
 800085e:	e9cd 320f 	strd	r3, r2, [sp, #60]	; 0x3c
 8000862:	2028      	movs	r0, #40	; 0x28
 8000864:	9211      	str	r2, [sp, #68]	; 0x44
 8000866:	2207      	movs	r2, #7
 8000868:	e9cd 0212 	strd	r0, r2, [sp, #72]	; 0x48
 800086c:	a805      	add	r0, sp, #20
 800086e:	e9cd 3314 	strd	r3, r3, [sp, #80]	; 0x50
 8000872:	f001 fe0f 	bl	8002494 <HAL_RCC_OscConfig>
 8000876:	b108      	cbz	r0, 800087c <SystemClock_Config+0x54>
 8000878:	b672      	cpsid	i
 800087a:	e7fe      	b.n	800087a <SystemClock_Config+0x52>
 800087c:	e9cd 0002 	strd	r0, r0, [sp, #8]
 8000880:	220f      	movs	r2, #15
 8000882:	2303      	movs	r3, #3
 8000884:	9004      	str	r0, [sp, #16]
 8000886:	2104      	movs	r1, #4
 8000888:	4668      	mov	r0, sp
 800088a:	e9cd 2300 	strd	r2, r3, [sp]
 800088e:	f002 f8a5 	bl	80029dc <HAL_RCC_ClockConfig>
 8000892:	b108      	cbz	r0, 8000898 <SystemClock_Config+0x70>
 8000894:	b672      	cpsid	i
 8000896:	e7fe      	b.n	8000896 <SystemClock_Config+0x6e>
 8000898:	b017      	add	sp, #92	; 0x5c
 800089a:	f85d fb04 	ldr.w	pc, [sp], #4
	...

080008a0 <main>:
 80008a0:	b5f0      	push	{r4, r5, r6, r7, lr}
 80008a2:	b087      	sub	sp, #28
 80008a4:	f000 f9de 	bl	8000c64 <HAL_Init>
 80008a8:	f7ff ffbe 	bl	8000828 <SystemClock_Config>
 80008ac:	f7ff feae 	bl	800060c <MX_GPIO_Init>
 80008b0:	f7ff fc90 	bl	80001d4 <MX_ADC1_Init>
 80008b4:	f7ff fd2c 	bl	8000310 <MX_CAN1_Init>
 80008b8:	f7ff ff10 	bl	80006dc <MX_I2C1_Init>
 80008bc:	f000 f89a 	bl	80009f4 <MX_SPI3_Init>
 80008c0:	f000 f92c 	bl	8000b1c <MX_TIM2_Init>
 80008c4:	f002 fe34 	bl	8003530 <MAX7300_Init>
 80008c8:	4848      	ldr	r0, [pc, #288]	; (80009ec <main+0x14c>)
 80008ca:	4f48      	ldr	r7, [pc, #288]	; (80009ec <main+0x14c>)
 80008cc:	f7ff fe4d 	bl	800056a <CAN_Queue_Init>
 80008d0:	f7ff fd78 	bl	80003c4 <CAN_Init>
 80008d4:	466c      	mov	r4, sp
 80008d6:	2503      	movs	r5, #3
 80008d8:	f002 fe1a 	bl	8003510 <MAX6822_Toggle_WDI>
 80008dc:	4638      	mov	r0, r7
 80008de:	f7ff fe48 	bl	8000572 <CAN_Queue_IsEmpty>
 80008e2:	2800      	cmp	r0, #0
 80008e4:	d1f8      	bne.n	80008d8 <main+0x38>
 80008e6:	4621      	mov	r1, r4
 80008e8:	4638      	mov	r0, r7
 80008ea:	f7ff fe73 	bl	80005d4 <CAN_Queue_Dequeue>
 80008ee:	2301      	movs	r3, #1
 80008f0:	f88d 300e 	strb.w	r3, [sp, #14]
 80008f4:	f88d 300f 	strb.w	r3, [sp, #15]
 80008f8:	f89d 3003 	ldrb.w	r3, [sp, #3]
 80008fc:	f88d 500d 	strb.w	r5, [sp, #13]
 8000900:	3ba0      	subs	r3, #160	; 0xa0
 8000902:	2b06      	cmp	r3, #6
 8000904:	d8e8      	bhi.n	80008d8 <main+0x38>
 8000906:	e8df f003 	tbb	[pc, r3]
 800090a:	1604      	.short	0x1604
 800090c:	56483b2d 	.word	0x56483b2d
 8000910:	63          	.byte	0x63
 8000911:	00          	.byte	0x00
 8000912:	e894 0007 	ldmia.w	r4, {r0, r1, r2}
 8000916:	f7ff fdff 	bl	8000518 <CAN_Send_Default_ACK>
 800091a:	2300      	movs	r3, #0
 800091c:	f88d 300c 	strb.w	r3, [sp, #12]
 8000920:	23a0      	movs	r3, #160	; 0xa0
 8000922:	f88d 3010 	strb.w	r3, [sp, #16]
 8000926:	ab06      	add	r3, sp, #24
 8000928:	e913 0007 	ldmdb	r3, {r0, r1, r2}
 800092c:	f7ff fd6c 	bl	8000408 <CAN_Transmit_Message>
 8000930:	f002 fdf6 	bl	8003520 <MAX6822_Manual_Reset>
 8000934:	e7d0      	b.n	80008d8 <main+0x38>
 8000936:	e894 0007 	ldmia.w	r4, {r0, r1, r2}
 800093a:	f7ff fded 	bl	8000518 <CAN_Send_Default_ACK>
 800093e:	f89d 6004 	ldrb.w	r6, [sp, #4]
 8000942:	4630      	mov	r0, r6
 8000944:	f002 fd8c 	bl	8003460 <LED_enableLED>
 8000948:	230f      	movs	r3, #15
 800094a:	f88d 300c 	strb.w	r3, [sp, #12]
 800094e:	23a1      	movs	r3, #161	; 0xa1
 8000950:	f88d 3010 	strb.w	r3, [sp, #16]
 8000954:	f88d 6011 	strb.w	r6, [sp, #17]
 8000958:	ab06      	add	r3, sp, #24
 800095a:	e913 0007 	ldmdb	r3, {r0, r1, r2}
 800095e:	f7ff fd53 	bl	8000408 <CAN_Transmit_Message>
 8000962:	e7b9      	b.n	80008d8 <main+0x38>
 8000964:	e894 0007 	ldmia.w	r4, {r0, r1, r2}
 8000968:	f7ff fdd6 	bl	8000518 <CAN_Send_Default_ACK>
 800096c:	f89d 6004 	ldrb.w	r6, [sp, #4]
 8000970:	4630      	mov	r0, r6
 8000972:	f002 fd7d 	bl	8003470 <LED_disableLED>
 8000976:	2307      	movs	r3, #7
 8000978:	f88d 300c 	strb.w	r3, [sp, #12]
 800097c:	23a2      	movs	r3, #162	; 0xa2
 800097e:	e7e7      	b.n	8000950 <main+0xb0>
 8000980:	e894 0007 	ldmia.w	r4, {r0, r1, r2}
 8000984:	f7ff fdc8 	bl	8000518 <CAN_Send_Default_ACK>
 8000988:	f89d 6004 	ldrb.w	r6, [sp, #4]
 800098c:	4630      	mov	r0, r6
 800098e:	f002 fda7 	bl	80034e0 <THERM_enableThermostat>
 8000992:	f88d 500c 	strb.w	r5, [sp, #12]
 8000996:	23a3      	movs	r3, #163	; 0xa3
 8000998:	e7da      	b.n	8000950 <main+0xb0>
 800099a:	e894 0007 	ldmia.w	r4, {r0, r1, r2}
 800099e:	f7ff fdbb 	bl	8000518 <CAN_Send_Default_ACK>
 80009a2:	f89d 6004 	ldrb.w	r6, [sp, #4]
 80009a6:	4630      	mov	r0, r6
 80009a8:	f002 fda6 	bl	80034f8 <THERM_disableThermostat>
 80009ac:	2301      	movs	r3, #1
 80009ae:	f88d 300c 	strb.w	r3, [sp, #12]
 80009b2:	23a4      	movs	r3, #164	; 0xa4
 80009b4:	e7cc      	b.n	8000950 <main+0xb0>
 80009b6:	e894 0007 	ldmia.w	r4, {r0, r1, r2}
 80009ba:	f7ff fdad 	bl	8000518 <CAN_Send_Default_ACK>
 80009be:	f89d 6004 	ldrb.w	r6, [sp, #4]
 80009c2:	4630      	mov	r0, r6
 80009c4:	f002 fd3c 	bl	8003440 <HEAT_enableHeater>
 80009c8:	f88d 500c 	strb.w	r5, [sp, #12]
 80009cc:	23a5      	movs	r3, #165	; 0xa5
 80009ce:	e7bf      	b.n	8000950 <main+0xb0>
 80009d0:	e894 0007 	ldmia.w	r4, {r0, r1, r2}
 80009d4:	f7ff fda0 	bl	8000518 <CAN_Send_Default_ACK>
 80009d8:	f89d 6004 	ldrb.w	r6, [sp, #4]
 80009dc:	4630      	mov	r0, r6
 80009de:	f002 fd37 	bl	8003450 <HEAT_disableHeater>
 80009e2:	2301      	movs	r3, #1
 80009e4:	f88d 300c 	strb.w	r3, [sp, #12]
 80009e8:	23a6      	movs	r3, #166	; 0xa6
 80009ea:	e7b1      	b.n	8000950 <main+0xb0>
 80009ec:	2000010c 	.word	0x2000010c

080009f0 <Error_Handler>:
 80009f0:	b672      	cpsid	i
 80009f2:	e7fe      	b.n	80009f2 <Error_Handler+0x2>

080009f4 <MX_SPI3_Init>:
 80009f4:	4811      	ldr	r0, [pc, #68]	; (8000a3c <MX_SPI3_Init+0x48>)
 80009f6:	4a12      	ldr	r2, [pc, #72]	; (8000a40 <MX_SPI3_Init+0x4c>)
 80009f8:	b508      	push	{r3, lr}
 80009fa:	f44f 7382 	mov.w	r3, #260	; 0x104
 80009fe:	e9c0 2300 	strd	r2, r3, [r0]
 8000a02:	2300      	movs	r3, #0
 8000a04:	f44f 62e0 	mov.w	r2, #1792	; 0x700
 8000a08:	e9c0 3202 	strd	r3, r2, [r0, #8]
 8000a0c:	f44f 7100 	mov.w	r1, #512	; 0x200
 8000a10:	2220      	movs	r2, #32
 8000a12:	e9c0 1206 	strd	r1, r2, [r0, #24]
 8000a16:	2207      	movs	r2, #7
 8000a18:	e9c0 3304 	strd	r3, r3, [r0, #16]
 8000a1c:	e9c0 3308 	strd	r3, r3, [r0, #32]
 8000a20:	e9c0 230b 	strd	r2, r3, [r0, #44]	; 0x2c
 8000a24:	6283      	str	r3, [r0, #40]	; 0x28
 8000a26:	2308      	movs	r3, #8
 8000a28:	6343      	str	r3, [r0, #52]	; 0x34
 8000a2a:	f002 fa99 	bl	8002f60 <HAL_SPI_Init>
 8000a2e:	b118      	cbz	r0, 8000a38 <MX_SPI3_Init+0x44>
 8000a30:	e8bd 4008 	ldmia.w	sp!, {r3, lr}
 8000a34:	f7ff bfdc 	b.w	80009f0 <Error_Handler>
 8000a38:	bd08      	pop	{r3, pc}
 8000a3a:	bf00      	nop
 8000a3c:	20000564 	.word	0x20000564
 8000a40:	40003c00 	.word	0x40003c00

08000a44 <HAL_SPI_MspInit>:
 8000a44:	b510      	push	{r4, lr}
 8000a46:	4604      	mov	r4, r0
 8000a48:	b088      	sub	sp, #32
 8000a4a:	2214      	movs	r2, #20
 8000a4c:	2100      	movs	r1, #0
 8000a4e:	a803      	add	r0, sp, #12
 8000a50:	f002 fe00 	bl	8003654 <memset>
 8000a54:	6822      	ldr	r2, [r4, #0]
 8000a56:	4b13      	ldr	r3, [pc, #76]	; (8000aa4 <HAL_SPI_MspInit+0x60>)
 8000a58:	429a      	cmp	r2, r3
 8000a5a:	d120      	bne.n	8000a9e <HAL_SPI_MspInit+0x5a>
 8000a5c:	f503 33ea 	add.w	r3, r3, #119808	; 0x1d400
 8000a60:	2103      	movs	r1, #3
 8000a62:	6d9a      	ldr	r2, [r3, #88]	; 0x58
 8000a64:	4810      	ldr	r0, [pc, #64]	; (8000aa8 <HAL_SPI_MspInit+0x64>)
 8000a66:	f442 4200 	orr.w	r2, r2, #32768	; 0x8000
 8000a6a:	659a      	str	r2, [r3, #88]	; 0x58
 8000a6c:	6d9a      	ldr	r2, [r3, #88]	; 0x58
 8000a6e:	f402 4200 	and.w	r2, r2, #32768	; 0x8000
 8000a72:	9201      	str	r2, [sp, #4]
 8000a74:	9a01      	ldr	r2, [sp, #4]
 8000a76:	6cda      	ldr	r2, [r3, #76]	; 0x4c
 8000a78:	f042 0204 	orr.w	r2, r2, #4
 8000a7c:	64da      	str	r2, [r3, #76]	; 0x4c
 8000a7e:	6cdb      	ldr	r3, [r3, #76]	; 0x4c
 8000a80:	f003 0304 	and.w	r3, r3, #4
 8000a84:	9302      	str	r3, [sp, #8]
 8000a86:	9b02      	ldr	r3, [sp, #8]
 8000a88:	f44f 52e0 	mov.w	r2, #7168	; 0x1c00
 8000a8c:	2302      	movs	r3, #2
 8000a8e:	e9cd 2303 	strd	r2, r3, [sp, #12]
 8000a92:	2306      	movs	r3, #6
 8000a94:	e9cd 1306 	strd	r1, r3, [sp, #24]
 8000a98:	a903      	add	r1, sp, #12
 8000a9a:	f001 f903 	bl	8001ca4 <HAL_GPIO_Init>
 8000a9e:	b008      	add	sp, #32
 8000aa0:	bd10      	pop	{r4, pc}
 8000aa2:	bf00      	nop
 8000aa4:	40003c00 	.word	0x40003c00
 8000aa8:	48000800 	.word	0x48000800

08000aac <HAL_MspInit>:
 8000aac:	4b0a      	ldr	r3, [pc, #40]	; (8000ad8 <HAL_MspInit+0x2c>)
 8000aae:	6e1a      	ldr	r2, [r3, #96]	; 0x60
 8000ab0:	f042 0201 	orr.w	r2, r2, #1
 8000ab4:	661a      	str	r2, [r3, #96]	; 0x60
 8000ab6:	6e1a      	ldr	r2, [r3, #96]	; 0x60
 8000ab8:	b082      	sub	sp, #8
 8000aba:	f002 0201 	and.w	r2, r2, #1
 8000abe:	9200      	str	r2, [sp, #0]
 8000ac0:	9a00      	ldr	r2, [sp, #0]
 8000ac2:	6d9a      	ldr	r2, [r3, #88]	; 0x58
 8000ac4:	f042 5280 	orr.w	r2, r2, #268435456	; 0x10000000
 8000ac8:	659a      	str	r2, [r3, #88]	; 0x58
 8000aca:	6d9b      	ldr	r3, [r3, #88]	; 0x58
 8000acc:	f003 5380 	and.w	r3, r3, #268435456	; 0x10000000
 8000ad0:	9301      	str	r3, [sp, #4]
 8000ad2:	9b01      	ldr	r3, [sp, #4]
 8000ad4:	b002      	add	sp, #8
 8000ad6:	4770      	bx	lr
 8000ad8:	40021000 	.word	0x40021000

08000adc <NMI_Handler>:
 8000adc:	e7fe      	b.n	8000adc <NMI_Handler>

08000ade <HardFault_Handler>:
 8000ade:	e7fe      	b.n	8000ade <HardFault_Handler>

08000ae0 <MemManage_Handler>:
 8000ae0:	e7fe      	b.n	8000ae0 <MemManage_Handler>

08000ae2 <BusFault_Handler>:
 8000ae2:	e7fe      	b.n	8000ae2 <BusFault_Handler>

08000ae4 <UsageFault_Handler>:
 8000ae4:	e7fe      	b.n	8000ae4 <UsageFault_Handler>

08000ae6 <SVC_Handler>:
 8000ae6:	4770      	bx	lr

08000ae8 <DebugMon_Handler>:
 8000ae8:	4770      	bx	lr

08000aea <PendSV_Handler>:
 8000aea:	4770      	bx	lr

08000aec <SysTick_Handler>:
 8000aec:	f000 b8ca 	b.w	8000c84 <HAL_IncTick>

08000af0 <CAN1_RX0_IRQHandler>:
 8000af0:	4801      	ldr	r0, [pc, #4]	; (8000af8 <CAN1_RX0_IRQHandler+0x8>)
 8000af2:	f000 bf73 	b.w	80019dc <HAL_CAN_IRQHandler>
 8000af6:	bf00      	nop
 8000af8:	20000090 	.word	0x20000090

08000afc <TIM2_IRQHandler>:
 8000afc:	4801      	ldr	r0, [pc, #4]	; (8000b04 <TIM2_IRQHandler+0x8>)
 8000afe:	f002 ba9d 	b.w	800303c <HAL_TIM_IRQHandler>
 8000b02:	bf00      	nop
 8000b04:	200005c8 	.word	0x200005c8

08000b08 <SystemInit>:
 8000b08:	4a03      	ldr	r2, [pc, #12]	; (8000b18 <SystemInit+0x10>)
 8000b0a:	f8d2 3088 	ldr.w	r3, [r2, #136]	; 0x88
 8000b0e:	f443 0370 	orr.w	r3, r3, #15728640	; 0xf00000
 8000b12:	f8c2 3088 	str.w	r3, [r2, #136]	; 0x88
 8000b16:	4770      	bx	lr
 8000b18:	e000ed00 	.word	0xe000ed00

08000b1c <MX_TIM2_Init>:
 8000b1c:	b500      	push	{lr}
 8000b1e:	2210      	movs	r2, #16
 8000b20:	b089      	sub	sp, #36	; 0x24
 8000b22:	eb0d 0002 	add.w	r0, sp, r2
 8000b26:	2100      	movs	r1, #0
 8000b28:	f002 fd94 	bl	8003654 <memset>
 8000b2c:	4814      	ldr	r0, [pc, #80]	; (8000b80 <MX_TIM2_Init+0x64>)
 8000b2e:	2300      	movs	r3, #0
 8000b30:	f04f 4280 	mov.w	r2, #1073741824	; 0x40000000
 8000b34:	e9c0 2300 	strd	r2, r3, [r0]
 8000b38:	4a12      	ldr	r2, [pc, #72]	; (8000b84 <MX_TIM2_Init+0x68>)
 8000b3a:	9303      	str	r3, [sp, #12]
 8000b3c:	e9cd 3301 	strd	r3, r3, [sp, #4]
 8000b40:	e9c0 2303 	strd	r2, r3, [r0, #12]
 8000b44:	6083      	str	r3, [r0, #8]
 8000b46:	6183      	str	r3, [r0, #24]
 8000b48:	f002 fb6a 	bl	8003220 <HAL_TIM_Base_Init>
 8000b4c:	b108      	cbz	r0, 8000b52 <MX_TIM2_Init+0x36>
 8000b4e:	f7ff ff4f 	bl	80009f0 <Error_Handler>
 8000b52:	f44f 5380 	mov.w	r3, #4096	; 0x1000
 8000b56:	480a      	ldr	r0, [pc, #40]	; (8000b80 <MX_TIM2_Init+0x64>)
 8000b58:	9304      	str	r3, [sp, #16]
 8000b5a:	a904      	add	r1, sp, #16
 8000b5c:	f002 fb9a 	bl	8003294 <HAL_TIM_ConfigClockSource>
 8000b60:	b108      	cbz	r0, 8000b66 <MX_TIM2_Init+0x4a>
 8000b62:	f7ff ff45 	bl	80009f0 <Error_Handler>
 8000b66:	2300      	movs	r3, #0
 8000b68:	4805      	ldr	r0, [pc, #20]	; (8000b80 <MX_TIM2_Init+0x64>)
 8000b6a:	9301      	str	r3, [sp, #4]
 8000b6c:	a901      	add	r1, sp, #4
 8000b6e:	9303      	str	r3, [sp, #12]
 8000b70:	f002 fc2c 	bl	80033cc <HAL_TIMEx_MasterConfigSynchronization>
 8000b74:	b108      	cbz	r0, 8000b7a <MX_TIM2_Init+0x5e>
 8000b76:	f7ff ff3b 	bl	80009f0 <Error_Handler>
 8000b7a:	b009      	add	sp, #36	; 0x24
 8000b7c:	f85d fb04 	ldr.w	pc, [sp], #4
 8000b80:	200005c8 	.word	0x200005c8
 8000b84:	04c4b400 	.word	0x04c4b400

08000b88 <HAL_TIM_Base_MspInit>:
 8000b88:	6803      	ldr	r3, [r0, #0]
 8000b8a:	f1b3 4f80 	cmp.w	r3, #1073741824	; 0x40000000
 8000b8e:	b507      	push	{r0, r1, r2, lr}
 8000b90:	d115      	bne.n	8000bbe <HAL_TIM_Base_MspInit+0x36>
 8000b92:	f503 3304 	add.w	r3, r3, #135168	; 0x21000
 8000b96:	201c      	movs	r0, #28
 8000b98:	6d9a      	ldr	r2, [r3, #88]	; 0x58
 8000b9a:	f042 0201 	orr.w	r2, r2, #1
 8000b9e:	659a      	str	r2, [r3, #88]	; 0x58
 8000ba0:	6d9b      	ldr	r3, [r3, #88]	; 0x58
 8000ba2:	2200      	movs	r2, #0
 8000ba4:	f003 0301 	and.w	r3, r3, #1
 8000ba8:	9301      	str	r3, [sp, #4]
 8000baa:	4611      	mov	r1, r2
 8000bac:	9b01      	ldr	r3, [sp, #4]
 8000bae:	f001 f825 	bl	8001bfc <HAL_NVIC_SetPriority>
 8000bb2:	201c      	movs	r0, #28
 8000bb4:	b003      	add	sp, #12
 8000bb6:	f85d eb04 	ldr.w	lr, [sp], #4
 8000bba:	f001 b851 	b.w	8001c60 <HAL_NVIC_EnableIRQ>
 8000bbe:	b003      	add	sp, #12
 8000bc0:	f85d fb04 	ldr.w	pc, [sp], #4

08000bc4 <Reset_Handler>:
 8000bc4:	f8df d034 	ldr.w	sp, [pc, #52]	; 8000bfc <LoopForever+0x2>
 8000bc8:	f7ff ff9e 	bl	8000b08 <SystemInit>
 8000bcc:	480c      	ldr	r0, [pc, #48]	; (8000c00 <LoopForever+0x6>)
 8000bce:	490d      	ldr	r1, [pc, #52]	; (8000c04 <LoopForever+0xa>)
 8000bd0:	4a0d      	ldr	r2, [pc, #52]	; (8000c08 <LoopForever+0xe>)
 8000bd2:	2300      	movs	r3, #0
 8000bd4:	e002      	b.n	8000bdc <LoopCopyDataInit>

08000bd6 <CopyDataInit>:
 8000bd6:	58d4      	ldr	r4, [r2, r3]
 8000bd8:	50c4      	str	r4, [r0, r3]
 8000bda:	3304      	adds	r3, #4

08000bdc <LoopCopyDataInit>:
 8000bdc:	18c4      	adds	r4, r0, r3
 8000bde:	428c      	cmp	r4, r1
 8000be0:	d3f9      	bcc.n	8000bd6 <CopyDataInit>
 8000be2:	4a0a      	ldr	r2, [pc, #40]	; (8000c0c <LoopForever+0x12>)
 8000be4:	4c0a      	ldr	r4, [pc, #40]	; (8000c10 <LoopForever+0x16>)
 8000be6:	2300      	movs	r3, #0
 8000be8:	e001      	b.n	8000bee <LoopFillZerobss>

08000bea <FillZerobss>:
 8000bea:	6013      	str	r3, [r2, #0]
 8000bec:	3204      	adds	r2, #4

08000bee <LoopFillZerobss>:
 8000bee:	42a2      	cmp	r2, r4
 8000bf0:	d3fb      	bcc.n	8000bea <FillZerobss>
 8000bf2:	f002 fd0b 	bl	800360c <__libc_init_array>
 8000bf6:	f7ff fe53 	bl	80008a0 <main>

08000bfa <LoopForever>:
 8000bfa:	e7fe      	b.n	8000bfa <LoopForever>
 8000bfc:	20028000 	.word	0x20028000
 8000c00:	20000000 	.word	0x20000000
 8000c04:	2000000c 	.word	0x2000000c
 8000c08:	08003720 	.word	0x08003720
 8000c0c:	2000000c 	.word	0x2000000c
 8000c10:	200006b8 	.word	0x200006b8

08000c14 <ADC1_IRQHandler>:
 8000c14:	e7fe      	b.n	8000c14 <ADC1_IRQHandler>
	...

08000c18 <HAL_InitTick>:
 8000c18:	b538      	push	{r3, r4, r5, lr}
 8000c1a:	4b0f      	ldr	r3, [pc, #60]	; (8000c58 <HAL_InitTick+0x40>)
 8000c1c:	4605      	mov	r5, r0
 8000c1e:	7818      	ldrb	r0, [r3, #0]
 8000c20:	b908      	cbnz	r0, 8000c26 <HAL_InitTick+0xe>
 8000c22:	2001      	movs	r0, #1
 8000c24:	bd38      	pop	{r3, r4, r5, pc}
 8000c26:	4a0d      	ldr	r2, [pc, #52]	; (8000c5c <HAL_InitTick+0x44>)
 8000c28:	f44f 737a 	mov.w	r3, #1000	; 0x3e8
 8000c2c:	fbb3 f3f0 	udiv	r3, r3, r0
 8000c30:	6810      	ldr	r0, [r2, #0]
 8000c32:	fbb0 f0f3 	udiv	r0, r0, r3
 8000c36:	f001 f821 	bl	8001c7c <HAL_SYSTICK_Config>
 8000c3a:	4604      	mov	r4, r0
 8000c3c:	2800      	cmp	r0, #0
 8000c3e:	d1f0      	bne.n	8000c22 <HAL_InitTick+0xa>
 8000c40:	2d0f      	cmp	r5, #15
 8000c42:	d8ee      	bhi.n	8000c22 <HAL_InitTick+0xa>
 8000c44:	4602      	mov	r2, r0
 8000c46:	4629      	mov	r1, r5
 8000c48:	f04f 30ff 	mov.w	r0, #4294967295
 8000c4c:	f000 ffd6 	bl	8001bfc <HAL_NVIC_SetPriority>
 8000c50:	4b03      	ldr	r3, [pc, #12]	; (8000c60 <HAL_InitTick+0x48>)
 8000c52:	4620      	mov	r0, r4
 8000c54:	601d      	str	r5, [r3, #0]
 8000c56:	e7e5      	b.n	8000c24 <HAL_InitTick+0xc>
 8000c58:	20000004 	.word	0x20000004
 8000c5c:	20000000 	.word	0x20000000
 8000c60:	20000008 	.word	0x20000008

08000c64 <HAL_Init>:
 8000c64:	b510      	push	{r4, lr}
 8000c66:	2003      	movs	r0, #3
 8000c68:	f000 ffb6 	bl	8001bd8 <HAL_NVIC_SetPriorityGrouping>
 8000c6c:	200f      	movs	r0, #15
 8000c6e:	f7ff ffd3 	bl	8000c18 <HAL_InitTick>
 8000c72:	4604      	mov	r4, r0
 8000c74:	b918      	cbnz	r0, 8000c7e <HAL_Init+0x1a>
 8000c76:	f7ff ff19 	bl	8000aac <HAL_MspInit>
 8000c7a:	4620      	mov	r0, r4
 8000c7c:	bd10      	pop	{r4, pc}
 8000c7e:	2401      	movs	r4, #1
 8000c80:	e7fb      	b.n	8000c7a <HAL_Init+0x16>
	...

08000c84 <HAL_IncTick>:
 8000c84:	4a03      	ldr	r2, [pc, #12]	; (8000c94 <HAL_IncTick+0x10>)
 8000c86:	4b04      	ldr	r3, [pc, #16]	; (8000c98 <HAL_IncTick+0x14>)
 8000c88:	6811      	ldr	r1, [r2, #0]
 8000c8a:	781b      	ldrb	r3, [r3, #0]
 8000c8c:	440b      	add	r3, r1
 8000c8e:	6013      	str	r3, [r2, #0]
 8000c90:	4770      	bx	lr
 8000c92:	bf00      	nop
 8000c94:	20000614 	.word	0x20000614
 8000c98:	20000004 	.word	0x20000004

08000c9c <HAL_GetTick>:
 8000c9c:	4b01      	ldr	r3, [pc, #4]	; (8000ca4 <HAL_GetTick+0x8>)
 8000c9e:	6818      	ldr	r0, [r3, #0]
 8000ca0:	4770      	bx	lr
 8000ca2:	bf00      	nop
 8000ca4:	20000614 	.word	0x20000614

08000ca8 <LL_ADC_SetChannelSamplingTime>:
 8000ca8:	b530      	push	{r4, r5, lr}
 8000caa:	0dcc      	lsrs	r4, r1, #23
 8000cac:	f004 0404 	and.w	r4, r4, #4
 8000cb0:	3014      	adds	r0, #20
 8000cb2:	f3c1 5104 	ubfx	r1, r1, #20, #5
 8000cb6:	5823      	ldr	r3, [r4, r0]
 8000cb8:	2507      	movs	r5, #7
 8000cba:	408d      	lsls	r5, r1
 8000cbc:	ea23 0305 	bic.w	r3, r3, r5
 8000cc0:	fa02 f101 	lsl.w	r1, r2, r1
 8000cc4:	430b      	orrs	r3, r1
 8000cc6:	5023      	str	r3, [r4, r0]
 8000cc8:	bd30      	pop	{r4, r5, pc}

08000cca <LL_ADC_REG_IsConversionOngoing>:
 8000cca:	6880      	ldr	r0, [r0, #8]
 8000ccc:	f3c0 0080 	ubfx	r0, r0, #2, #1
 8000cd0:	4770      	bx	lr
	...

08000cd4 <HAL_ADC_Init>:
 8000cd4:	b537      	push	{r0, r1, r2, r4, r5, lr}
 8000cd6:	2300      	movs	r3, #0
 8000cd8:	9301      	str	r3, [sp, #4]
 8000cda:	4604      	mov	r4, r0
 8000cdc:	2800      	cmp	r0, #0
 8000cde:	f000 80c1 	beq.w	8000e64 <HAL_ADC_Init+0x190>
 8000ce2:	6d85      	ldr	r5, [r0, #88]	; 0x58
 8000ce4:	b925      	cbnz	r5, 8000cf0 <HAL_ADC_Init+0x1c>
 8000ce6:	f7ff fab1 	bl	800024c <HAL_ADC_MspInit>
 8000cea:	65e5      	str	r5, [r4, #92]	; 0x5c
 8000cec:	f884 5054 	strb.w	r5, [r4, #84]	; 0x54
 8000cf0:	6820      	ldr	r0, [r4, #0]
 8000cf2:	6883      	ldr	r3, [r0, #8]
 8000cf4:	009b      	lsls	r3, r3, #2
 8000cf6:	bf41      	itttt	mi
 8000cf8:	6883      	ldrmi	r3, [r0, #8]
 8000cfa:	f023 4320 	bicmi.w	r3, r3, #2684354560	; 0xa0000000
 8000cfe:	f023 033f 	bicmi.w	r3, r3, #63	; 0x3f
 8000d02:	6083      	strmi	r3, [r0, #8]
 8000d04:	6883      	ldr	r3, [r0, #8]
 8000d06:	00dd      	lsls	r5, r3, #3
 8000d08:	f140 808c 	bpl.w	8000e24 <HAL_ADC_Init+0x150>
 8000d0c:	6883      	ldr	r3, [r0, #8]
 8000d0e:	00d9      	lsls	r1, r3, #3
 8000d10:	f100 809f 	bmi.w	8000e52 <HAL_ADC_Init+0x17e>
 8000d14:	6da3      	ldr	r3, [r4, #88]	; 0x58
 8000d16:	f043 0310 	orr.w	r3, r3, #16
 8000d1a:	65a3      	str	r3, [r4, #88]	; 0x58
 8000d1c:	6de3      	ldr	r3, [r4, #92]	; 0x5c
 8000d1e:	f043 0301 	orr.w	r3, r3, #1
 8000d22:	65e3      	str	r3, [r4, #92]	; 0x5c
 8000d24:	2101      	movs	r1, #1
 8000d26:	f7ff ffd0 	bl	8000cca <LL_ADC_REG_IsConversionOngoing>
 8000d2a:	6da3      	ldr	r3, [r4, #88]	; 0x58
 8000d2c:	f003 0310 	and.w	r3, r3, #16
 8000d30:	4303      	orrs	r3, r0
 8000d32:	6da3      	ldr	r3, [r4, #88]	; 0x58
 8000d34:	f040 8093 	bne.w	8000e5e <HAL_ADC_Init+0x18a>
 8000d38:	f423 7381 	bic.w	r3, r3, #258	; 0x102
 8000d3c:	f043 0302 	orr.w	r3, r3, #2
 8000d40:	6820      	ldr	r0, [r4, #0]
 8000d42:	65a3      	str	r3, [r4, #88]	; 0x58
 8000d44:	6883      	ldr	r3, [r0, #8]
 8000d46:	07da      	lsls	r2, r3, #31
 8000d48:	d40a      	bmi.n	8000d60 <HAL_ADC_Init+0x8c>
 8000d4a:	4b47      	ldr	r3, [pc, #284]	; (8000e68 <HAL_ADC_Init+0x194>)
 8000d4c:	689b      	ldr	r3, [r3, #8]
 8000d4e:	07db      	lsls	r3, r3, #31
 8000d50:	d406      	bmi.n	8000d60 <HAL_ADC_Init+0x8c>
 8000d52:	4a46      	ldr	r2, [pc, #280]	; (8000e6c <HAL_ADC_Init+0x198>)
 8000d54:	6865      	ldr	r5, [r4, #4]
 8000d56:	6893      	ldr	r3, [r2, #8]
 8000d58:	f423 137c 	bic.w	r3, r3, #4128768	; 0x3f0000
 8000d5c:	432b      	orrs	r3, r5
 8000d5e:	6093      	str	r3, [r2, #8]
 8000d60:	68e5      	ldr	r5, [r4, #12]
 8000d62:	6b63      	ldr	r3, [r4, #52]	; 0x34
 8000d64:	f894 2020 	ldrb.w	r2, [r4, #32]
 8000d68:	432b      	orrs	r3, r5
 8000d6a:	68a5      	ldr	r5, [r4, #8]
 8000d6c:	432b      	orrs	r3, r5
 8000d6e:	7e65      	ldrb	r5, [r4, #25]
 8000d70:	2a01      	cmp	r2, #1
 8000d72:	ea43 3345 	orr.w	r3, r3, r5, lsl #13
 8000d76:	ea43 4302 	orr.w	r3, r3, r2, lsl #16
 8000d7a:	bf02      	ittt	eq
 8000d7c:	6a62      	ldreq	r2, [r4, #36]	; 0x24
 8000d7e:	f102 32ff 	addeq.w	r2, r2, #4294967295
 8000d82:	ea43 4342 	orreq.w	r3, r3, r2, lsl #17
 8000d86:	6aa2      	ldr	r2, [r4, #40]	; 0x28
 8000d88:	b122      	cbz	r2, 8000d94 <HAL_ADC_Init+0xc0>
 8000d8a:	6ae5      	ldr	r5, [r4, #44]	; 0x2c
 8000d8c:	f402 7270 	and.w	r2, r2, #960	; 0x3c0
 8000d90:	432a      	orrs	r2, r5
 8000d92:	4313      	orrs	r3, r2
 8000d94:	68c5      	ldr	r5, [r0, #12]
 8000d96:	4a36      	ldr	r2, [pc, #216]	; (8000e70 <HAL_ADC_Init+0x19c>)
 8000d98:	402a      	ands	r2, r5
 8000d9a:	4313      	orrs	r3, r2
 8000d9c:	60c3      	str	r3, [r0, #12]
 8000d9e:	f7ff ff94 	bl	8000cca <LL_ADC_REG_IsConversionOngoing>
 8000da2:	6823      	ldr	r3, [r4, #0]
 8000da4:	689a      	ldr	r2, [r3, #8]
 8000da6:	f002 0208 	and.w	r2, r2, #8
 8000daa:	4302      	orrs	r2, r0
 8000dac:	d122      	bne.n	8000df4 <HAL_ADC_Init+0x120>
 8000dae:	f894 2030 	ldrb.w	r2, [r4, #48]	; 0x30
 8000db2:	7e25      	ldrb	r5, [r4, #24]
 8000db4:	68d8      	ldr	r0, [r3, #12]
 8000db6:	0052      	lsls	r2, r2, #1
 8000db8:	ea42 3285 	orr.w	r2, r2, r5, lsl #14
 8000dbc:	6ce5      	ldr	r5, [r4, #76]	; 0x4c
 8000dbe:	f420 4080 	bic.w	r0, r0, #16384	; 0x4000
 8000dc2:	432a      	orrs	r2, r5
 8000dc4:	f020 0006 	bic.w	r0, r0, #6
 8000dc8:	4302      	orrs	r2, r0
 8000dca:	60da      	str	r2, [r3, #12]
 8000dcc:	f894 2038 	ldrb.w	r2, [r4, #56]	; 0x38
 8000dd0:	2a01      	cmp	r2, #1
 8000dd2:	d140      	bne.n	8000e56 <HAL_ADC_Init+0x182>
 8000dd4:	e9d4 250f 	ldrd	r2, r5, [r4, #60]	; 0x3c
 8000dd8:	6918      	ldr	r0, [r3, #16]
 8000dda:	f420 60ff 	bic.w	r0, r0, #2040	; 0x7f8
 8000dde:	f020 0004 	bic.w	r0, r0, #4
 8000de2:	432a      	orrs	r2, r5
 8000de4:	4302      	orrs	r2, r0
 8000de6:	6c60      	ldr	r0, [r4, #68]	; 0x44
 8000de8:	4302      	orrs	r2, r0
 8000dea:	6ca0      	ldr	r0, [r4, #72]	; 0x48
 8000dec:	4302      	orrs	r2, r0
 8000dee:	f042 0201 	orr.w	r2, r2, #1
 8000df2:	611a      	str	r2, [r3, #16]
 8000df4:	6922      	ldr	r2, [r4, #16]
 8000df6:	2a01      	cmp	r2, #1
 8000df8:	bf05      	ittet	eq
 8000dfa:	6b18      	ldreq	r0, [r3, #48]	; 0x30
 8000dfc:	69e2      	ldreq	r2, [r4, #28]
 8000dfe:	6b1a      	ldrne	r2, [r3, #48]	; 0x30
 8000e00:	f102 32ff 	addeq.w	r2, r2, #4294967295
 8000e04:	bf06      	itte	eq
 8000e06:	f020 000f 	biceq.w	r0, r0, #15
 8000e0a:	4302      	orreq	r2, r0
 8000e0c:	f022 020f 	bicne.w	r2, r2, #15
 8000e10:	631a      	str	r2, [r3, #48]	; 0x30
 8000e12:	6da3      	ldr	r3, [r4, #88]	; 0x58
 8000e14:	f023 0303 	bic.w	r3, r3, #3
 8000e18:	f043 0301 	orr.w	r3, r3, #1
 8000e1c:	65a3      	str	r3, [r4, #88]	; 0x58
 8000e1e:	4608      	mov	r0, r1
 8000e20:	b003      	add	sp, #12
 8000e22:	bd30      	pop	{r4, r5, pc}
 8000e24:	6883      	ldr	r3, [r0, #8]
 8000e26:	4a13      	ldr	r2, [pc, #76]	; (8000e74 <HAL_ADC_Init+0x1a0>)
 8000e28:	f023 4310 	bic.w	r3, r3, #2415919104	; 0x90000000
 8000e2c:	f023 033f 	bic.w	r3, r3, #63	; 0x3f
 8000e30:	f043 5380 	orr.w	r3, r3, #268435456	; 0x10000000
 8000e34:	6083      	str	r3, [r0, #8]
 8000e36:	4b10      	ldr	r3, [pc, #64]	; (8000e78 <HAL_ADC_Init+0x1a4>)
 8000e38:	681b      	ldr	r3, [r3, #0]
 8000e3a:	fbb3 f3f2 	udiv	r3, r3, r2
 8000e3e:	3301      	adds	r3, #1
 8000e40:	005b      	lsls	r3, r3, #1
 8000e42:	9301      	str	r3, [sp, #4]
 8000e44:	9b01      	ldr	r3, [sp, #4]
 8000e46:	2b00      	cmp	r3, #0
 8000e48:	f43f af60 	beq.w	8000d0c <HAL_ADC_Init+0x38>
 8000e4c:	9b01      	ldr	r3, [sp, #4]
 8000e4e:	3b01      	subs	r3, #1
 8000e50:	e7f7      	b.n	8000e42 <HAL_ADC_Init+0x16e>
 8000e52:	2100      	movs	r1, #0
 8000e54:	e767      	b.n	8000d26 <HAL_ADC_Init+0x52>
 8000e56:	691a      	ldr	r2, [r3, #16]
 8000e58:	f022 0201 	bic.w	r2, r2, #1
 8000e5c:	e7c9      	b.n	8000df2 <HAL_ADC_Init+0x11e>
 8000e5e:	f043 0310 	orr.w	r3, r3, #16
 8000e62:	65a3      	str	r3, [r4, #88]	; 0x58
 8000e64:	2101      	movs	r1, #1
 8000e66:	e7da      	b.n	8000e1e <HAL_ADC_Init+0x14a>
 8000e68:	50040000 	.word	0x50040000
 8000e6c:	50040300 	.word	0x50040300
 8000e70:	fff0c007 	.word	0xfff0c007
 8000e74:	00030d40 	.word	0x00030d40
 8000e78:	20000000 	.word	0x20000000

08000e7c <HAL_ADC_PollForConversion>:
 8000e7c:	b5f8      	push	{r3, r4, r5, r6, r7, lr}
 8000e7e:	6945      	ldr	r5, [r0, #20]
 8000e80:	2d08      	cmp	r5, #8
 8000e82:	4604      	mov	r4, r0
 8000e84:	460e      	mov	r6, r1
 8000e86:	d00a      	beq.n	8000e9e <HAL_ADC_PollForConversion+0x22>
 8000e88:	6803      	ldr	r3, [r0, #0]
 8000e8a:	68db      	ldr	r3, [r3, #12]
 8000e8c:	07dd      	lsls	r5, r3, #31
 8000e8e:	d505      	bpl.n	8000e9c <HAL_ADC_PollForConversion+0x20>
 8000e90:	6d83      	ldr	r3, [r0, #88]	; 0x58
 8000e92:	f043 0320 	orr.w	r3, r3, #32
 8000e96:	6583      	str	r3, [r0, #88]	; 0x58
 8000e98:	2001      	movs	r0, #1
 8000e9a:	bdf8      	pop	{r3, r4, r5, r6, r7, pc}
 8000e9c:	2504      	movs	r5, #4
 8000e9e:	f7ff fefd 	bl	8000c9c <HAL_GetTick>
 8000ea2:	4607      	mov	r7, r0
 8000ea4:	6823      	ldr	r3, [r4, #0]
 8000ea6:	681a      	ldr	r2, [r3, #0]
 8000ea8:	422a      	tst	r2, r5
 8000eaa:	d01d      	beq.n	8000ee8 <HAL_ADC_PollForConversion+0x6c>
 8000eac:	6da2      	ldr	r2, [r4, #88]	; 0x58
 8000eae:	f442 7200 	orr.w	r2, r2, #512	; 0x200
 8000eb2:	65a2      	str	r2, [r4, #88]	; 0x58
 8000eb4:	68da      	ldr	r2, [r3, #12]
 8000eb6:	f412 6f40 	tst.w	r2, #3072	; 0xc00
 8000eba:	d10f      	bne.n	8000edc <HAL_ADC_PollForConversion+0x60>
 8000ebc:	7e62      	ldrb	r2, [r4, #25]
 8000ebe:	b96a      	cbnz	r2, 8000edc <HAL_ADC_PollForConversion+0x60>
 8000ec0:	681a      	ldr	r2, [r3, #0]
 8000ec2:	0711      	lsls	r1, r2, #28
 8000ec4:	d50a      	bpl.n	8000edc <HAL_ADC_PollForConversion+0x60>
 8000ec6:	6da2      	ldr	r2, [r4, #88]	; 0x58
 8000ec8:	f422 7280 	bic.w	r2, r2, #256	; 0x100
 8000ecc:	65a2      	str	r2, [r4, #88]	; 0x58
 8000ece:	6da2      	ldr	r2, [r4, #88]	; 0x58
 8000ed0:	04d2      	lsls	r2, r2, #19
 8000ed2:	bf5e      	ittt	pl
 8000ed4:	6da2      	ldrpl	r2, [r4, #88]	; 0x58
 8000ed6:	f042 0201 	orrpl.w	r2, r2, #1
 8000eda:	65a2      	strpl	r2, [r4, #88]	; 0x58
 8000edc:	2d08      	cmp	r5, #8
 8000ede:	68d8      	ldr	r0, [r3, #12]
 8000ee0:	d117      	bne.n	8000f12 <HAL_ADC_PollForConversion+0x96>
 8000ee2:	601d      	str	r5, [r3, #0]
 8000ee4:	2000      	movs	r0, #0
 8000ee6:	e7d8      	b.n	8000e9a <HAL_ADC_PollForConversion+0x1e>
 8000ee8:	1c70      	adds	r0, r6, #1
 8000eea:	d0dc      	beq.n	8000ea6 <HAL_ADC_PollForConversion+0x2a>
 8000eec:	f7ff fed6 	bl	8000c9c <HAL_GetTick>
 8000ef0:	1bc0      	subs	r0, r0, r7
 8000ef2:	42b0      	cmp	r0, r6
 8000ef4:	d801      	bhi.n	8000efa <HAL_ADC_PollForConversion+0x7e>
 8000ef6:	2e00      	cmp	r6, #0
 8000ef8:	d1d4      	bne.n	8000ea4 <HAL_ADC_PollForConversion+0x28>
 8000efa:	6823      	ldr	r3, [r4, #0]
 8000efc:	681b      	ldr	r3, [r3, #0]
 8000efe:	402b      	ands	r3, r5
 8000f00:	d1d0      	bne.n	8000ea4 <HAL_ADC_PollForConversion+0x28>
 8000f02:	6da2      	ldr	r2, [r4, #88]	; 0x58
 8000f04:	f884 3054 	strb.w	r3, [r4, #84]	; 0x54
 8000f08:	f042 0204 	orr.w	r2, r2, #4
 8000f0c:	65a2      	str	r2, [r4, #88]	; 0x58
 8000f0e:	2003      	movs	r0, #3
 8000f10:	e7c3      	b.n	8000e9a <HAL_ADC_PollForConversion+0x1e>
 8000f12:	f410 4080 	ands.w	r0, r0, #16384	; 0x4000
 8000f16:	d1e5      	bne.n	8000ee4 <HAL_ADC_PollForConversion+0x68>
 8000f18:	220c      	movs	r2, #12
 8000f1a:	601a      	str	r2, [r3, #0]
 8000f1c:	e7bd      	b.n	8000e9a <HAL_ADC_PollForConversion+0x1e>

08000f1e <HAL_ADC_GetValue>:
 8000f1e:	6803      	ldr	r3, [r0, #0]
 8000f20:	6c18      	ldr	r0, [r3, #64]	; 0x40
 8000f22:	4770      	bx	lr

08000f24 <HAL_ADC_ConfigChannel>:
 8000f24:	b5f7      	push	{r0, r1, r2, r4, r5, r6, r7, lr}
 8000f26:	2300      	movs	r3, #0
 8000f28:	9301      	str	r3, [sp, #4]
 8000f2a:	f890 3054 	ldrb.w	r3, [r0, #84]	; 0x54
 8000f2e:	2b01      	cmp	r3, #1
 8000f30:	4605      	mov	r5, r0
 8000f32:	460c      	mov	r4, r1
 8000f34:	f000 81a5 	beq.w	8001282 <HAL_ADC_ConfigChannel+0x35e>
 8000f38:	2301      	movs	r3, #1
 8000f3a:	f880 3054 	strb.w	r3, [r0, #84]	; 0x54
 8000f3e:	6800      	ldr	r0, [r0, #0]
 8000f40:	f7ff fec3 	bl	8000cca <LL_ADC_REG_IsConversionOngoing>
 8000f44:	2800      	cmp	r0, #0
 8000f46:	f040 8196 	bne.w	8001276 <HAL_ADC_ConfigChannel+0x352>
 8000f4a:	684b      	ldr	r3, [r1, #4]
 8000f4c:	2b05      	cmp	r3, #5
 8000f4e:	d809      	bhi.n	8000f64 <HAL_ADC_ConfigChannel+0x40>
 8000f50:	3b02      	subs	r3, #2
 8000f52:	2b03      	cmp	r3, #3
 8000f54:	f200 8094 	bhi.w	8001080 <HAL_ADC_ConfigChannel+0x15c>
 8000f58:	e8df f003 	tbb	[pc, r3]
 8000f5c:	8f8d8b02 	.word	0x8f8d8b02
 8000f60:	230c      	movs	r3, #12
 8000f62:	6063      	str	r3, [r4, #4]
 8000f64:	6862      	ldr	r2, [r4, #4]
 8000f66:	6828      	ldr	r0, [r5, #0]
 8000f68:	6823      	ldr	r3, [r4, #0]
 8000f6a:	0991      	lsrs	r1, r2, #6
 8000f6c:	f001 010c 	and.w	r1, r1, #12
 8000f70:	f100 0730 	add.w	r7, r0, #48	; 0x30
 8000f74:	f002 021f 	and.w	r2, r2, #31
 8000f78:	59ce      	ldr	r6, [r1, r7]
 8000f7a:	f04f 0c1f 	mov.w	ip, #31
 8000f7e:	f3c3 6384 	ubfx	r3, r3, #26, #5
 8000f82:	4093      	lsls	r3, r2
 8000f84:	fa0c f202 	lsl.w	r2, ip, r2
 8000f88:	ea26 0202 	bic.w	r2, r6, r2
 8000f8c:	4313      	orrs	r3, r2
 8000f8e:	51cb      	str	r3, [r1, r7]
 8000f90:	f7ff fe9b 	bl	8000cca <LL_ADC_REG_IsConversionOngoing>
 8000f94:	4601      	mov	r1, r0
 8000f96:	6828      	ldr	r0, [r5, #0]
 8000f98:	6882      	ldr	r2, [r0, #8]
 8000f9a:	f002 0208 	and.w	r2, r2, #8
 8000f9e:	430a      	orrs	r2, r1
 8000fa0:	d124      	bne.n	8000fec <HAL_ADC_ConfigChannel+0xc8>
 8000fa2:	68a3      	ldr	r3, [r4, #8]
 8000fa4:	6821      	ldr	r1, [r4, #0]
 8000fa6:	f1b3 4f00 	cmp.w	r3, #2147483648	; 0x80000000
 8000faa:	d16b      	bne.n	8001084 <HAL_ADC_ConfigChannel+0x160>
 8000fac:	f7ff fe7c 	bl	8000ca8 <LL_ADC_SetChannelSamplingTime>
 8000fb0:	682a      	ldr	r2, [r5, #0]
 8000fb2:	6953      	ldr	r3, [r2, #20]
 8000fb4:	f043 4300 	orr.w	r3, r3, #2147483648	; 0x80000000
 8000fb8:	6153      	str	r3, [r2, #20]
 8000fba:	6926      	ldr	r6, [r4, #16]
 8000fbc:	6828      	ldr	r0, [r5, #0]
 8000fbe:	6822      	ldr	r2, [r4, #0]
 8000fc0:	68c1      	ldr	r1, [r0, #12]
 8000fc2:	2e04      	cmp	r6, #4
 8000fc4:	f100 0360 	add.w	r3, r0, #96	; 0x60
 8000fc8:	d064      	beq.n	8001094 <HAL_ADC_ConfigChannel+0x170>
 8000fca:	f3c1 01c1 	ubfx	r1, r1, #3, #2
 8000fce:	0048      	lsls	r0, r1, #1
 8000fd0:	6961      	ldr	r1, [r4, #20]
 8000fd2:	f853 7026 	ldr.w	r7, [r3, r6, lsl #2]
 8000fd6:	4081      	lsls	r1, r0
 8000fd8:	48ab      	ldr	r0, [pc, #684]	; (8001288 <HAL_ADC_ConfigChannel+0x364>)
 8000fda:	f002 42f8 	and.w	r2, r2, #2080374784	; 0x7c000000
 8000fde:	4038      	ands	r0, r7
 8000fe0:	4310      	orrs	r0, r2
 8000fe2:	4301      	orrs	r1, r0
 8000fe4:	f041 4100 	orr.w	r1, r1, #2147483648	; 0x80000000
 8000fe8:	f843 1026 	str.w	r1, [r3, r6, lsl #2]
 8000fec:	6828      	ldr	r0, [r5, #0]
 8000fee:	6883      	ldr	r3, [r0, #8]
 8000ff0:	07d9      	lsls	r1, r3, #31
 8000ff2:	d433      	bmi.n	800105c <HAL_ADC_ConfigChannel+0x138>
 8000ff4:	68e7      	ldr	r7, [r4, #12]
 8000ff6:	6823      	ldr	r3, [r4, #0]
 8000ff8:	4aa4      	ldr	r2, [pc, #656]	; (800128c <HAL_ADC_ConfigChannel+0x368>)
 8000ffa:	f8d0 10b0 	ldr.w	r1, [r0, #176]	; 0xb0
 8000ffe:	f007 0c18 	and.w	ip, r7, #24
 8001002:	f3c3 0612 	ubfx	r6, r3, #0, #19
 8001006:	fa22 f20c 	lsr.w	r2, r2, ip
 800100a:	401a      	ands	r2, r3
 800100c:	ea21 0106 	bic.w	r1, r1, r6
 8001010:	430a      	orrs	r2, r1
 8001012:	f8c0 20b0 	str.w	r2, [r0, #176]	; 0xb0
 8001016:	4a9e      	ldr	r2, [pc, #632]	; (8001290 <HAL_ADC_ConfigChannel+0x36c>)
 8001018:	4297      	cmp	r7, r2
 800101a:	d11f      	bne.n	800105c <HAL_ADC_ConfigChannel+0x138>
 800101c:	2e00      	cmp	r6, #0
 800101e:	f040 808e 	bne.w	800113e <HAL_ADC_ConfigChannel+0x21a>
 8001022:	0e9a      	lsrs	r2, r3, #26
 8001024:	3201      	adds	r2, #1
 8001026:	f002 071f 	and.w	r7, r2, #31
 800102a:	2101      	movs	r1, #1
 800102c:	0692      	lsls	r2, r2, #26
 800102e:	2f09      	cmp	r7, #9
 8001030:	f002 42f8 	and.w	r2, r2, #2080374784	; 0x7c000000
 8001034:	fa01 f107 	lsl.w	r1, r1, r7
 8001038:	f200 80b3 	bhi.w	80011a2 <HAL_ADC_ConfigChannel+0x27e>
 800103c:	430a      	orrs	r2, r1
 800103e:	2e00      	cmp	r6, #0
 8001040:	f040 8099 	bne.w	8001176 <HAL_ADC_ConfigChannel+0x252>
 8001044:	0e9b      	lsrs	r3, r3, #26
 8001046:	3301      	adds	r3, #1
 8001048:	f003 031f 	and.w	r3, r3, #31
 800104c:	eb03 0343 	add.w	r3, r3, r3, lsl #1
 8001050:	051b      	lsls	r3, r3, #20
 8001052:	ea42 0103 	orr.w	r1, r2, r3
 8001056:	68a2      	ldr	r2, [r4, #8]
 8001058:	f7ff fe26 	bl	8000ca8 <LL_ADC_SetChannelSamplingTime>
 800105c:	6821      	ldr	r1, [r4, #0]
 800105e:	4b8d      	ldr	r3, [pc, #564]	; (8001294 <HAL_ADC_ConfigChannel+0x370>)
 8001060:	4219      	tst	r1, r3
 8001062:	f040 80b9 	bne.w	80011d8 <HAL_ADC_ConfigChannel+0x2b4>
 8001066:	2000      	movs	r0, #0
 8001068:	2300      	movs	r3, #0
 800106a:	f885 3054 	strb.w	r3, [r5, #84]	; 0x54
 800106e:	b003      	add	sp, #12
 8001070:	bdf0      	pop	{r4, r5, r6, r7, pc}
 8001072:	2312      	movs	r3, #18
 8001074:	e775      	b.n	8000f62 <HAL_ADC_ConfigChannel+0x3e>
 8001076:	2318      	movs	r3, #24
 8001078:	e773      	b.n	8000f62 <HAL_ADC_ConfigChannel+0x3e>
 800107a:	f44f 7380 	mov.w	r3, #256	; 0x100
 800107e:	e770      	b.n	8000f62 <HAL_ADC_ConfigChannel+0x3e>
 8001080:	2306      	movs	r3, #6
 8001082:	e76e      	b.n	8000f62 <HAL_ADC_ConfigChannel+0x3e>
 8001084:	461a      	mov	r2, r3
 8001086:	f7ff fe0f 	bl	8000ca8 <LL_ADC_SetChannelSamplingTime>
 800108a:	682a      	ldr	r2, [r5, #0]
 800108c:	6953      	ldr	r3, [r2, #20]
 800108e:	f023 4300 	bic.w	r3, r3, #2147483648	; 0x80000000
 8001092:	e791      	b.n	8000fb8 <HAL_ADC_ConfigChannel+0x94>
 8001094:	6e01      	ldr	r1, [r0, #96]	; 0x60
 8001096:	6e01      	ldr	r1, [r0, #96]	; 0x60
 8001098:	f3c2 0612 	ubfx	r6, r2, #0, #19
 800109c:	f3c1 6184 	ubfx	r1, r1, #26, #5
 80010a0:	2e00      	cmp	r6, #0
 80010a2:	d138      	bne.n	8001116 <HAL_ADC_ConfigChannel+0x1f2>
 80010a4:	f3c2 6284 	ubfx	r2, r2, #26, #5
 80010a8:	4291      	cmp	r1, r2
 80010aa:	bf02      	ittt	eq
 80010ac:	6e02      	ldreq	r2, [r0, #96]	; 0x60
 80010ae:	f022 4200 	biceq.w	r2, r2, #2147483648	; 0x80000000
 80010b2:	6602      	streq	r2, [r0, #96]	; 0x60
 80010b4:	685a      	ldr	r2, [r3, #4]
 80010b6:	6822      	ldr	r2, [r4, #0]
 80010b8:	6859      	ldr	r1, [r3, #4]
 80010ba:	f3c2 0012 	ubfx	r0, r2, #0, #19
 80010be:	f3c1 6184 	ubfx	r1, r1, #26, #5
 80010c2:	bb68      	cbnz	r0, 8001120 <HAL_ADC_ConfigChannel+0x1fc>
 80010c4:	f3c2 6284 	ubfx	r2, r2, #26, #5
 80010c8:	4291      	cmp	r1, r2
 80010ca:	bf02      	ittt	eq
 80010cc:	685a      	ldreq	r2, [r3, #4]
 80010ce:	f022 4200 	biceq.w	r2, r2, #2147483648	; 0x80000000
 80010d2:	605a      	streq	r2, [r3, #4]
 80010d4:	689a      	ldr	r2, [r3, #8]
 80010d6:	6822      	ldr	r2, [r4, #0]
 80010d8:	6899      	ldr	r1, [r3, #8]
 80010da:	f3c2 0012 	ubfx	r0, r2, #0, #19
 80010de:	f3c1 6184 	ubfx	r1, r1, #26, #5
 80010e2:	bb10      	cbnz	r0, 800112a <HAL_ADC_ConfigChannel+0x206>
 80010e4:	f3c2 6284 	ubfx	r2, r2, #26, #5
 80010e8:	4291      	cmp	r1, r2
 80010ea:	bf02      	ittt	eq
 80010ec:	689a      	ldreq	r2, [r3, #8]
 80010ee:	f022 4200 	biceq.w	r2, r2, #2147483648	; 0x80000000
 80010f2:	609a      	streq	r2, [r3, #8]
 80010f4:	68da      	ldr	r2, [r3, #12]
 80010f6:	6822      	ldr	r2, [r4, #0]
 80010f8:	68d9      	ldr	r1, [r3, #12]
 80010fa:	f3c2 0012 	ubfx	r0, r2, #0, #19
 80010fe:	f3c1 6184 	ubfx	r1, r1, #26, #5
 8001102:	b9b8      	cbnz	r0, 8001134 <HAL_ADC_ConfigChannel+0x210>
 8001104:	f3c2 6284 	ubfx	r2, r2, #26, #5
 8001108:	4291      	cmp	r1, r2
 800110a:	bf02      	ittt	eq
 800110c:	68da      	ldreq	r2, [r3, #12]
 800110e:	f022 4200 	biceq.w	r2, r2, #2147483648	; 0x80000000
 8001112:	60da      	streq	r2, [r3, #12]
 8001114:	e76a      	b.n	8000fec <HAL_ADC_ConfigChannel+0xc8>
 8001116:	fa92 f2a2 	rbit	r2, r2
 800111a:	fab2 f282 	clz	r2, r2
 800111e:	e7c3      	b.n	80010a8 <HAL_ADC_ConfigChannel+0x184>
 8001120:	fa92 f2a2 	rbit	r2, r2
 8001124:	fab2 f282 	clz	r2, r2
 8001128:	e7ce      	b.n	80010c8 <HAL_ADC_ConfigChannel+0x1a4>
 800112a:	fa92 f2a2 	rbit	r2, r2
 800112e:	fab2 f282 	clz	r2, r2
 8001132:	e7d9      	b.n	80010e8 <HAL_ADC_ConfigChannel+0x1c4>
 8001134:	fa92 f2a2 	rbit	r2, r2
 8001138:	fab2 f282 	clz	r2, r2
 800113c:	e7e4      	b.n	8001108 <HAL_ADC_ConfigChannel+0x1e4>
 800113e:	fa93 f2a3 	rbit	r2, r3
 8001142:	b132      	cbz	r2, 8001152 <HAL_ADC_ConfigChannel+0x22e>
 8001144:	fab2 f282 	clz	r2, r2
 8001148:	3201      	adds	r2, #1
 800114a:	f002 021f 	and.w	r2, r2, #31
 800114e:	2a09      	cmp	r2, #9
 8001150:	d816      	bhi.n	8001180 <HAL_ADC_ConfigChannel+0x25c>
 8001152:	fa93 f2a3 	rbit	r2, r3
 8001156:	fab2 f282 	clz	r2, r2
 800115a:	3201      	adds	r2, #1
 800115c:	0692      	lsls	r2, r2, #26
 800115e:	f002 42f8 	and.w	r2, r2, #2080374784	; 0x7c000000
 8001162:	fa93 f1a3 	rbit	r1, r3
 8001166:	fab1 f181 	clz	r1, r1
 800116a:	3101      	adds	r1, #1
 800116c:	f001 071f 	and.w	r7, r1, #31
 8001170:	2101      	movs	r1, #1
 8001172:	40b9      	lsls	r1, r7
 8001174:	e762      	b.n	800103c <HAL_ADC_ConfigChannel+0x118>
 8001176:	fa93 f3a3 	rbit	r3, r3
 800117a:	fab3 f383 	clz	r3, r3
 800117e:	e762      	b.n	8001046 <HAL_ADC_ConfigChannel+0x122>
 8001180:	fa93 f2a3 	rbit	r2, r3
 8001184:	fab2 f282 	clz	r2, r2
 8001188:	3201      	adds	r2, #1
 800118a:	0692      	lsls	r2, r2, #26
 800118c:	f002 42f8 	and.w	r2, r2, #2080374784	; 0x7c000000
 8001190:	fa93 f1a3 	rbit	r1, r3
 8001194:	fab1 f181 	clz	r1, r1
 8001198:	3101      	adds	r1, #1
 800119a:	f001 071f 	and.w	r7, r1, #31
 800119e:	2101      	movs	r1, #1
 80011a0:	40b9      	lsls	r1, r7
 80011a2:	430a      	orrs	r2, r1
 80011a4:	b95e      	cbnz	r6, 80011be <HAL_ADC_ConfigChannel+0x29a>
 80011a6:	0e9e      	lsrs	r6, r3, #26
 80011a8:	3601      	adds	r6, #1
 80011aa:	f006 061f 	and.w	r6, r6, #31
 80011ae:	eb06 0146 	add.w	r1, r6, r6, lsl #1
 80011b2:	391e      	subs	r1, #30
 80011b4:	0509      	lsls	r1, r1, #20
 80011b6:	f041 7100 	orr.w	r1, r1, #33554432	; 0x2000000
 80011ba:	4311      	orrs	r1, r2
 80011bc:	e74b      	b.n	8001056 <HAL_ADC_ConfigChannel+0x132>
 80011be:	fa93 f1a3 	rbit	r1, r3
 80011c2:	fab1 f181 	clz	r1, r1
 80011c6:	3101      	adds	r1, #1
 80011c8:	f001 031f 	and.w	r3, r1, #31
 80011cc:	f06f 061d 	mvn.w	r6, #29
 80011d0:	2103      	movs	r1, #3
 80011d2:	fb11 6103 	smlabb	r1, r1, r3, r6
 80011d6:	e7ed      	b.n	80011b4 <HAL_ADC_ConfigChannel+0x290>
 80011d8:	4b2f      	ldr	r3, [pc, #188]	; (8001298 <HAL_ADC_ConfigChannel+0x374>)
 80011da:	4a30      	ldr	r2, [pc, #192]	; (800129c <HAL_ADC_ConfigChannel+0x378>)
 80011dc:	6898      	ldr	r0, [r3, #8]
 80011de:	4291      	cmp	r1, r2
 80011e0:	f000 74e0 	and.w	r4, r0, #29360128	; 0x1c00000
 80011e4:	d11e      	bne.n	8001224 <HAL_ADC_ConfigChannel+0x300>
 80011e6:	0202      	lsls	r2, r0, #8
 80011e8:	f53f af3d 	bmi.w	8001066 <HAL_ADC_ConfigChannel+0x142>
 80011ec:	6829      	ldr	r1, [r5, #0]
 80011ee:	4a2c      	ldr	r2, [pc, #176]	; (80012a0 <HAL_ADC_ConfigChannel+0x37c>)
 80011f0:	4291      	cmp	r1, r2
 80011f2:	f47f af38 	bne.w	8001066 <HAL_ADC_ConfigChannel+0x142>
 80011f6:	689a      	ldr	r2, [r3, #8]
 80011f8:	f022 72e0 	bic.w	r2, r2, #29360128	; 0x1c00000
 80011fc:	4322      	orrs	r2, r4
 80011fe:	f442 0200 	orr.w	r2, r2, #8388608	; 0x800000
 8001202:	609a      	str	r2, [r3, #8]
 8001204:	4b27      	ldr	r3, [pc, #156]	; (80012a4 <HAL_ADC_ConfigChannel+0x380>)
 8001206:	4a28      	ldr	r2, [pc, #160]	; (80012a8 <HAL_ADC_ConfigChannel+0x384>)
 8001208:	681b      	ldr	r3, [r3, #0]
 800120a:	fbb3 f2f2 	udiv	r2, r3, r2
 800120e:	230c      	movs	r3, #12
 8001210:	fb02 3303 	mla	r3, r2, r3, r3
 8001214:	9301      	str	r3, [sp, #4]
 8001216:	9b01      	ldr	r3, [sp, #4]
 8001218:	2b00      	cmp	r3, #0
 800121a:	f43f af24 	beq.w	8001066 <HAL_ADC_ConfigChannel+0x142>
 800121e:	9b01      	ldr	r3, [sp, #4]
 8001220:	3b01      	subs	r3, #1
 8001222:	e7f7      	b.n	8001214 <HAL_ADC_ConfigChannel+0x2f0>
 8001224:	4a21      	ldr	r2, [pc, #132]	; (80012ac <HAL_ADC_ConfigChannel+0x388>)
 8001226:	4291      	cmp	r1, r2
 8001228:	d111      	bne.n	800124e <HAL_ADC_ConfigChannel+0x32a>
 800122a:	f010 7080 	ands.w	r0, r0, #16777216	; 0x1000000
 800122e:	f47f af1a 	bne.w	8001066 <HAL_ADC_ConfigChannel+0x142>
 8001232:	6829      	ldr	r1, [r5, #0]
 8001234:	f1a2 42f7 	sub.w	r2, r2, #2071986176	; 0x7b800000
 8001238:	4291      	cmp	r1, r2
 800123a:	f47f af14 	bne.w	8001066 <HAL_ADC_ConfigChannel+0x142>
 800123e:	689a      	ldr	r2, [r3, #8]
 8001240:	f022 72e0 	bic.w	r2, r2, #29360128	; 0x1c00000
 8001244:	4322      	orrs	r2, r4
 8001246:	f042 7280 	orr.w	r2, r2, #16777216	; 0x1000000
 800124a:	609a      	str	r2, [r3, #8]
 800124c:	e70c      	b.n	8001068 <HAL_ADC_ConfigChannel+0x144>
 800124e:	4a18      	ldr	r2, [pc, #96]	; (80012b0 <HAL_ADC_ConfigChannel+0x38c>)
 8001250:	4291      	cmp	r1, r2
 8001252:	f47f af08 	bne.w	8001066 <HAL_ADC_ConfigChannel+0x142>
 8001256:	f410 0080 	ands.w	r0, r0, #4194304	; 0x400000
 800125a:	f47f af04 	bne.w	8001066 <HAL_ADC_ConfigChannel+0x142>
 800125e:	6829      	ldr	r1, [r5, #0]
 8001260:	4a0f      	ldr	r2, [pc, #60]	; (80012a0 <HAL_ADC_ConfigChannel+0x37c>)
 8001262:	4291      	cmp	r1, r2
 8001264:	f47f aeff 	bne.w	8001066 <HAL_ADC_ConfigChannel+0x142>
 8001268:	689a      	ldr	r2, [r3, #8]
 800126a:	f022 72e0 	bic.w	r2, r2, #29360128	; 0x1c00000
 800126e:	4322      	orrs	r2, r4
 8001270:	f442 0280 	orr.w	r2, r2, #4194304	; 0x400000
 8001274:	e7e9      	b.n	800124a <HAL_ADC_ConfigChannel+0x326>
 8001276:	6daa      	ldr	r2, [r5, #88]	; 0x58
 8001278:	f042 0220 	orr.w	r2, r2, #32
 800127c:	65aa      	str	r2, [r5, #88]	; 0x58
 800127e:	4618      	mov	r0, r3
 8001280:	e6f2      	b.n	8001068 <HAL_ADC_ConfigChannel+0x144>
 8001282:	2002      	movs	r0, #2
 8001284:	e6f3      	b.n	800106e <HAL_ADC_ConfigChannel+0x14a>
 8001286:	bf00      	nop
 8001288:	03fff000 	.word	0x03fff000
 800128c:	0007ffff 	.word	0x0007ffff
 8001290:	407f0000 	.word	0x407f0000
 8001294:	80080000 	.word	0x80080000
 8001298:	50040300 	.word	0x50040300
 800129c:	c7520000 	.word	0xc7520000
 80012a0:	50040000 	.word	0x50040000
 80012a4:	20000000 	.word	0x20000000
 80012a8:	00030d40 	.word	0x00030d40
 80012ac:	cb840000 	.word	0xcb840000
 80012b0:	80000001 	.word	0x80000001

080012b4 <ADC_ConversionStop>:
 80012b4:	b570      	push	{r4, r5, r6, lr}
 80012b6:	4604      	mov	r4, r0
 80012b8:	6800      	ldr	r0, [r0, #0]
 80012ba:	f7ff fd06 	bl	8000cca <LL_ADC_REG_IsConversionOngoing>
 80012be:	6823      	ldr	r3, [r4, #0]
 80012c0:	689a      	ldr	r2, [r3, #8]
 80012c2:	f002 0208 	and.w	r2, r2, #8
 80012c6:	4302      	orrs	r2, r0
 80012c8:	d101      	bne.n	80012ce <ADC_ConversionStop+0x1a>
 80012ca:	2000      	movs	r0, #0
 80012cc:	bd70      	pop	{r4, r5, r6, pc}
 80012ce:	68da      	ldr	r2, [r3, #12]
 80012d0:	0190      	lsls	r0, r2, #6
 80012d2:	d52b      	bpl.n	800132c <ADC_ConversionStop+0x78>
 80012d4:	8b20      	ldrh	r0, [r4, #24]
 80012d6:	f240 1201 	movw	r2, #257	; 0x101
 80012da:	4290      	cmp	r0, r2
 80012dc:	d126      	bne.n	800132c <ADC_ConversionStop+0x78>
 80012de:	4a28      	ldr	r2, [pc, #160]	; (8001380 <ADC_ConversionStop+0xcc>)
 80012e0:	6819      	ldr	r1, [r3, #0]
 80012e2:	0649      	lsls	r1, r1, #25
 80012e4:	d516      	bpl.n	8001314 <ADC_ConversionStop+0x60>
 80012e6:	2240      	movs	r2, #64	; 0x40
 80012e8:	601a      	str	r2, [r3, #0]
 80012ea:	2101      	movs	r1, #1
 80012ec:	4618      	mov	r0, r3
 80012ee:	f7ff fcec 	bl	8000cca <LL_ADC_REG_IsConversionOngoing>
 80012f2:	b158      	cbz	r0, 800130c <ADC_ConversionStop+0x58>
 80012f4:	6822      	ldr	r2, [r4, #0]
 80012f6:	6893      	ldr	r3, [r2, #8]
 80012f8:	079e      	lsls	r6, r3, #30
 80012fa:	d407      	bmi.n	800130c <ADC_ConversionStop+0x58>
 80012fc:	6893      	ldr	r3, [r2, #8]
 80012fe:	f023 4300 	bic.w	r3, r3, #2147483648	; 0x80000000
 8001302:	f023 033f 	bic.w	r3, r3, #63	; 0x3f
 8001306:	f043 0310 	orr.w	r3, r3, #16
 800130a:	6093      	str	r3, [r2, #8]
 800130c:	2901      	cmp	r1, #1
 800130e:	d10f      	bne.n	8001330 <ADC_ConversionStop+0x7c>
 8001310:	2504      	movs	r5, #4
 8001312:	e022      	b.n	800135a <ADC_ConversionStop+0xa6>
 8001314:	3a01      	subs	r2, #1
 8001316:	d1e3      	bne.n	80012e0 <ADC_ConversionStop+0x2c>
 8001318:	6da3      	ldr	r3, [r4, #88]	; 0x58
 800131a:	f043 0310 	orr.w	r3, r3, #16
 800131e:	65a3      	str	r3, [r4, #88]	; 0x58
 8001320:	6de3      	ldr	r3, [r4, #92]	; 0x5c
 8001322:	f043 0301 	orr.w	r3, r3, #1
 8001326:	65e3      	str	r3, [r4, #92]	; 0x5c
 8001328:	2001      	movs	r0, #1
 800132a:	e7cf      	b.n	80012cc <ADC_ConversionStop+0x18>
 800132c:	2902      	cmp	r1, #2
 800132e:	d1dd      	bne.n	80012ec <ADC_ConversionStop+0x38>
 8001330:	6822      	ldr	r2, [r4, #0]
 8001332:	6893      	ldr	r3, [r2, #8]
 8001334:	0718      	lsls	r0, r3, #28
 8001336:	d50a      	bpl.n	800134e <ADC_ConversionStop+0x9a>
 8001338:	6893      	ldr	r3, [r2, #8]
 800133a:	079b      	lsls	r3, r3, #30
 800133c:	d407      	bmi.n	800134e <ADC_ConversionStop+0x9a>
 800133e:	6893      	ldr	r3, [r2, #8]
 8001340:	f023 4300 	bic.w	r3, r3, #2147483648	; 0x80000000
 8001344:	f023 033f 	bic.w	r3, r3, #63	; 0x3f
 8001348:	f043 0320 	orr.w	r3, r3, #32
 800134c:	6093      	str	r3, [r2, #8]
 800134e:	2902      	cmp	r1, #2
 8001350:	d014      	beq.n	800137c <ADC_ConversionStop+0xc8>
 8001352:	2903      	cmp	r1, #3
 8001354:	bf14      	ite	ne
 8001356:	2504      	movne	r5, #4
 8001358:	250c      	moveq	r5, #12
 800135a:	f7ff fc9f 	bl	8000c9c <HAL_GetTick>
 800135e:	4606      	mov	r6, r0
 8001360:	6823      	ldr	r3, [r4, #0]
 8001362:	689b      	ldr	r3, [r3, #8]
 8001364:	422b      	tst	r3, r5
 8001366:	d0b0      	beq.n	80012ca <ADC_ConversionStop+0x16>
 8001368:	f7ff fc98 	bl	8000c9c <HAL_GetTick>
 800136c:	1b80      	subs	r0, r0, r6
 800136e:	2805      	cmp	r0, #5
 8001370:	d9f6      	bls.n	8001360 <ADC_ConversionStop+0xac>
 8001372:	6823      	ldr	r3, [r4, #0]
 8001374:	689b      	ldr	r3, [r3, #8]
 8001376:	422b      	tst	r3, r5
 8001378:	d0f2      	beq.n	8001360 <ADC_ConversionStop+0xac>
 800137a:	e7cd      	b.n	8001318 <ADC_ConversionStop+0x64>
 800137c:	2508      	movs	r5, #8
 800137e:	e7ec      	b.n	800135a <ADC_ConversionStop+0xa6>
 8001380:	a3400001 	.word	0xa3400001

08001384 <ADC_Enable>:
 8001384:	b573      	push	{r0, r1, r4, r5, r6, lr}
 8001386:	2300      	movs	r3, #0
 8001388:	6802      	ldr	r2, [r0, #0]
 800138a:	9301      	str	r3, [sp, #4]
 800138c:	6893      	ldr	r3, [r2, #8]
 800138e:	07dd      	lsls	r5, r3, #31
 8001390:	4604      	mov	r4, r0
 8001392:	d502      	bpl.n	800139a <ADC_Enable+0x16>
 8001394:	2000      	movs	r0, #0
 8001396:	b002      	add	sp, #8
 8001398:	bd70      	pop	{r4, r5, r6, pc}
 800139a:	6891      	ldr	r1, [r2, #8]
 800139c:	4b20      	ldr	r3, [pc, #128]	; (8001420 <ADC_Enable+0x9c>)
 800139e:	4219      	tst	r1, r3
 80013a0:	d009      	beq.n	80013b6 <ADC_Enable+0x32>
 80013a2:	6da3      	ldr	r3, [r4, #88]	; 0x58
 80013a4:	f043 0310 	orr.w	r3, r3, #16
 80013a8:	65a3      	str	r3, [r4, #88]	; 0x58
 80013aa:	6de3      	ldr	r3, [r4, #92]	; 0x5c
 80013ac:	f043 0301 	orr.w	r3, r3, #1
 80013b0:	65e3      	str	r3, [r4, #92]	; 0x5c
 80013b2:	2001      	movs	r0, #1
 80013b4:	e7ef      	b.n	8001396 <ADC_Enable+0x12>
 80013b6:	6893      	ldr	r3, [r2, #8]
 80013b8:	f023 4300 	bic.w	r3, r3, #2147483648	; 0x80000000
 80013bc:	f023 033f 	bic.w	r3, r3, #63	; 0x3f
 80013c0:	f043 0301 	orr.w	r3, r3, #1
 80013c4:	6093      	str	r3, [r2, #8]
 80013c6:	4b17      	ldr	r3, [pc, #92]	; (8001424 <ADC_Enable+0xa0>)
 80013c8:	689b      	ldr	r3, [r3, #8]
 80013ca:	0218      	lsls	r0, r3, #8
 80013cc:	d419      	bmi.n	8001402 <ADC_Enable+0x7e>
 80013ce:	f7ff fc65 	bl	8000c9c <HAL_GetTick>
 80013d2:	4e15      	ldr	r6, [pc, #84]	; (8001428 <ADC_Enable+0xa4>)
 80013d4:	4605      	mov	r5, r0
 80013d6:	6822      	ldr	r2, [r4, #0]
 80013d8:	6813      	ldr	r3, [r2, #0]
 80013da:	07db      	lsls	r3, r3, #31
 80013dc:	d4da      	bmi.n	8001394 <ADC_Enable+0x10>
 80013de:	6893      	ldr	r3, [r2, #8]
 80013e0:	07d9      	lsls	r1, r3, #31
 80013e2:	bf5f      	itttt	pl
 80013e4:	6893      	ldrpl	r3, [r2, #8]
 80013e6:	4033      	andpl	r3, r6
 80013e8:	f043 0301 	orrpl.w	r3, r3, #1
 80013ec:	6093      	strpl	r3, [r2, #8]
 80013ee:	f7ff fc55 	bl	8000c9c <HAL_GetTick>
 80013f2:	1b40      	subs	r0, r0, r5
 80013f4:	2802      	cmp	r0, #2
 80013f6:	d9ee      	bls.n	80013d6 <ADC_Enable+0x52>
 80013f8:	6823      	ldr	r3, [r4, #0]
 80013fa:	681b      	ldr	r3, [r3, #0]
 80013fc:	07da      	lsls	r2, r3, #31
 80013fe:	d4ea      	bmi.n	80013d6 <ADC_Enable+0x52>
 8001400:	e7cf      	b.n	80013a2 <ADC_Enable+0x1e>
 8001402:	4b0a      	ldr	r3, [pc, #40]	; (800142c <ADC_Enable+0xa8>)
 8001404:	4a0a      	ldr	r2, [pc, #40]	; (8001430 <ADC_Enable+0xac>)
 8001406:	681b      	ldr	r3, [r3, #0]
 8001408:	fbb3 f2f2 	udiv	r2, r3, r2
 800140c:	230c      	movs	r3, #12
 800140e:	fb02 3303 	mla	r3, r2, r3, r3
 8001412:	9301      	str	r3, [sp, #4]
 8001414:	9b01      	ldr	r3, [sp, #4]
 8001416:	2b00      	cmp	r3, #0
 8001418:	d0d9      	beq.n	80013ce <ADC_Enable+0x4a>
 800141a:	9b01      	ldr	r3, [sp, #4]
 800141c:	3b01      	subs	r3, #1
 800141e:	e7f8      	b.n	8001412 <ADC_Enable+0x8e>
 8001420:	8000003f 	.word	0x8000003f
 8001424:	50040300 	.word	0x50040300
 8001428:	7fffffc0 	.word	0x7fffffc0
 800142c:	20000000 	.word	0x20000000
 8001430:	00030d40 	.word	0x00030d40

08001434 <HAL_ADC_Start>:
 8001434:	b538      	push	{r3, r4, r5, lr}
 8001436:	4604      	mov	r4, r0
 8001438:	6800      	ldr	r0, [r0, #0]
 800143a:	f7ff fc46 	bl	8000cca <LL_ADC_REG_IsConversionOngoing>
 800143e:	4605      	mov	r5, r0
 8001440:	2800      	cmp	r0, #0
 8001442:	d136      	bne.n	80014b2 <HAL_ADC_Start+0x7e>
 8001444:	f894 3054 	ldrb.w	r3, [r4, #84]	; 0x54
 8001448:	2b01      	cmp	r3, #1
 800144a:	d032      	beq.n	80014b2 <HAL_ADC_Start+0x7e>
 800144c:	2301      	movs	r3, #1
 800144e:	f884 3054 	strb.w	r3, [r4, #84]	; 0x54
 8001452:	4620      	mov	r0, r4
 8001454:	f7ff ff96 	bl	8001384 <ADC_Enable>
 8001458:	bb40      	cbnz	r0, 80014ac <HAL_ADC_Start+0x78>
 800145a:	6da3      	ldr	r3, [r4, #88]	; 0x58
 800145c:	f423 6370 	bic.w	r3, r3, #3840	; 0xf00
 8001460:	f023 0301 	bic.w	r3, r3, #1
 8001464:	f443 7380 	orr.w	r3, r3, #256	; 0x100
 8001468:	65a3      	str	r3, [r4, #88]	; 0x58
 800146a:	6da3      	ldr	r3, [r4, #88]	; 0x58
 800146c:	04da      	lsls	r2, r3, #19
 800146e:	bf48      	it	mi
 8001470:	6de3      	ldrmi	r3, [r4, #92]	; 0x5c
 8001472:	6822      	ldr	r2, [r4, #0]
 8001474:	bf52      	itee	pl
 8001476:	65e0      	strpl	r0, [r4, #92]	; 0x5c
 8001478:	f023 0306 	bicmi.w	r3, r3, #6
 800147c:	65e3      	strmi	r3, [r4, #92]	; 0x5c
 800147e:	231c      	movs	r3, #28
 8001480:	6013      	str	r3, [r2, #0]
 8001482:	2300      	movs	r3, #0
 8001484:	f884 3054 	strb.w	r3, [r4, #84]	; 0x54
 8001488:	68d3      	ldr	r3, [r2, #12]
 800148a:	019b      	lsls	r3, r3, #6
 800148c:	bf41      	itttt	mi
 800148e:	6da3      	ldrmi	r3, [r4, #88]	; 0x58
 8001490:	f423 5340 	bicmi.w	r3, r3, #12288	; 0x3000
 8001494:	f443 5380 	orrmi.w	r3, r3, #4096	; 0x1000
 8001498:	65a3      	strmi	r3, [r4, #88]	; 0x58
 800149a:	6893      	ldr	r3, [r2, #8]
 800149c:	f023 4300 	bic.w	r3, r3, #2147483648	; 0x80000000
 80014a0:	f023 033f 	bic.w	r3, r3, #63	; 0x3f
 80014a4:	f043 0304 	orr.w	r3, r3, #4
 80014a8:	6093      	str	r3, [r2, #8]
 80014aa:	bd38      	pop	{r3, r4, r5, pc}
 80014ac:	f884 5054 	strb.w	r5, [r4, #84]	; 0x54
 80014b0:	e7fb      	b.n	80014aa <HAL_ADC_Start+0x76>
 80014b2:	2002      	movs	r0, #2
 80014b4:	e7f9      	b.n	80014aa <HAL_ADC_Start+0x76>

080014b6 <ADC_Disable>:
 80014b6:	6802      	ldr	r2, [r0, #0]
 80014b8:	b538      	push	{r3, r4, r5, lr}
 80014ba:	6893      	ldr	r3, [r2, #8]
 80014bc:	6891      	ldr	r1, [r2, #8]
 80014be:	4604      	mov	r4, r0
 80014c0:	07c8      	lsls	r0, r1, #31
 80014c2:	d401      	bmi.n	80014c8 <ADC_Disable+0x12>
 80014c4:	2000      	movs	r0, #0
 80014c6:	bd38      	pop	{r3, r4, r5, pc}
 80014c8:	0799      	lsls	r1, r3, #30
 80014ca:	d4fb      	bmi.n	80014c4 <ADC_Disable+0xe>
 80014cc:	6893      	ldr	r3, [r2, #8]
 80014ce:	f003 030d 	and.w	r3, r3, #13
 80014d2:	2b01      	cmp	r3, #1
 80014d4:	d119      	bne.n	800150a <ADC_Disable+0x54>
 80014d6:	6893      	ldr	r3, [r2, #8]
 80014d8:	f023 4300 	bic.w	r3, r3, #2147483648	; 0x80000000
 80014dc:	f023 033f 	bic.w	r3, r3, #63	; 0x3f
 80014e0:	f043 0302 	orr.w	r3, r3, #2
 80014e4:	6093      	str	r3, [r2, #8]
 80014e6:	2303      	movs	r3, #3
 80014e8:	6013      	str	r3, [r2, #0]
 80014ea:	f7ff fbd7 	bl	8000c9c <HAL_GetTick>
 80014ee:	4605      	mov	r5, r0
 80014f0:	6823      	ldr	r3, [r4, #0]
 80014f2:	689b      	ldr	r3, [r3, #8]
 80014f4:	07db      	lsls	r3, r3, #31
 80014f6:	d5e5      	bpl.n	80014c4 <ADC_Disable+0xe>
 80014f8:	f7ff fbd0 	bl	8000c9c <HAL_GetTick>
 80014fc:	1b40      	subs	r0, r0, r5
 80014fe:	2802      	cmp	r0, #2
 8001500:	d9f6      	bls.n	80014f0 <ADC_Disable+0x3a>
 8001502:	6823      	ldr	r3, [r4, #0]
 8001504:	689b      	ldr	r3, [r3, #8]
 8001506:	07da      	lsls	r2, r3, #31
 8001508:	d5f2      	bpl.n	80014f0 <ADC_Disable+0x3a>
 800150a:	6da3      	ldr	r3, [r4, #88]	; 0x58
 800150c:	f043 0310 	orr.w	r3, r3, #16
 8001510:	65a3      	str	r3, [r4, #88]	; 0x58
 8001512:	6de3      	ldr	r3, [r4, #92]	; 0x5c
 8001514:	f043 0301 	orr.w	r3, r3, #1
 8001518:	65e3      	str	r3, [r4, #92]	; 0x5c
 800151a:	2001      	movs	r0, #1
 800151c:	e7d3      	b.n	80014c6 <ADC_Disable+0x10>

0800151e <HAL_ADC_Stop>:
 800151e:	b510      	push	{r4, lr}
 8001520:	f890 3054 	ldrb.w	r3, [r0, #84]	; 0x54
 8001524:	2b01      	cmp	r3, #1
 8001526:	4604      	mov	r4, r0
 8001528:	d016      	beq.n	8001558 <HAL_ADC_Stop+0x3a>
 800152a:	2301      	movs	r3, #1
 800152c:	f880 3054 	strb.w	r3, [r0, #84]	; 0x54
 8001530:	2103      	movs	r1, #3
 8001532:	f7ff febf 	bl	80012b4 <ADC_ConversionStop>
 8001536:	b958      	cbnz	r0, 8001550 <HAL_ADC_Stop+0x32>
 8001538:	4620      	mov	r0, r4
 800153a:	f7ff ffbc 	bl	80014b6 <ADC_Disable>
 800153e:	b938      	cbnz	r0, 8001550 <HAL_ADC_Stop+0x32>
 8001540:	6da3      	ldr	r3, [r4, #88]	; 0x58
 8001542:	f423 5388 	bic.w	r3, r3, #4352	; 0x1100
 8001546:	f023 0301 	bic.w	r3, r3, #1
 800154a:	f043 0301 	orr.w	r3, r3, #1
 800154e:	65a3      	str	r3, [r4, #88]	; 0x58
 8001550:	2300      	movs	r3, #0
 8001552:	f884 3054 	strb.w	r3, [r4, #84]	; 0x54
 8001556:	bd10      	pop	{r4, pc}
 8001558:	2002      	movs	r0, #2
 800155a:	e7fc      	b.n	8001556 <HAL_ADC_Stop+0x38>

0800155c <HAL_ADCEx_Calibration_Start>:
 800155c:	b573      	push	{r0, r1, r4, r5, r6, lr}
 800155e:	2300      	movs	r3, #0
 8001560:	9301      	str	r3, [sp, #4]
 8001562:	f890 3054 	ldrb.w	r3, [r0, #84]	; 0x54
 8001566:	2b01      	cmp	r3, #1
 8001568:	4604      	mov	r4, r0
 800156a:	460d      	mov	r5, r1
 800156c:	d03e      	beq.n	80015ec <HAL_ADCEx_Calibration_Start+0x90>
 800156e:	2301      	movs	r3, #1
 8001570:	f880 3054 	strb.w	r3, [r0, #84]	; 0x54
 8001574:	f7ff ff9f 	bl	80014b6 <ADC_Disable>
 8001578:	2800      	cmp	r0, #0
 800157a:	d133      	bne.n	80015e4 <HAL_ADCEx_Calibration_Start+0x88>
 800157c:	6da2      	ldr	r2, [r4, #88]	; 0x58
 800157e:	6826      	ldr	r6, [r4, #0]
 8001580:	f422 5288 	bic.w	r2, r2, #4352	; 0x1100
 8001584:	f022 0202 	bic.w	r2, r2, #2
 8001588:	f042 0202 	orr.w	r2, r2, #2
 800158c:	65a2      	str	r2, [r4, #88]	; 0x58
 800158e:	68b3      	ldr	r3, [r6, #8]
 8001590:	f023 4340 	bic.w	r3, r3, #3221225472	; 0xc0000000
 8001594:	f023 033f 	bic.w	r3, r3, #63	; 0x3f
 8001598:	f005 4580 	and.w	r5, r5, #1073741824	; 0x40000000
 800159c:	432b      	orrs	r3, r5
 800159e:	f043 4300 	orr.w	r3, r3, #2147483648	; 0x80000000
 80015a2:	60b3      	str	r3, [r6, #8]
 80015a4:	68b3      	ldr	r3, [r6, #8]
 80015a6:	2b00      	cmp	r3, #0
 80015a8:	da12      	bge.n	80015d0 <HAL_ADCEx_Calibration_Start+0x74>
 80015aa:	9b01      	ldr	r3, [sp, #4]
 80015ac:	3301      	adds	r3, #1
 80015ae:	9301      	str	r3, [sp, #4]
 80015b0:	9b01      	ldr	r3, [sp, #4]
 80015b2:	f5b3 2f91 	cmp.w	r3, #296960	; 0x48800
 80015b6:	d3f5      	bcc.n	80015a4 <HAL_ADCEx_Calibration_Start+0x48>
 80015b8:	6da3      	ldr	r3, [r4, #88]	; 0x58
 80015ba:	f023 0312 	bic.w	r3, r3, #18
 80015be:	f043 0310 	orr.w	r3, r3, #16
 80015c2:	65a3      	str	r3, [r4, #88]	; 0x58
 80015c4:	2300      	movs	r3, #0
 80015c6:	f884 3054 	strb.w	r3, [r4, #84]	; 0x54
 80015ca:	2001      	movs	r0, #1
 80015cc:	b002      	add	sp, #8
 80015ce:	bd70      	pop	{r4, r5, r6, pc}
 80015d0:	6da3      	ldr	r3, [r4, #88]	; 0x58
 80015d2:	f023 0303 	bic.w	r3, r3, #3
 80015d6:	f043 0301 	orr.w	r3, r3, #1
 80015da:	65a3      	str	r3, [r4, #88]	; 0x58
 80015dc:	2300      	movs	r3, #0
 80015de:	f884 3054 	strb.w	r3, [r4, #84]	; 0x54
 80015e2:	e7f3      	b.n	80015cc <HAL_ADCEx_Calibration_Start+0x70>
 80015e4:	6da3      	ldr	r3, [r4, #88]	; 0x58
 80015e6:	f043 0310 	orr.w	r3, r3, #16
 80015ea:	e7f6      	b.n	80015da <HAL_ADCEx_Calibration_Start+0x7e>
 80015ec:	2002      	movs	r0, #2
 80015ee:	e7ed      	b.n	80015cc <HAL_ADCEx_Calibration_Start+0x70>

080015f0 <HAL_CAN_Init>:
 80015f0:	b538      	push	{r3, r4, r5, lr}
 80015f2:	4604      	mov	r4, r0
 80015f4:	2800      	cmp	r0, #0
 80015f6:	d06e      	beq.n	80016d6 <HAL_CAN_Init+0xe6>
 80015f8:	f890 3020 	ldrb.w	r3, [r0, #32]
 80015fc:	b90b      	cbnz	r3, 8001602 <HAL_CAN_Init+0x12>
 80015fe:	f7fe fea5 	bl	800034c <HAL_CAN_MspInit>
 8001602:	6822      	ldr	r2, [r4, #0]
 8001604:	6813      	ldr	r3, [r2, #0]
 8001606:	f043 0301 	orr.w	r3, r3, #1
 800160a:	6013      	str	r3, [r2, #0]
 800160c:	f7ff fb46 	bl	8000c9c <HAL_GetTick>
 8001610:	4605      	mov	r5, r0
 8001612:	6823      	ldr	r3, [r4, #0]
 8001614:	685a      	ldr	r2, [r3, #4]
 8001616:	07d1      	lsls	r1, r2, #31
 8001618:	d551      	bpl.n	80016be <HAL_CAN_Init+0xce>
 800161a:	681a      	ldr	r2, [r3, #0]
 800161c:	f022 0202 	bic.w	r2, r2, #2
 8001620:	601a      	str	r2, [r3, #0]
 8001622:	f7ff fb3b 	bl	8000c9c <HAL_GetTick>
 8001626:	4605      	mov	r5, r0
 8001628:	6823      	ldr	r3, [r4, #0]
 800162a:	685a      	ldr	r2, [r3, #4]
 800162c:	0792      	lsls	r2, r2, #30
 800162e:	d454      	bmi.n	80016da <HAL_CAN_Init+0xea>
 8001630:	7e22      	ldrb	r2, [r4, #24]
 8001632:	2a01      	cmp	r2, #1
 8001634:	681a      	ldr	r2, [r3, #0]
 8001636:	bf0c      	ite	eq
 8001638:	f042 0280 	orreq.w	r2, r2, #128	; 0x80
 800163c:	f022 0280 	bicne.w	r2, r2, #128	; 0x80
 8001640:	601a      	str	r2, [r3, #0]
 8001642:	7e62      	ldrb	r2, [r4, #25]
 8001644:	2a01      	cmp	r2, #1
 8001646:	681a      	ldr	r2, [r3, #0]
 8001648:	bf0c      	ite	eq
 800164a:	f042 0240 	orreq.w	r2, r2, #64	; 0x40
 800164e:	f022 0240 	bicne.w	r2, r2, #64	; 0x40
 8001652:	601a      	str	r2, [r3, #0]
 8001654:	7ea2      	ldrb	r2, [r4, #26]
 8001656:	2a01      	cmp	r2, #1
 8001658:	681a      	ldr	r2, [r3, #0]
 800165a:	bf0c      	ite	eq
 800165c:	f042 0220 	orreq.w	r2, r2, #32
 8001660:	f022 0220 	bicne.w	r2, r2, #32
 8001664:	601a      	str	r2, [r3, #0]
 8001666:	7ee2      	ldrb	r2, [r4, #27]
 8001668:	2a01      	cmp	r2, #1
 800166a:	681a      	ldr	r2, [r3, #0]
 800166c:	bf0c      	ite	eq
 800166e:	f022 0210 	biceq.w	r2, r2, #16
 8001672:	f042 0210 	orrne.w	r2, r2, #16
 8001676:	601a      	str	r2, [r3, #0]
 8001678:	7f22      	ldrb	r2, [r4, #28]
 800167a:	2a01      	cmp	r2, #1
 800167c:	681a      	ldr	r2, [r3, #0]
 800167e:	bf0c      	ite	eq
 8001680:	f042 0208 	orreq.w	r2, r2, #8
 8001684:	f022 0208 	bicne.w	r2, r2, #8
 8001688:	601a      	str	r2, [r3, #0]
 800168a:	7f62      	ldrb	r2, [r4, #29]
 800168c:	2a01      	cmp	r2, #1
 800168e:	681a      	ldr	r2, [r3, #0]
 8001690:	bf0c      	ite	eq
 8001692:	f042 0204 	orreq.w	r2, r2, #4
 8001696:	f022 0204 	bicne.w	r2, r2, #4
 800169a:	601a      	str	r2, [r3, #0]
 800169c:	e9d4 2102 	ldrd	r2, r1, [r4, #8]
 80016a0:	430a      	orrs	r2, r1
 80016a2:	6921      	ldr	r1, [r4, #16]
 80016a4:	430a      	orrs	r2, r1
 80016a6:	6961      	ldr	r1, [r4, #20]
 80016a8:	430a      	orrs	r2, r1
 80016aa:	6861      	ldr	r1, [r4, #4]
 80016ac:	3901      	subs	r1, #1
 80016ae:	430a      	orrs	r2, r1
 80016b0:	61da      	str	r2, [r3, #28]
 80016b2:	2000      	movs	r0, #0
 80016b4:	2301      	movs	r3, #1
 80016b6:	6260      	str	r0, [r4, #36]	; 0x24
 80016b8:	f884 3020 	strb.w	r3, [r4, #32]
 80016bc:	bd38      	pop	{r3, r4, r5, pc}
 80016be:	f7ff faed 	bl	8000c9c <HAL_GetTick>
 80016c2:	1b40      	subs	r0, r0, r5
 80016c4:	280a      	cmp	r0, #10
 80016c6:	d9a4      	bls.n	8001612 <HAL_CAN_Init+0x22>
 80016c8:	6a63      	ldr	r3, [r4, #36]	; 0x24
 80016ca:	f443 3300 	orr.w	r3, r3, #131072	; 0x20000
 80016ce:	6263      	str	r3, [r4, #36]	; 0x24
 80016d0:	2305      	movs	r3, #5
 80016d2:	f884 3020 	strb.w	r3, [r4, #32]
 80016d6:	2001      	movs	r0, #1
 80016d8:	e7f0      	b.n	80016bc <HAL_CAN_Init+0xcc>
 80016da:	f7ff fadf 	bl	8000c9c <HAL_GetTick>
 80016de:	1b40      	subs	r0, r0, r5
 80016e0:	280a      	cmp	r0, #10
 80016e2:	d9a1      	bls.n	8001628 <HAL_CAN_Init+0x38>
 80016e4:	e7f0      	b.n	80016c8 <HAL_CAN_Init+0xd8>

080016e6 <HAL_CAN_ConfigFilter>:
 80016e6:	b570      	push	{r4, r5, r6, lr}
 80016e8:	f890 3020 	ldrb.w	r3, [r0, #32]
 80016ec:	3b01      	subs	r3, #1
 80016ee:	2b01      	cmp	r3, #1
 80016f0:	d862      	bhi.n	80017b8 <HAL_CAN_ConfigFilter+0xd2>
 80016f2:	6803      	ldr	r3, [r0, #0]
 80016f4:	f8d3 2200 	ldr.w	r2, [r3, #512]	; 0x200
 80016f8:	f042 0201 	orr.w	r2, r2, #1
 80016fc:	f8c3 2200 	str.w	r2, [r3, #512]	; 0x200
 8001700:	694a      	ldr	r2, [r1, #20]
 8001702:	f8d3 521c 	ldr.w	r5, [r3, #540]	; 0x21c
 8001706:	2401      	movs	r4, #1
 8001708:	f002 001f 	and.w	r0, r2, #31
 800170c:	fa04 f000 	lsl.w	r0, r4, r0
 8001710:	ea25 0500 	bic.w	r5, r5, r0
 8001714:	f8c3 521c 	str.w	r5, [r3, #540]	; 0x21c
 8001718:	69cd      	ldr	r5, [r1, #28]
 800171a:	43c4      	mvns	r4, r0
 800171c:	bb85      	cbnz	r5, 8001780 <HAL_CAN_ConfigFilter+0x9a>
 800171e:	f8d3 520c 	ldr.w	r5, [r3, #524]	; 0x20c
 8001722:	68ce      	ldr	r6, [r1, #12]
 8001724:	4025      	ands	r5, r4
 8001726:	f8c3 520c 	str.w	r5, [r3, #524]	; 0x20c
 800172a:	888d      	ldrh	r5, [r1, #4]
 800172c:	eb03 02c2 	add.w	r2, r3, r2, lsl #3
 8001730:	ea45 4506 	orr.w	r5, r5, r6, lsl #16
 8001734:	f8c2 5240 	str.w	r5, [r2, #576]	; 0x240
 8001738:	688e      	ldr	r6, [r1, #8]
 800173a:	880d      	ldrh	r5, [r1, #0]
 800173c:	ea45 4506 	orr.w	r5, r5, r6, lsl #16
 8001740:	f8c2 5244 	str.w	r5, [r2, #580]	; 0x244
 8001744:	698a      	ldr	r2, [r1, #24]
 8001746:	bb6a      	cbnz	r2, 80017a4 <HAL_CAN_ConfigFilter+0xbe>
 8001748:	f8d3 2204 	ldr.w	r2, [r3, #516]	; 0x204
 800174c:	4022      	ands	r2, r4
 800174e:	f8c3 2204 	str.w	r2, [r3, #516]	; 0x204
 8001752:	690a      	ldr	r2, [r1, #16]
 8001754:	bb52      	cbnz	r2, 80017ac <HAL_CAN_ConfigFilter+0xc6>
 8001756:	f8d3 2214 	ldr.w	r2, [r3, #532]	; 0x214
 800175a:	4014      	ands	r4, r2
 800175c:	f8c3 4214 	str.w	r4, [r3, #532]	; 0x214
 8001760:	6a0a      	ldr	r2, [r1, #32]
 8001762:	2a01      	cmp	r2, #1
 8001764:	bf02      	ittt	eq
 8001766:	f8d3 221c 	ldreq.w	r2, [r3, #540]	; 0x21c
 800176a:	4310      	orreq	r0, r2
 800176c:	f8c3 021c 	streq.w	r0, [r3, #540]	; 0x21c
 8001770:	f8d3 2200 	ldr.w	r2, [r3, #512]	; 0x200
 8001774:	f022 0201 	bic.w	r2, r2, #1
 8001778:	f8c3 2200 	str.w	r2, [r3, #512]	; 0x200
 800177c:	2000      	movs	r0, #0
 800177e:	bd70      	pop	{r4, r5, r6, pc}
 8001780:	2d01      	cmp	r5, #1
 8001782:	d1df      	bne.n	8001744 <HAL_CAN_ConfigFilter+0x5e>
 8001784:	f8d3 520c 	ldr.w	r5, [r3, #524]	; 0x20c
 8001788:	680e      	ldr	r6, [r1, #0]
 800178a:	4305      	orrs	r5, r0
 800178c:	f8c3 520c 	str.w	r5, [r3, #524]	; 0x20c
 8001790:	888d      	ldrh	r5, [r1, #4]
 8001792:	eb03 02c2 	add.w	r2, r3, r2, lsl #3
 8001796:	ea45 4506 	orr.w	r5, r5, r6, lsl #16
 800179a:	f8c2 5240 	str.w	r5, [r2, #576]	; 0x240
 800179e:	688e      	ldr	r6, [r1, #8]
 80017a0:	898d      	ldrh	r5, [r1, #12]
 80017a2:	e7cb      	b.n	800173c <HAL_CAN_ConfigFilter+0x56>
 80017a4:	f8d3 2204 	ldr.w	r2, [r3, #516]	; 0x204
 80017a8:	4302      	orrs	r2, r0
 80017aa:	e7d0      	b.n	800174e <HAL_CAN_ConfigFilter+0x68>
 80017ac:	f8d3 2214 	ldr.w	r2, [r3, #532]	; 0x214
 80017b0:	4302      	orrs	r2, r0
 80017b2:	f8c3 2214 	str.w	r2, [r3, #532]	; 0x214
 80017b6:	e7d3      	b.n	8001760 <HAL_CAN_ConfigFilter+0x7a>
 80017b8:	6a43      	ldr	r3, [r0, #36]	; 0x24
 80017ba:	f443 2380 	orr.w	r3, r3, #262144	; 0x40000
 80017be:	6243      	str	r3, [r0, #36]	; 0x24
 80017c0:	2001      	movs	r0, #1
 80017c2:	e7dc      	b.n	800177e <HAL_CAN_ConfigFilter+0x98>

080017c4 <HAL_CAN_Start>:
 80017c4:	b570      	push	{r4, r5, r6, lr}
 80017c6:	f890 3020 	ldrb.w	r3, [r0, #32]
 80017ca:	2b01      	cmp	r3, #1
 80017cc:	4604      	mov	r4, r0
 80017ce:	b2dd      	uxtb	r5, r3
 80017d0:	d120      	bne.n	8001814 <HAL_CAN_Start+0x50>
 80017d2:	6802      	ldr	r2, [r0, #0]
 80017d4:	2302      	movs	r3, #2
 80017d6:	f880 3020 	strb.w	r3, [r0, #32]
 80017da:	6813      	ldr	r3, [r2, #0]
 80017dc:	f023 0301 	bic.w	r3, r3, #1
 80017e0:	6013      	str	r3, [r2, #0]
 80017e2:	f7ff fa5b 	bl	8000c9c <HAL_GetTick>
 80017e6:	4606      	mov	r6, r0
 80017e8:	6823      	ldr	r3, [r4, #0]
 80017ea:	685b      	ldr	r3, [r3, #4]
 80017ec:	f013 0301 	ands.w	r3, r3, #1
 80017f0:	d102      	bne.n	80017f8 <HAL_CAN_Start+0x34>
 80017f2:	6263      	str	r3, [r4, #36]	; 0x24
 80017f4:	461d      	mov	r5, r3
 80017f6:	e00b      	b.n	8001810 <HAL_CAN_Start+0x4c>
 80017f8:	f7ff fa50 	bl	8000c9c <HAL_GetTick>
 80017fc:	1b80      	subs	r0, r0, r6
 80017fe:	280a      	cmp	r0, #10
 8001800:	d9f2      	bls.n	80017e8 <HAL_CAN_Start+0x24>
 8001802:	6a63      	ldr	r3, [r4, #36]	; 0x24
 8001804:	f443 3300 	orr.w	r3, r3, #131072	; 0x20000
 8001808:	6263      	str	r3, [r4, #36]	; 0x24
 800180a:	2305      	movs	r3, #5
 800180c:	f884 3020 	strb.w	r3, [r4, #32]
 8001810:	4628      	mov	r0, r5
 8001812:	bd70      	pop	{r4, r5, r6, pc}
 8001814:	6a43      	ldr	r3, [r0, #36]	; 0x24
 8001816:	f443 2300 	orr.w	r3, r3, #524288	; 0x80000
 800181a:	6243      	str	r3, [r0, #36]	; 0x24
 800181c:	2501      	movs	r5, #1
 800181e:	e7f7      	b.n	8001810 <HAL_CAN_Start+0x4c>

08001820 <HAL_CAN_AddTxMessage>:
 8001820:	b5f0      	push	{r4, r5, r6, r7, lr}
 8001822:	f890 5020 	ldrb.w	r5, [r0, #32]
 8001826:	6806      	ldr	r6, [r0, #0]
 8001828:	3d01      	subs	r5, #1
 800182a:	2d01      	cmp	r5, #1
 800182c:	68b4      	ldr	r4, [r6, #8]
 800182e:	d83d      	bhi.n	80018ac <HAL_CAN_AddTxMessage+0x8c>
 8001830:	f014 5fe0 	tst.w	r4, #469762048	; 0x1c000000
 8001834:	f04f 0501 	mov.w	r5, #1
 8001838:	d032      	beq.n	80018a0 <HAL_CAN_AddTxMessage+0x80>
 800183a:	f3c4 6401 	ubfx	r4, r4, #24, #2
 800183e:	40a5      	lsls	r5, r4
 8001840:	601d      	str	r5, [r3, #0]
 8001842:	e9d1 0702 	ldrd	r0, r7, [r1, #8]
 8001846:	f104 0318 	add.w	r3, r4, #24
 800184a:	bb20      	cbnz	r0, 8001896 <HAL_CAN_AddTxMessage+0x76>
 800184c:	6808      	ldr	r0, [r1, #0]
 800184e:	ea47 5040 	orr.w	r0, r7, r0, lsl #21
 8001852:	011b      	lsls	r3, r3, #4
 8001854:	50f0      	str	r0, [r6, r3]
 8001856:	eb06 1304 	add.w	r3, r6, r4, lsl #4
 800185a:	690d      	ldr	r5, [r1, #16]
 800185c:	f8c3 5184 	str.w	r5, [r3, #388]	; 0x184
 8001860:	7d09      	ldrb	r1, [r1, #20]
 8001862:	2901      	cmp	r1, #1
 8001864:	bf08      	it	eq
 8001866:	f8d3 1184 	ldreq.w	r1, [r3, #388]	; 0x184
 800186a:	ea4f 1004 	mov.w	r0, r4, lsl #4
 800186e:	bf04      	itt	eq
 8001870:	f441 7180 	orreq.w	r1, r1, #256	; 0x100
 8001874:	f8c3 1184 	streq.w	r1, [r3, #388]	; 0x184
 8001878:	4406      	add	r6, r0
 800187a:	6851      	ldr	r1, [r2, #4]
 800187c:	f8c6 118c 	str.w	r1, [r6, #396]	; 0x18c
 8001880:	6812      	ldr	r2, [r2, #0]
 8001882:	f8c6 2188 	str.w	r2, [r6, #392]	; 0x188
 8001886:	f8d3 2180 	ldr.w	r2, [r3, #384]	; 0x180
 800188a:	f042 0201 	orr.w	r2, r2, #1
 800188e:	f8c3 2180 	str.w	r2, [r3, #384]	; 0x180
 8001892:	2000      	movs	r0, #0
 8001894:	bdf0      	pop	{r4, r5, r6, r7, pc}
 8001896:	684d      	ldr	r5, [r1, #4]
 8001898:	4338      	orrs	r0, r7
 800189a:	ea40 00c5 	orr.w	r0, r0, r5, lsl #3
 800189e:	e7d8      	b.n	8001852 <HAL_CAN_AddTxMessage+0x32>
 80018a0:	6a43      	ldr	r3, [r0, #36]	; 0x24
 80018a2:	f443 1300 	orr.w	r3, r3, #2097152	; 0x200000
 80018a6:	6243      	str	r3, [r0, #36]	; 0x24
 80018a8:	2001      	movs	r0, #1
 80018aa:	e7f3      	b.n	8001894 <HAL_CAN_AddTxMessage+0x74>
 80018ac:	6a43      	ldr	r3, [r0, #36]	; 0x24
 80018ae:	f443 2380 	orr.w	r3, r3, #262144	; 0x40000
 80018b2:	e7f8      	b.n	80018a6 <HAL_CAN_AddTxMessage+0x86>

080018b4 <HAL_CAN_GetRxMessage>:
 80018b4:	b5f0      	push	{r4, r5, r6, r7, lr}
 80018b6:	f890 4020 	ldrb.w	r4, [r0, #32]
 80018ba:	3c01      	subs	r4, #1
 80018bc:	2c01      	cmp	r4, #1
 80018be:	d86c      	bhi.n	800199a <HAL_CAN_GetRxMessage+0xe6>
 80018c0:	6806      	ldr	r6, [r0, #0]
 80018c2:	b941      	cbnz	r1, 80018d6 <HAL_CAN_GetRxMessage+0x22>
 80018c4:	68f4      	ldr	r4, [r6, #12]
 80018c6:	07a4      	lsls	r4, r4, #30
 80018c8:	d107      	bne.n	80018da <HAL_CAN_GetRxMessage+0x26>
 80018ca:	6a43      	ldr	r3, [r0, #36]	; 0x24
 80018cc:	f443 1300 	orr.w	r3, r3, #2097152	; 0x200000
 80018d0:	6243      	str	r3, [r0, #36]	; 0x24
 80018d2:	2001      	movs	r0, #1
 80018d4:	e056      	b.n	8001984 <HAL_CAN_GetRxMessage+0xd0>
 80018d6:	6934      	ldr	r4, [r6, #16]
 80018d8:	e7f5      	b.n	80018c6 <HAL_CAN_GetRxMessage+0x12>
 80018da:	eb06 1501 	add.w	r5, r6, r1, lsl #4
 80018de:	010c      	lsls	r4, r1, #4
 80018e0:	f8d5 71b0 	ldr.w	r7, [r5, #432]	; 0x1b0
 80018e4:	f007 0704 	and.w	r7, r7, #4
 80018e8:	6097      	str	r7, [r2, #8]
 80018ea:	2f00      	cmp	r7, #0
 80018ec:	d14b      	bne.n	8001986 <HAL_CAN_GetRxMessage+0xd2>
 80018ee:	f8d5 71b0 	ldr.w	r7, [r5, #432]	; 0x1b0
 80018f2:	0d7f      	lsrs	r7, r7, #21
 80018f4:	6017      	str	r7, [r2, #0]
 80018f6:	f8d5 71b0 	ldr.w	r7, [r5, #432]	; 0x1b0
 80018fa:	f007 0702 	and.w	r7, r7, #2
 80018fe:	60d7      	str	r7, [r2, #12]
 8001900:	f8d5 71b4 	ldr.w	r7, [r5, #436]	; 0x1b4
 8001904:	f007 070f 	and.w	r7, r7, #15
 8001908:	6117      	str	r7, [r2, #16]
 800190a:	f8d5 71b4 	ldr.w	r7, [r5, #436]	; 0x1b4
 800190e:	f8d5 51b4 	ldr.w	r5, [r5, #436]	; 0x1b4
 8001912:	4426      	add	r6, r4
 8001914:	f3c7 2707 	ubfx	r7, r7, #8, #8
 8001918:	0c2d      	lsrs	r5, r5, #16
 800191a:	6197      	str	r7, [r2, #24]
 800191c:	6155      	str	r5, [r2, #20]
 800191e:	f8d6 21b8 	ldr.w	r2, [r6, #440]	; 0x1b8
 8001922:	701a      	strb	r2, [r3, #0]
 8001924:	6802      	ldr	r2, [r0, #0]
 8001926:	4422      	add	r2, r4
 8001928:	f8d2 21b8 	ldr.w	r2, [r2, #440]	; 0x1b8
 800192c:	0a12      	lsrs	r2, r2, #8
 800192e:	705a      	strb	r2, [r3, #1]
 8001930:	6802      	ldr	r2, [r0, #0]
 8001932:	4422      	add	r2, r4
 8001934:	f8d2 21b8 	ldr.w	r2, [r2, #440]	; 0x1b8
 8001938:	0c12      	lsrs	r2, r2, #16
 800193a:	709a      	strb	r2, [r3, #2]
 800193c:	6802      	ldr	r2, [r0, #0]
 800193e:	4422      	add	r2, r4
 8001940:	f8d2 21b8 	ldr.w	r2, [r2, #440]	; 0x1b8
 8001944:	0e12      	lsrs	r2, r2, #24
 8001946:	70da      	strb	r2, [r3, #3]
 8001948:	6802      	ldr	r2, [r0, #0]
 800194a:	4422      	add	r2, r4
 800194c:	f8d2 21bc 	ldr.w	r2, [r2, #444]	; 0x1bc
 8001950:	711a      	strb	r2, [r3, #4]
 8001952:	6802      	ldr	r2, [r0, #0]
 8001954:	4422      	add	r2, r4
 8001956:	f8d2 21bc 	ldr.w	r2, [r2, #444]	; 0x1bc
 800195a:	0a12      	lsrs	r2, r2, #8
 800195c:	715a      	strb	r2, [r3, #5]
 800195e:	6802      	ldr	r2, [r0, #0]
 8001960:	4422      	add	r2, r4
 8001962:	f8d2 21bc 	ldr.w	r2, [r2, #444]	; 0x1bc
 8001966:	0c12      	lsrs	r2, r2, #16
 8001968:	719a      	strb	r2, [r3, #6]
 800196a:	6802      	ldr	r2, [r0, #0]
 800196c:	4422      	add	r2, r4
 800196e:	f8d2 21bc 	ldr.w	r2, [r2, #444]	; 0x1bc
 8001972:	0e12      	lsrs	r2, r2, #24
 8001974:	71da      	strb	r2, [r3, #7]
 8001976:	6803      	ldr	r3, [r0, #0]
 8001978:	b951      	cbnz	r1, 8001990 <HAL_CAN_GetRxMessage+0xdc>
 800197a:	68da      	ldr	r2, [r3, #12]
 800197c:	f042 0220 	orr.w	r2, r2, #32
 8001980:	60da      	str	r2, [r3, #12]
 8001982:	2000      	movs	r0, #0
 8001984:	bdf0      	pop	{r4, r5, r6, r7, pc}
 8001986:	f8d5 71b0 	ldr.w	r7, [r5, #432]	; 0x1b0
 800198a:	08ff      	lsrs	r7, r7, #3
 800198c:	6057      	str	r7, [r2, #4]
 800198e:	e7b2      	b.n	80018f6 <HAL_CAN_GetRxMessage+0x42>
 8001990:	691a      	ldr	r2, [r3, #16]
 8001992:	f042 0220 	orr.w	r2, r2, #32
 8001996:	611a      	str	r2, [r3, #16]
 8001998:	e7f3      	b.n	8001982 <HAL_CAN_GetRxMessage+0xce>
 800199a:	6a43      	ldr	r3, [r0, #36]	; 0x24
 800199c:	f443 2380 	orr.w	r3, r3, #262144	; 0x40000
 80019a0:	e796      	b.n	80018d0 <HAL_CAN_GetRxMessage+0x1c>

080019a2 <HAL_CAN_ActivateNotification>:
 80019a2:	f890 3020 	ldrb.w	r3, [r0, #32]
 80019a6:	3b01      	subs	r3, #1
 80019a8:	2b01      	cmp	r3, #1
 80019aa:	d805      	bhi.n	80019b8 <HAL_CAN_ActivateNotification+0x16>
 80019ac:	6802      	ldr	r2, [r0, #0]
 80019ae:	6953      	ldr	r3, [r2, #20]
 80019b0:	4319      	orrs	r1, r3
 80019b2:	6151      	str	r1, [r2, #20]
 80019b4:	2000      	movs	r0, #0
 80019b6:	4770      	bx	lr
 80019b8:	6a43      	ldr	r3, [r0, #36]	; 0x24
 80019ba:	f443 2380 	orr.w	r3, r3, #262144	; 0x40000
 80019be:	6243      	str	r3, [r0, #36]	; 0x24
 80019c0:	2001      	movs	r0, #1
 80019c2:	4770      	bx	lr

080019c4 <HAL_CAN_TxMailbox0CompleteCallback>:
 80019c4:	4770      	bx	lr

080019c6 <HAL_CAN_TxMailbox1CompleteCallback>:
 80019c6:	4770      	bx	lr

080019c8 <HAL_CAN_TxMailbox2CompleteCallback>:
 80019c8:	4770      	bx	lr

080019ca <HAL_CAN_TxMailbox0AbortCallback>:
 80019ca:	4770      	bx	lr

080019cc <HAL_CAN_TxMailbox1AbortCallback>:
 80019cc:	4770      	bx	lr

080019ce <HAL_CAN_TxMailbox2AbortCallback>:
 80019ce:	4770      	bx	lr

080019d0 <HAL_CAN_RxFifo0FullCallback>:
 80019d0:	4770      	bx	lr

080019d2 <HAL_CAN_RxFifo1MsgPendingCallback>:
 80019d2:	4770      	bx	lr

080019d4 <HAL_CAN_RxFifo1FullCallback>:
 80019d4:	4770      	bx	lr

080019d6 <HAL_CAN_SleepCallback>:
 80019d6:	4770      	bx	lr

080019d8 <HAL_CAN_WakeUpFromRxMsgCallback>:
 80019d8:	4770      	bx	lr

080019da <HAL_CAN_ErrorCallback>:
 80019da:	4770      	bx	lr

080019dc <HAL_CAN_IRQHandler>:
 80019dc:	e92d 4ff8 	stmdb	sp!, {r3, r4, r5, r6, r7, r8, r9, sl, fp, lr}
 80019e0:	6803      	ldr	r3, [r0, #0]
 80019e2:	695e      	ldr	r6, [r3, #20]
 80019e4:	f8d3 9004 	ldr.w	r9, [r3, #4]
 80019e8:	689f      	ldr	r7, [r3, #8]
 80019ea:	f8d3 b00c 	ldr.w	fp, [r3, #12]
 80019ee:	f8d3 a010 	ldr.w	sl, [r3, #16]
 80019f2:	f8d3 8018 	ldr.w	r8, [r3, #24]
 80019f6:	f016 0401 	ands.w	r4, r6, #1
 80019fa:	4605      	mov	r5, r0
 80019fc:	d022      	beq.n	8001a44 <HAL_CAN_IRQHandler+0x68>
 80019fe:	f017 0401 	ands.w	r4, r7, #1
 8001a02:	d007      	beq.n	8001a14 <HAL_CAN_IRQHandler+0x38>
 8001a04:	2201      	movs	r2, #1
 8001a06:	07b9      	lsls	r1, r7, #30
 8001a08:	609a      	str	r2, [r3, #8]
 8001a0a:	f140 80a5 	bpl.w	8001b58 <HAL_CAN_IRQHandler+0x17c>
 8001a0e:	f7ff ffd9 	bl	80019c4 <HAL_CAN_TxMailbox0CompleteCallback>
 8001a12:	2400      	movs	r4, #0
 8001a14:	05fb      	lsls	r3, r7, #23
 8001a16:	d509      	bpl.n	8001a2c <HAL_CAN_IRQHandler+0x50>
 8001a18:	682b      	ldr	r3, [r5, #0]
 8001a1a:	f44f 7280 	mov.w	r2, #256	; 0x100
 8001a1e:	05b8      	lsls	r0, r7, #22
 8001a20:	609a      	str	r2, [r3, #8]
 8001a22:	f140 80a7 	bpl.w	8001b74 <HAL_CAN_IRQHandler+0x198>
 8001a26:	4628      	mov	r0, r5
 8001a28:	f7ff ffcd 	bl	80019c6 <HAL_CAN_TxMailbox1CompleteCallback>
 8001a2c:	03fb      	lsls	r3, r7, #15
 8001a2e:	d509      	bpl.n	8001a44 <HAL_CAN_IRQHandler+0x68>
 8001a30:	682b      	ldr	r3, [r5, #0]
 8001a32:	f44f 3280 	mov.w	r2, #65536	; 0x10000
 8001a36:	03b8      	lsls	r0, r7, #14
 8001a38:	609a      	str	r2, [r3, #8]
 8001a3a:	f140 80a9 	bpl.w	8001b90 <HAL_CAN_IRQHandler+0x1b4>
 8001a3e:	4628      	mov	r0, r5
 8001a40:	f7ff ffc2 	bl	80019c8 <HAL_CAN_TxMailbox2CompleteCallback>
 8001a44:	0733      	lsls	r3, r6, #28
 8001a46:	d507      	bpl.n	8001a58 <HAL_CAN_IRQHandler+0x7c>
 8001a48:	f01b 0f10 	tst.w	fp, #16
 8001a4c:	bf1f      	itttt	ne
 8001a4e:	682b      	ldrne	r3, [r5, #0]
 8001a50:	2210      	movne	r2, #16
 8001a52:	f444 7400 	orrne.w	r4, r4, #512	; 0x200
 8001a56:	60da      	strne	r2, [r3, #12]
 8001a58:	0777      	lsls	r7, r6, #29
 8001a5a:	d508      	bpl.n	8001a6e <HAL_CAN_IRQHandler+0x92>
 8001a5c:	f01b 0f08 	tst.w	fp, #8
 8001a60:	d005      	beq.n	8001a6e <HAL_CAN_IRQHandler+0x92>
 8001a62:	682b      	ldr	r3, [r5, #0]
 8001a64:	2208      	movs	r2, #8
 8001a66:	60da      	str	r2, [r3, #12]
 8001a68:	4628      	mov	r0, r5
 8001a6a:	f7ff ffb1 	bl	80019d0 <HAL_CAN_RxFifo0FullCallback>
 8001a6e:	07b0      	lsls	r0, r6, #30
 8001a70:	d506      	bpl.n	8001a80 <HAL_CAN_IRQHandler+0xa4>
 8001a72:	682b      	ldr	r3, [r5, #0]
 8001a74:	68db      	ldr	r3, [r3, #12]
 8001a76:	0799      	lsls	r1, r3, #30
 8001a78:	d002      	beq.n	8001a80 <HAL_CAN_IRQHandler+0xa4>
 8001a7a:	4628      	mov	r0, r5
 8001a7c:	f7fe febc 	bl	80007f8 <HAL_CAN_RxFifo0MsgPendingCallback>
 8001a80:	0672      	lsls	r2, r6, #25
 8001a82:	d507      	bpl.n	8001a94 <HAL_CAN_IRQHandler+0xb8>
 8001a84:	f01a 0f10 	tst.w	sl, #16
 8001a88:	bf1f      	itttt	ne
 8001a8a:	682b      	ldrne	r3, [r5, #0]
 8001a8c:	2210      	movne	r2, #16
 8001a8e:	f444 6480 	orrne.w	r4, r4, #1024	; 0x400
 8001a92:	611a      	strne	r2, [r3, #16]
 8001a94:	06b3      	lsls	r3, r6, #26
 8001a96:	d508      	bpl.n	8001aaa <HAL_CAN_IRQHandler+0xce>
 8001a98:	f01a 0f08 	tst.w	sl, #8
 8001a9c:	d005      	beq.n	8001aaa <HAL_CAN_IRQHandler+0xce>
 8001a9e:	682b      	ldr	r3, [r5, #0]
 8001aa0:	2208      	movs	r2, #8
 8001aa2:	611a      	str	r2, [r3, #16]
 8001aa4:	4628      	mov	r0, r5
 8001aa6:	f7ff ff95 	bl	80019d4 <HAL_CAN_RxFifo1FullCallback>
 8001aaa:	06f7      	lsls	r7, r6, #27
 8001aac:	d506      	bpl.n	8001abc <HAL_CAN_IRQHandler+0xe0>
 8001aae:	682b      	ldr	r3, [r5, #0]
 8001ab0:	691b      	ldr	r3, [r3, #16]
 8001ab2:	0798      	lsls	r0, r3, #30
 8001ab4:	d002      	beq.n	8001abc <HAL_CAN_IRQHandler+0xe0>
 8001ab6:	4628      	mov	r0, r5
 8001ab8:	f7ff ff8b 	bl	80019d2 <HAL_CAN_RxFifo1MsgPendingCallback>
 8001abc:	03b1      	lsls	r1, r6, #14
 8001abe:	d508      	bpl.n	8001ad2 <HAL_CAN_IRQHandler+0xf6>
 8001ac0:	f019 0f10 	tst.w	r9, #16
 8001ac4:	d005      	beq.n	8001ad2 <HAL_CAN_IRQHandler+0xf6>
 8001ac6:	682b      	ldr	r3, [r5, #0]
 8001ac8:	2210      	movs	r2, #16
 8001aca:	605a      	str	r2, [r3, #4]
 8001acc:	4628      	mov	r0, r5
 8001ace:	f7ff ff82 	bl	80019d6 <HAL_CAN_SleepCallback>
 8001ad2:	03f2      	lsls	r2, r6, #15
 8001ad4:	d508      	bpl.n	8001ae8 <HAL_CAN_IRQHandler+0x10c>
 8001ad6:	f019 0f08 	tst.w	r9, #8
 8001ada:	d005      	beq.n	8001ae8 <HAL_CAN_IRQHandler+0x10c>
 8001adc:	682b      	ldr	r3, [r5, #0]
 8001ade:	2208      	movs	r2, #8
 8001ae0:	605a      	str	r2, [r3, #4]
 8001ae2:	4628      	mov	r0, r5
 8001ae4:	f7ff ff78 	bl	80019d8 <HAL_CAN_WakeUpFromRxMsgCallback>
 8001ae8:	0433      	lsls	r3, r6, #16
 8001aea:	d52c      	bpl.n	8001b46 <HAL_CAN_IRQHandler+0x16a>
 8001aec:	f019 0f04 	tst.w	r9, #4
 8001af0:	682a      	ldr	r2, [r5, #0]
 8001af2:	d026      	beq.n	8001b42 <HAL_CAN_IRQHandler+0x166>
 8001af4:	05f7      	lsls	r7, r6, #23
 8001af6:	d504      	bpl.n	8001b02 <HAL_CAN_IRQHandler+0x126>
 8001af8:	f018 0f01 	tst.w	r8, #1
 8001afc:	bf18      	it	ne
 8001afe:	f044 0401 	orrne.w	r4, r4, #1
 8001b02:	05b0      	lsls	r0, r6, #22
 8001b04:	d504      	bpl.n	8001b10 <HAL_CAN_IRQHandler+0x134>
 8001b06:	f018 0f02 	tst.w	r8, #2
 8001b0a:	bf18      	it	ne
 8001b0c:	f044 0402 	orrne.w	r4, r4, #2
 8001b10:	0571      	lsls	r1, r6, #21
 8001b12:	d504      	bpl.n	8001b1e <HAL_CAN_IRQHandler+0x142>
 8001b14:	f018 0f04 	tst.w	r8, #4
 8001b18:	bf18      	it	ne
 8001b1a:	f044 0404 	orrne.w	r4, r4, #4
 8001b1e:	0533      	lsls	r3, r6, #20
 8001b20:	d50f      	bpl.n	8001b42 <HAL_CAN_IRQHandler+0x166>
 8001b22:	f018 0370 	ands.w	r3, r8, #112	; 0x70
 8001b26:	d00c      	beq.n	8001b42 <HAL_CAN_IRQHandler+0x166>
 8001b28:	2b40      	cmp	r3, #64	; 0x40
 8001b2a:	d04f      	beq.n	8001bcc <HAL_CAN_IRQHandler+0x1f0>
 8001b2c:	d83e      	bhi.n	8001bac <HAL_CAN_IRQHandler+0x1d0>
 8001b2e:	2b20      	cmp	r3, #32
 8001b30:	d046      	beq.n	8001bc0 <HAL_CAN_IRQHandler+0x1e4>
 8001b32:	2b30      	cmp	r3, #48	; 0x30
 8001b34:	d047      	beq.n	8001bc6 <HAL_CAN_IRQHandler+0x1ea>
 8001b36:	2b10      	cmp	r3, #16
 8001b38:	d03f      	beq.n	8001bba <HAL_CAN_IRQHandler+0x1de>
 8001b3a:	6993      	ldr	r3, [r2, #24]
 8001b3c:	f023 0370 	bic.w	r3, r3, #112	; 0x70
 8001b40:	6193      	str	r3, [r2, #24]
 8001b42:	2304      	movs	r3, #4
 8001b44:	6053      	str	r3, [r2, #4]
 8001b46:	b12c      	cbz	r4, 8001b54 <HAL_CAN_IRQHandler+0x178>
 8001b48:	6a6b      	ldr	r3, [r5, #36]	; 0x24
 8001b4a:	431c      	orrs	r4, r3
 8001b4c:	626c      	str	r4, [r5, #36]	; 0x24
 8001b4e:	4628      	mov	r0, r5
 8001b50:	f7ff ff43 	bl	80019da <HAL_CAN_ErrorCallback>
 8001b54:	e8bd 8ff8 	ldmia.w	sp!, {r3, r4, r5, r6, r7, r8, r9, sl, fp, pc}
 8001b58:	077a      	lsls	r2, r7, #29
 8001b5a:	d405      	bmi.n	8001b68 <HAL_CAN_IRQHandler+0x18c>
 8001b5c:	f017 0408 	ands.w	r4, r7, #8
 8001b60:	d105      	bne.n	8001b6e <HAL_CAN_IRQHandler+0x192>
 8001b62:	f7ff ff32 	bl	80019ca <HAL_CAN_TxMailbox0AbortCallback>
 8001b66:	e755      	b.n	8001a14 <HAL_CAN_IRQHandler+0x38>
 8001b68:	f44f 6400 	mov.w	r4, #2048	; 0x800
 8001b6c:	e752      	b.n	8001a14 <HAL_CAN_IRQHandler+0x38>
 8001b6e:	f44f 5480 	mov.w	r4, #4096	; 0x1000
 8001b72:	e74f      	b.n	8001a14 <HAL_CAN_IRQHandler+0x38>
 8001b74:	0579      	lsls	r1, r7, #21
 8001b76:	d502      	bpl.n	8001b7e <HAL_CAN_IRQHandler+0x1a2>
 8001b78:	f444 5400 	orr.w	r4, r4, #8192	; 0x2000
 8001b7c:	e756      	b.n	8001a2c <HAL_CAN_IRQHandler+0x50>
 8001b7e:	053a      	lsls	r2, r7, #20
 8001b80:	d502      	bpl.n	8001b88 <HAL_CAN_IRQHandler+0x1ac>
 8001b82:	f444 4480 	orr.w	r4, r4, #16384	; 0x4000
 8001b86:	e751      	b.n	8001a2c <HAL_CAN_IRQHandler+0x50>
 8001b88:	4628      	mov	r0, r5
 8001b8a:	f7ff ff1f 	bl	80019cc <HAL_CAN_TxMailbox1AbortCallback>
 8001b8e:	e74d      	b.n	8001a2c <HAL_CAN_IRQHandler+0x50>
 8001b90:	0379      	lsls	r1, r7, #13
 8001b92:	d502      	bpl.n	8001b9a <HAL_CAN_IRQHandler+0x1be>
 8001b94:	f444 4400 	orr.w	r4, r4, #32768	; 0x8000
 8001b98:	e754      	b.n	8001a44 <HAL_CAN_IRQHandler+0x68>
 8001b9a:	033a      	lsls	r2, r7, #12
 8001b9c:	d502      	bpl.n	8001ba4 <HAL_CAN_IRQHandler+0x1c8>
 8001b9e:	f444 3480 	orr.w	r4, r4, #65536	; 0x10000
 8001ba2:	e74f      	b.n	8001a44 <HAL_CAN_IRQHandler+0x68>
 8001ba4:	4628      	mov	r0, r5
 8001ba6:	f7ff ff12 	bl	80019ce <HAL_CAN_TxMailbox2AbortCallback>
 8001baa:	e74b      	b.n	8001a44 <HAL_CAN_IRQHandler+0x68>
 8001bac:	2b50      	cmp	r3, #80	; 0x50
 8001bae:	d010      	beq.n	8001bd2 <HAL_CAN_IRQHandler+0x1f6>
 8001bb0:	2b60      	cmp	r3, #96	; 0x60
 8001bb2:	d1c2      	bne.n	8001b3a <HAL_CAN_IRQHandler+0x15e>
 8001bb4:	f444 7480 	orr.w	r4, r4, #256	; 0x100
 8001bb8:	e7bf      	b.n	8001b3a <HAL_CAN_IRQHandler+0x15e>
 8001bba:	f044 0408 	orr.w	r4, r4, #8
 8001bbe:	e7bc      	b.n	8001b3a <HAL_CAN_IRQHandler+0x15e>
 8001bc0:	f044 0410 	orr.w	r4, r4, #16
 8001bc4:	e7b9      	b.n	8001b3a <HAL_CAN_IRQHandler+0x15e>
 8001bc6:	f044 0420 	orr.w	r4, r4, #32
 8001bca:	e7b6      	b.n	8001b3a <HAL_CAN_IRQHandler+0x15e>
 8001bcc:	f044 0440 	orr.w	r4, r4, #64	; 0x40
 8001bd0:	e7b3      	b.n	8001b3a <HAL_CAN_IRQHandler+0x15e>
 8001bd2:	f044 0480 	orr.w	r4, r4, #128	; 0x80
 8001bd6:	e7b0      	b.n	8001b3a <HAL_CAN_IRQHandler+0x15e>

08001bd8 <HAL_NVIC_SetPriorityGrouping>:
 8001bd8:	4907      	ldr	r1, [pc, #28]	; (8001bf8 <HAL_NVIC_SetPriorityGrouping+0x20>)
 8001bda:	68ca      	ldr	r2, [r1, #12]
 8001bdc:	f422 62e0 	bic.w	r2, r2, #1792	; 0x700
 8001be0:	0203      	lsls	r3, r0, #8
 8001be2:	0412      	lsls	r2, r2, #16
 8001be4:	f403 63e0 	and.w	r3, r3, #1792	; 0x700
 8001be8:	0c12      	lsrs	r2, r2, #16
 8001bea:	4313      	orrs	r3, r2
 8001bec:	f043 63bf 	orr.w	r3, r3, #100139008	; 0x5f80000
 8001bf0:	f443 3300 	orr.w	r3, r3, #131072	; 0x20000
 8001bf4:	60cb      	str	r3, [r1, #12]
 8001bf6:	4770      	bx	lr
 8001bf8:	e000ed00 	.word	0xe000ed00

08001bfc <HAL_NVIC_SetPriority>:
 8001bfc:	4b16      	ldr	r3, [pc, #88]	; (8001c58 <HAL_NVIC_SetPriority+0x5c>)
 8001bfe:	b530      	push	{r4, r5, lr}
 8001c00:	68dc      	ldr	r4, [r3, #12]
 8001c02:	f3c4 2402 	ubfx	r4, r4, #8, #3
 8001c06:	f1c4 0507 	rsb	r5, r4, #7
 8001c0a:	1d23      	adds	r3, r4, #4
 8001c0c:	2d04      	cmp	r5, #4
 8001c0e:	bf28      	it	cs
 8001c10:	2504      	movcs	r5, #4
 8001c12:	2b06      	cmp	r3, #6
 8001c14:	f04f 33ff 	mov.w	r3, #4294967295
 8001c18:	bf8c      	ite	hi
 8001c1a:	3c03      	subhi	r4, #3
 8001c1c:	2400      	movls	r4, #0
 8001c1e:	fa03 f505 	lsl.w	r5, r3, r5
 8001c22:	ea21 0105 	bic.w	r1, r1, r5
 8001c26:	40a3      	lsls	r3, r4
 8001c28:	ea22 0203 	bic.w	r2, r2, r3
 8001c2c:	40a1      	lsls	r1, r4
 8001c2e:	2800      	cmp	r0, #0
 8001c30:	ea41 0302 	orr.w	r3, r1, r2
 8001c34:	bfac      	ite	ge
 8001c36:	f100 4060 	addge.w	r0, r0, #3758096384	; 0xe0000000
 8001c3a:	4a08      	ldrlt	r2, [pc, #32]	; (8001c5c <HAL_NVIC_SetPriority+0x60>)
 8001c3c:	ea4f 1303 	mov.w	r3, r3, lsl #4
 8001c40:	bfb8      	it	lt
 8001c42:	f000 000f 	andlt.w	r0, r0, #15
 8001c46:	b2db      	uxtb	r3, r3
 8001c48:	bfaa      	itet	ge
 8001c4a:	f500 4061 	addge.w	r0, r0, #57600	; 0xe100
 8001c4e:	5413      	strblt	r3, [r2, r0]
 8001c50:	f880 3300 	strbge.w	r3, [r0, #768]	; 0x300
 8001c54:	bd30      	pop	{r4, r5, pc}
 8001c56:	bf00      	nop
 8001c58:	e000ed00 	.word	0xe000ed00
 8001c5c:	e000ed14 	.word	0xe000ed14

08001c60 <HAL_NVIC_EnableIRQ>:
 8001c60:	2800      	cmp	r0, #0
 8001c62:	db08      	blt.n	8001c76 <HAL_NVIC_EnableIRQ+0x16>
 8001c64:	2301      	movs	r3, #1
 8001c66:	0942      	lsrs	r2, r0, #5
 8001c68:	f000 001f 	and.w	r0, r0, #31
 8001c6c:	fa03 f000 	lsl.w	r0, r3, r0
 8001c70:	4b01      	ldr	r3, [pc, #4]	; (8001c78 <HAL_NVIC_EnableIRQ+0x18>)
 8001c72:	f843 0022 	str.w	r0, [r3, r2, lsl #2]
 8001c76:	4770      	bx	lr
 8001c78:	e000e100 	.word	0xe000e100

08001c7c <HAL_SYSTICK_Config>:
 8001c7c:	3801      	subs	r0, #1
 8001c7e:	f1b0 7f80 	cmp.w	r0, #16777216	; 0x1000000
 8001c82:	d20b      	bcs.n	8001c9c <HAL_SYSTICK_Config+0x20>
 8001c84:	f04f 23e0 	mov.w	r3, #3758153728	; 0xe000e000
 8001c88:	4a05      	ldr	r2, [pc, #20]	; (8001ca0 <HAL_SYSTICK_Config+0x24>)
 8001c8a:	6158      	str	r0, [r3, #20]
 8001c8c:	21f0      	movs	r1, #240	; 0xf0
 8001c8e:	f882 1023 	strb.w	r1, [r2, #35]	; 0x23
 8001c92:	2000      	movs	r0, #0
 8001c94:	2207      	movs	r2, #7
 8001c96:	6198      	str	r0, [r3, #24]
 8001c98:	611a      	str	r2, [r3, #16]
 8001c9a:	4770      	bx	lr
 8001c9c:	2001      	movs	r0, #1
 8001c9e:	4770      	bx	lr
 8001ca0:	e000ed00 	.word	0xe000ed00

08001ca4 <HAL_GPIO_Init>:
 8001ca4:	e92d 4ff7 	stmdb	sp!, {r0, r1, r2, r4, r5, r6, r7, r8, r9, sl, fp, lr}
 8001ca8:	f8df 917c 	ldr.w	r9, [pc, #380]	; 8001e28 <HAL_GPIO_Init+0x184>
 8001cac:	4c5c      	ldr	r4, [pc, #368]	; (8001e20 <HAL_GPIO_Init+0x17c>)
 8001cae:	2300      	movs	r3, #0
 8001cb0:	680a      	ldr	r2, [r1, #0]
 8001cb2:	fa32 f503 	lsrs.w	r5, r2, r3
 8001cb6:	d102      	bne.n	8001cbe <HAL_GPIO_Init+0x1a>
 8001cb8:	b003      	add	sp, #12
 8001cba:	e8bd 8ff0 	ldmia.w	sp!, {r4, r5, r6, r7, r8, r9, sl, fp, pc}
 8001cbe:	2501      	movs	r5, #1
 8001cc0:	fa05 fe03 	lsl.w	lr, r5, r3
 8001cc4:	ea1e 0202 	ands.w	r2, lr, r2
 8001cc8:	f000 80a0 	beq.w	8001e0c <HAL_GPIO_Init+0x168>
 8001ccc:	684e      	ldr	r6, [r1, #4]
 8001cce:	2703      	movs	r7, #3
 8001cd0:	f006 0503 	and.w	r5, r6, #3
 8001cd4:	ea4f 0843 	mov.w	r8, r3, lsl #1
 8001cd8:	fa07 fc08 	lsl.w	ip, r7, r8
 8001cdc:	1e6f      	subs	r7, r5, #1
 8001cde:	2f01      	cmp	r7, #1
 8001ce0:	ea6f 0c0c 	mvn.w	ip, ip
 8001ce4:	d834      	bhi.n	8001d50 <HAL_GPIO_Init+0xac>
 8001ce6:	6887      	ldr	r7, [r0, #8]
 8001ce8:	ea07 0a0c 	and.w	sl, r7, ip
 8001cec:	68cf      	ldr	r7, [r1, #12]
 8001cee:	fa07 f708 	lsl.w	r7, r7, r8
 8001cf2:	ea47 070a 	orr.w	r7, r7, sl
 8001cf6:	6087      	str	r7, [r0, #8]
 8001cf8:	6847      	ldr	r7, [r0, #4]
 8001cfa:	ea27 0e0e 	bic.w	lr, r7, lr
 8001cfe:	f3c6 1700 	ubfx	r7, r6, #4, #1
 8001d02:	409f      	lsls	r7, r3
 8001d04:	ea47 070e 	orr.w	r7, r7, lr
 8001d08:	6047      	str	r7, [r0, #4]
 8001d0a:	68c7      	ldr	r7, [r0, #12]
 8001d0c:	ea07 0e0c 	and.w	lr, r7, ip
 8001d10:	688f      	ldr	r7, [r1, #8]
 8001d12:	fa07 f708 	lsl.w	r7, r7, r8
 8001d16:	ea47 070e 	orr.w	r7, r7, lr
 8001d1a:	2d02      	cmp	r5, #2
 8001d1c:	60c7      	str	r7, [r0, #12]
 8001d1e:	d119      	bne.n	8001d54 <HAL_GPIO_Init+0xb0>
 8001d20:	ea4f 0ad3 	mov.w	sl, r3, lsr #3
 8001d24:	eb00 0a8a 	add.w	sl, r0, sl, lsl #2
 8001d28:	f003 0b07 	and.w	fp, r3, #7
 8001d2c:	f8da 7020 	ldr.w	r7, [sl, #32]
 8001d30:	ea4f 0b8b 	mov.w	fp, fp, lsl #2
 8001d34:	f04f 0e0f 	mov.w	lr, #15
 8001d38:	fa0e fe0b 	lsl.w	lr, lr, fp
 8001d3c:	ea27 0e0e 	bic.w	lr, r7, lr
 8001d40:	690f      	ldr	r7, [r1, #16]
 8001d42:	fa07 f70b 	lsl.w	r7, r7, fp
 8001d46:	ea47 070e 	orr.w	r7, r7, lr
 8001d4a:	f8ca 7020 	str.w	r7, [sl, #32]
 8001d4e:	e001      	b.n	8001d54 <HAL_GPIO_Init+0xb0>
 8001d50:	2d03      	cmp	r5, #3
 8001d52:	d1da      	bne.n	8001d0a <HAL_GPIO_Init+0x66>
 8001d54:	6807      	ldr	r7, [r0, #0]
 8001d56:	fa05 f508 	lsl.w	r5, r5, r8
 8001d5a:	ea07 070c 	and.w	r7, r7, ip
 8001d5e:	432f      	orrs	r7, r5
 8001d60:	f416 3f40 	tst.w	r6, #196608	; 0x30000
 8001d64:	6007      	str	r7, [r0, #0]
 8001d66:	d051      	beq.n	8001e0c <HAL_GPIO_Init+0x168>
 8001d68:	f8d9 5060 	ldr.w	r5, [r9, #96]	; 0x60
 8001d6c:	f045 0501 	orr.w	r5, r5, #1
 8001d70:	f8c9 5060 	str.w	r5, [r9, #96]	; 0x60
 8001d74:	f8d9 5060 	ldr.w	r5, [r9, #96]	; 0x60
 8001d78:	f023 0703 	bic.w	r7, r3, #3
 8001d7c:	f107 4780 	add.w	r7, r7, #1073741824	; 0x40000000
 8001d80:	f005 0501 	and.w	r5, r5, #1
 8001d84:	f507 3780 	add.w	r7, r7, #65536	; 0x10000
 8001d88:	9501      	str	r5, [sp, #4]
 8001d8a:	f003 0e03 	and.w	lr, r3, #3
 8001d8e:	9d01      	ldr	r5, [sp, #4]
 8001d90:	68bd      	ldr	r5, [r7, #8]
 8001d92:	ea4f 0e8e 	mov.w	lr, lr, lsl #2
 8001d96:	f04f 0c0f 	mov.w	ip, #15
 8001d9a:	fa0c fc0e 	lsl.w	ip, ip, lr
 8001d9e:	f1b0 4f90 	cmp.w	r0, #1207959552	; 0x48000000
 8001da2:	ea25 0c0c 	bic.w	ip, r5, ip
 8001da6:	d033      	beq.n	8001e10 <HAL_GPIO_Init+0x16c>
 8001da8:	4d1e      	ldr	r5, [pc, #120]	; (8001e24 <HAL_GPIO_Init+0x180>)
 8001daa:	42a8      	cmp	r0, r5
 8001dac:	d032      	beq.n	8001e14 <HAL_GPIO_Init+0x170>
 8001dae:	f505 6580 	add.w	r5, r5, #1024	; 0x400
 8001db2:	42a8      	cmp	r0, r5
 8001db4:	d030      	beq.n	8001e18 <HAL_GPIO_Init+0x174>
 8001db6:	f505 6580 	add.w	r5, r5, #1024	; 0x400
 8001dba:	42a8      	cmp	r0, r5
 8001dbc:	d02e      	beq.n	8001e1c <HAL_GPIO_Init+0x178>
 8001dbe:	f505 6580 	add.w	r5, r5, #1024	; 0x400
 8001dc2:	42a8      	cmp	r0, r5
 8001dc4:	bf0c      	ite	eq
 8001dc6:	2504      	moveq	r5, #4
 8001dc8:	2507      	movne	r5, #7
 8001dca:	fa05 f50e 	lsl.w	r5, r5, lr
 8001dce:	ea45 050c 	orr.w	r5, r5, ip
 8001dd2:	60bd      	str	r5, [r7, #8]
 8001dd4:	68a5      	ldr	r5, [r4, #8]
 8001dd6:	43d7      	mvns	r7, r2
 8001dd8:	f416 1f80 	tst.w	r6, #1048576	; 0x100000
 8001ddc:	bf0c      	ite	eq
 8001dde:	403d      	andeq	r5, r7
 8001de0:	4315      	orrne	r5, r2
 8001de2:	60a5      	str	r5, [r4, #8]
 8001de4:	68e5      	ldr	r5, [r4, #12]
 8001de6:	f416 1f00 	tst.w	r6, #2097152	; 0x200000
 8001dea:	bf0c      	ite	eq
 8001dec:	403d      	andeq	r5, r7
 8001dee:	4315      	orrne	r5, r2
 8001df0:	60e5      	str	r5, [r4, #12]
 8001df2:	6865      	ldr	r5, [r4, #4]
 8001df4:	f416 3f00 	tst.w	r6, #131072	; 0x20000
 8001df8:	bf0c      	ite	eq
 8001dfa:	403d      	andeq	r5, r7
 8001dfc:	4315      	orrne	r5, r2
 8001dfe:	6065      	str	r5, [r4, #4]
 8001e00:	6825      	ldr	r5, [r4, #0]
 8001e02:	03f6      	lsls	r6, r6, #15
 8001e04:	bf54      	ite	pl
 8001e06:	403d      	andpl	r5, r7
 8001e08:	4315      	orrmi	r5, r2
 8001e0a:	6025      	str	r5, [r4, #0]
 8001e0c:	3301      	adds	r3, #1
 8001e0e:	e74f      	b.n	8001cb0 <HAL_GPIO_Init+0xc>
 8001e10:	2500      	movs	r5, #0
 8001e12:	e7da      	b.n	8001dca <HAL_GPIO_Init+0x126>
 8001e14:	2501      	movs	r5, #1
 8001e16:	e7d8      	b.n	8001dca <HAL_GPIO_Init+0x126>
 8001e18:	2502      	movs	r5, #2
 8001e1a:	e7d6      	b.n	8001dca <HAL_GPIO_Init+0x126>
 8001e1c:	2503      	movs	r5, #3
 8001e1e:	e7d4      	b.n	8001dca <HAL_GPIO_Init+0x126>
 8001e20:	40010400 	.word	0x40010400
 8001e24:	48000400 	.word	0x48000400
 8001e28:	40021000 	.word	0x40021000

08001e2c <HAL_GPIO_WritePin>:
 8001e2c:	b10a      	cbz	r2, 8001e32 <HAL_GPIO_WritePin+0x6>
 8001e2e:	6181      	str	r1, [r0, #24]
 8001e30:	4770      	bx	lr
 8001e32:	6281      	str	r1, [r0, #40]	; 0x28
 8001e34:	4770      	bx	lr

08001e36 <HAL_GPIO_TogglePin>:
 8001e36:	6943      	ldr	r3, [r0, #20]
 8001e38:	ea01 0203 	and.w	r2, r1, r3
 8001e3c:	ea21 0103 	bic.w	r1, r1, r3
 8001e40:	ea41 4102 	orr.w	r1, r1, r2, lsl #16
 8001e44:	6181      	str	r1, [r0, #24]
 8001e46:	4770      	bx	lr

08001e48 <I2C_Flush_TXDR>:
 8001e48:	6803      	ldr	r3, [r0, #0]
 8001e4a:	699a      	ldr	r2, [r3, #24]
 8001e4c:	0791      	lsls	r1, r2, #30
 8001e4e:	bf44      	itt	mi
 8001e50:	2200      	movmi	r2, #0
 8001e52:	629a      	strmi	r2, [r3, #40]	; 0x28
 8001e54:	699a      	ldr	r2, [r3, #24]
 8001e56:	07d2      	lsls	r2, r2, #31
 8001e58:	bf5e      	ittt	pl
 8001e5a:	699a      	ldrpl	r2, [r3, #24]
 8001e5c:	f042 0201 	orrpl.w	r2, r2, #1
 8001e60:	619a      	strpl	r2, [r3, #24]
 8001e62:	4770      	bx	lr

08001e64 <I2C_TransferConfig>:
 8001e64:	b530      	push	{r4, r5, lr}
 8001e66:	9d03      	ldr	r5, [sp, #12]
 8001e68:	6804      	ldr	r4, [r0, #0]
 8001e6a:	432b      	orrs	r3, r5
 8001e6c:	ea43 4302 	orr.w	r3, r3, r2, lsl #16
 8001e70:	4a06      	ldr	r2, [pc, #24]	; (8001e8c <I2C_TransferConfig+0x28>)
 8001e72:	6860      	ldr	r0, [r4, #4]
 8001e74:	f3c1 0109 	ubfx	r1, r1, #0, #10
 8001e78:	430b      	orrs	r3, r1
 8001e7a:	ea42 5255 	orr.w	r2, r2, r5, lsr #21
 8001e7e:	f023 4300 	bic.w	r3, r3, #2147483648	; 0x80000000
 8001e82:	ea20 0002 	bic.w	r0, r0, r2
 8001e86:	4303      	orrs	r3, r0
 8001e88:	6063      	str	r3, [r4, #4]
 8001e8a:	bd30      	pop	{r4, r5, pc}
 8001e8c:	03ff63ff 	.word	0x03ff63ff

08001e90 <I2C_IsErrorOccurred>:
 8001e90:	e92d 43f8 	stmdb	sp!, {r3, r4, r5, r6, r7, r8, r9, lr}
 8001e94:	6803      	ldr	r3, [r0, #0]
 8001e96:	699c      	ldr	r4, [r3, #24]
 8001e98:	f014 0410 	ands.w	r4, r4, #16
 8001e9c:	4605      	mov	r5, r0
 8001e9e:	4688      	mov	r8, r1
 8001ea0:	4617      	mov	r7, r2
 8001ea2:	d079      	beq.n	8001f98 <I2C_IsErrorOccurred+0x108>
 8001ea4:	2210      	movs	r2, #16
 8001ea6:	61da      	str	r2, [r3, #28]
 8001ea8:	2600      	movs	r6, #0
 8001eaa:	f04f 0920 	mov.w	r9, #32
 8001eae:	682b      	ldr	r3, [r5, #0]
 8001eb0:	699a      	ldr	r2, [r3, #24]
 8001eb2:	0694      	lsls	r4, r2, #26
 8001eb4:	d436      	bmi.n	8001f24 <I2C_IsErrorOccurred+0x94>
 8001eb6:	b10e      	cbz	r6, 8001ebc <I2C_IsErrorOccurred+0x2c>
 8001eb8:	2404      	movs	r4, #4
 8001eba:	e039      	b.n	8001f30 <I2C_IsErrorOccurred+0xa0>
 8001ebc:	f1b8 3fff 	cmp.w	r8, #4294967295
 8001ec0:	d0f6      	beq.n	8001eb0 <I2C_IsErrorOccurred+0x20>
 8001ec2:	f7fe feeb 	bl	8000c9c <HAL_GetTick>
 8001ec6:	1bc0      	subs	r0, r0, r7
 8001ec8:	4540      	cmp	r0, r8
 8001eca:	d802      	bhi.n	8001ed2 <I2C_IsErrorOccurred+0x42>
 8001ecc:	f1b8 0f00 	cmp.w	r8, #0
 8001ed0:	d1ed      	bne.n	8001eae <I2C_IsErrorOccurred+0x1e>
 8001ed2:	682b      	ldr	r3, [r5, #0]
 8001ed4:	6859      	ldr	r1, [r3, #4]
 8001ed6:	f895 2042 	ldrb.w	r2, [r5, #66]	; 0x42
 8001eda:	6998      	ldr	r0, [r3, #24]
 8001edc:	0400      	lsls	r0, r0, #16
 8001ede:	b2d2      	uxtb	r2, r2
 8001ee0:	d50a      	bpl.n	8001ef8 <I2C_IsErrorOccurred+0x68>
 8001ee2:	0449      	lsls	r1, r1, #17
 8001ee4:	d408      	bmi.n	8001ef8 <I2C_IsErrorOccurred+0x68>
 8001ee6:	2a20      	cmp	r2, #32
 8001ee8:	d006      	beq.n	8001ef8 <I2C_IsErrorOccurred+0x68>
 8001eea:	685a      	ldr	r2, [r3, #4]
 8001eec:	f442 4280 	orr.w	r2, r2, #16384	; 0x4000
 8001ef0:	605a      	str	r2, [r3, #4]
 8001ef2:	f7fe fed3 	bl	8000c9c <HAL_GetTick>
 8001ef6:	4607      	mov	r7, r0
 8001ef8:	682b      	ldr	r3, [r5, #0]
 8001efa:	699c      	ldr	r4, [r3, #24]
 8001efc:	f014 0420 	ands.w	r4, r4, #32
 8001f00:	d1d5      	bne.n	8001eae <I2C_IsErrorOccurred+0x1e>
 8001f02:	f7fe fecb 	bl	8000c9c <HAL_GetTick>
 8001f06:	1bc0      	subs	r0, r0, r7
 8001f08:	2819      	cmp	r0, #25
 8001f0a:	d9f5      	bls.n	8001ef8 <I2C_IsErrorOccurred+0x68>
 8001f0c:	6c6b      	ldr	r3, [r5, #68]	; 0x44
 8001f0e:	f885 4040 	strb.w	r4, [r5, #64]	; 0x40
 8001f12:	f043 0320 	orr.w	r3, r3, #32
 8001f16:	646b      	str	r3, [r5, #68]	; 0x44
 8001f18:	2601      	movs	r6, #1
 8001f1a:	f885 9041 	strb.w	r9, [r5, #65]	; 0x41
 8001f1e:	f885 4042 	strb.w	r4, [r5, #66]	; 0x42
 8001f22:	e7e9      	b.n	8001ef8 <I2C_IsErrorOccurred+0x68>
 8001f24:	2e00      	cmp	r6, #0
 8001f26:	d1c7      	bne.n	8001eb8 <I2C_IsErrorOccurred+0x28>
 8001f28:	2220      	movs	r2, #32
 8001f2a:	61da      	str	r2, [r3, #28]
 8001f2c:	2404      	movs	r4, #4
 8001f2e:	2601      	movs	r6, #1
 8001f30:	682b      	ldr	r3, [r5, #0]
 8001f32:	699a      	ldr	r2, [r3, #24]
 8001f34:	05d0      	lsls	r0, r2, #23
 8001f36:	bf41      	itttt	mi
 8001f38:	f44f 7180 	movmi.w	r1, #256	; 0x100
 8001f3c:	61d9      	strmi	r1, [r3, #28]
 8001f3e:	f044 0401 	orrmi.w	r4, r4, #1
 8001f42:	2601      	movmi	r6, #1
 8001f44:	0551      	lsls	r1, r2, #21
 8001f46:	bf41      	itttt	mi
 8001f48:	f44f 6180 	movmi.w	r1, #1024	; 0x400
 8001f4c:	f044 0408 	orrmi.w	r4, r4, #8
 8001f50:	61d9      	strmi	r1, [r3, #28]
 8001f52:	2601      	movmi	r6, #1
 8001f54:	0592      	lsls	r2, r2, #22
 8001f56:	d521      	bpl.n	8001f9c <I2C_IsErrorOccurred+0x10c>
 8001f58:	f44f 7200 	mov.w	r2, #512	; 0x200
 8001f5c:	f044 0402 	orr.w	r4, r4, #2
 8001f60:	61da      	str	r2, [r3, #28]
 8001f62:	4628      	mov	r0, r5
 8001f64:	f7ff ff70 	bl	8001e48 <I2C_Flush_TXDR>
 8001f68:	682a      	ldr	r2, [r5, #0]
 8001f6a:	6853      	ldr	r3, [r2, #4]
 8001f6c:	f023 73ff 	bic.w	r3, r3, #33423360	; 0x1fe0000
 8001f70:	f423 338b 	bic.w	r3, r3, #71168	; 0x11600
 8001f74:	f423 73ff 	bic.w	r3, r3, #510	; 0x1fe
 8001f78:	f023 0301 	bic.w	r3, r3, #1
 8001f7c:	6053      	str	r3, [r2, #4]
 8001f7e:	6c6b      	ldr	r3, [r5, #68]	; 0x44
 8001f80:	431c      	orrs	r4, r3
 8001f82:	2320      	movs	r3, #32
 8001f84:	646c      	str	r4, [r5, #68]	; 0x44
 8001f86:	f885 3041 	strb.w	r3, [r5, #65]	; 0x41
 8001f8a:	2300      	movs	r3, #0
 8001f8c:	f885 3042 	strb.w	r3, [r5, #66]	; 0x42
 8001f90:	f885 3040 	strb.w	r3, [r5, #64]	; 0x40
 8001f94:	2601      	movs	r6, #1
 8001f96:	e003      	b.n	8001fa0 <I2C_IsErrorOccurred+0x110>
 8001f98:	4626      	mov	r6, r4
 8001f9a:	e7c9      	b.n	8001f30 <I2C_IsErrorOccurred+0xa0>
 8001f9c:	2e00      	cmp	r6, #0
 8001f9e:	d1e0      	bne.n	8001f62 <I2C_IsErrorOccurred+0xd2>
 8001fa0:	4630      	mov	r0, r6
 8001fa2:	e8bd 83f8 	ldmia.w	sp!, {r3, r4, r5, r6, r7, r8, r9, pc}

08001fa6 <I2C_WaitOnTXISFlagUntilTimeout>:
 8001fa6:	b570      	push	{r4, r5, r6, lr}
 8001fa8:	4604      	mov	r4, r0
 8001faa:	460d      	mov	r5, r1
 8001fac:	4616      	mov	r6, r2
 8001fae:	6823      	ldr	r3, [r4, #0]
 8001fb0:	699b      	ldr	r3, [r3, #24]
 8001fb2:	079b      	lsls	r3, r3, #30
 8001fb4:	d501      	bpl.n	8001fba <I2C_WaitOnTXISFlagUntilTimeout+0x14>
 8001fb6:	2000      	movs	r0, #0
 8001fb8:	bd70      	pop	{r4, r5, r6, pc}
 8001fba:	4632      	mov	r2, r6
 8001fbc:	4629      	mov	r1, r5
 8001fbe:	4620      	mov	r0, r4
 8001fc0:	f7ff ff66 	bl	8001e90 <I2C_IsErrorOccurred>
 8001fc4:	b9a0      	cbnz	r0, 8001ff0 <I2C_WaitOnTXISFlagUntilTimeout+0x4a>
 8001fc6:	1c6a      	adds	r2, r5, #1
 8001fc8:	d0f1      	beq.n	8001fae <I2C_WaitOnTXISFlagUntilTimeout+0x8>
 8001fca:	f7fe fe67 	bl	8000c9c <HAL_GetTick>
 8001fce:	1b80      	subs	r0, r0, r6
 8001fd0:	42a8      	cmp	r0, r5
 8001fd2:	d801      	bhi.n	8001fd8 <I2C_WaitOnTXISFlagUntilTimeout+0x32>
 8001fd4:	2d00      	cmp	r5, #0
 8001fd6:	d1ea      	bne.n	8001fae <I2C_WaitOnTXISFlagUntilTimeout+0x8>
 8001fd8:	6c63      	ldr	r3, [r4, #68]	; 0x44
 8001fda:	f043 0320 	orr.w	r3, r3, #32
 8001fde:	6463      	str	r3, [r4, #68]	; 0x44
 8001fe0:	2320      	movs	r3, #32
 8001fe2:	f884 3041 	strb.w	r3, [r4, #65]	; 0x41
 8001fe6:	2300      	movs	r3, #0
 8001fe8:	f884 3042 	strb.w	r3, [r4, #66]	; 0x42
 8001fec:	f884 3040 	strb.w	r3, [r4, #64]	; 0x40
 8001ff0:	2001      	movs	r0, #1
 8001ff2:	e7e1      	b.n	8001fb8 <I2C_WaitOnTXISFlagUntilTimeout+0x12>

08001ff4 <I2C_WaitOnFlagUntilTimeout>:
 8001ff4:	e92d 41f0 	stmdb	sp!, {r4, r5, r6, r7, r8, lr}
 8001ff8:	9f06      	ldr	r7, [sp, #24]
 8001ffa:	4604      	mov	r4, r0
 8001ffc:	4688      	mov	r8, r1
 8001ffe:	4616      	mov	r6, r2
 8002000:	461d      	mov	r5, r3
 8002002:	6822      	ldr	r2, [r4, #0]
 8002004:	6993      	ldr	r3, [r2, #24]
 8002006:	ea38 0303 	bics.w	r3, r8, r3
 800200a:	bf0c      	ite	eq
 800200c:	2301      	moveq	r3, #1
 800200e:	2300      	movne	r3, #0
 8002010:	42b3      	cmp	r3, r6
 8002012:	d001      	beq.n	8002018 <I2C_WaitOnFlagUntilTimeout+0x24>
 8002014:	2000      	movs	r0, #0
 8002016:	e015      	b.n	8002044 <I2C_WaitOnFlagUntilTimeout+0x50>
 8002018:	1c6b      	adds	r3, r5, #1
 800201a:	d0f3      	beq.n	8002004 <I2C_WaitOnFlagUntilTimeout+0x10>
 800201c:	f7fe fe3e 	bl	8000c9c <HAL_GetTick>
 8002020:	1bc0      	subs	r0, r0, r7
 8002022:	42a8      	cmp	r0, r5
 8002024:	d801      	bhi.n	800202a <I2C_WaitOnFlagUntilTimeout+0x36>
 8002026:	2d00      	cmp	r5, #0
 8002028:	d1eb      	bne.n	8002002 <I2C_WaitOnFlagUntilTimeout+0xe>
 800202a:	6c63      	ldr	r3, [r4, #68]	; 0x44
 800202c:	f043 0320 	orr.w	r3, r3, #32
 8002030:	6463      	str	r3, [r4, #68]	; 0x44
 8002032:	2320      	movs	r3, #32
 8002034:	f884 3041 	strb.w	r3, [r4, #65]	; 0x41
 8002038:	2300      	movs	r3, #0
 800203a:	f884 3042 	strb.w	r3, [r4, #66]	; 0x42
 800203e:	f884 3040 	strb.w	r3, [r4, #64]	; 0x40
 8002042:	2001      	movs	r0, #1
 8002044:	e8bd 81f0 	ldmia.w	sp!, {r4, r5, r6, r7, r8, pc}

08002048 <I2C_WaitOnSTOPFlagUntilTimeout>:
 8002048:	b570      	push	{r4, r5, r6, lr}
 800204a:	4604      	mov	r4, r0
 800204c:	460d      	mov	r5, r1
 800204e:	4616      	mov	r6, r2
 8002050:	6823      	ldr	r3, [r4, #0]
 8002052:	699b      	ldr	r3, [r3, #24]
 8002054:	069b      	lsls	r3, r3, #26
 8002056:	d501      	bpl.n	800205c <I2C_WaitOnSTOPFlagUntilTimeout+0x14>
 8002058:	2000      	movs	r0, #0
 800205a:	bd70      	pop	{r4, r5, r6, pc}
 800205c:	4632      	mov	r2, r6
 800205e:	4629      	mov	r1, r5
 8002060:	4620      	mov	r0, r4
 8002062:	f7ff ff15 	bl	8001e90 <I2C_IsErrorOccurred>
 8002066:	b990      	cbnz	r0, 800208e <I2C_WaitOnSTOPFlagUntilTimeout+0x46>
 8002068:	f7fe fe18 	bl	8000c9c <HAL_GetTick>
 800206c:	1b80      	subs	r0, r0, r6
 800206e:	42a8      	cmp	r0, r5
 8002070:	d801      	bhi.n	8002076 <I2C_WaitOnSTOPFlagUntilTimeout+0x2e>
 8002072:	2d00      	cmp	r5, #0
 8002074:	d1ec      	bne.n	8002050 <I2C_WaitOnSTOPFlagUntilTimeout+0x8>
 8002076:	6c63      	ldr	r3, [r4, #68]	; 0x44
 8002078:	f043 0320 	orr.w	r3, r3, #32
 800207c:	6463      	str	r3, [r4, #68]	; 0x44
 800207e:	2320      	movs	r3, #32
 8002080:	f884 3041 	strb.w	r3, [r4, #65]	; 0x41
 8002084:	2300      	movs	r3, #0
 8002086:	f884 3042 	strb.w	r3, [r4, #66]	; 0x42
 800208a:	f884 3040 	strb.w	r3, [r4, #64]	; 0x40
 800208e:	2001      	movs	r0, #1
 8002090:	e7e3      	b.n	800205a <I2C_WaitOnSTOPFlagUntilTimeout+0x12>

08002092 <HAL_I2C_Init>:
 8002092:	b510      	push	{r4, lr}
 8002094:	4604      	mov	r4, r0
 8002096:	2800      	cmp	r0, #0
 8002098:	d04a      	beq.n	8002130 <HAL_I2C_Init+0x9e>
 800209a:	f890 3041 	ldrb.w	r3, [r0, #65]	; 0x41
 800209e:	f003 02ff 	and.w	r2, r3, #255	; 0xff
 80020a2:	b91b      	cbnz	r3, 80020ac <HAL_I2C_Init+0x1a>
 80020a4:	f880 2040 	strb.w	r2, [r0, #64]	; 0x40
 80020a8:	f7fe fb44 	bl	8000734 <HAL_I2C_MspInit>
 80020ac:	2324      	movs	r3, #36	; 0x24
 80020ae:	f884 3041 	strb.w	r3, [r4, #65]	; 0x41
 80020b2:	6823      	ldr	r3, [r4, #0]
 80020b4:	681a      	ldr	r2, [r3, #0]
 80020b6:	f022 0201 	bic.w	r2, r2, #1
 80020ba:	601a      	str	r2, [r3, #0]
 80020bc:	6862      	ldr	r2, [r4, #4]
 80020be:	f022 6270 	bic.w	r2, r2, #251658240	; 0xf000000
 80020c2:	611a      	str	r2, [r3, #16]
 80020c4:	689a      	ldr	r2, [r3, #8]
 80020c6:	f422 4200 	bic.w	r2, r2, #32768	; 0x8000
 80020ca:	609a      	str	r2, [r3, #8]
 80020cc:	e9d4 2102 	ldrd	r2, r1, [r4, #8]
 80020d0:	2901      	cmp	r1, #1
 80020d2:	d124      	bne.n	800211e <HAL_I2C_Init+0x8c>
 80020d4:	f442 4200 	orr.w	r2, r2, #32768	; 0x8000
 80020d8:	609a      	str	r2, [r3, #8]
 80020da:	685a      	ldr	r2, [r3, #4]
 80020dc:	f042 7200 	orr.w	r2, r2, #33554432	; 0x2000000
 80020e0:	f442 4200 	orr.w	r2, r2, #32768	; 0x8000
 80020e4:	605a      	str	r2, [r3, #4]
 80020e6:	68da      	ldr	r2, [r3, #12]
 80020e8:	f422 4200 	bic.w	r2, r2, #32768	; 0x8000
 80020ec:	60da      	str	r2, [r3, #12]
 80020ee:	e9d4 2104 	ldrd	r2, r1, [r4, #16]
 80020f2:	430a      	orrs	r2, r1
 80020f4:	69a1      	ldr	r1, [r4, #24]
 80020f6:	ea42 2201 	orr.w	r2, r2, r1, lsl #8
 80020fa:	60da      	str	r2, [r3, #12]
 80020fc:	e9d4 2107 	ldrd	r2, r1, [r4, #28]
 8002100:	430a      	orrs	r2, r1
 8002102:	601a      	str	r2, [r3, #0]
 8002104:	681a      	ldr	r2, [r3, #0]
 8002106:	f042 0201 	orr.w	r2, r2, #1
 800210a:	601a      	str	r2, [r3, #0]
 800210c:	2000      	movs	r0, #0
 800210e:	2320      	movs	r3, #32
 8002110:	6460      	str	r0, [r4, #68]	; 0x44
 8002112:	f884 3041 	strb.w	r3, [r4, #65]	; 0x41
 8002116:	6320      	str	r0, [r4, #48]	; 0x30
 8002118:	f884 0042 	strb.w	r0, [r4, #66]	; 0x42
 800211c:	bd10      	pop	{r4, pc}
 800211e:	f442 4204 	orr.w	r2, r2, #33792	; 0x8400
 8002122:	2902      	cmp	r1, #2
 8002124:	609a      	str	r2, [r3, #8]
 8002126:	bf04      	itt	eq
 8002128:	f44f 6200 	moveq.w	r2, #2048	; 0x800
 800212c:	605a      	streq	r2, [r3, #4]
 800212e:	e7d4      	b.n	80020da <HAL_I2C_Init+0x48>
 8002130:	2001      	movs	r0, #1
 8002132:	e7f3      	b.n	800211c <HAL_I2C_Init+0x8a>

08002134 <HAL_I2C_Master_Transmit>:
 8002134:	e92d 47f3 	stmdb	sp!, {r0, r1, r4, r5, r6, r7, r8, r9, sl, lr}
 8002138:	4698      	mov	r8, r3
 800213a:	f890 3041 	ldrb.w	r3, [r0, #65]	; 0x41
 800213e:	9f0a      	ldr	r7, [sp, #40]	; 0x28
 8002140:	2b20      	cmp	r3, #32
 8002142:	4604      	mov	r4, r0
 8002144:	460e      	mov	r6, r1
 8002146:	4691      	mov	r9, r2
 8002148:	f040 8086 	bne.w	8002258 <HAL_I2C_Master_Transmit+0x124>
 800214c:	f890 3040 	ldrb.w	r3, [r0, #64]	; 0x40
 8002150:	2b01      	cmp	r3, #1
 8002152:	f000 8081 	beq.w	8002258 <HAL_I2C_Master_Transmit+0x124>
 8002156:	f04f 0a01 	mov.w	sl, #1
 800215a:	f880 a040 	strb.w	sl, [r0, #64]	; 0x40
 800215e:	f7fe fd9d 	bl	8000c9c <HAL_GetTick>
 8002162:	2319      	movs	r3, #25
 8002164:	4605      	mov	r5, r0
 8002166:	9000      	str	r0, [sp, #0]
 8002168:	4652      	mov	r2, sl
 800216a:	f44f 4100 	mov.w	r1, #32768	; 0x8000
 800216e:	4620      	mov	r0, r4
 8002170:	f7ff ff40 	bl	8001ff4 <I2C_WaitOnFlagUntilTimeout>
 8002174:	b118      	cbz	r0, 800217e <HAL_I2C_Master_Transmit+0x4a>
 8002176:	2001      	movs	r0, #1
 8002178:	b002      	add	sp, #8
 800217a:	e8bd 87f0 	ldmia.w	sp!, {r4, r5, r6, r7, r8, r9, sl, pc}
 800217e:	2321      	movs	r3, #33	; 0x21
 8002180:	f884 3041 	strb.w	r3, [r4, #65]	; 0x41
 8002184:	2310      	movs	r3, #16
 8002186:	f884 3042 	strb.w	r3, [r4, #66]	; 0x42
 800218a:	6460      	str	r0, [r4, #68]	; 0x44
 800218c:	f8a4 802a 	strh.w	r8, [r4, #42]	; 0x2a
 8002190:	8d63      	ldrh	r3, [r4, #42]	; 0x2a
 8002192:	f8c4 9024 	str.w	r9, [r4, #36]	; 0x24
 8002196:	b29b      	uxth	r3, r3
 8002198:	2bff      	cmp	r3, #255	; 0xff
 800219a:	6360      	str	r0, [r4, #52]	; 0x34
 800219c:	4b2f      	ldr	r3, [pc, #188]	; (800225c <HAL_I2C_Master_Transmit+0x128>)
 800219e:	d926      	bls.n	80021ee <HAL_I2C_Master_Transmit+0xba>
 80021a0:	22ff      	movs	r2, #255	; 0xff
 80021a2:	8522      	strh	r2, [r4, #40]	; 0x28
 80021a4:	9300      	str	r3, [sp, #0]
 80021a6:	f04f 7380 	mov.w	r3, #16777216	; 0x1000000
 80021aa:	4631      	mov	r1, r6
 80021ac:	4620      	mov	r0, r4
 80021ae:	f7ff fe59 	bl	8001e64 <I2C_TransferConfig>
 80021b2:	8d63      	ldrh	r3, [r4, #42]	; 0x2a
 80021b4:	b29b      	uxth	r3, r3
 80021b6:	462a      	mov	r2, r5
 80021b8:	4639      	mov	r1, r7
 80021ba:	4620      	mov	r0, r4
 80021bc:	b9fb      	cbnz	r3, 80021fe <HAL_I2C_Master_Transmit+0xca>
 80021be:	f7ff ff43 	bl	8002048 <I2C_WaitOnSTOPFlagUntilTimeout>
 80021c2:	2800      	cmp	r0, #0
 80021c4:	d1d7      	bne.n	8002176 <HAL_I2C_Master_Transmit+0x42>
 80021c6:	6823      	ldr	r3, [r4, #0]
 80021c8:	2120      	movs	r1, #32
 80021ca:	61d9      	str	r1, [r3, #28]
 80021cc:	685a      	ldr	r2, [r3, #4]
 80021ce:	f022 72ff 	bic.w	r2, r2, #33423360	; 0x1fe0000
 80021d2:	f422 328b 	bic.w	r2, r2, #71168	; 0x11600
 80021d6:	f422 72ff 	bic.w	r2, r2, #510	; 0x1fe
 80021da:	f022 0201 	bic.w	r2, r2, #1
 80021de:	605a      	str	r2, [r3, #4]
 80021e0:	f884 1041 	strb.w	r1, [r4, #65]	; 0x41
 80021e4:	f884 0040 	strb.w	r0, [r4, #64]	; 0x40
 80021e8:	f884 0042 	strb.w	r0, [r4, #66]	; 0x42
 80021ec:	e7c4      	b.n	8002178 <HAL_I2C_Master_Transmit+0x44>
 80021ee:	8d62      	ldrh	r2, [r4, #42]	; 0x2a
 80021f0:	9300      	str	r3, [sp, #0]
 80021f2:	b292      	uxth	r2, r2
 80021f4:	8522      	strh	r2, [r4, #40]	; 0x28
 80021f6:	f04f 7300 	mov.w	r3, #33554432	; 0x2000000
 80021fa:	b2d2      	uxtb	r2, r2
 80021fc:	e7d5      	b.n	80021aa <HAL_I2C_Master_Transmit+0x76>
 80021fe:	f7ff fed2 	bl	8001fa6 <I2C_WaitOnTXISFlagUntilTimeout>
 8002202:	2800      	cmp	r0, #0
 8002204:	d1b7      	bne.n	8002176 <HAL_I2C_Master_Transmit+0x42>
 8002206:	6a63      	ldr	r3, [r4, #36]	; 0x24
 8002208:	6822      	ldr	r2, [r4, #0]
 800220a:	f813 1b01 	ldrb.w	r1, [r3], #1
 800220e:	6291      	str	r1, [r2, #40]	; 0x28
 8002210:	6263      	str	r3, [r4, #36]	; 0x24
 8002212:	8d63      	ldrh	r3, [r4, #42]	; 0x2a
 8002214:	8d22      	ldrh	r2, [r4, #40]	; 0x28
 8002216:	3b01      	subs	r3, #1
 8002218:	b29b      	uxth	r3, r3
 800221a:	8563      	strh	r3, [r4, #42]	; 0x2a
 800221c:	8d63      	ldrh	r3, [r4, #42]	; 0x2a
 800221e:	3a01      	subs	r2, #1
 8002220:	b292      	uxth	r2, r2
 8002222:	b29b      	uxth	r3, r3
 8002224:	8522      	strh	r2, [r4, #40]	; 0x28
 8002226:	2b00      	cmp	r3, #0
 8002228:	d0c3      	beq.n	80021b2 <HAL_I2C_Master_Transmit+0x7e>
 800222a:	2a00      	cmp	r2, #0
 800222c:	d1c1      	bne.n	80021b2 <HAL_I2C_Master_Transmit+0x7e>
 800222e:	9500      	str	r5, [sp, #0]
 8002230:	463b      	mov	r3, r7
 8002232:	2180      	movs	r1, #128	; 0x80
 8002234:	4620      	mov	r0, r4
 8002236:	f7ff fedd 	bl	8001ff4 <I2C_WaitOnFlagUntilTimeout>
 800223a:	2800      	cmp	r0, #0
 800223c:	d19b      	bne.n	8002176 <HAL_I2C_Master_Transmit+0x42>
 800223e:	8d63      	ldrh	r3, [r4, #42]	; 0x2a
 8002240:	b29b      	uxth	r3, r3
 8002242:	2bff      	cmp	r3, #255	; 0xff
 8002244:	d903      	bls.n	800224e <HAL_I2C_Master_Transmit+0x11a>
 8002246:	22ff      	movs	r2, #255	; 0xff
 8002248:	8522      	strh	r2, [r4, #40]	; 0x28
 800224a:	9000      	str	r0, [sp, #0]
 800224c:	e7ab      	b.n	80021a6 <HAL_I2C_Master_Transmit+0x72>
 800224e:	8d62      	ldrh	r2, [r4, #42]	; 0x2a
 8002250:	9000      	str	r0, [sp, #0]
 8002252:	b292      	uxth	r2, r2
 8002254:	8522      	strh	r2, [r4, #40]	; 0x28
 8002256:	e7ce      	b.n	80021f6 <HAL_I2C_Master_Transmit+0xc2>
 8002258:	2002      	movs	r0, #2
 800225a:	e78d      	b.n	8002178 <HAL_I2C_Master_Transmit+0x44>
 800225c:	80002000 	.word	0x80002000

08002260 <HAL_I2CEx_ConfigAnalogFilter>:
 8002260:	b510      	push	{r4, lr}
 8002262:	f890 3041 	ldrb.w	r3, [r0, #65]	; 0x41
 8002266:	2b20      	cmp	r3, #32
 8002268:	b2dc      	uxtb	r4, r3
 800226a:	d11d      	bne.n	80022a8 <HAL_I2CEx_ConfigAnalogFilter+0x48>
 800226c:	f890 3040 	ldrb.w	r3, [r0, #64]	; 0x40
 8002270:	2b01      	cmp	r3, #1
 8002272:	d019      	beq.n	80022a8 <HAL_I2CEx_ConfigAnalogFilter+0x48>
 8002274:	2324      	movs	r3, #36	; 0x24
 8002276:	f880 3041 	strb.w	r3, [r0, #65]	; 0x41
 800227a:	6803      	ldr	r3, [r0, #0]
 800227c:	681a      	ldr	r2, [r3, #0]
 800227e:	f022 0201 	bic.w	r2, r2, #1
 8002282:	601a      	str	r2, [r3, #0]
 8002284:	681a      	ldr	r2, [r3, #0]
 8002286:	f422 5280 	bic.w	r2, r2, #4096	; 0x1000
 800228a:	601a      	str	r2, [r3, #0]
 800228c:	681a      	ldr	r2, [r3, #0]
 800228e:	4311      	orrs	r1, r2
 8002290:	6019      	str	r1, [r3, #0]
 8002292:	681a      	ldr	r2, [r3, #0]
 8002294:	f042 0201 	orr.w	r2, r2, #1
 8002298:	601a      	str	r2, [r3, #0]
 800229a:	2300      	movs	r3, #0
 800229c:	f880 4041 	strb.w	r4, [r0, #65]	; 0x41
 80022a0:	f880 3040 	strb.w	r3, [r0, #64]	; 0x40
 80022a4:	4618      	mov	r0, r3
 80022a6:	bd10      	pop	{r4, pc}
 80022a8:	2002      	movs	r0, #2
 80022aa:	e7fc      	b.n	80022a6 <HAL_I2CEx_ConfigAnalogFilter+0x46>

080022ac <HAL_I2CEx_ConfigDigitalFilter>:
 80022ac:	b510      	push	{r4, lr}
 80022ae:	f890 3041 	ldrb.w	r3, [r0, #65]	; 0x41
 80022b2:	2b20      	cmp	r3, #32
 80022b4:	b2dc      	uxtb	r4, r3
 80022b6:	d11c      	bne.n	80022f2 <HAL_I2CEx_ConfigDigitalFilter+0x46>
 80022b8:	f890 3040 	ldrb.w	r3, [r0, #64]	; 0x40
 80022bc:	2b01      	cmp	r3, #1
 80022be:	d018      	beq.n	80022f2 <HAL_I2CEx_ConfigDigitalFilter+0x46>
 80022c0:	2324      	movs	r3, #36	; 0x24
 80022c2:	f880 3041 	strb.w	r3, [r0, #65]	; 0x41
 80022c6:	6803      	ldr	r3, [r0, #0]
 80022c8:	681a      	ldr	r2, [r3, #0]
 80022ca:	f022 0201 	bic.w	r2, r2, #1
 80022ce:	601a      	str	r2, [r3, #0]
 80022d0:	681a      	ldr	r2, [r3, #0]
 80022d2:	f422 6270 	bic.w	r2, r2, #3840	; 0xf00
 80022d6:	ea42 2101 	orr.w	r1, r2, r1, lsl #8
 80022da:	6019      	str	r1, [r3, #0]
 80022dc:	681a      	ldr	r2, [r3, #0]
 80022de:	f042 0201 	orr.w	r2, r2, #1
 80022e2:	601a      	str	r2, [r3, #0]
 80022e4:	2300      	movs	r3, #0
 80022e6:	f880 4041 	strb.w	r4, [r0, #65]	; 0x41
 80022ea:	f880 3040 	strb.w	r3, [r0, #64]	; 0x40
 80022ee:	4618      	mov	r0, r3
 80022f0:	bd10      	pop	{r4, pc}
 80022f2:	2002      	movs	r0, #2
 80022f4:	e7fc      	b.n	80022f0 <HAL_I2CEx_ConfigDigitalFilter+0x44>
	...

080022f8 <HAL_PWREx_GetVoltageRange>:
 80022f8:	4b02      	ldr	r3, [pc, #8]	; (8002304 <HAL_PWREx_GetVoltageRange+0xc>)
 80022fa:	6818      	ldr	r0, [r3, #0]
 80022fc:	f400 60c0 	and.w	r0, r0, #1536	; 0x600
 8002300:	4770      	bx	lr
 8002302:	bf00      	nop
 8002304:	40007000 	.word	0x40007000

08002308 <HAL_PWREx_ControlVoltageScaling>:
 8002308:	4a17      	ldr	r2, [pc, #92]	; (8002368 <HAL_PWREx_ControlVoltageScaling+0x60>)
 800230a:	6813      	ldr	r3, [r2, #0]
 800230c:	f5b0 7f00 	cmp.w	r0, #512	; 0x200
 8002310:	f403 63c0 	and.w	r3, r3, #1536	; 0x600
 8002314:	d11d      	bne.n	8002352 <HAL_PWREx_ControlVoltageScaling+0x4a>
 8002316:	f5b3 7f00 	cmp.w	r3, #512	; 0x200
 800231a:	d101      	bne.n	8002320 <HAL_PWREx_ControlVoltageScaling+0x18>
 800231c:	2000      	movs	r0, #0
 800231e:	4770      	bx	lr
 8002320:	6813      	ldr	r3, [r2, #0]
 8002322:	f423 63c0 	bic.w	r3, r3, #1536	; 0x600
 8002326:	f443 7300 	orr.w	r3, r3, #512	; 0x200
 800232a:	6013      	str	r3, [r2, #0]
 800232c:	4b0f      	ldr	r3, [pc, #60]	; (800236c <HAL_PWREx_ControlVoltageScaling+0x64>)
 800232e:	681b      	ldr	r3, [r3, #0]
 8002330:	2132      	movs	r1, #50	; 0x32
 8002332:	434b      	muls	r3, r1
 8002334:	490e      	ldr	r1, [pc, #56]	; (8002370 <HAL_PWREx_ControlVoltageScaling+0x68>)
 8002336:	fbb3 f3f1 	udiv	r3, r3, r1
 800233a:	3301      	adds	r3, #1
 800233c:	6951      	ldr	r1, [r2, #20]
 800233e:	0549      	lsls	r1, r1, #21
 8002340:	d500      	bpl.n	8002344 <HAL_PWREx_ControlVoltageScaling+0x3c>
 8002342:	b923      	cbnz	r3, 800234e <HAL_PWREx_ControlVoltageScaling+0x46>
 8002344:	6953      	ldr	r3, [r2, #20]
 8002346:	055b      	lsls	r3, r3, #21
 8002348:	d5e8      	bpl.n	800231c <HAL_PWREx_ControlVoltageScaling+0x14>
 800234a:	2003      	movs	r0, #3
 800234c:	4770      	bx	lr
 800234e:	3b01      	subs	r3, #1
 8002350:	e7f4      	b.n	800233c <HAL_PWREx_ControlVoltageScaling+0x34>
 8002352:	f5b3 6f80 	cmp.w	r3, #1024	; 0x400
 8002356:	bf1f      	itttt	ne
 8002358:	6813      	ldrne	r3, [r2, #0]
 800235a:	f423 63c0 	bicne.w	r3, r3, #1536	; 0x600
 800235e:	f443 6380 	orrne.w	r3, r3, #1024	; 0x400
 8002362:	6013      	strne	r3, [r2, #0]
 8002364:	e7da      	b.n	800231c <HAL_PWREx_ControlVoltageScaling+0x14>
 8002366:	bf00      	nop
 8002368:	40007000 	.word	0x40007000
 800236c:	20000000 	.word	0x20000000
 8002370:	000f4240 	.word	0x000f4240

08002374 <RCC_SetFlashLatencyFromMSIRange>:
 8002374:	b537      	push	{r0, r1, r2, r4, r5, lr}
 8002376:	4d1e      	ldr	r5, [pc, #120]	; (80023f0 <RCC_SetFlashLatencyFromMSIRange+0x7c>)
 8002378:	6dab      	ldr	r3, [r5, #88]	; 0x58
 800237a:	00da      	lsls	r2, r3, #3
 800237c:	4604      	mov	r4, r0
 800237e:	d518      	bpl.n	80023b2 <RCC_SetFlashLatencyFromMSIRange+0x3e>
 8002380:	f7ff ffba 	bl	80022f8 <HAL_PWREx_GetVoltageRange>
 8002384:	f5b0 7f00 	cmp.w	r0, #512	; 0x200
 8002388:	d123      	bne.n	80023d2 <RCC_SetFlashLatencyFromMSIRange+0x5e>
 800238a:	2c80      	cmp	r4, #128	; 0x80
 800238c:	d929      	bls.n	80023e2 <RCC_SetFlashLatencyFromMSIRange+0x6e>
 800238e:	2ca0      	cmp	r4, #160	; 0xa0
 8002390:	bf8c      	ite	hi
 8002392:	2002      	movhi	r0, #2
 8002394:	2001      	movls	r0, #1
 8002396:	4a17      	ldr	r2, [pc, #92]	; (80023f4 <RCC_SetFlashLatencyFromMSIRange+0x80>)
 8002398:	6813      	ldr	r3, [r2, #0]
 800239a:	f023 0307 	bic.w	r3, r3, #7
 800239e:	4303      	orrs	r3, r0
 80023a0:	6013      	str	r3, [r2, #0]
 80023a2:	6813      	ldr	r3, [r2, #0]
 80023a4:	f003 0307 	and.w	r3, r3, #7
 80023a8:	1a18      	subs	r0, r3, r0
 80023aa:	bf18      	it	ne
 80023ac:	2001      	movne	r0, #1
 80023ae:	b003      	add	sp, #12
 80023b0:	bd30      	pop	{r4, r5, pc}
 80023b2:	6dab      	ldr	r3, [r5, #88]	; 0x58
 80023b4:	f043 5380 	orr.w	r3, r3, #268435456	; 0x10000000
 80023b8:	65ab      	str	r3, [r5, #88]	; 0x58
 80023ba:	6dab      	ldr	r3, [r5, #88]	; 0x58
 80023bc:	f003 5380 	and.w	r3, r3, #268435456	; 0x10000000
 80023c0:	9301      	str	r3, [sp, #4]
 80023c2:	9b01      	ldr	r3, [sp, #4]
 80023c4:	f7ff ff98 	bl	80022f8 <HAL_PWREx_GetVoltageRange>
 80023c8:	6dab      	ldr	r3, [r5, #88]	; 0x58
 80023ca:	f023 5380 	bic.w	r3, r3, #268435456	; 0x10000000
 80023ce:	65ab      	str	r3, [r5, #88]	; 0x58
 80023d0:	e7d8      	b.n	8002384 <RCC_SetFlashLatencyFromMSIRange+0x10>
 80023d2:	2c80      	cmp	r4, #128	; 0x80
 80023d4:	d807      	bhi.n	80023e6 <RCC_SetFlashLatencyFromMSIRange+0x72>
 80023d6:	d008      	beq.n	80023ea <RCC_SetFlashLatencyFromMSIRange+0x76>
 80023d8:	f1a4 0370 	sub.w	r3, r4, #112	; 0x70
 80023dc:	4258      	negs	r0, r3
 80023de:	4158      	adcs	r0, r3
 80023e0:	e7d9      	b.n	8002396 <RCC_SetFlashLatencyFromMSIRange+0x22>
 80023e2:	2000      	movs	r0, #0
 80023e4:	e7d7      	b.n	8002396 <RCC_SetFlashLatencyFromMSIRange+0x22>
 80023e6:	2003      	movs	r0, #3
 80023e8:	e7d5      	b.n	8002396 <RCC_SetFlashLatencyFromMSIRange+0x22>
 80023ea:	2002      	movs	r0, #2
 80023ec:	e7d3      	b.n	8002396 <RCC_SetFlashLatencyFromMSIRange+0x22>
 80023ee:	bf00      	nop
 80023f0:	40021000 	.word	0x40021000
 80023f4:	40022000 	.word	0x40022000

080023f8 <HAL_RCC_GetSysClockFreq>:
 80023f8:	4b22      	ldr	r3, [pc, #136]	; (8002484 <HAL_RCC_GetSysClockFreq+0x8c>)
 80023fa:	689a      	ldr	r2, [r3, #8]
 80023fc:	68d9      	ldr	r1, [r3, #12]
 80023fe:	f012 020c 	ands.w	r2, r2, #12
 8002402:	d005      	beq.n	8002410 <HAL_RCC_GetSysClockFreq+0x18>
 8002404:	2a0c      	cmp	r2, #12
 8002406:	d115      	bne.n	8002434 <HAL_RCC_GetSysClockFreq+0x3c>
 8002408:	f001 0103 	and.w	r1, r1, #3
 800240c:	2901      	cmp	r1, #1
 800240e:	d118      	bne.n	8002442 <HAL_RCC_GetSysClockFreq+0x4a>
 8002410:	6819      	ldr	r1, [r3, #0]
 8002412:	481d      	ldr	r0, [pc, #116]	; (8002488 <HAL_RCC_GetSysClockFreq+0x90>)
 8002414:	0709      	lsls	r1, r1, #28
 8002416:	bf55      	itete	pl
 8002418:	f8d3 1094 	ldrpl.w	r1, [r3, #148]	; 0x94
 800241c:	6819      	ldrmi	r1, [r3, #0]
 800241e:	f3c1 2103 	ubfxpl	r1, r1, #8, #4
 8002422:	f3c1 1103 	ubfxmi	r1, r1, #4, #4
 8002426:	f850 0021 	ldr.w	r0, [r0, r1, lsl #2]
 800242a:	b34a      	cbz	r2, 8002480 <HAL_RCC_GetSysClockFreq+0x88>
 800242c:	2a0c      	cmp	r2, #12
 800242e:	d009      	beq.n	8002444 <HAL_RCC_GetSysClockFreq+0x4c>
 8002430:	2000      	movs	r0, #0
 8002432:	4770      	bx	lr
 8002434:	2a04      	cmp	r2, #4
 8002436:	d022      	beq.n	800247e <HAL_RCC_GetSysClockFreq+0x86>
 8002438:	2a08      	cmp	r2, #8
 800243a:	4814      	ldr	r0, [pc, #80]	; (800248c <HAL_RCC_GetSysClockFreq+0x94>)
 800243c:	bf18      	it	ne
 800243e:	2000      	movne	r0, #0
 8002440:	4770      	bx	lr
 8002442:	2000      	movs	r0, #0
 8002444:	68da      	ldr	r2, [r3, #12]
 8002446:	f002 0203 	and.w	r2, r2, #3
 800244a:	2a02      	cmp	r2, #2
 800244c:	d015      	beq.n	800247a <HAL_RCC_GetSysClockFreq+0x82>
 800244e:	490f      	ldr	r1, [pc, #60]	; (800248c <HAL_RCC_GetSysClockFreq+0x94>)
 8002450:	2a03      	cmp	r2, #3
 8002452:	bf08      	it	eq
 8002454:	4608      	moveq	r0, r1
 8002456:	68d9      	ldr	r1, [r3, #12]
 8002458:	68da      	ldr	r2, [r3, #12]
 800245a:	f3c2 2206 	ubfx	r2, r2, #8, #7
 800245e:	4342      	muls	r2, r0
 8002460:	68d8      	ldr	r0, [r3, #12]
 8002462:	f3c0 6041 	ubfx	r0, r0, #25, #2
 8002466:	f3c1 1102 	ubfx	r1, r1, #4, #3
 800246a:	3001      	adds	r0, #1
 800246c:	3101      	adds	r1, #1
 800246e:	0040      	lsls	r0, r0, #1
 8002470:	fbb2 f2f1 	udiv	r2, r2, r1
 8002474:	fbb2 f0f0 	udiv	r0, r2, r0
 8002478:	4770      	bx	lr
 800247a:	4805      	ldr	r0, [pc, #20]	; (8002490 <HAL_RCC_GetSysClockFreq+0x98>)
 800247c:	e7eb      	b.n	8002456 <HAL_RCC_GetSysClockFreq+0x5e>
 800247e:	4804      	ldr	r0, [pc, #16]	; (8002490 <HAL_RCC_GetSysClockFreq+0x98>)
 8002480:	4770      	bx	lr
 8002482:	bf00      	nop
 8002484:	40021000 	.word	0x40021000
 8002488:	0800368c 	.word	0x0800368c
 800248c:	007a1200 	.word	0x007a1200
 8002490:	00f42400 	.word	0x00f42400

08002494 <HAL_RCC_OscConfig>:
 8002494:	e92d 43f7 	stmdb	sp!, {r0, r1, r2, r4, r5, r6, r7, r8, r9, lr}
 8002498:	4605      	mov	r5, r0
 800249a:	b908      	cbnz	r0, 80024a0 <HAL_RCC_OscConfig+0xc>
 800249c:	2001      	movs	r0, #1
 800249e:	e047      	b.n	8002530 <HAL_RCC_OscConfig+0x9c>
 80024a0:	4c94      	ldr	r4, [pc, #592]	; (80026f4 <HAL_RCC_OscConfig+0x260>)
 80024a2:	6803      	ldr	r3, [r0, #0]
 80024a4:	68a6      	ldr	r6, [r4, #8]
 80024a6:	68e7      	ldr	r7, [r4, #12]
 80024a8:	06db      	lsls	r3, r3, #27
 80024aa:	f006 060c 	and.w	r6, r6, #12
 80024ae:	f007 0703 	and.w	r7, r7, #3
 80024b2:	d575      	bpl.n	80025a0 <HAL_RCC_OscConfig+0x10c>
 80024b4:	b11e      	cbz	r6, 80024be <HAL_RCC_OscConfig+0x2a>
 80024b6:	2e0c      	cmp	r6, #12
 80024b8:	d154      	bne.n	8002564 <HAL_RCC_OscConfig+0xd0>
 80024ba:	2f01      	cmp	r7, #1
 80024bc:	d152      	bne.n	8002564 <HAL_RCC_OscConfig+0xd0>
 80024be:	6823      	ldr	r3, [r4, #0]
 80024c0:	0798      	lsls	r0, r3, #30
 80024c2:	d502      	bpl.n	80024ca <HAL_RCC_OscConfig+0x36>
 80024c4:	69ab      	ldr	r3, [r5, #24]
 80024c6:	2b00      	cmp	r3, #0
 80024c8:	d0e8      	beq.n	800249c <HAL_RCC_OscConfig+0x8>
 80024ca:	6823      	ldr	r3, [r4, #0]
 80024cc:	6a28      	ldr	r0, [r5, #32]
 80024ce:	0719      	lsls	r1, r3, #28
 80024d0:	bf56      	itet	pl
 80024d2:	f8d4 3094 	ldrpl.w	r3, [r4, #148]	; 0x94
 80024d6:	6823      	ldrmi	r3, [r4, #0]
 80024d8:	091b      	lsrpl	r3, r3, #4
 80024da:	f003 03f0 	and.w	r3, r3, #240	; 0xf0
 80024de:	4298      	cmp	r0, r3
 80024e0:	d929      	bls.n	8002536 <HAL_RCC_OscConfig+0xa2>
 80024e2:	f7ff ff47 	bl	8002374 <RCC_SetFlashLatencyFromMSIRange>
 80024e6:	2800      	cmp	r0, #0
 80024e8:	d1d8      	bne.n	800249c <HAL_RCC_OscConfig+0x8>
 80024ea:	6823      	ldr	r3, [r4, #0]
 80024ec:	f043 0308 	orr.w	r3, r3, #8
 80024f0:	6023      	str	r3, [r4, #0]
 80024f2:	6823      	ldr	r3, [r4, #0]
 80024f4:	6a2a      	ldr	r2, [r5, #32]
 80024f6:	f023 03f0 	bic.w	r3, r3, #240	; 0xf0
 80024fa:	4313      	orrs	r3, r2
 80024fc:	6023      	str	r3, [r4, #0]
 80024fe:	6863      	ldr	r3, [r4, #4]
 8002500:	69ea      	ldr	r2, [r5, #28]
 8002502:	f423 437f 	bic.w	r3, r3, #65280	; 0xff00
 8002506:	ea43 2302 	orr.w	r3, r3, r2, lsl #8
 800250a:	6063      	str	r3, [r4, #4]
 800250c:	f7ff ff74 	bl	80023f8 <HAL_RCC_GetSysClockFreq>
 8002510:	68a3      	ldr	r3, [r4, #8]
 8002512:	4a79      	ldr	r2, [pc, #484]	; (80026f8 <HAL_RCC_OscConfig+0x264>)
 8002514:	f3c3 1303 	ubfx	r3, r3, #4, #4
 8002518:	5cd3      	ldrb	r3, [r2, r3]
 800251a:	f003 031f 	and.w	r3, r3, #31
 800251e:	40d8      	lsrs	r0, r3
 8002520:	4b76      	ldr	r3, [pc, #472]	; (80026fc <HAL_RCC_OscConfig+0x268>)
 8002522:	6018      	str	r0, [r3, #0]
 8002524:	4b76      	ldr	r3, [pc, #472]	; (8002700 <HAL_RCC_OscConfig+0x26c>)
 8002526:	6818      	ldr	r0, [r3, #0]
 8002528:	f7fe fb76 	bl	8000c18 <HAL_InitTick>
 800252c:	2800      	cmp	r0, #0
 800252e:	d037      	beq.n	80025a0 <HAL_RCC_OscConfig+0x10c>
 8002530:	b003      	add	sp, #12
 8002532:	e8bd 83f0 	ldmia.w	sp!, {r4, r5, r6, r7, r8, r9, pc}
 8002536:	6823      	ldr	r3, [r4, #0]
 8002538:	f043 0308 	orr.w	r3, r3, #8
 800253c:	6023      	str	r3, [r4, #0]
 800253e:	6823      	ldr	r3, [r4, #0]
 8002540:	f023 03f0 	bic.w	r3, r3, #240	; 0xf0
 8002544:	4303      	orrs	r3, r0
 8002546:	6023      	str	r3, [r4, #0]
 8002548:	6863      	ldr	r3, [r4, #4]
 800254a:	69ea      	ldr	r2, [r5, #28]
 800254c:	f423 437f 	bic.w	r3, r3, #65280	; 0xff00
 8002550:	ea43 2302 	orr.w	r3, r3, r2, lsl #8
 8002554:	6063      	str	r3, [r4, #4]
 8002556:	2e00      	cmp	r6, #0
 8002558:	d1d8      	bne.n	800250c <HAL_RCC_OscConfig+0x78>
 800255a:	f7ff ff0b 	bl	8002374 <RCC_SetFlashLatencyFromMSIRange>
 800255e:	2800      	cmp	r0, #0
 8002560:	d0d4      	beq.n	800250c <HAL_RCC_OscConfig+0x78>
 8002562:	e79b      	b.n	800249c <HAL_RCC_OscConfig+0x8>
 8002564:	69ab      	ldr	r3, [r5, #24]
 8002566:	2b00      	cmp	r3, #0
 8002568:	d03a      	beq.n	80025e0 <HAL_RCC_OscConfig+0x14c>
 800256a:	6823      	ldr	r3, [r4, #0]
 800256c:	f043 0301 	orr.w	r3, r3, #1
 8002570:	6023      	str	r3, [r4, #0]
 8002572:	f7fe fb93 	bl	8000c9c <HAL_GetTick>
 8002576:	4680      	mov	r8, r0
 8002578:	6823      	ldr	r3, [r4, #0]
 800257a:	079a      	lsls	r2, r3, #30
 800257c:	d528      	bpl.n	80025d0 <HAL_RCC_OscConfig+0x13c>
 800257e:	6823      	ldr	r3, [r4, #0]
 8002580:	f043 0308 	orr.w	r3, r3, #8
 8002584:	6023      	str	r3, [r4, #0]
 8002586:	6823      	ldr	r3, [r4, #0]
 8002588:	6a2a      	ldr	r2, [r5, #32]
 800258a:	f023 03f0 	bic.w	r3, r3, #240	; 0xf0
 800258e:	4313      	orrs	r3, r2
 8002590:	6023      	str	r3, [r4, #0]
 8002592:	6863      	ldr	r3, [r4, #4]
 8002594:	69ea      	ldr	r2, [r5, #28]
 8002596:	f423 437f 	bic.w	r3, r3, #65280	; 0xff00
 800259a:	ea43 2302 	orr.w	r3, r3, r2, lsl #8
 800259e:	6063      	str	r3, [r4, #4]
 80025a0:	682b      	ldr	r3, [r5, #0]
 80025a2:	07d8      	lsls	r0, r3, #31
 80025a4:	d42d      	bmi.n	8002602 <HAL_RCC_OscConfig+0x16e>
 80025a6:	682b      	ldr	r3, [r5, #0]
 80025a8:	0799      	lsls	r1, r3, #30
 80025aa:	d46b      	bmi.n	8002684 <HAL_RCC_OscConfig+0x1f0>
 80025ac:	682b      	ldr	r3, [r5, #0]
 80025ae:	0718      	lsls	r0, r3, #28
 80025b0:	f100 80a8 	bmi.w	8002704 <HAL_RCC_OscConfig+0x270>
 80025b4:	682b      	ldr	r3, [r5, #0]
 80025b6:	0759      	lsls	r1, r3, #29
 80025b8:	f100 80ce 	bmi.w	8002758 <HAL_RCC_OscConfig+0x2c4>
 80025bc:	682b      	ldr	r3, [r5, #0]
 80025be:	0699      	lsls	r1, r3, #26
 80025c0:	f100 8137 	bmi.w	8002832 <HAL_RCC_OscConfig+0x39e>
 80025c4:	6aab      	ldr	r3, [r5, #40]	; 0x28
 80025c6:	2b00      	cmp	r3, #0
 80025c8:	f040 815d 	bne.w	8002886 <HAL_RCC_OscConfig+0x3f2>
 80025cc:	2000      	movs	r0, #0
 80025ce:	e7af      	b.n	8002530 <HAL_RCC_OscConfig+0x9c>
 80025d0:	f7fe fb64 	bl	8000c9c <HAL_GetTick>
 80025d4:	eba0 0008 	sub.w	r0, r0, r8
 80025d8:	2802      	cmp	r0, #2
 80025da:	d9cd      	bls.n	8002578 <HAL_RCC_OscConfig+0xe4>
 80025dc:	2003      	movs	r0, #3
 80025de:	e7a7      	b.n	8002530 <HAL_RCC_OscConfig+0x9c>
 80025e0:	6823      	ldr	r3, [r4, #0]
 80025e2:	f023 0301 	bic.w	r3, r3, #1
 80025e6:	6023      	str	r3, [r4, #0]
 80025e8:	f7fe fb58 	bl	8000c9c <HAL_GetTick>
 80025ec:	4680      	mov	r8, r0
 80025ee:	6823      	ldr	r3, [r4, #0]
 80025f0:	079b      	lsls	r3, r3, #30
 80025f2:	d5d5      	bpl.n	80025a0 <HAL_RCC_OscConfig+0x10c>
 80025f4:	f7fe fb52 	bl	8000c9c <HAL_GetTick>
 80025f8:	eba0 0008 	sub.w	r0, r0, r8
 80025fc:	2802      	cmp	r0, #2
 80025fe:	d9f6      	bls.n	80025ee <HAL_RCC_OscConfig+0x15a>
 8002600:	e7ec      	b.n	80025dc <HAL_RCC_OscConfig+0x148>
 8002602:	2e08      	cmp	r6, #8
 8002604:	d003      	beq.n	800260e <HAL_RCC_OscConfig+0x17a>
 8002606:	2e0c      	cmp	r6, #12
 8002608:	d108      	bne.n	800261c <HAL_RCC_OscConfig+0x188>
 800260a:	2f03      	cmp	r7, #3
 800260c:	d106      	bne.n	800261c <HAL_RCC_OscConfig+0x188>
 800260e:	6823      	ldr	r3, [r4, #0]
 8002610:	039a      	lsls	r2, r3, #14
 8002612:	d5c8      	bpl.n	80025a6 <HAL_RCC_OscConfig+0x112>
 8002614:	686b      	ldr	r3, [r5, #4]
 8002616:	2b00      	cmp	r3, #0
 8002618:	d1c5      	bne.n	80025a6 <HAL_RCC_OscConfig+0x112>
 800261a:	e73f      	b.n	800249c <HAL_RCC_OscConfig+0x8>
 800261c:	686b      	ldr	r3, [r5, #4]
 800261e:	f5b3 3f80 	cmp.w	r3, #65536	; 0x10000
 8002622:	d110      	bne.n	8002646 <HAL_RCC_OscConfig+0x1b2>
 8002624:	6823      	ldr	r3, [r4, #0]
 8002626:	f443 3380 	orr.w	r3, r3, #65536	; 0x10000
 800262a:	6023      	str	r3, [r4, #0]
 800262c:	f7fe fb36 	bl	8000c9c <HAL_GetTick>
 8002630:	4680      	mov	r8, r0
 8002632:	6823      	ldr	r3, [r4, #0]
 8002634:	039b      	lsls	r3, r3, #14
 8002636:	d4b6      	bmi.n	80025a6 <HAL_RCC_OscConfig+0x112>
 8002638:	f7fe fb30 	bl	8000c9c <HAL_GetTick>
 800263c:	eba0 0008 	sub.w	r0, r0, r8
 8002640:	2864      	cmp	r0, #100	; 0x64
 8002642:	d9f6      	bls.n	8002632 <HAL_RCC_OscConfig+0x19e>
 8002644:	e7ca      	b.n	80025dc <HAL_RCC_OscConfig+0x148>
 8002646:	f5b3 2fa0 	cmp.w	r3, #327680	; 0x50000
 800264a:	d104      	bne.n	8002656 <HAL_RCC_OscConfig+0x1c2>
 800264c:	6823      	ldr	r3, [r4, #0]
 800264e:	f443 2380 	orr.w	r3, r3, #262144	; 0x40000
 8002652:	6023      	str	r3, [r4, #0]
 8002654:	e7e6      	b.n	8002624 <HAL_RCC_OscConfig+0x190>
 8002656:	6822      	ldr	r2, [r4, #0]
 8002658:	f422 3280 	bic.w	r2, r2, #65536	; 0x10000
 800265c:	6022      	str	r2, [r4, #0]
 800265e:	6822      	ldr	r2, [r4, #0]
 8002660:	f422 2280 	bic.w	r2, r2, #262144	; 0x40000
 8002664:	6022      	str	r2, [r4, #0]
 8002666:	2b00      	cmp	r3, #0
 8002668:	d1e0      	bne.n	800262c <HAL_RCC_OscConfig+0x198>
 800266a:	f7fe fb17 	bl	8000c9c <HAL_GetTick>
 800266e:	4680      	mov	r8, r0
 8002670:	6823      	ldr	r3, [r4, #0]
 8002672:	0398      	lsls	r0, r3, #14
 8002674:	d597      	bpl.n	80025a6 <HAL_RCC_OscConfig+0x112>
 8002676:	f7fe fb11 	bl	8000c9c <HAL_GetTick>
 800267a:	eba0 0008 	sub.w	r0, r0, r8
 800267e:	2864      	cmp	r0, #100	; 0x64
 8002680:	d9f6      	bls.n	8002670 <HAL_RCC_OscConfig+0x1dc>
 8002682:	e7ab      	b.n	80025dc <HAL_RCC_OscConfig+0x148>
 8002684:	2e04      	cmp	r6, #4
 8002686:	d003      	beq.n	8002690 <HAL_RCC_OscConfig+0x1fc>
 8002688:	2e0c      	cmp	r6, #12
 800268a:	d110      	bne.n	80026ae <HAL_RCC_OscConfig+0x21a>
 800268c:	2f02      	cmp	r7, #2
 800268e:	d10e      	bne.n	80026ae <HAL_RCC_OscConfig+0x21a>
 8002690:	6823      	ldr	r3, [r4, #0]
 8002692:	0559      	lsls	r1, r3, #21
 8002694:	d503      	bpl.n	800269e <HAL_RCC_OscConfig+0x20a>
 8002696:	68eb      	ldr	r3, [r5, #12]
 8002698:	2b00      	cmp	r3, #0
 800269a:	f43f aeff 	beq.w	800249c <HAL_RCC_OscConfig+0x8>
 800269e:	6863      	ldr	r3, [r4, #4]
 80026a0:	692a      	ldr	r2, [r5, #16]
 80026a2:	f023 43fe 	bic.w	r3, r3, #2130706432	; 0x7f000000
 80026a6:	ea43 6302 	orr.w	r3, r3, r2, lsl #24
 80026aa:	6063      	str	r3, [r4, #4]
 80026ac:	e77e      	b.n	80025ac <HAL_RCC_OscConfig+0x118>
 80026ae:	68eb      	ldr	r3, [r5, #12]
 80026b0:	b17b      	cbz	r3, 80026d2 <HAL_RCC_OscConfig+0x23e>
 80026b2:	6823      	ldr	r3, [r4, #0]
 80026b4:	f443 7380 	orr.w	r3, r3, #256	; 0x100
 80026b8:	6023      	str	r3, [r4, #0]
 80026ba:	f7fe faef 	bl	8000c9c <HAL_GetTick>
 80026be:	4607      	mov	r7, r0
 80026c0:	6823      	ldr	r3, [r4, #0]
 80026c2:	055a      	lsls	r2, r3, #21
 80026c4:	d4eb      	bmi.n	800269e <HAL_RCC_OscConfig+0x20a>
 80026c6:	f7fe fae9 	bl	8000c9c <HAL_GetTick>
 80026ca:	1bc0      	subs	r0, r0, r7
 80026cc:	2802      	cmp	r0, #2
 80026ce:	d9f7      	bls.n	80026c0 <HAL_RCC_OscConfig+0x22c>
 80026d0:	e784      	b.n	80025dc <HAL_RCC_OscConfig+0x148>
 80026d2:	6823      	ldr	r3, [r4, #0]
 80026d4:	f423 7380 	bic.w	r3, r3, #256	; 0x100
 80026d8:	6023      	str	r3, [r4, #0]
 80026da:	f7fe fadf 	bl	8000c9c <HAL_GetTick>
 80026de:	4607      	mov	r7, r0
 80026e0:	6823      	ldr	r3, [r4, #0]
 80026e2:	055b      	lsls	r3, r3, #21
 80026e4:	f57f af62 	bpl.w	80025ac <HAL_RCC_OscConfig+0x118>
 80026e8:	f7fe fad8 	bl	8000c9c <HAL_GetTick>
 80026ec:	1bc0      	subs	r0, r0, r7
 80026ee:	2802      	cmp	r0, #2
 80026f0:	d9f6      	bls.n	80026e0 <HAL_RCC_OscConfig+0x24c>
 80026f2:	e773      	b.n	80025dc <HAL_RCC_OscConfig+0x148>
 80026f4:	40021000 	.word	0x40021000
 80026f8:	0800367c 	.word	0x0800367c
 80026fc:	20000000 	.word	0x20000000
 8002700:	20000008 	.word	0x20000008
 8002704:	696b      	ldr	r3, [r5, #20]
 8002706:	b19b      	cbz	r3, 8002730 <HAL_RCC_OscConfig+0x29c>
 8002708:	f8d4 3094 	ldr.w	r3, [r4, #148]	; 0x94
 800270c:	f043 0301 	orr.w	r3, r3, #1
 8002710:	f8c4 3094 	str.w	r3, [r4, #148]	; 0x94
 8002714:	f7fe fac2 	bl	8000c9c <HAL_GetTick>
 8002718:	4607      	mov	r7, r0
 800271a:	f8d4 3094 	ldr.w	r3, [r4, #148]	; 0x94
 800271e:	079a      	lsls	r2, r3, #30
 8002720:	f53f af48 	bmi.w	80025b4 <HAL_RCC_OscConfig+0x120>
 8002724:	f7fe faba 	bl	8000c9c <HAL_GetTick>
 8002728:	1bc0      	subs	r0, r0, r7
 800272a:	2802      	cmp	r0, #2
 800272c:	d9f5      	bls.n	800271a <HAL_RCC_OscConfig+0x286>
 800272e:	e755      	b.n	80025dc <HAL_RCC_OscConfig+0x148>
 8002730:	f8d4 3094 	ldr.w	r3, [r4, #148]	; 0x94
 8002734:	f023 0301 	bic.w	r3, r3, #1
 8002738:	f8c4 3094 	str.w	r3, [r4, #148]	; 0x94
 800273c:	f7fe faae 	bl	8000c9c <HAL_GetTick>
 8002740:	4607      	mov	r7, r0
 8002742:	f8d4 3094 	ldr.w	r3, [r4, #148]	; 0x94
 8002746:	079b      	lsls	r3, r3, #30
 8002748:	f57f af34 	bpl.w	80025b4 <HAL_RCC_OscConfig+0x120>
 800274c:	f7fe faa6 	bl	8000c9c <HAL_GetTick>
 8002750:	1bc0      	subs	r0, r0, r7
 8002752:	2802      	cmp	r0, #2
 8002754:	d9f5      	bls.n	8002742 <HAL_RCC_OscConfig+0x2ae>
 8002756:	e741      	b.n	80025dc <HAL_RCC_OscConfig+0x148>
 8002758:	6da3      	ldr	r3, [r4, #88]	; 0x58
 800275a:	00d8      	lsls	r0, r3, #3
 800275c:	d429      	bmi.n	80027b2 <HAL_RCC_OscConfig+0x31e>
 800275e:	6da3      	ldr	r3, [r4, #88]	; 0x58
 8002760:	f043 5380 	orr.w	r3, r3, #268435456	; 0x10000000
 8002764:	65a3      	str	r3, [r4, #88]	; 0x58
 8002766:	6da3      	ldr	r3, [r4, #88]	; 0x58
 8002768:	f003 5380 	and.w	r3, r3, #268435456	; 0x10000000
 800276c:	9301      	str	r3, [sp, #4]
 800276e:	9b01      	ldr	r3, [sp, #4]
 8002770:	f04f 0801 	mov.w	r8, #1
 8002774:	4f96      	ldr	r7, [pc, #600]	; (80029d0 <HAL_RCC_OscConfig+0x53c>)
 8002776:	683b      	ldr	r3, [r7, #0]
 8002778:	05d9      	lsls	r1, r3, #23
 800277a:	d51d      	bpl.n	80027b8 <HAL_RCC_OscConfig+0x324>
 800277c:	68ab      	ldr	r3, [r5, #8]
 800277e:	2b01      	cmp	r3, #1
 8002780:	d12b      	bne.n	80027da <HAL_RCC_OscConfig+0x346>
 8002782:	f8d4 3090 	ldr.w	r3, [r4, #144]	; 0x90
 8002786:	f043 0301 	orr.w	r3, r3, #1
 800278a:	f8c4 3090 	str.w	r3, [r4, #144]	; 0x90
 800278e:	f7fe fa85 	bl	8000c9c <HAL_GetTick>
 8002792:	f241 3988 	movw	r9, #5000	; 0x1388
 8002796:	4607      	mov	r7, r0
 8002798:	f8d4 3090 	ldr.w	r3, [r4, #144]	; 0x90
 800279c:	079b      	lsls	r3, r3, #30
 800279e:	d542      	bpl.n	8002826 <HAL_RCC_OscConfig+0x392>
 80027a0:	f1b8 0f00 	cmp.w	r8, #0
 80027a4:	f43f af0a 	beq.w	80025bc <HAL_RCC_OscConfig+0x128>
 80027a8:	6da3      	ldr	r3, [r4, #88]	; 0x58
 80027aa:	f023 5380 	bic.w	r3, r3, #268435456	; 0x10000000
 80027ae:	65a3      	str	r3, [r4, #88]	; 0x58
 80027b0:	e704      	b.n	80025bc <HAL_RCC_OscConfig+0x128>
 80027b2:	f04f 0800 	mov.w	r8, #0
 80027b6:	e7dd      	b.n	8002774 <HAL_RCC_OscConfig+0x2e0>
 80027b8:	683b      	ldr	r3, [r7, #0]
 80027ba:	f443 7380 	orr.w	r3, r3, #256	; 0x100
 80027be:	603b      	str	r3, [r7, #0]
 80027c0:	f7fe fa6c 	bl	8000c9c <HAL_GetTick>
 80027c4:	4681      	mov	r9, r0
 80027c6:	683b      	ldr	r3, [r7, #0]
 80027c8:	05da      	lsls	r2, r3, #23
 80027ca:	d4d7      	bmi.n	800277c <HAL_RCC_OscConfig+0x2e8>
 80027cc:	f7fe fa66 	bl	8000c9c <HAL_GetTick>
 80027d0:	eba0 0009 	sub.w	r0, r0, r9
 80027d4:	2802      	cmp	r0, #2
 80027d6:	d9f6      	bls.n	80027c6 <HAL_RCC_OscConfig+0x332>
 80027d8:	e700      	b.n	80025dc <HAL_RCC_OscConfig+0x148>
 80027da:	2b05      	cmp	r3, #5
 80027dc:	d106      	bne.n	80027ec <HAL_RCC_OscConfig+0x358>
 80027de:	f8d4 3090 	ldr.w	r3, [r4, #144]	; 0x90
 80027e2:	f043 0304 	orr.w	r3, r3, #4
 80027e6:	f8c4 3090 	str.w	r3, [r4, #144]	; 0x90
 80027ea:	e7ca      	b.n	8002782 <HAL_RCC_OscConfig+0x2ee>
 80027ec:	f8d4 2090 	ldr.w	r2, [r4, #144]	; 0x90
 80027f0:	f022 0201 	bic.w	r2, r2, #1
 80027f4:	f8c4 2090 	str.w	r2, [r4, #144]	; 0x90
 80027f8:	f8d4 2090 	ldr.w	r2, [r4, #144]	; 0x90
 80027fc:	f022 0204 	bic.w	r2, r2, #4
 8002800:	f8c4 2090 	str.w	r2, [r4, #144]	; 0x90
 8002804:	2b00      	cmp	r3, #0
 8002806:	d1c2      	bne.n	800278e <HAL_RCC_OscConfig+0x2fa>
 8002808:	f7fe fa48 	bl	8000c9c <HAL_GetTick>
 800280c:	f241 3988 	movw	r9, #5000	; 0x1388
 8002810:	4607      	mov	r7, r0
 8002812:	f8d4 3090 	ldr.w	r3, [r4, #144]	; 0x90
 8002816:	0798      	lsls	r0, r3, #30
 8002818:	d5c2      	bpl.n	80027a0 <HAL_RCC_OscConfig+0x30c>
 800281a:	f7fe fa3f 	bl	8000c9c <HAL_GetTick>
 800281e:	1bc0      	subs	r0, r0, r7
 8002820:	4548      	cmp	r0, r9
 8002822:	d9f6      	bls.n	8002812 <HAL_RCC_OscConfig+0x37e>
 8002824:	e6da      	b.n	80025dc <HAL_RCC_OscConfig+0x148>
 8002826:	f7fe fa39 	bl	8000c9c <HAL_GetTick>
 800282a:	1bc0      	subs	r0, r0, r7
 800282c:	4548      	cmp	r0, r9
 800282e:	d9b3      	bls.n	8002798 <HAL_RCC_OscConfig+0x304>
 8002830:	e6d4      	b.n	80025dc <HAL_RCC_OscConfig+0x148>
 8002832:	6a6b      	ldr	r3, [r5, #36]	; 0x24
 8002834:	b19b      	cbz	r3, 800285e <HAL_RCC_OscConfig+0x3ca>
 8002836:	f8d4 3098 	ldr.w	r3, [r4, #152]	; 0x98
 800283a:	f043 0301 	orr.w	r3, r3, #1
 800283e:	f8c4 3098 	str.w	r3, [r4, #152]	; 0x98
 8002842:	f7fe fa2b 	bl	8000c9c <HAL_GetTick>
 8002846:	4607      	mov	r7, r0
 8002848:	f8d4 3098 	ldr.w	r3, [r4, #152]	; 0x98
 800284c:	079a      	lsls	r2, r3, #30
 800284e:	f53f aeb9 	bmi.w	80025c4 <HAL_RCC_OscConfig+0x130>
 8002852:	f7fe fa23 	bl	8000c9c <HAL_GetTick>
 8002856:	1bc0      	subs	r0, r0, r7
 8002858:	2802      	cmp	r0, #2
 800285a:	d9f5      	bls.n	8002848 <HAL_RCC_OscConfig+0x3b4>
 800285c:	e6be      	b.n	80025dc <HAL_RCC_OscConfig+0x148>
 800285e:	f8d4 3098 	ldr.w	r3, [r4, #152]	; 0x98
 8002862:	f023 0301 	bic.w	r3, r3, #1
 8002866:	f8c4 3098 	str.w	r3, [r4, #152]	; 0x98
 800286a:	f7fe fa17 	bl	8000c9c <HAL_GetTick>
 800286e:	4607      	mov	r7, r0
 8002870:	f8d4 3098 	ldr.w	r3, [r4, #152]	; 0x98
 8002874:	079b      	lsls	r3, r3, #30
 8002876:	f57f aea5 	bpl.w	80025c4 <HAL_RCC_OscConfig+0x130>
 800287a:	f7fe fa0f 	bl	8000c9c <HAL_GetTick>
 800287e:	1bc0      	subs	r0, r0, r7
 8002880:	2802      	cmp	r0, #2
 8002882:	d9f5      	bls.n	8002870 <HAL_RCC_OscConfig+0x3dc>
 8002884:	e6aa      	b.n	80025dc <HAL_RCC_OscConfig+0x148>
 8002886:	2b02      	cmp	r3, #2
 8002888:	f040 8088 	bne.w	800299c <HAL_RCC_OscConfig+0x508>
 800288c:	68e3      	ldr	r3, [r4, #12]
 800288e:	6aea      	ldr	r2, [r5, #44]	; 0x2c
 8002890:	f003 0103 	and.w	r1, r3, #3
 8002894:	4291      	cmp	r1, r2
 8002896:	d122      	bne.n	80028de <HAL_RCC_OscConfig+0x44a>
 8002898:	6b29      	ldr	r1, [r5, #48]	; 0x30
 800289a:	f003 0270 	and.w	r2, r3, #112	; 0x70
 800289e:	3901      	subs	r1, #1
 80028a0:	ebb2 1f01 	cmp.w	r2, r1, lsl #4
 80028a4:	d11b      	bne.n	80028de <HAL_RCC_OscConfig+0x44a>
 80028a6:	6b69      	ldr	r1, [r5, #52]	; 0x34
 80028a8:	f403 42fe 	and.w	r2, r3, #32512	; 0x7f00
 80028ac:	ebb2 2f01 	cmp.w	r2, r1, lsl #8
 80028b0:	d115      	bne.n	80028de <HAL_RCC_OscConfig+0x44a>
 80028b2:	6ba9      	ldr	r1, [r5, #56]	; 0x38
 80028b4:	f003 4278 	and.w	r2, r3, #4160749568	; 0xf8000000
 80028b8:	ebb2 6fc1 	cmp.w	r2, r1, lsl #27
 80028bc:	d10f      	bne.n	80028de <HAL_RCC_OscConfig+0x44a>
 80028be:	6bea      	ldr	r2, [r5, #60]	; 0x3c
 80028c0:	0852      	lsrs	r2, r2, #1
 80028c2:	f403 01c0 	and.w	r1, r3, #6291456	; 0x600000
 80028c6:	3a01      	subs	r2, #1
 80028c8:	ebb1 5f42 	cmp.w	r1, r2, lsl #21
 80028cc:	d107      	bne.n	80028de <HAL_RCC_OscConfig+0x44a>
 80028ce:	6c2a      	ldr	r2, [r5, #64]	; 0x40
 80028d0:	0852      	lsrs	r2, r2, #1
 80028d2:	f003 63c0 	and.w	r3, r3, #100663296	; 0x6000000
 80028d6:	3a01      	subs	r2, #1
 80028d8:	ebb3 6f42 	cmp.w	r3, r2, lsl #25
 80028dc:	d045      	beq.n	800296a <HAL_RCC_OscConfig+0x4d6>
 80028de:	2e0c      	cmp	r6, #12
 80028e0:	f43f addc 	beq.w	800249c <HAL_RCC_OscConfig+0x8>
 80028e4:	6823      	ldr	r3, [r4, #0]
 80028e6:	015e      	lsls	r6, r3, #5
 80028e8:	f53f add8 	bmi.w	800249c <HAL_RCC_OscConfig+0x8>
 80028ec:	6823      	ldr	r3, [r4, #0]
 80028ee:	f023 7380 	bic.w	r3, r3, #16777216	; 0x1000000
 80028f2:	6023      	str	r3, [r4, #0]
 80028f4:	f7fe f9d2 	bl	8000c9c <HAL_GetTick>
 80028f8:	4606      	mov	r6, r0
 80028fa:	6823      	ldr	r3, [r4, #0]
 80028fc:	0198      	lsls	r0, r3, #6
 80028fe:	d42e      	bmi.n	800295e <HAL_RCC_OscConfig+0x4ca>
 8002900:	68e2      	ldr	r2, [r4, #12]
 8002902:	4b34      	ldr	r3, [pc, #208]	; (80029d4 <HAL_RCC_OscConfig+0x540>)
 8002904:	4013      	ands	r3, r2
 8002906:	6aea      	ldr	r2, [r5, #44]	; 0x2c
 8002908:	4313      	orrs	r3, r2
 800290a:	6b6a      	ldr	r2, [r5, #52]	; 0x34
 800290c:	ea43 2302 	orr.w	r3, r3, r2, lsl #8
 8002910:	6baa      	ldr	r2, [r5, #56]	; 0x38
 8002912:	ea43 63c2 	orr.w	r3, r3, r2, lsl #27
 8002916:	6b2a      	ldr	r2, [r5, #48]	; 0x30
 8002918:	3a01      	subs	r2, #1
 800291a:	ea43 1302 	orr.w	r3, r3, r2, lsl #4
 800291e:	6bea      	ldr	r2, [r5, #60]	; 0x3c
 8002920:	0852      	lsrs	r2, r2, #1
 8002922:	3a01      	subs	r2, #1
 8002924:	ea43 5342 	orr.w	r3, r3, r2, lsl #21
 8002928:	6c2a      	ldr	r2, [r5, #64]	; 0x40
 800292a:	0852      	lsrs	r2, r2, #1
 800292c:	3a01      	subs	r2, #1
 800292e:	ea43 6342 	orr.w	r3, r3, r2, lsl #25
 8002932:	60e3      	str	r3, [r4, #12]
 8002934:	6823      	ldr	r3, [r4, #0]
 8002936:	f043 7380 	orr.w	r3, r3, #16777216	; 0x1000000
 800293a:	6023      	str	r3, [r4, #0]
 800293c:	68e3      	ldr	r3, [r4, #12]
 800293e:	f043 7380 	orr.w	r3, r3, #16777216	; 0x1000000
 8002942:	60e3      	str	r3, [r4, #12]
 8002944:	f7fe f9aa 	bl	8000c9c <HAL_GetTick>
 8002948:	4605      	mov	r5, r0
 800294a:	6823      	ldr	r3, [r4, #0]
 800294c:	0199      	lsls	r1, r3, #6
 800294e:	f53f ae3d 	bmi.w	80025cc <HAL_RCC_OscConfig+0x138>
 8002952:	f7fe f9a3 	bl	8000c9c <HAL_GetTick>
 8002956:	1b40      	subs	r0, r0, r5
 8002958:	2802      	cmp	r0, #2
 800295a:	d9f6      	bls.n	800294a <HAL_RCC_OscConfig+0x4b6>
 800295c:	e63e      	b.n	80025dc <HAL_RCC_OscConfig+0x148>
 800295e:	f7fe f99d 	bl	8000c9c <HAL_GetTick>
 8002962:	1b80      	subs	r0, r0, r6
 8002964:	2802      	cmp	r0, #2
 8002966:	d9c8      	bls.n	80028fa <HAL_RCC_OscConfig+0x466>
 8002968:	e638      	b.n	80025dc <HAL_RCC_OscConfig+0x148>
 800296a:	6823      	ldr	r3, [r4, #0]
 800296c:	019a      	lsls	r2, r3, #6
 800296e:	f53f ae2d 	bmi.w	80025cc <HAL_RCC_OscConfig+0x138>
 8002972:	6823      	ldr	r3, [r4, #0]
 8002974:	f043 7380 	orr.w	r3, r3, #16777216	; 0x1000000
 8002978:	6023      	str	r3, [r4, #0]
 800297a:	68e3      	ldr	r3, [r4, #12]
 800297c:	f043 7380 	orr.w	r3, r3, #16777216	; 0x1000000
 8002980:	60e3      	str	r3, [r4, #12]
 8002982:	f7fe f98b 	bl	8000c9c <HAL_GetTick>
 8002986:	4605      	mov	r5, r0
 8002988:	6823      	ldr	r3, [r4, #0]
 800298a:	019b      	lsls	r3, r3, #6
 800298c:	f53f ae1e 	bmi.w	80025cc <HAL_RCC_OscConfig+0x138>
 8002990:	f7fe f984 	bl	8000c9c <HAL_GetTick>
 8002994:	1b40      	subs	r0, r0, r5
 8002996:	2802      	cmp	r0, #2
 8002998:	d9f6      	bls.n	8002988 <HAL_RCC_OscConfig+0x4f4>
 800299a:	e61f      	b.n	80025dc <HAL_RCC_OscConfig+0x148>
 800299c:	2e0c      	cmp	r6, #12
 800299e:	f43f ad7d 	beq.w	800249c <HAL_RCC_OscConfig+0x8>
 80029a2:	6823      	ldr	r3, [r4, #0]
 80029a4:	f023 7380 	bic.w	r3, r3, #16777216	; 0x1000000
 80029a8:	6023      	str	r3, [r4, #0]
 80029aa:	f7fe f977 	bl	8000c9c <HAL_GetTick>
 80029ae:	4605      	mov	r5, r0
 80029b0:	6823      	ldr	r3, [r4, #0]
 80029b2:	f013 7300 	ands.w	r3, r3, #33554432	; 0x2000000
 80029b6:	d104      	bne.n	80029c2 <HAL_RCC_OscConfig+0x52e>
 80029b8:	68e1      	ldr	r1, [r4, #12]
 80029ba:	4a07      	ldr	r2, [pc, #28]	; (80029d8 <HAL_RCC_OscConfig+0x544>)
 80029bc:	400a      	ands	r2, r1
 80029be:	60e2      	str	r2, [r4, #12]
 80029c0:	e604      	b.n	80025cc <HAL_RCC_OscConfig+0x138>
 80029c2:	f7fe f96b 	bl	8000c9c <HAL_GetTick>
 80029c6:	1b40      	subs	r0, r0, r5
 80029c8:	2802      	cmp	r0, #2
 80029ca:	d9f1      	bls.n	80029b0 <HAL_RCC_OscConfig+0x51c>
 80029cc:	e606      	b.n	80025dc <HAL_RCC_OscConfig+0x148>
 80029ce:	bf00      	nop
 80029d0:	40007000 	.word	0x40007000
 80029d4:	019d808c 	.word	0x019d808c
 80029d8:	feeefffc 	.word	0xfeeefffc

080029dc <HAL_RCC_ClockConfig>:
 80029dc:	e92d 41f0 	stmdb	sp!, {r4, r5, r6, r7, r8, lr}
 80029e0:	460d      	mov	r5, r1
 80029e2:	4604      	mov	r4, r0
 80029e4:	b910      	cbnz	r0, 80029ec <HAL_RCC_ClockConfig+0x10>
 80029e6:	2001      	movs	r0, #1
 80029e8:	e8bd 81f0 	ldmia.w	sp!, {r4, r5, r6, r7, r8, pc}
 80029ec:	4a4b      	ldr	r2, [pc, #300]	; (8002b1c <HAL_RCC_ClockConfig+0x140>)
 80029ee:	6813      	ldr	r3, [r2, #0]
 80029f0:	f003 0307 	and.w	r3, r3, #7
 80029f4:	428b      	cmp	r3, r1
 80029f6:	d32c      	bcc.n	8002a52 <HAL_RCC_ClockConfig+0x76>
 80029f8:	6820      	ldr	r0, [r4, #0]
 80029fa:	0786      	lsls	r6, r0, #30
 80029fc:	d434      	bmi.n	8002a68 <HAL_RCC_ClockConfig+0x8c>
 80029fe:	07c1      	lsls	r1, r0, #31
 8002a00:	d43f      	bmi.n	8002a82 <HAL_RCC_ClockConfig+0xa6>
 8002a02:	6821      	ldr	r1, [r4, #0]
 8002a04:	078a      	lsls	r2, r1, #30
 8002a06:	d468      	bmi.n	8002ada <HAL_RCC_ClockConfig+0xfe>
 8002a08:	4a44      	ldr	r2, [pc, #272]	; (8002b1c <HAL_RCC_ClockConfig+0x140>)
 8002a0a:	6813      	ldr	r3, [r2, #0]
 8002a0c:	f003 0307 	and.w	r3, r3, #7
 8002a10:	42ab      	cmp	r3, r5
 8002a12:	d86f      	bhi.n	8002af4 <HAL_RCC_ClockConfig+0x118>
 8002a14:	f011 0f04 	tst.w	r1, #4
 8002a18:	4d41      	ldr	r5, [pc, #260]	; (8002b20 <HAL_RCC_ClockConfig+0x144>)
 8002a1a:	d177      	bne.n	8002b0c <HAL_RCC_ClockConfig+0x130>
 8002a1c:	070b      	lsls	r3, r1, #28
 8002a1e:	d506      	bpl.n	8002a2e <HAL_RCC_ClockConfig+0x52>
 8002a20:	68ab      	ldr	r3, [r5, #8]
 8002a22:	6922      	ldr	r2, [r4, #16]
 8002a24:	f423 5360 	bic.w	r3, r3, #14336	; 0x3800
 8002a28:	ea43 03c2 	orr.w	r3, r3, r2, lsl #3
 8002a2c:	60ab      	str	r3, [r5, #8]
 8002a2e:	f7ff fce3 	bl	80023f8 <HAL_RCC_GetSysClockFreq>
 8002a32:	68ab      	ldr	r3, [r5, #8]
 8002a34:	4a3b      	ldr	r2, [pc, #236]	; (8002b24 <HAL_RCC_ClockConfig+0x148>)
 8002a36:	f3c3 1303 	ubfx	r3, r3, #4, #4
 8002a3a:	e8bd 41f0 	ldmia.w	sp!, {r4, r5, r6, r7, r8, lr}
 8002a3e:	5cd3      	ldrb	r3, [r2, r3]
 8002a40:	f003 031f 	and.w	r3, r3, #31
 8002a44:	40d8      	lsrs	r0, r3
 8002a46:	4b38      	ldr	r3, [pc, #224]	; (8002b28 <HAL_RCC_ClockConfig+0x14c>)
 8002a48:	6018      	str	r0, [r3, #0]
 8002a4a:	4b38      	ldr	r3, [pc, #224]	; (8002b2c <HAL_RCC_ClockConfig+0x150>)
 8002a4c:	6818      	ldr	r0, [r3, #0]
 8002a4e:	f7fe b8e3 	b.w	8000c18 <HAL_InitTick>
 8002a52:	6813      	ldr	r3, [r2, #0]
 8002a54:	f023 0307 	bic.w	r3, r3, #7
 8002a58:	430b      	orrs	r3, r1
 8002a5a:	6013      	str	r3, [r2, #0]
 8002a5c:	6813      	ldr	r3, [r2, #0]
 8002a5e:	f003 0307 	and.w	r3, r3, #7
 8002a62:	428b      	cmp	r3, r1
 8002a64:	d1bf      	bne.n	80029e6 <HAL_RCC_ClockConfig+0xa>
 8002a66:	e7c7      	b.n	80029f8 <HAL_RCC_ClockConfig+0x1c>
 8002a68:	4a2d      	ldr	r2, [pc, #180]	; (8002b20 <HAL_RCC_ClockConfig+0x144>)
 8002a6a:	68a6      	ldr	r6, [r4, #8]
 8002a6c:	6891      	ldr	r1, [r2, #8]
 8002a6e:	f001 01f0 	and.w	r1, r1, #240	; 0xf0
 8002a72:	428e      	cmp	r6, r1
 8002a74:	bf81      	itttt	hi
 8002a76:	6893      	ldrhi	r3, [r2, #8]
 8002a78:	f023 03f0 	bichi.w	r3, r3, #240	; 0xf0
 8002a7c:	4333      	orrhi	r3, r6
 8002a7e:	6093      	strhi	r3, [r2, #8]
 8002a80:	e7bd      	b.n	80029fe <HAL_RCC_ClockConfig+0x22>
 8002a82:	6862      	ldr	r2, [r4, #4]
 8002a84:	4e26      	ldr	r6, [pc, #152]	; (8002b20 <HAL_RCC_ClockConfig+0x144>)
 8002a86:	2a03      	cmp	r2, #3
 8002a88:	6833      	ldr	r3, [r6, #0]
 8002a8a:	d11a      	bne.n	8002ac2 <HAL_RCC_ClockConfig+0xe6>
 8002a8c:	f013 7f00 	tst.w	r3, #33554432	; 0x2000000
 8002a90:	d0a9      	beq.n	80029e6 <HAL_RCC_ClockConfig+0xa>
 8002a92:	68b3      	ldr	r3, [r6, #8]
 8002a94:	f023 0303 	bic.w	r3, r3, #3
 8002a98:	4313      	orrs	r3, r2
 8002a9a:	60b3      	str	r3, [r6, #8]
 8002a9c:	f7fe f8fe 	bl	8000c9c <HAL_GetTick>
 8002aa0:	f241 3888 	movw	r8, #5000	; 0x1388
 8002aa4:	4607      	mov	r7, r0
 8002aa6:	68b3      	ldr	r3, [r6, #8]
 8002aa8:	6862      	ldr	r2, [r4, #4]
 8002aaa:	f003 030c 	and.w	r3, r3, #12
 8002aae:	ebb3 0f82 	cmp.w	r3, r2, lsl #2
 8002ab2:	d0a6      	beq.n	8002a02 <HAL_RCC_ClockConfig+0x26>
 8002ab4:	f7fe f8f2 	bl	8000c9c <HAL_GetTick>
 8002ab8:	1bc0      	subs	r0, r0, r7
 8002aba:	4540      	cmp	r0, r8
 8002abc:	d9f3      	bls.n	8002aa6 <HAL_RCC_ClockConfig+0xca>
 8002abe:	2003      	movs	r0, #3
 8002ac0:	e792      	b.n	80029e8 <HAL_RCC_ClockConfig+0xc>
 8002ac2:	2a02      	cmp	r2, #2
 8002ac4:	d102      	bne.n	8002acc <HAL_RCC_ClockConfig+0xf0>
 8002ac6:	f413 3f00 	tst.w	r3, #131072	; 0x20000
 8002aca:	e7e1      	b.n	8002a90 <HAL_RCC_ClockConfig+0xb4>
 8002acc:	b912      	cbnz	r2, 8002ad4 <HAL_RCC_ClockConfig+0xf8>
 8002ace:	f013 0f02 	tst.w	r3, #2
 8002ad2:	e7dd      	b.n	8002a90 <HAL_RCC_ClockConfig+0xb4>
 8002ad4:	f413 6f80 	tst.w	r3, #1024	; 0x400
 8002ad8:	e7da      	b.n	8002a90 <HAL_RCC_ClockConfig+0xb4>
 8002ada:	4a11      	ldr	r2, [pc, #68]	; (8002b20 <HAL_RCC_ClockConfig+0x144>)
 8002adc:	68a6      	ldr	r6, [r4, #8]
 8002ade:	6890      	ldr	r0, [r2, #8]
 8002ae0:	f000 00f0 	and.w	r0, r0, #240	; 0xf0
 8002ae4:	4286      	cmp	r6, r0
 8002ae6:	bf3f      	itttt	cc
 8002ae8:	6893      	ldrcc	r3, [r2, #8]
 8002aea:	f023 03f0 	biccc.w	r3, r3, #240	; 0xf0
 8002aee:	4333      	orrcc	r3, r6
 8002af0:	6093      	strcc	r3, [r2, #8]
 8002af2:	e789      	b.n	8002a08 <HAL_RCC_ClockConfig+0x2c>
 8002af4:	6813      	ldr	r3, [r2, #0]
 8002af6:	f023 0307 	bic.w	r3, r3, #7
 8002afa:	432b      	orrs	r3, r5
 8002afc:	6013      	str	r3, [r2, #0]
 8002afe:	6813      	ldr	r3, [r2, #0]
 8002b00:	f003 0307 	and.w	r3, r3, #7
 8002b04:	42ab      	cmp	r3, r5
 8002b06:	f47f af6e 	bne.w	80029e6 <HAL_RCC_ClockConfig+0xa>
 8002b0a:	e783      	b.n	8002a14 <HAL_RCC_ClockConfig+0x38>
 8002b0c:	68ab      	ldr	r3, [r5, #8]
 8002b0e:	68e2      	ldr	r2, [r4, #12]
 8002b10:	f423 63e0 	bic.w	r3, r3, #1792	; 0x700
 8002b14:	4313      	orrs	r3, r2
 8002b16:	60ab      	str	r3, [r5, #8]
 8002b18:	e780      	b.n	8002a1c <HAL_RCC_ClockConfig+0x40>
 8002b1a:	bf00      	nop
 8002b1c:	40022000 	.word	0x40022000
 8002b20:	40021000 	.word	0x40021000
 8002b24:	0800367c 	.word	0x0800367c
 8002b28:	20000000 	.word	0x20000000
 8002b2c:	20000008 	.word	0x20000008

08002b30 <RCCEx_PLLSAI1_Config>:
 8002b30:	b5f8      	push	{r3, r4, r5, r6, r7, lr}
 8002b32:	4c43      	ldr	r4, [pc, #268]	; (8002c40 <RCCEx_PLLSAI1_Config+0x110>)
 8002b34:	6803      	ldr	r3, [r0, #0]
 8002b36:	68e2      	ldr	r2, [r4, #12]
 8002b38:	4605      	mov	r5, r0
 8002b3a:	0790      	lsls	r0, r2, #30
 8002b3c:	460e      	mov	r6, r1
 8002b3e:	d039      	beq.n	8002bb4 <RCCEx_PLLSAI1_Config+0x84>
 8002b40:	68e2      	ldr	r2, [r4, #12]
 8002b42:	f002 0203 	and.w	r2, r2, #3
 8002b46:	429a      	cmp	r2, r3
 8002b48:	d177      	bne.n	8002c3a <RCCEx_PLLSAI1_Config+0x10a>
 8002b4a:	2a00      	cmp	r2, #0
 8002b4c:	d075      	beq.n	8002c3a <RCCEx_PLLSAI1_Config+0x10a>
 8002b4e:	68e3      	ldr	r3, [r4, #12]
 8002b50:	686a      	ldr	r2, [r5, #4]
 8002b52:	f3c3 1302 	ubfx	r3, r3, #4, #3
 8002b56:	3301      	adds	r3, #1
 8002b58:	4293      	cmp	r3, r2
 8002b5a:	d16e      	bne.n	8002c3a <RCCEx_PLLSAI1_Config+0x10a>
 8002b5c:	6823      	ldr	r3, [r4, #0]
 8002b5e:	f023 6380 	bic.w	r3, r3, #67108864	; 0x4000000
 8002b62:	6023      	str	r3, [r4, #0]
 8002b64:	f7fe f89a 	bl	8000c9c <HAL_GetTick>
 8002b68:	4607      	mov	r7, r0
 8002b6a:	6823      	ldr	r3, [r4, #0]
 8002b6c:	011a      	lsls	r2, r3, #4
 8002b6e:	d440      	bmi.n	8002bf2 <RCCEx_PLLSAI1_Config+0xc2>
 8002b70:	68ab      	ldr	r3, [r5, #8]
 8002b72:	0218      	lsls	r0, r3, #8
 8002b74:	2e00      	cmp	r6, #0
 8002b76:	d043      	beq.n	8002c00 <RCCEx_PLLSAI1_Config+0xd0>
 8002b78:	2e01      	cmp	r6, #1
 8002b7a:	d14c      	bne.n	8002c16 <RCCEx_PLLSAI1_Config+0xe6>
 8002b7c:	692a      	ldr	r2, [r5, #16]
 8002b7e:	6921      	ldr	r1, [r4, #16]
 8002b80:	0852      	lsrs	r2, r2, #1
 8002b82:	1e53      	subs	r3, r2, #1
 8002b84:	f421 02c0 	bic.w	r2, r1, #6291456	; 0x600000
 8002b88:	f422 42fe 	bic.w	r2, r2, #32512	; 0x7f00
 8002b8c:	4302      	orrs	r2, r0
 8002b8e:	ea42 5243 	orr.w	r2, r2, r3, lsl #21
 8002b92:	6122      	str	r2, [r4, #16]
 8002b94:	6823      	ldr	r3, [r4, #0]
 8002b96:	f043 6380 	orr.w	r3, r3, #67108864	; 0x4000000
 8002b9a:	6023      	str	r3, [r4, #0]
 8002b9c:	f7fe f87e 	bl	8000c9c <HAL_GetTick>
 8002ba0:	4606      	mov	r6, r0
 8002ba2:	6823      	ldr	r3, [r4, #0]
 8002ba4:	011b      	lsls	r3, r3, #4
 8002ba6:	d542      	bpl.n	8002c2e <RCCEx_PLLSAI1_Config+0xfe>
 8002ba8:	6923      	ldr	r3, [r4, #16]
 8002baa:	69aa      	ldr	r2, [r5, #24]
 8002bac:	4313      	orrs	r3, r2
 8002bae:	6123      	str	r3, [r4, #16]
 8002bb0:	2000      	movs	r0, #0
 8002bb2:	e024      	b.n	8002bfe <RCCEx_PLLSAI1_Config+0xce>
 8002bb4:	2b02      	cmp	r3, #2
 8002bb6:	d011      	beq.n	8002bdc <RCCEx_PLLSAI1_Config+0xac>
 8002bb8:	2b03      	cmp	r3, #3
 8002bba:	d013      	beq.n	8002be4 <RCCEx_PLLSAI1_Config+0xb4>
 8002bbc:	2b01      	cmp	r3, #1
 8002bbe:	d13c      	bne.n	8002c3a <RCCEx_PLLSAI1_Config+0x10a>
 8002bc0:	6822      	ldr	r2, [r4, #0]
 8002bc2:	f012 0f02 	tst.w	r2, #2
 8002bc6:	d038      	beq.n	8002c3a <RCCEx_PLLSAI1_Config+0x10a>
 8002bc8:	68e0      	ldr	r0, [r4, #12]
 8002bca:	686a      	ldr	r2, [r5, #4]
 8002bcc:	f020 0073 	bic.w	r0, r0, #115	; 0x73
 8002bd0:	3a01      	subs	r2, #1
 8002bd2:	4318      	orrs	r0, r3
 8002bd4:	ea40 1002 	orr.w	r0, r0, r2, lsl #4
 8002bd8:	60e0      	str	r0, [r4, #12]
 8002bda:	e7bf      	b.n	8002b5c <RCCEx_PLLSAI1_Config+0x2c>
 8002bdc:	6822      	ldr	r2, [r4, #0]
 8002bde:	f412 6f80 	tst.w	r2, #1024	; 0x400
 8002be2:	e7f0      	b.n	8002bc6 <RCCEx_PLLSAI1_Config+0x96>
 8002be4:	6822      	ldr	r2, [r4, #0]
 8002be6:	0391      	lsls	r1, r2, #14
 8002be8:	d4ee      	bmi.n	8002bc8 <RCCEx_PLLSAI1_Config+0x98>
 8002bea:	6822      	ldr	r2, [r4, #0]
 8002bec:	f412 2f80 	tst.w	r2, #262144	; 0x40000
 8002bf0:	e7e9      	b.n	8002bc6 <RCCEx_PLLSAI1_Config+0x96>
 8002bf2:	f7fe f853 	bl	8000c9c <HAL_GetTick>
 8002bf6:	1bc0      	subs	r0, r0, r7
 8002bf8:	2802      	cmp	r0, #2
 8002bfa:	d9b6      	bls.n	8002b6a <RCCEx_PLLSAI1_Config+0x3a>
 8002bfc:	2003      	movs	r0, #3
 8002bfe:	bdf8      	pop	{r3, r4, r5, r6, r7, pc}
 8002c00:	6922      	ldr	r2, [r4, #16]
 8002c02:	68eb      	ldr	r3, [r5, #12]
 8002c04:	ea40 63c3 	orr.w	r3, r0, r3, lsl #27
 8002c08:	f022 4078 	bic.w	r0, r2, #4160749568	; 0xf8000000
 8002c0c:	f420 40fe 	bic.w	r0, r0, #32512	; 0x7f00
 8002c10:	4303      	orrs	r3, r0
 8002c12:	6123      	str	r3, [r4, #16]
 8002c14:	e7be      	b.n	8002b94 <RCCEx_PLLSAI1_Config+0x64>
 8002c16:	696b      	ldr	r3, [r5, #20]
 8002c18:	6922      	ldr	r2, [r4, #16]
 8002c1a:	085b      	lsrs	r3, r3, #1
 8002c1c:	1e59      	subs	r1, r3, #1
 8002c1e:	f022 63c0 	bic.w	r3, r2, #100663296	; 0x6000000
 8002c22:	f423 43fe 	bic.w	r3, r3, #32512	; 0x7f00
 8002c26:	4303      	orrs	r3, r0
 8002c28:	ea43 6341 	orr.w	r3, r3, r1, lsl #25
 8002c2c:	e7f1      	b.n	8002c12 <RCCEx_PLLSAI1_Config+0xe2>
 8002c2e:	f7fe f835 	bl	8000c9c <HAL_GetTick>
 8002c32:	1b80      	subs	r0, r0, r6
 8002c34:	2802      	cmp	r0, #2
 8002c36:	d9b4      	bls.n	8002ba2 <RCCEx_PLLSAI1_Config+0x72>
 8002c38:	e7e0      	b.n	8002bfc <RCCEx_PLLSAI1_Config+0xcc>
 8002c3a:	2001      	movs	r0, #1
 8002c3c:	e7df      	b.n	8002bfe <RCCEx_PLLSAI1_Config+0xce>
 8002c3e:	bf00      	nop
 8002c40:	40021000 	.word	0x40021000

08002c44 <HAL_RCCEx_PeriphCLKConfig>:
 8002c44:	e92d 43f7 	stmdb	sp!, {r0, r1, r2, r4, r5, r6, r7, r8, r9, lr}
 8002c48:	6805      	ldr	r5, [r0, #0]
 8002c4a:	f415 6500 	ands.w	r5, r5, #2048	; 0x800
 8002c4e:	4604      	mov	r4, r0
 8002c50:	d009      	beq.n	8002c66 <HAL_RCCEx_PeriphCLKConfig+0x22>
 8002c52:	6cc1      	ldr	r1, [r0, #76]	; 0x4c
 8002c54:	f5b1 0f00 	cmp.w	r1, #8388608	; 0x800000
 8002c58:	d035      	beq.n	8002cc6 <HAL_RCCEx_PeriphCLKConfig+0x82>
 8002c5a:	f5b1 0f40 	cmp.w	r1, #12582912	; 0xc00000
 8002c5e:	d037      	beq.n	8002cd0 <HAL_RCCEx_PeriphCLKConfig+0x8c>
 8002c60:	2900      	cmp	r1, #0
 8002c62:	d040      	beq.n	8002ce6 <HAL_RCCEx_PeriphCLKConfig+0xa2>
 8002c64:	2501      	movs	r5, #1
 8002c66:	6823      	ldr	r3, [r4, #0]
 8002c68:	039e      	lsls	r6, r3, #14
 8002c6a:	d551      	bpl.n	8002d10 <HAL_RCCEx_PeriphCLKConfig+0xcc>
 8002c6c:	4eaf      	ldr	r6, [pc, #700]	; (8002f2c <HAL_RCCEx_PeriphCLKConfig+0x2e8>)
 8002c6e:	6db3      	ldr	r3, [r6, #88]	; 0x58
 8002c70:	00d8      	lsls	r0, r3, #3
 8002c72:	d43f      	bmi.n	8002cf4 <HAL_RCCEx_PeriphCLKConfig+0xb0>
 8002c74:	6db3      	ldr	r3, [r6, #88]	; 0x58
 8002c76:	f043 5380 	orr.w	r3, r3, #268435456	; 0x10000000
 8002c7a:	65b3      	str	r3, [r6, #88]	; 0x58
 8002c7c:	6db3      	ldr	r3, [r6, #88]	; 0x58
 8002c7e:	f003 5380 	and.w	r3, r3, #268435456	; 0x10000000
 8002c82:	9301      	str	r3, [sp, #4]
 8002c84:	9b01      	ldr	r3, [sp, #4]
 8002c86:	2701      	movs	r7, #1
 8002c88:	f8df 82a4 	ldr.w	r8, [pc, #676]	; 8002f30 <HAL_RCCEx_PeriphCLKConfig+0x2ec>
 8002c8c:	f8d8 3000 	ldr.w	r3, [r8]
 8002c90:	f443 7380 	orr.w	r3, r3, #256	; 0x100
 8002c94:	f8c8 3000 	str.w	r3, [r8]
 8002c98:	f7fe f800 	bl	8000c9c <HAL_GetTick>
 8002c9c:	4681      	mov	r9, r0
 8002c9e:	f8d8 3000 	ldr.w	r3, [r8]
 8002ca2:	05d9      	lsls	r1, r3, #23
 8002ca4:	d528      	bpl.n	8002cf8 <HAL_RCCEx_PeriphCLKConfig+0xb4>
 8002ca6:	bb75      	cbnz	r5, 8002d06 <HAL_RCCEx_PeriphCLKConfig+0xc2>
 8002ca8:	f8d6 3090 	ldr.w	r3, [r6, #144]	; 0x90
 8002cac:	f413 7340 	ands.w	r3, r3, #768	; 0x300
 8002cb0:	f040 8106 	bne.w	8002ec0 <HAL_RCCEx_PeriphCLKConfig+0x27c>
 8002cb4:	f8d6 3090 	ldr.w	r3, [r6, #144]	; 0x90
 8002cb8:	6e62      	ldr	r2, [r4, #100]	; 0x64
 8002cba:	f423 7340 	bic.w	r3, r3, #768	; 0x300
 8002cbe:	4313      	orrs	r3, r2
 8002cc0:	f8c6 3090 	str.w	r3, [r6, #144]	; 0x90
 8002cc4:	e01f      	b.n	8002d06 <HAL_RCCEx_PeriphCLKConfig+0xc2>
 8002cc6:	4a99      	ldr	r2, [pc, #612]	; (8002f2c <HAL_RCCEx_PeriphCLKConfig+0x2e8>)
 8002cc8:	68d3      	ldr	r3, [r2, #12]
 8002cca:	f443 3380 	orr.w	r3, r3, #65536	; 0x10000
 8002cce:	60d3      	str	r3, [r2, #12]
 8002cd0:	4a96      	ldr	r2, [pc, #600]	; (8002f2c <HAL_RCCEx_PeriphCLKConfig+0x2e8>)
 8002cd2:	6ce1      	ldr	r1, [r4, #76]	; 0x4c
 8002cd4:	f8d2 3088 	ldr.w	r3, [r2, #136]	; 0x88
 8002cd8:	f423 0340 	bic.w	r3, r3, #12582912	; 0xc00000
 8002cdc:	430b      	orrs	r3, r1
 8002cde:	f8c2 3088 	str.w	r3, [r2, #136]	; 0x88
 8002ce2:	2500      	movs	r5, #0
 8002ce4:	e7bf      	b.n	8002c66 <HAL_RCCEx_PeriphCLKConfig+0x22>
 8002ce6:	3004      	adds	r0, #4
 8002ce8:	f7ff ff22 	bl	8002b30 <RCCEx_PLLSAI1_Config>
 8002cec:	4605      	mov	r5, r0
 8002cee:	2800      	cmp	r0, #0
 8002cf0:	d1b9      	bne.n	8002c66 <HAL_RCCEx_PeriphCLKConfig+0x22>
 8002cf2:	e7ed      	b.n	8002cd0 <HAL_RCCEx_PeriphCLKConfig+0x8c>
 8002cf4:	2700      	movs	r7, #0
 8002cf6:	e7c7      	b.n	8002c88 <HAL_RCCEx_PeriphCLKConfig+0x44>
 8002cf8:	f7fd ffd0 	bl	8000c9c <HAL_GetTick>
 8002cfc:	eba0 0009 	sub.w	r0, r0, r9
 8002d00:	2802      	cmp	r0, #2
 8002d02:	d9cc      	bls.n	8002c9e <HAL_RCCEx_PeriphCLKConfig+0x5a>
 8002d04:	2503      	movs	r5, #3
 8002d06:	b11f      	cbz	r7, 8002d10 <HAL_RCCEx_PeriphCLKConfig+0xcc>
 8002d08:	6db3      	ldr	r3, [r6, #88]	; 0x58
 8002d0a:	f023 5380 	bic.w	r3, r3, #268435456	; 0x10000000
 8002d0e:	65b3      	str	r3, [r6, #88]	; 0x58
 8002d10:	6823      	ldr	r3, [r4, #0]
 8002d12:	07df      	lsls	r7, r3, #31
 8002d14:	d508      	bpl.n	8002d28 <HAL_RCCEx_PeriphCLKConfig+0xe4>
 8002d16:	4985      	ldr	r1, [pc, #532]	; (8002f2c <HAL_RCCEx_PeriphCLKConfig+0x2e8>)
 8002d18:	6a20      	ldr	r0, [r4, #32]
 8002d1a:	f8d1 2088 	ldr.w	r2, [r1, #136]	; 0x88
 8002d1e:	f022 0203 	bic.w	r2, r2, #3
 8002d22:	4302      	orrs	r2, r0
 8002d24:	f8c1 2088 	str.w	r2, [r1, #136]	; 0x88
 8002d28:	079e      	lsls	r6, r3, #30
 8002d2a:	d508      	bpl.n	8002d3e <HAL_RCCEx_PeriphCLKConfig+0xfa>
 8002d2c:	497f      	ldr	r1, [pc, #508]	; (8002f2c <HAL_RCCEx_PeriphCLKConfig+0x2e8>)
 8002d2e:	6a60      	ldr	r0, [r4, #36]	; 0x24
 8002d30:	f8d1 2088 	ldr.w	r2, [r1, #136]	; 0x88
 8002d34:	f022 020c 	bic.w	r2, r2, #12
 8002d38:	4302      	orrs	r2, r0
 8002d3a:	f8c1 2088 	str.w	r2, [r1, #136]	; 0x88
 8002d3e:	0758      	lsls	r0, r3, #29
 8002d40:	d508      	bpl.n	8002d54 <HAL_RCCEx_PeriphCLKConfig+0x110>
 8002d42:	497a      	ldr	r1, [pc, #488]	; (8002f2c <HAL_RCCEx_PeriphCLKConfig+0x2e8>)
 8002d44:	6aa0      	ldr	r0, [r4, #40]	; 0x28
 8002d46:	f8d1 2088 	ldr.w	r2, [r1, #136]	; 0x88
 8002d4a:	f022 0230 	bic.w	r2, r2, #48	; 0x30
 8002d4e:	4302      	orrs	r2, r0
 8002d50:	f8c1 2088 	str.w	r2, [r1, #136]	; 0x88
 8002d54:	0719      	lsls	r1, r3, #28
 8002d56:	d508      	bpl.n	8002d6a <HAL_RCCEx_PeriphCLKConfig+0x126>
 8002d58:	4974      	ldr	r1, [pc, #464]	; (8002f2c <HAL_RCCEx_PeriphCLKConfig+0x2e8>)
 8002d5a:	6ae0      	ldr	r0, [r4, #44]	; 0x2c
 8002d5c:	f8d1 2088 	ldr.w	r2, [r1, #136]	; 0x88
 8002d60:	f022 02c0 	bic.w	r2, r2, #192	; 0xc0
 8002d64:	4302      	orrs	r2, r0
 8002d66:	f8c1 2088 	str.w	r2, [r1, #136]	; 0x88
 8002d6a:	069a      	lsls	r2, r3, #26
 8002d6c:	d508      	bpl.n	8002d80 <HAL_RCCEx_PeriphCLKConfig+0x13c>
 8002d6e:	496f      	ldr	r1, [pc, #444]	; (8002f2c <HAL_RCCEx_PeriphCLKConfig+0x2e8>)
 8002d70:	6b20      	ldr	r0, [r4, #48]	; 0x30
 8002d72:	f8d1 2088 	ldr.w	r2, [r1, #136]	; 0x88
 8002d76:	f422 6240 	bic.w	r2, r2, #3072	; 0xc00
 8002d7a:	4302      	orrs	r2, r0
 8002d7c:	f8c1 2088 	str.w	r2, [r1, #136]	; 0x88
 8002d80:	059f      	lsls	r7, r3, #22
 8002d82:	d508      	bpl.n	8002d96 <HAL_RCCEx_PeriphCLKConfig+0x152>
 8002d84:	4969      	ldr	r1, [pc, #420]	; (8002f2c <HAL_RCCEx_PeriphCLKConfig+0x2e8>)
 8002d86:	6c60      	ldr	r0, [r4, #68]	; 0x44
 8002d88:	f8d1 2088 	ldr.w	r2, [r1, #136]	; 0x88
 8002d8c:	f422 2240 	bic.w	r2, r2, #786432	; 0xc0000
 8002d90:	4302      	orrs	r2, r0
 8002d92:	f8c1 2088 	str.w	r2, [r1, #136]	; 0x88
 8002d96:	055e      	lsls	r6, r3, #21
 8002d98:	d508      	bpl.n	8002dac <HAL_RCCEx_PeriphCLKConfig+0x168>
 8002d9a:	4964      	ldr	r1, [pc, #400]	; (8002f2c <HAL_RCCEx_PeriphCLKConfig+0x2e8>)
 8002d9c:	6ca0      	ldr	r0, [r4, #72]	; 0x48
 8002d9e:	f8d1 2088 	ldr.w	r2, [r1, #136]	; 0x88
 8002da2:	f422 1240 	bic.w	r2, r2, #3145728	; 0x300000
 8002da6:	4302      	orrs	r2, r0
 8002da8:	f8c1 2088 	str.w	r2, [r1, #136]	; 0x88
 8002dac:	0658      	lsls	r0, r3, #25
 8002dae:	d508      	bpl.n	8002dc2 <HAL_RCCEx_PeriphCLKConfig+0x17e>
 8002db0:	495e      	ldr	r1, [pc, #376]	; (8002f2c <HAL_RCCEx_PeriphCLKConfig+0x2e8>)
 8002db2:	6b60      	ldr	r0, [r4, #52]	; 0x34
 8002db4:	f8d1 2088 	ldr.w	r2, [r1, #136]	; 0x88
 8002db8:	f422 5240 	bic.w	r2, r2, #12288	; 0x3000
 8002dbc:	4302      	orrs	r2, r0
 8002dbe:	f8c1 2088 	str.w	r2, [r1, #136]	; 0x88
 8002dc2:	0619      	lsls	r1, r3, #24
 8002dc4:	d508      	bpl.n	8002dd8 <HAL_RCCEx_PeriphCLKConfig+0x194>
 8002dc6:	4959      	ldr	r1, [pc, #356]	; (8002f2c <HAL_RCCEx_PeriphCLKConfig+0x2e8>)
 8002dc8:	6ba0      	ldr	r0, [r4, #56]	; 0x38
 8002dca:	f8d1 2088 	ldr.w	r2, [r1, #136]	; 0x88
 8002dce:	f422 4240 	bic.w	r2, r2, #49152	; 0xc000
 8002dd2:	4302      	orrs	r2, r0
 8002dd4:	f8c1 2088 	str.w	r2, [r1, #136]	; 0x88
 8002dd8:	05da      	lsls	r2, r3, #23
 8002dda:	d508      	bpl.n	8002dee <HAL_RCCEx_PeriphCLKConfig+0x1aa>
 8002ddc:	4953      	ldr	r1, [pc, #332]	; (8002f2c <HAL_RCCEx_PeriphCLKConfig+0x2e8>)
 8002dde:	6be0      	ldr	r0, [r4, #60]	; 0x3c
 8002de0:	f8d1 2088 	ldr.w	r2, [r1, #136]	; 0x88
 8002de4:	f422 3240 	bic.w	r2, r2, #196608	; 0x30000
 8002de8:	4302      	orrs	r2, r0
 8002dea:	f8c1 2088 	str.w	r2, [r1, #136]	; 0x88
 8002dee:	02df      	lsls	r7, r3, #11
 8002df0:	d508      	bpl.n	8002e04 <HAL_RCCEx_PeriphCLKConfig+0x1c0>
 8002df2:	494e      	ldr	r1, [pc, #312]	; (8002f2c <HAL_RCCEx_PeriphCLKConfig+0x2e8>)
 8002df4:	6c20      	ldr	r0, [r4, #64]	; 0x40
 8002df6:	f8d1 209c 	ldr.w	r2, [r1, #156]	; 0x9c
 8002dfa:	f022 0203 	bic.w	r2, r2, #3
 8002dfe:	4302      	orrs	r2, r0
 8002e00:	f8c1 209c 	str.w	r2, [r1, #156]	; 0x9c
 8002e04:	049e      	lsls	r6, r3, #18
 8002e06:	d50f      	bpl.n	8002e28 <HAL_RCCEx_PeriphCLKConfig+0x1e4>
 8002e08:	4a48      	ldr	r2, [pc, #288]	; (8002f2c <HAL_RCCEx_PeriphCLKConfig+0x2e8>)
 8002e0a:	6d21      	ldr	r1, [r4, #80]	; 0x50
 8002e0c:	f8d2 3088 	ldr.w	r3, [r2, #136]	; 0x88
 8002e10:	f023 6340 	bic.w	r3, r3, #201326592	; 0xc000000
 8002e14:	430b      	orrs	r3, r1
 8002e16:	f1b1 6f00 	cmp.w	r1, #134217728	; 0x8000000
 8002e1a:	f8c2 3088 	str.w	r3, [r2, #136]	; 0x88
 8002e1e:	d179      	bne.n	8002f14 <HAL_RCCEx_PeriphCLKConfig+0x2d0>
 8002e20:	68d3      	ldr	r3, [r2, #12]
 8002e22:	f443 1380 	orr.w	r3, r3, #1048576	; 0x100000
 8002e26:	60d3      	str	r3, [r2, #12]
 8002e28:	6823      	ldr	r3, [r4, #0]
 8002e2a:	0318      	lsls	r0, r3, #12
 8002e2c:	d50f      	bpl.n	8002e4e <HAL_RCCEx_PeriphCLKConfig+0x20a>
 8002e2e:	4a3f      	ldr	r2, [pc, #252]	; (8002f2c <HAL_RCCEx_PeriphCLKConfig+0x2e8>)
 8002e30:	6d61      	ldr	r1, [r4, #84]	; 0x54
 8002e32:	f8d2 3088 	ldr.w	r3, [r2, #136]	; 0x88
 8002e36:	f023 6340 	bic.w	r3, r3, #201326592	; 0xc000000
 8002e3a:	430b      	orrs	r3, r1
 8002e3c:	f1b1 6f00 	cmp.w	r1, #134217728	; 0x8000000
 8002e40:	f8c2 3088 	str.w	r3, [r2, #136]	; 0x88
 8002e44:	d176      	bne.n	8002f34 <HAL_RCCEx_PeriphCLKConfig+0x2f0>
 8002e46:	68d3      	ldr	r3, [r2, #12]
 8002e48:	f443 1380 	orr.w	r3, r3, #1048576	; 0x100000
 8002e4c:	60d3      	str	r3, [r2, #12]
 8002e4e:	6823      	ldr	r3, [r4, #0]
 8002e50:	0359      	lsls	r1, r3, #13
 8002e52:	d50f      	bpl.n	8002e74 <HAL_RCCEx_PeriphCLKConfig+0x230>
 8002e54:	4a35      	ldr	r2, [pc, #212]	; (8002f2c <HAL_RCCEx_PeriphCLKConfig+0x2e8>)
 8002e56:	6da1      	ldr	r1, [r4, #88]	; 0x58
 8002e58:	f8d2 3088 	ldr.w	r3, [r2, #136]	; 0x88
 8002e5c:	f023 6340 	bic.w	r3, r3, #201326592	; 0xc000000
 8002e60:	430b      	orrs	r3, r1
 8002e62:	f1b1 6f00 	cmp.w	r1, #134217728	; 0x8000000
 8002e66:	f8c2 3088 	str.w	r3, [r2, #136]	; 0x88
 8002e6a:	d16e      	bne.n	8002f4a <HAL_RCCEx_PeriphCLKConfig+0x306>
 8002e6c:	68d3      	ldr	r3, [r2, #12]
 8002e6e:	f443 1380 	orr.w	r3, r3, #1048576	; 0x100000
 8002e72:	60d3      	str	r3, [r2, #12]
 8002e74:	6823      	ldr	r3, [r4, #0]
 8002e76:	045a      	lsls	r2, r3, #17
 8002e78:	d512      	bpl.n	8002ea0 <HAL_RCCEx_PeriphCLKConfig+0x25c>
 8002e7a:	492c      	ldr	r1, [pc, #176]	; (8002f2c <HAL_RCCEx_PeriphCLKConfig+0x2e8>)
 8002e7c:	6de2      	ldr	r2, [r4, #92]	; 0x5c
 8002e7e:	f8d1 3088 	ldr.w	r3, [r1, #136]	; 0x88
 8002e82:	f023 5340 	bic.w	r3, r3, #805306368	; 0x30000000
 8002e86:	4313      	orrs	r3, r2
 8002e88:	f1b2 5f80 	cmp.w	r2, #268435456	; 0x10000000
 8002e8c:	f8c1 3088 	str.w	r3, [r1, #136]	; 0x88
 8002e90:	d106      	bne.n	8002ea0 <HAL_RCCEx_PeriphCLKConfig+0x25c>
 8002e92:	2102      	movs	r1, #2
 8002e94:	1d20      	adds	r0, r4, #4
 8002e96:	f7ff fe4b 	bl	8002b30 <RCCEx_PLLSAI1_Config>
 8002e9a:	2800      	cmp	r0, #0
 8002e9c:	bf18      	it	ne
 8002e9e:	4605      	movne	r5, r0
 8002ea0:	6823      	ldr	r3, [r4, #0]
 8002ea2:	03db      	lsls	r3, r3, #15
 8002ea4:	d508      	bpl.n	8002eb8 <HAL_RCCEx_PeriphCLKConfig+0x274>
 8002ea6:	4a21      	ldr	r2, [pc, #132]	; (8002f2c <HAL_RCCEx_PeriphCLKConfig+0x2e8>)
 8002ea8:	6e21      	ldr	r1, [r4, #96]	; 0x60
 8002eaa:	f8d2 3088 	ldr.w	r3, [r2, #136]	; 0x88
 8002eae:	f023 4300 	bic.w	r3, r3, #2147483648	; 0x80000000
 8002eb2:	430b      	orrs	r3, r1
 8002eb4:	f8c2 3088 	str.w	r3, [r2, #136]	; 0x88
 8002eb8:	4628      	mov	r0, r5
 8002eba:	b003      	add	sp, #12
 8002ebc:	e8bd 83f0 	ldmia.w	sp!, {r4, r5, r6, r7, r8, r9, pc}
 8002ec0:	6e62      	ldr	r2, [r4, #100]	; 0x64
 8002ec2:	4293      	cmp	r3, r2
 8002ec4:	f43f aef6 	beq.w	8002cb4 <HAL_RCCEx_PeriphCLKConfig+0x70>
 8002ec8:	f8d6 2090 	ldr.w	r2, [r6, #144]	; 0x90
 8002ecc:	f8d6 3090 	ldr.w	r3, [r6, #144]	; 0x90
 8002ed0:	f443 3380 	orr.w	r3, r3, #65536	; 0x10000
 8002ed4:	f8c6 3090 	str.w	r3, [r6, #144]	; 0x90
 8002ed8:	f8d6 3090 	ldr.w	r3, [r6, #144]	; 0x90
 8002edc:	f422 7140 	bic.w	r1, r2, #768	; 0x300
 8002ee0:	f423 3380 	bic.w	r3, r3, #65536	; 0x10000
 8002ee4:	07d2      	lsls	r2, r2, #31
 8002ee6:	f8c6 3090 	str.w	r3, [r6, #144]	; 0x90
 8002eea:	f8c6 1090 	str.w	r1, [r6, #144]	; 0x90
 8002eee:	f57f aee1 	bpl.w	8002cb4 <HAL_RCCEx_PeriphCLKConfig+0x70>
 8002ef2:	f7fd fed3 	bl	8000c9c <HAL_GetTick>
 8002ef6:	f241 3988 	movw	r9, #5000	; 0x1388
 8002efa:	4680      	mov	r8, r0
 8002efc:	f8d6 3090 	ldr.w	r3, [r6, #144]	; 0x90
 8002f00:	079b      	lsls	r3, r3, #30
 8002f02:	f53f aed7 	bmi.w	8002cb4 <HAL_RCCEx_PeriphCLKConfig+0x70>
 8002f06:	f7fd fec9 	bl	8000c9c <HAL_GetTick>
 8002f0a:	eba0 0008 	sub.w	r0, r0, r8
 8002f0e:	4548      	cmp	r0, r9
 8002f10:	d9f4      	bls.n	8002efc <HAL_RCCEx_PeriphCLKConfig+0x2b8>
 8002f12:	e6f7      	b.n	8002d04 <HAL_RCCEx_PeriphCLKConfig+0xc0>
 8002f14:	f1b1 6f80 	cmp.w	r1, #67108864	; 0x4000000
 8002f18:	d186      	bne.n	8002e28 <HAL_RCCEx_PeriphCLKConfig+0x1e4>
 8002f1a:	2101      	movs	r1, #1
 8002f1c:	1d20      	adds	r0, r4, #4
 8002f1e:	f7ff fe07 	bl	8002b30 <RCCEx_PLLSAI1_Config>
 8002f22:	2800      	cmp	r0, #0
 8002f24:	bf18      	it	ne
 8002f26:	4605      	movne	r5, r0
 8002f28:	e77e      	b.n	8002e28 <HAL_RCCEx_PeriphCLKConfig+0x1e4>
 8002f2a:	bf00      	nop
 8002f2c:	40021000 	.word	0x40021000
 8002f30:	40007000 	.word	0x40007000
 8002f34:	f1b1 6f80 	cmp.w	r1, #67108864	; 0x4000000
 8002f38:	d189      	bne.n	8002e4e <HAL_RCCEx_PeriphCLKConfig+0x20a>
 8002f3a:	2101      	movs	r1, #1
 8002f3c:	1d20      	adds	r0, r4, #4
 8002f3e:	f7ff fdf7 	bl	8002b30 <RCCEx_PLLSAI1_Config>
 8002f42:	2800      	cmp	r0, #0
 8002f44:	bf18      	it	ne
 8002f46:	4605      	movne	r5, r0
 8002f48:	e781      	b.n	8002e4e <HAL_RCCEx_PeriphCLKConfig+0x20a>
 8002f4a:	f1b1 6f80 	cmp.w	r1, #67108864	; 0x4000000
 8002f4e:	d191      	bne.n	8002e74 <HAL_RCCEx_PeriphCLKConfig+0x230>
 8002f50:	2101      	movs	r1, #1
 8002f52:	1d20      	adds	r0, r4, #4
 8002f54:	f7ff fdec 	bl	8002b30 <RCCEx_PLLSAI1_Config>
 8002f58:	2800      	cmp	r0, #0
 8002f5a:	bf18      	it	ne
 8002f5c:	4605      	movne	r5, r0
 8002f5e:	e789      	b.n	8002e74 <HAL_RCCEx_PeriphCLKConfig+0x230>

08002f60 <HAL_SPI_Init>:
 8002f60:	b570      	push	{r4, r5, r6, lr}
 8002f62:	4604      	mov	r4, r0
 8002f64:	2800      	cmp	r0, #0
 8002f66:	d05f      	beq.n	8003028 <HAL_SPI_Init+0xc8>
 8002f68:	6a43      	ldr	r3, [r0, #36]	; 0x24
 8002f6a:	2b00      	cmp	r3, #0
 8002f6c:	d158      	bne.n	8003020 <HAL_SPI_Init+0xc0>
 8002f6e:	6842      	ldr	r2, [r0, #4]
 8002f70:	f5b2 7f82 	cmp.w	r2, #260	; 0x104
 8002f74:	d000      	beq.n	8002f78 <HAL_SPI_Init+0x18>
 8002f76:	61c3      	str	r3, [r0, #28]
 8002f78:	2300      	movs	r3, #0
 8002f7a:	62a3      	str	r3, [r4, #40]	; 0x28
 8002f7c:	f894 305d 	ldrb.w	r3, [r4, #93]	; 0x5d
 8002f80:	f003 02ff 	and.w	r2, r3, #255	; 0xff
 8002f84:	b923      	cbnz	r3, 8002f90 <HAL_SPI_Init+0x30>
 8002f86:	f884 205c 	strb.w	r2, [r4, #92]	; 0x5c
 8002f8a:	4620      	mov	r0, r4
 8002f8c:	f7fd fd5a 	bl	8000a44 <HAL_SPI_MspInit>
 8002f90:	6825      	ldr	r5, [r4, #0]
 8002f92:	68e1      	ldr	r1, [r4, #12]
 8002f94:	2302      	movs	r3, #2
 8002f96:	f884 305d 	strb.w	r3, [r4, #93]	; 0x5d
 8002f9a:	682b      	ldr	r3, [r5, #0]
 8002f9c:	f5b1 6fe0 	cmp.w	r1, #1792	; 0x700
 8002fa0:	f023 0340 	bic.w	r3, r3, #64	; 0x40
 8002fa4:	602b      	str	r3, [r5, #0]
 8002fa6:	f04f 0300 	mov.w	r3, #0
 8002faa:	d83f      	bhi.n	800302c <HAL_SPI_Init+0xcc>
 8002fac:	f44f 5080 	mov.w	r0, #4096	; 0x1000
 8002fb0:	d000      	beq.n	8002fb4 <HAL_SPI_Init+0x54>
 8002fb2:	62a3      	str	r3, [r4, #40]	; 0x28
 8002fb4:	6863      	ldr	r3, [r4, #4]
 8002fb6:	68a6      	ldr	r6, [r4, #8]
 8002fb8:	69a2      	ldr	r2, [r4, #24]
 8002fba:	f406 4604 	and.w	r6, r6, #33792	; 0x8400
 8002fbe:	f403 7382 	and.w	r3, r3, #260	; 0x104
 8002fc2:	4333      	orrs	r3, r6
 8002fc4:	6926      	ldr	r6, [r4, #16]
 8002fc6:	f006 0602 	and.w	r6, r6, #2
 8002fca:	4333      	orrs	r3, r6
 8002fcc:	6966      	ldr	r6, [r4, #20]
 8002fce:	f006 0601 	and.w	r6, r6, #1
 8002fd2:	4333      	orrs	r3, r6
 8002fd4:	f402 7600 	and.w	r6, r2, #512	; 0x200
 8002fd8:	4333      	orrs	r3, r6
 8002fda:	69e6      	ldr	r6, [r4, #28]
 8002fdc:	f006 0638 	and.w	r6, r6, #56	; 0x38
 8002fe0:	4333      	orrs	r3, r6
 8002fe2:	6a26      	ldr	r6, [r4, #32]
 8002fe4:	f006 0680 	and.w	r6, r6, #128	; 0x80
 8002fe8:	4333      	orrs	r3, r6
 8002fea:	6aa6      	ldr	r6, [r4, #40]	; 0x28
 8002fec:	f406 5600 	and.w	r6, r6, #8192	; 0x2000
 8002ff0:	4333      	orrs	r3, r6
 8002ff2:	602b      	str	r3, [r5, #0]
 8002ff4:	6b66      	ldr	r6, [r4, #52]	; 0x34
 8002ff6:	6a63      	ldr	r3, [r4, #36]	; 0x24
 8002ff8:	f006 0608 	and.w	r6, r6, #8
 8002ffc:	f003 0310 	and.w	r3, r3, #16
 8003000:	4333      	orrs	r3, r6
 8003002:	f401 6170 	and.w	r1, r1, #3840	; 0xf00
 8003006:	0c12      	lsrs	r2, r2, #16
 8003008:	4319      	orrs	r1, r3
 800300a:	f002 0204 	and.w	r2, r2, #4
 800300e:	430a      	orrs	r2, r1
 8003010:	4310      	orrs	r0, r2
 8003012:	6068      	str	r0, [r5, #4]
 8003014:	2301      	movs	r3, #1
 8003016:	2000      	movs	r0, #0
 8003018:	6620      	str	r0, [r4, #96]	; 0x60
 800301a:	f884 305d 	strb.w	r3, [r4, #93]	; 0x5d
 800301e:	bd70      	pop	{r4, r5, r6, pc}
 8003020:	2300      	movs	r3, #0
 8003022:	e9c0 3304 	strd	r3, r3, [r0, #16]
 8003026:	e7a7      	b.n	8002f78 <HAL_SPI_Init+0x18>
 8003028:	2001      	movs	r0, #1
 800302a:	e7f8      	b.n	800301e <HAL_SPI_Init+0xbe>
 800302c:	4618      	mov	r0, r3
 800302e:	f5b1 6f70 	cmp.w	r1, #3840	; 0xf00
 8003032:	e7bd      	b.n	8002fb0 <HAL_SPI_Init+0x50>

08003034 <HAL_TIM_OC_DelayElapsedCallback>:
 8003034:	4770      	bx	lr

08003036 <HAL_TIM_IC_CaptureCallback>:
 8003036:	4770      	bx	lr

08003038 <HAL_TIM_PWM_PulseFinishedCallback>:
 8003038:	4770      	bx	lr

0800303a <HAL_TIM_TriggerCallback>:
 800303a:	4770      	bx	lr

0800303c <HAL_TIM_IRQHandler>:
 800303c:	6803      	ldr	r3, [r0, #0]
 800303e:	691a      	ldr	r2, [r3, #16]
 8003040:	0791      	lsls	r1, r2, #30
 8003042:	b510      	push	{r4, lr}
 8003044:	4604      	mov	r4, r0
 8003046:	d50f      	bpl.n	8003068 <HAL_TIM_IRQHandler+0x2c>
 8003048:	68da      	ldr	r2, [r3, #12]
 800304a:	0792      	lsls	r2, r2, #30
 800304c:	d50c      	bpl.n	8003068 <HAL_TIM_IRQHandler+0x2c>
 800304e:	f06f 0202 	mvn.w	r2, #2
 8003052:	611a      	str	r2, [r3, #16]
 8003054:	2201      	movs	r2, #1
 8003056:	7702      	strb	r2, [r0, #28]
 8003058:	699b      	ldr	r3, [r3, #24]
 800305a:	0799      	lsls	r1, r3, #30
 800305c:	f000 8085 	beq.w	800316a <HAL_TIM_IRQHandler+0x12e>
 8003060:	f7ff ffe9 	bl	8003036 <HAL_TIM_IC_CaptureCallback>
 8003064:	2300      	movs	r3, #0
 8003066:	7723      	strb	r3, [r4, #28]
 8003068:	6823      	ldr	r3, [r4, #0]
 800306a:	691a      	ldr	r2, [r3, #16]
 800306c:	0752      	lsls	r2, r2, #29
 800306e:	d510      	bpl.n	8003092 <HAL_TIM_IRQHandler+0x56>
 8003070:	68da      	ldr	r2, [r3, #12]
 8003072:	0750      	lsls	r0, r2, #29
 8003074:	d50d      	bpl.n	8003092 <HAL_TIM_IRQHandler+0x56>
 8003076:	f06f 0204 	mvn.w	r2, #4
 800307a:	611a      	str	r2, [r3, #16]
 800307c:	2202      	movs	r2, #2
 800307e:	7722      	strb	r2, [r4, #28]
 8003080:	699b      	ldr	r3, [r3, #24]
 8003082:	f413 7f40 	tst.w	r3, #768	; 0x300
 8003086:	4620      	mov	r0, r4
 8003088:	d075      	beq.n	8003176 <HAL_TIM_IRQHandler+0x13a>
 800308a:	f7ff ffd4 	bl	8003036 <HAL_TIM_IC_CaptureCallback>
 800308e:	2300      	movs	r3, #0
 8003090:	7723      	strb	r3, [r4, #28]
 8003092:	6823      	ldr	r3, [r4, #0]
 8003094:	691a      	ldr	r2, [r3, #16]
 8003096:	0711      	lsls	r1, r2, #28
 8003098:	d50f      	bpl.n	80030ba <HAL_TIM_IRQHandler+0x7e>
 800309a:	68da      	ldr	r2, [r3, #12]
 800309c:	0712      	lsls	r2, r2, #28
 800309e:	d50c      	bpl.n	80030ba <HAL_TIM_IRQHandler+0x7e>
 80030a0:	f06f 0208 	mvn.w	r2, #8
 80030a4:	611a      	str	r2, [r3, #16]
 80030a6:	2204      	movs	r2, #4
 80030a8:	7722      	strb	r2, [r4, #28]
 80030aa:	69db      	ldr	r3, [r3, #28]
 80030ac:	079b      	lsls	r3, r3, #30
 80030ae:	4620      	mov	r0, r4
 80030b0:	d067      	beq.n	8003182 <HAL_TIM_IRQHandler+0x146>
 80030b2:	f7ff ffc0 	bl	8003036 <HAL_TIM_IC_CaptureCallback>
 80030b6:	2300      	movs	r3, #0
 80030b8:	7723      	strb	r3, [r4, #28]
 80030ba:	6823      	ldr	r3, [r4, #0]
 80030bc:	691a      	ldr	r2, [r3, #16]
 80030be:	06d0      	lsls	r0, r2, #27
 80030c0:	d510      	bpl.n	80030e4 <HAL_TIM_IRQHandler+0xa8>
 80030c2:	68da      	ldr	r2, [r3, #12]
 80030c4:	06d1      	lsls	r1, r2, #27
 80030c6:	d50d      	bpl.n	80030e4 <HAL_TIM_IRQHandler+0xa8>
 80030c8:	f06f 0210 	mvn.w	r2, #16
 80030cc:	611a      	str	r2, [r3, #16]
 80030ce:	2208      	movs	r2, #8
 80030d0:	7722      	strb	r2, [r4, #28]
 80030d2:	69db      	ldr	r3, [r3, #28]
 80030d4:	f413 7f40 	tst.w	r3, #768	; 0x300
 80030d8:	4620      	mov	r0, r4
 80030da:	d058      	beq.n	800318e <HAL_TIM_IRQHandler+0x152>
 80030dc:	f7ff ffab 	bl	8003036 <HAL_TIM_IC_CaptureCallback>
 80030e0:	2300      	movs	r3, #0
 80030e2:	7723      	strb	r3, [r4, #28]
 80030e4:	6823      	ldr	r3, [r4, #0]
 80030e6:	691a      	ldr	r2, [r3, #16]
 80030e8:	07d2      	lsls	r2, r2, #31
 80030ea:	d508      	bpl.n	80030fe <HAL_TIM_IRQHandler+0xc2>
 80030ec:	68da      	ldr	r2, [r3, #12]
 80030ee:	07d0      	lsls	r0, r2, #31
 80030f0:	d505      	bpl.n	80030fe <HAL_TIM_IRQHandler+0xc2>
 80030f2:	f06f 0201 	mvn.w	r2, #1
 80030f6:	611a      	str	r2, [r3, #16]
 80030f8:	4620      	mov	r0, r4
 80030fa:	f7fd fb7f 	bl	80007fc <HAL_TIM_PeriodElapsedCallback>
 80030fe:	6823      	ldr	r3, [r4, #0]
 8003100:	691a      	ldr	r2, [r3, #16]
 8003102:	0611      	lsls	r1, r2, #24
 8003104:	d508      	bpl.n	8003118 <HAL_TIM_IRQHandler+0xdc>
 8003106:	68da      	ldr	r2, [r3, #12]
 8003108:	0612      	lsls	r2, r2, #24
 800310a:	d505      	bpl.n	8003118 <HAL_TIM_IRQHandler+0xdc>
 800310c:	f06f 0280 	mvn.w	r2, #128	; 0x80
 8003110:	611a      	str	r2, [r3, #16]
 8003112:	4620      	mov	r0, r4
 8003114:	f000 f991 	bl	800343a <HAL_TIMEx_BreakCallback>
 8003118:	6823      	ldr	r3, [r4, #0]
 800311a:	691a      	ldr	r2, [r3, #16]
 800311c:	05d0      	lsls	r0, r2, #23
 800311e:	d508      	bpl.n	8003132 <HAL_TIM_IRQHandler+0xf6>
 8003120:	68da      	ldr	r2, [r3, #12]
 8003122:	0611      	lsls	r1, r2, #24
 8003124:	d505      	bpl.n	8003132 <HAL_TIM_IRQHandler+0xf6>
 8003126:	f46f 7280 	mvn.w	r2, #256	; 0x100
 800312a:	611a      	str	r2, [r3, #16]
 800312c:	4620      	mov	r0, r4
 800312e:	f000 f985 	bl	800343c <HAL_TIMEx_Break2Callback>
 8003132:	6823      	ldr	r3, [r4, #0]
 8003134:	691a      	ldr	r2, [r3, #16]
 8003136:	0652      	lsls	r2, r2, #25
 8003138:	d508      	bpl.n	800314c <HAL_TIM_IRQHandler+0x110>
 800313a:	68da      	ldr	r2, [r3, #12]
 800313c:	0650      	lsls	r0, r2, #25
 800313e:	d505      	bpl.n	800314c <HAL_TIM_IRQHandler+0x110>
 8003140:	f06f 0240 	mvn.w	r2, #64	; 0x40
 8003144:	611a      	str	r2, [r3, #16]
 8003146:	4620      	mov	r0, r4
 8003148:	f7ff ff77 	bl	800303a <HAL_TIM_TriggerCallback>
 800314c:	6823      	ldr	r3, [r4, #0]
 800314e:	691a      	ldr	r2, [r3, #16]
 8003150:	0691      	lsls	r1, r2, #26
 8003152:	d522      	bpl.n	800319a <HAL_TIM_IRQHandler+0x15e>
 8003154:	68da      	ldr	r2, [r3, #12]
 8003156:	0692      	lsls	r2, r2, #26
 8003158:	d51f      	bpl.n	800319a <HAL_TIM_IRQHandler+0x15e>
 800315a:	f06f 0220 	mvn.w	r2, #32
 800315e:	4620      	mov	r0, r4
 8003160:	611a      	str	r2, [r3, #16]
 8003162:	e8bd 4010 	ldmia.w	sp!, {r4, lr}
 8003166:	f000 b967 	b.w	8003438 <HAL_TIMEx_CommutCallback>
 800316a:	f7ff ff63 	bl	8003034 <HAL_TIM_OC_DelayElapsedCallback>
 800316e:	4620      	mov	r0, r4
 8003170:	f7ff ff62 	bl	8003038 <HAL_TIM_PWM_PulseFinishedCallback>
 8003174:	e776      	b.n	8003064 <HAL_TIM_IRQHandler+0x28>
 8003176:	f7ff ff5d 	bl	8003034 <HAL_TIM_OC_DelayElapsedCallback>
 800317a:	4620      	mov	r0, r4
 800317c:	f7ff ff5c 	bl	8003038 <HAL_TIM_PWM_PulseFinishedCallback>
 8003180:	e785      	b.n	800308e <HAL_TIM_IRQHandler+0x52>
 8003182:	f7ff ff57 	bl	8003034 <HAL_TIM_OC_DelayElapsedCallback>
 8003186:	4620      	mov	r0, r4
 8003188:	f7ff ff56 	bl	8003038 <HAL_TIM_PWM_PulseFinishedCallback>
 800318c:	e793      	b.n	80030b6 <HAL_TIM_IRQHandler+0x7a>
 800318e:	f7ff ff51 	bl	8003034 <HAL_TIM_OC_DelayElapsedCallback>
 8003192:	4620      	mov	r0, r4
 8003194:	f7ff ff50 	bl	8003038 <HAL_TIM_PWM_PulseFinishedCallback>
 8003198:	e7a2      	b.n	80030e0 <HAL_TIM_IRQHandler+0xa4>
 800319a:	bd10      	pop	{r4, pc}

0800319c <TIM_Base_SetConfig>:
 800319c:	4a1d      	ldr	r2, [pc, #116]	; (8003214 <TIM_Base_SetConfig+0x78>)
 800319e:	6803      	ldr	r3, [r0, #0]
 80031a0:	4290      	cmp	r0, r2
 80031a2:	b510      	push	{r4, lr}
 80031a4:	d005      	beq.n	80031b2 <TIM_Base_SetConfig+0x16>
 80031a6:	f1b0 4f80 	cmp.w	r0, #1073741824	; 0x40000000
 80031aa:	d002      	beq.n	80031b2 <TIM_Base_SetConfig+0x16>
 80031ac:	4c1a      	ldr	r4, [pc, #104]	; (8003218 <TIM_Base_SetConfig+0x7c>)
 80031ae:	42a0      	cmp	r0, r4
 80031b0:	d10c      	bne.n	80031cc <TIM_Base_SetConfig+0x30>
 80031b2:	684c      	ldr	r4, [r1, #4]
 80031b4:	f023 0370 	bic.w	r3, r3, #112	; 0x70
 80031b8:	4290      	cmp	r0, r2
 80031ba:	ea43 0304 	orr.w	r3, r3, r4
 80031be:	d00c      	beq.n	80031da <TIM_Base_SetConfig+0x3e>
 80031c0:	f1b0 4f80 	cmp.w	r0, #1073741824	; 0x40000000
 80031c4:	d009      	beq.n	80031da <TIM_Base_SetConfig+0x3e>
 80031c6:	4a14      	ldr	r2, [pc, #80]	; (8003218 <TIM_Base_SetConfig+0x7c>)
 80031c8:	4290      	cmp	r0, r2
 80031ca:	d006      	beq.n	80031da <TIM_Base_SetConfig+0x3e>
 80031cc:	4a13      	ldr	r2, [pc, #76]	; (800321c <TIM_Base_SetConfig+0x80>)
 80031ce:	4290      	cmp	r0, r2
 80031d0:	d003      	beq.n	80031da <TIM_Base_SetConfig+0x3e>
 80031d2:	f502 6280 	add.w	r2, r2, #1024	; 0x400
 80031d6:	4290      	cmp	r0, r2
 80031d8:	d103      	bne.n	80031e2 <TIM_Base_SetConfig+0x46>
 80031da:	68ca      	ldr	r2, [r1, #12]
 80031dc:	f423 7340 	bic.w	r3, r3, #768	; 0x300
 80031e0:	4313      	orrs	r3, r2
 80031e2:	694a      	ldr	r2, [r1, #20]
 80031e4:	f023 0380 	bic.w	r3, r3, #128	; 0x80
 80031e8:	4313      	orrs	r3, r2
 80031ea:	6003      	str	r3, [r0, #0]
 80031ec:	688b      	ldr	r3, [r1, #8]
 80031ee:	62c3      	str	r3, [r0, #44]	; 0x2c
 80031f0:	680b      	ldr	r3, [r1, #0]
 80031f2:	6283      	str	r3, [r0, #40]	; 0x28
 80031f4:	4b07      	ldr	r3, [pc, #28]	; (8003214 <TIM_Base_SetConfig+0x78>)
 80031f6:	4298      	cmp	r0, r3
 80031f8:	d007      	beq.n	800320a <TIM_Base_SetConfig+0x6e>
 80031fa:	f503 53a0 	add.w	r3, r3, #5120	; 0x1400
 80031fe:	4298      	cmp	r0, r3
 8003200:	d003      	beq.n	800320a <TIM_Base_SetConfig+0x6e>
 8003202:	f503 6380 	add.w	r3, r3, #1024	; 0x400
 8003206:	4298      	cmp	r0, r3
 8003208:	d101      	bne.n	800320e <TIM_Base_SetConfig+0x72>
 800320a:	690b      	ldr	r3, [r1, #16]
 800320c:	6303      	str	r3, [r0, #48]	; 0x30
 800320e:	2301      	movs	r3, #1
 8003210:	6143      	str	r3, [r0, #20]
 8003212:	bd10      	pop	{r4, pc}
 8003214:	40012c00 	.word	0x40012c00
 8003218:	40000400 	.word	0x40000400
 800321c:	40014000 	.word	0x40014000

08003220 <HAL_TIM_Base_Init>:
 8003220:	b510      	push	{r4, lr}
 8003222:	4604      	mov	r4, r0
 8003224:	b350      	cbz	r0, 800327c <HAL_TIM_Base_Init+0x5c>
 8003226:	f890 303d 	ldrb.w	r3, [r0, #61]	; 0x3d
 800322a:	f003 02ff 	and.w	r2, r3, #255	; 0xff
 800322e:	b91b      	cbnz	r3, 8003238 <HAL_TIM_Base_Init+0x18>
 8003230:	f880 203c 	strb.w	r2, [r0, #60]	; 0x3c
 8003234:	f7fd fca8 	bl	8000b88 <HAL_TIM_Base_MspInit>
 8003238:	2302      	movs	r3, #2
 800323a:	6820      	ldr	r0, [r4, #0]
 800323c:	f884 303d 	strb.w	r3, [r4, #61]	; 0x3d
 8003240:	1d21      	adds	r1, r4, #4
 8003242:	f7ff ffab 	bl	800319c <TIM_Base_SetConfig>
 8003246:	2301      	movs	r3, #1
 8003248:	f884 3048 	strb.w	r3, [r4, #72]	; 0x48
 800324c:	2000      	movs	r0, #0
 800324e:	f884 303e 	strb.w	r3, [r4, #62]	; 0x3e
 8003252:	f884 303f 	strb.w	r3, [r4, #63]	; 0x3f
 8003256:	f884 3040 	strb.w	r3, [r4, #64]	; 0x40
 800325a:	f884 3041 	strb.w	r3, [r4, #65]	; 0x41
 800325e:	f884 3042 	strb.w	r3, [r4, #66]	; 0x42
 8003262:	f884 3043 	strb.w	r3, [r4, #67]	; 0x43
 8003266:	f884 3044 	strb.w	r3, [r4, #68]	; 0x44
 800326a:	f884 3045 	strb.w	r3, [r4, #69]	; 0x45
 800326e:	f884 3046 	strb.w	r3, [r4, #70]	; 0x46
 8003272:	f884 3047 	strb.w	r3, [r4, #71]	; 0x47
 8003276:	f884 303d 	strb.w	r3, [r4, #61]	; 0x3d
 800327a:	bd10      	pop	{r4, pc}
 800327c:	2001      	movs	r0, #1
 800327e:	e7fc      	b.n	800327a <HAL_TIM_Base_Init+0x5a>

08003280 <TIM_ETR_SetConfig>:
 8003280:	b510      	push	{r4, lr}
 8003282:	6884      	ldr	r4, [r0, #8]
 8003284:	4311      	orrs	r1, r2
 8003286:	f424 447f 	bic.w	r4, r4, #65280	; 0xff00
 800328a:	ea41 2303 	orr.w	r3, r1, r3, lsl #8
 800328e:	4323      	orrs	r3, r4
 8003290:	6083      	str	r3, [r0, #8]
 8003292:	bd10      	pop	{r4, pc}

08003294 <HAL_TIM_ConfigClockSource>:
 8003294:	b570      	push	{r4, r5, r6, lr}
 8003296:	f890 303c 	ldrb.w	r3, [r0, #60]	; 0x3c
 800329a:	2b01      	cmp	r3, #1
 800329c:	4604      	mov	r4, r0
 800329e:	f04f 0302 	mov.w	r3, #2
 80032a2:	f000 808f 	beq.w	80033c4 <HAL_TIM_ConfigClockSource+0x130>
 80032a6:	2201      	movs	r2, #1
 80032a8:	f880 303d 	strb.w	r3, [r0, #61]	; 0x3d
 80032ac:	f880 203c 	strb.w	r2, [r0, #60]	; 0x3c
 80032b0:	6800      	ldr	r0, [r0, #0]
 80032b2:	4b45      	ldr	r3, [pc, #276]	; (80033c8 <HAL_TIM_ConfigClockSource+0x134>)
 80032b4:	6885      	ldr	r5, [r0, #8]
 80032b6:	402b      	ands	r3, r5
 80032b8:	6083      	str	r3, [r0, #8]
 80032ba:	680b      	ldr	r3, [r1, #0]
 80032bc:	2b60      	cmp	r3, #96	; 0x60
 80032be:	d052      	beq.n	8003366 <HAL_TIM_ConfigClockSource+0xd2>
 80032c0:	d833      	bhi.n	800332a <HAL_TIM_ConfigClockSource+0x96>
 80032c2:	2b40      	cmp	r3, #64	; 0x40
 80032c4:	d067      	beq.n	8003396 <HAL_TIM_ConfigClockSource+0x102>
 80032c6:	d816      	bhi.n	80032f6 <HAL_TIM_ConfigClockSource+0x62>
 80032c8:	2b20      	cmp	r3, #32
 80032ca:	d00d      	beq.n	80032e8 <HAL_TIM_ConfigClockSource+0x54>
 80032cc:	d80a      	bhi.n	80032e4 <HAL_TIM_ConfigClockSource+0x50>
 80032ce:	f033 0110 	bics.w	r1, r3, #16
 80032d2:	d009      	beq.n	80032e8 <HAL_TIM_ConfigClockSource+0x54>
 80032d4:	2301      	movs	r3, #1
 80032d6:	f884 303d 	strb.w	r3, [r4, #61]	; 0x3d
 80032da:	2300      	movs	r3, #0
 80032dc:	f884 303c 	strb.w	r3, [r4, #60]	; 0x3c
 80032e0:	4610      	mov	r0, r2
 80032e2:	bd70      	pop	{r4, r5, r6, pc}
 80032e4:	2b30      	cmp	r3, #48	; 0x30
 80032e6:	d1f5      	bne.n	80032d4 <HAL_TIM_ConfigClockSource+0x40>
 80032e8:	6882      	ldr	r2, [r0, #8]
 80032ea:	f022 0270 	bic.w	r2, r2, #112	; 0x70
 80032ee:	4313      	orrs	r3, r2
 80032f0:	f043 0307 	orr.w	r3, r3, #7
 80032f4:	e017      	b.n	8003326 <HAL_TIM_ConfigClockSource+0x92>
 80032f6:	2b50      	cmp	r3, #80	; 0x50
 80032f8:	d1ec      	bne.n	80032d4 <HAL_TIM_ConfigClockSource+0x40>
 80032fa:	684a      	ldr	r2, [r1, #4]
 80032fc:	68ce      	ldr	r6, [r1, #12]
 80032fe:	6a01      	ldr	r1, [r0, #32]
 8003300:	6a05      	ldr	r5, [r0, #32]
 8003302:	f025 0501 	bic.w	r5, r5, #1
 8003306:	6205      	str	r5, [r0, #32]
 8003308:	6983      	ldr	r3, [r0, #24]
 800330a:	f021 010a 	bic.w	r1, r1, #10
 800330e:	f023 03f0 	bic.w	r3, r3, #240	; 0xf0
 8003312:	ea43 1306 	orr.w	r3, r3, r6, lsl #4
 8003316:	430a      	orrs	r2, r1
 8003318:	6183      	str	r3, [r0, #24]
 800331a:	6202      	str	r2, [r0, #32]
 800331c:	6883      	ldr	r3, [r0, #8]
 800331e:	f023 0370 	bic.w	r3, r3, #112	; 0x70
 8003322:	f043 0357 	orr.w	r3, r3, #87	; 0x57
 8003326:	6083      	str	r3, [r0, #8]
 8003328:	e011      	b.n	800334e <HAL_TIM_ConfigClockSource+0xba>
 800332a:	f5b3 5f80 	cmp.w	r3, #4096	; 0x1000
 800332e:	d00e      	beq.n	800334e <HAL_TIM_ConfigClockSource+0xba>
 8003330:	f5b3 5f00 	cmp.w	r3, #8192	; 0x2000
 8003334:	d00d      	beq.n	8003352 <HAL_TIM_ConfigClockSource+0xbe>
 8003336:	2b70      	cmp	r3, #112	; 0x70
 8003338:	d1cc      	bne.n	80032d4 <HAL_TIM_ConfigClockSource+0x40>
 800333a:	68cb      	ldr	r3, [r1, #12]
 800333c:	e9d1 2101 	ldrd	r2, r1, [r1, #4]
 8003340:	f7ff ff9e 	bl	8003280 <TIM_ETR_SetConfig>
 8003344:	6822      	ldr	r2, [r4, #0]
 8003346:	6893      	ldr	r3, [r2, #8]
 8003348:	f043 0377 	orr.w	r3, r3, #119	; 0x77
 800334c:	6093      	str	r3, [r2, #8]
 800334e:	2200      	movs	r2, #0
 8003350:	e7c0      	b.n	80032d4 <HAL_TIM_ConfigClockSource+0x40>
 8003352:	68cb      	ldr	r3, [r1, #12]
 8003354:	e9d1 2101 	ldrd	r2, r1, [r1, #4]
 8003358:	f7ff ff92 	bl	8003280 <TIM_ETR_SetConfig>
 800335c:	6822      	ldr	r2, [r4, #0]
 800335e:	6893      	ldr	r3, [r2, #8]
 8003360:	f443 4380 	orr.w	r3, r3, #16384	; 0x4000
 8003364:	e7f2      	b.n	800334c <HAL_TIM_ConfigClockSource+0xb8>
 8003366:	684d      	ldr	r5, [r1, #4]
 8003368:	68ce      	ldr	r6, [r1, #12]
 800336a:	6a01      	ldr	r1, [r0, #32]
 800336c:	f021 0110 	bic.w	r1, r1, #16
 8003370:	6201      	str	r1, [r0, #32]
 8003372:	6982      	ldr	r2, [r0, #24]
 8003374:	6a03      	ldr	r3, [r0, #32]
 8003376:	f422 4270 	bic.w	r2, r2, #61440	; 0xf000
 800337a:	f023 03a0 	bic.w	r3, r3, #160	; 0xa0
 800337e:	ea43 1305 	orr.w	r3, r3, r5, lsl #4
 8003382:	ea42 3206 	orr.w	r2, r2, r6, lsl #12
 8003386:	6182      	str	r2, [r0, #24]
 8003388:	6203      	str	r3, [r0, #32]
 800338a:	6883      	ldr	r3, [r0, #8]
 800338c:	f023 0370 	bic.w	r3, r3, #112	; 0x70
 8003390:	f043 0367 	orr.w	r3, r3, #103	; 0x67
 8003394:	e7c7      	b.n	8003326 <HAL_TIM_ConfigClockSource+0x92>
 8003396:	684a      	ldr	r2, [r1, #4]
 8003398:	68ce      	ldr	r6, [r1, #12]
 800339a:	6a01      	ldr	r1, [r0, #32]
 800339c:	6a05      	ldr	r5, [r0, #32]
 800339e:	f025 0501 	bic.w	r5, r5, #1
 80033a2:	6205      	str	r5, [r0, #32]
 80033a4:	6983      	ldr	r3, [r0, #24]
 80033a6:	f021 010a 	bic.w	r1, r1, #10
 80033aa:	f023 03f0 	bic.w	r3, r3, #240	; 0xf0
 80033ae:	ea43 1306 	orr.w	r3, r3, r6, lsl #4
 80033b2:	430a      	orrs	r2, r1
 80033b4:	6183      	str	r3, [r0, #24]
 80033b6:	6202      	str	r2, [r0, #32]
 80033b8:	6883      	ldr	r3, [r0, #8]
 80033ba:	f023 0370 	bic.w	r3, r3, #112	; 0x70
 80033be:	f043 0347 	orr.w	r3, r3, #71	; 0x47
 80033c2:	e7b0      	b.n	8003326 <HAL_TIM_ConfigClockSource+0x92>
 80033c4:	461a      	mov	r2, r3
 80033c6:	e78b      	b.n	80032e0 <HAL_TIM_ConfigClockSource+0x4c>
 80033c8:	fffe0088 	.word	0xfffe0088

080033cc <HAL_TIMEx_MasterConfigSynchronization>:
 80033cc:	b570      	push	{r4, r5, r6, lr}
 80033ce:	f890 303c 	ldrb.w	r3, [r0, #60]	; 0x3c
 80033d2:	2b01      	cmp	r3, #1
 80033d4:	f04f 0302 	mov.w	r3, #2
 80033d8:	d027      	beq.n	800342a <HAL_TIMEx_MasterConfigSynchronization+0x5e>
 80033da:	f880 303d 	strb.w	r3, [r0, #61]	; 0x3d
 80033de:	4d14      	ldr	r5, [pc, #80]	; (8003430 <HAL_TIMEx_MasterConfigSynchronization+0x64>)
 80033e0:	6803      	ldr	r3, [r0, #0]
 80033e2:	685a      	ldr	r2, [r3, #4]
 80033e4:	689c      	ldr	r4, [r3, #8]
 80033e6:	42ab      	cmp	r3, r5
 80033e8:	bf02      	ittt	eq
 80033ea:	684e      	ldreq	r6, [r1, #4]
 80033ec:	f422 0270 	biceq.w	r2, r2, #15728640	; 0xf00000
 80033f0:	4332      	orreq	r2, r6
 80033f2:	680e      	ldr	r6, [r1, #0]
 80033f4:	f022 0270 	bic.w	r2, r2, #112	; 0x70
 80033f8:	4332      	orrs	r2, r6
 80033fa:	42ab      	cmp	r3, r5
 80033fc:	605a      	str	r2, [r3, #4]
 80033fe:	d009      	beq.n	8003414 <HAL_TIMEx_MasterConfigSynchronization+0x48>
 8003400:	f1b3 4f80 	cmp.w	r3, #1073741824	; 0x40000000
 8003404:	d006      	beq.n	8003414 <HAL_TIMEx_MasterConfigSynchronization+0x48>
 8003406:	4a0b      	ldr	r2, [pc, #44]	; (8003434 <HAL_TIMEx_MasterConfigSynchronization+0x68>)
 8003408:	4293      	cmp	r3, r2
 800340a:	d003      	beq.n	8003414 <HAL_TIMEx_MasterConfigSynchronization+0x48>
 800340c:	f502 329e 	add.w	r2, r2, #80896	; 0x13c00
 8003410:	4293      	cmp	r3, r2
 8003412:	d104      	bne.n	800341e <HAL_TIMEx_MasterConfigSynchronization+0x52>
 8003414:	6889      	ldr	r1, [r1, #8]
 8003416:	f024 0280 	bic.w	r2, r4, #128	; 0x80
 800341a:	430a      	orrs	r2, r1
 800341c:	609a      	str	r2, [r3, #8]
 800341e:	2301      	movs	r3, #1
 8003420:	f880 303d 	strb.w	r3, [r0, #61]	; 0x3d
 8003424:	2300      	movs	r3, #0
 8003426:	f880 303c 	strb.w	r3, [r0, #60]	; 0x3c
 800342a:	4618      	mov	r0, r3
 800342c:	bd70      	pop	{r4, r5, r6, pc}
 800342e:	bf00      	nop
 8003430:	40012c00 	.word	0x40012c00
 8003434:	40000400 	.word	0x40000400

08003438 <HAL_TIMEx_CommutCallback>:
 8003438:	4770      	bx	lr

0800343a <HAL_TIMEx_BreakCallback>:
 800343a:	4770      	bx	lr

0800343c <HAL_TIMEx_Break2Callback>:
 800343c:	4770      	bx	lr
	...

08003440 <HEAT_enableHeater>:
 8003440:	4b02      	ldr	r3, [pc, #8]	; (800344c <HEAT_enableHeater+0xc>)
 8003442:	2101      	movs	r1, #1
 8003444:	5c18      	ldrb	r0, [r3, r0]
 8003446:	f000 b8c5 	b.w	80035d4 <MAX7300_setPin>
 800344a:	bf00      	nop
 800344c:	080036bc 	.word	0x080036bc

08003450 <HEAT_disableHeater>:
 8003450:	4b02      	ldr	r3, [pc, #8]	; (800345c <HEAT_disableHeater+0xc>)
 8003452:	2100      	movs	r1, #0
 8003454:	5c18      	ldrb	r0, [r3, r0]
 8003456:	f000 b8bd 	b.w	80035d4 <MAX7300_setPin>
 800345a:	bf00      	nop
 800345c:	080036bc 	.word	0x080036bc

08003460 <LED_enableLED>:
 8003460:	4b02      	ldr	r3, [pc, #8]	; (800346c <LED_enableLED+0xc>)
 8003462:	2101      	movs	r1, #1
 8003464:	5c18      	ldrb	r0, [r3, r0]
 8003466:	f000 b8b5 	b.w	80035d4 <MAX7300_setPin>
 800346a:	bf00      	nop
 800346c:	080036c7 	.word	0x080036c7

08003470 <LED_disableLED>:
 8003470:	4b02      	ldr	r3, [pc, #8]	; (800347c <LED_disableLED+0xc>)
 8003472:	2100      	movs	r1, #0
 8003474:	5c18      	ldrb	r0, [r3, r0]
 8003476:	f000 b8ad 	b.w	80035d4 <MAX7300_setPin>
 800347a:	bf00      	nop
 800347c:	080036c7 	.word	0x080036c7

08003480 <TEMP_getWellTemperatureReading>:
 8003480:	b510      	push	{r4, lr}
 8003482:	b086      	sub	sp, #24
 8003484:	2300      	movs	r3, #0
 8003486:	9305      	str	r3, [sp, #20]
 8003488:	4b13      	ldr	r3, [pc, #76]	; (80034d8 <TEMP_getWellTemperatureReading+0x58>)
 800348a:	f853 3020 	ldr.w	r3, [r3, r0, lsl #2]
 800348e:	9300      	str	r3, [sp, #0]
 8003490:	2206      	movs	r2, #6
 8003492:	2307      	movs	r3, #7
 8003494:	e9cd 2301 	strd	r2, r3, [sp, #4]
 8003498:	247f      	movs	r4, #127	; 0x7f
 800349a:	2304      	movs	r3, #4
 800349c:	4669      	mov	r1, sp
 800349e:	480f      	ldr	r0, [pc, #60]	; (80034dc <TEMP_getWellTemperatureReading+0x5c>)
 80034a0:	e9cd 4303 	strd	r4, r3, [sp, #12]
 80034a4:	f7fd fd3e 	bl	8000f24 <HAL_ADC_ConfigChannel>
 80034a8:	480c      	ldr	r0, [pc, #48]	; (80034dc <TEMP_getWellTemperatureReading+0x5c>)
 80034aa:	4621      	mov	r1, r4
 80034ac:	f7fe f856 	bl	800155c <HAL_ADCEx_Calibration_Start>
 80034b0:	480a      	ldr	r0, [pc, #40]	; (80034dc <TEMP_getWellTemperatureReading+0x5c>)
 80034b2:	f7fd ffbf 	bl	8001434 <HAL_ADC_Start>
 80034b6:	4809      	ldr	r0, [pc, #36]	; (80034dc <TEMP_getWellTemperatureReading+0x5c>)
 80034b8:	2101      	movs	r1, #1
 80034ba:	f7fd fcdf 	bl	8000e7c <HAL_ADC_PollForConversion>
 80034be:	2800      	cmp	r0, #0
 80034c0:	d1f9      	bne.n	80034b6 <TEMP_getWellTemperatureReading+0x36>
 80034c2:	4806      	ldr	r0, [pc, #24]	; (80034dc <TEMP_getWellTemperatureReading+0x5c>)
 80034c4:	f7fd fd2b 	bl	8000f1e <HAL_ADC_GetValue>
 80034c8:	4604      	mov	r4, r0
 80034ca:	4804      	ldr	r0, [pc, #16]	; (80034dc <TEMP_getWellTemperatureReading+0x5c>)
 80034cc:	f7fe f827 	bl	800151e <HAL_ADC_Stop>
 80034d0:	f3c4 000b 	ubfx	r0, r4, #0, #12
 80034d4:	b006      	add	sp, #24
 80034d6:	bd10      	pop	{r4, pc}
 80034d8:	080036d4 	.word	0x080036d4
 80034dc:	20000028 	.word	0x20000028

080034e0 <THERM_enableThermostat>:
 80034e0:	4b03      	ldr	r3, [pc, #12]	; (80034f0 <THERM_enableThermostat+0x10>)
 80034e2:	2201      	movs	r2, #1
 80034e4:	f833 1010 	ldrh.w	r1, [r3, r0, lsl #1]
 80034e8:	4802      	ldr	r0, [pc, #8]	; (80034f4 <THERM_enableThermostat+0x14>)
 80034ea:	f7fe bc9f 	b.w	8001e2c <HAL_GPIO_WritePin>
 80034ee:	bf00      	nop
 80034f0:	08003700 	.word	0x08003700
 80034f4:	48000400 	.word	0x48000400

080034f8 <THERM_disableThermostat>:
 80034f8:	4b03      	ldr	r3, [pc, #12]	; (8003508 <THERM_disableThermostat+0x10>)
 80034fa:	2200      	movs	r2, #0
 80034fc:	f833 1010 	ldrh.w	r1, [r3, r0, lsl #1]
 8003500:	4802      	ldr	r0, [pc, #8]	; (800350c <THERM_disableThermostat+0x14>)
 8003502:	f7fe bc93 	b.w	8001e2c <HAL_GPIO_WritePin>
 8003506:	bf00      	nop
 8003508:	08003700 	.word	0x08003700
 800350c:	48000400 	.word	0x48000400

08003510 <MAX6822_Toggle_WDI>:
 8003510:	4802      	ldr	r0, [pc, #8]	; (800351c <MAX6822_Toggle_WDI+0xc>)
 8003512:	f44f 7100 	mov.w	r1, #512	; 0x200
 8003516:	f7fe bc8e 	b.w	8001e36 <HAL_GPIO_TogglePin>
 800351a:	bf00      	nop
 800351c:	48000800 	.word	0x48000800

08003520 <MAX6822_Manual_Reset>:
 8003520:	4802      	ldr	r0, [pc, #8]	; (800352c <MAX6822_Manual_Reset+0xc>)
 8003522:	2200      	movs	r2, #0
 8003524:	f44f 7180 	mov.w	r1, #256	; 0x100
 8003528:	f7fe bc80 	b.w	8001e2c <HAL_GPIO_WritePin>
 800352c:	48000800 	.word	0x48000800

08003530 <MAX7300_Init>:
 8003530:	e92d 41f3 	stmdb	sp!, {r0, r1, r4, r5, r6, r7, r8, lr}
 8003534:	4a23      	ldr	r2, [pc, #140]	; (80035c4 <MAX7300_Init+0x94>)
 8003536:	232c      	movs	r3, #44	; 0x2c
 8003538:	f802 3b01 	strb.w	r3, [r2], #1
 800353c:	3301      	adds	r3, #1
 800353e:	2b40      	cmp	r3, #64	; 0x40
 8003540:	d1fa      	bne.n	8003538 <MAX7300_Init+0x8>
 8003542:	4c21      	ldr	r4, [pc, #132]	; (80035c8 <MAX7300_Init+0x98>)
 8003544:	4821      	ldr	r0, [pc, #132]	; (80035cc <MAX7300_Init+0x9c>)
 8003546:	4e22      	ldr	r6, [pc, #136]	; (80035d0 <MAX7300_Init+0xa0>)
 8003548:	250a      	movs	r5, #10
 800354a:	2304      	movs	r3, #4
 800354c:	2701      	movs	r7, #1
 800354e:	7023      	strb	r3, [r4, #0]
 8003550:	9500      	str	r5, [sp, #0]
 8003552:	2302      	movs	r3, #2
 8003554:	4622      	mov	r2, r4
 8003556:	2180      	movs	r1, #128	; 0x80
 8003558:	7067      	strb	r7, [r4, #1]
 800355a:	f7fe fdeb 	bl	8002134 <HAL_I2C_Master_Transmit>
 800355e:	4620      	mov	r0, r4
 8003560:	7b33      	ldrb	r3, [r6, #12]
 8003562:	f800 3b0c 	strb.w	r3, [r0], #12
 8003566:	4639      	mov	r1, r7
 8003568:	2214      	movs	r2, #20
 800356a:	f000 f873 	bl	8003654 <memset>
 800356e:	9500      	str	r5, [sp, #0]
 8003570:	2315      	movs	r3, #21
 8003572:	4622      	mov	r2, r4
 8003574:	2180      	movs	r1, #128	; 0x80
 8003576:	4815      	ldr	r0, [pc, #84]	; (80035cc <MAX7300_Init+0x9c>)
 8003578:	4f14      	ldr	r7, [pc, #80]	; (80035cc <MAX7300_Init+0x9c>)
 800357a:	f7fe fddb 	bl	8002134 <HAL_I2C_Master_Transmit>
 800357e:	230b      	movs	r3, #11
 8003580:	7023      	strb	r3, [r4, #0]
 8003582:	2355      	movs	r3, #85	; 0x55
 8003584:	7063      	strb	r3, [r4, #1]
 8003586:	70a3      	strb	r3, [r4, #2]
 8003588:	70e3      	strb	r3, [r4, #3]
 800358a:	7123      	strb	r3, [r4, #4]
 800358c:	9500      	str	r5, [sp, #0]
 800358e:	480f      	ldr	r0, [pc, #60]	; (80035cc <MAX7300_Init+0x9c>)
 8003590:	2305      	movs	r3, #5
 8003592:	4622      	mov	r2, r4
 8003594:	2180      	movs	r1, #128	; 0x80
 8003596:	f7fe fdcd 	bl	8002134 <HAL_I2C_Master_Transmit>
 800359a:	250c      	movs	r5, #12
 800359c:	f04f 0800 	mov.w	r8, #0
 80035a0:	5d73      	ldrb	r3, [r6, r5]
 80035a2:	7023      	strb	r3, [r4, #0]
 80035a4:	230a      	movs	r3, #10
 80035a6:	9300      	str	r3, [sp, #0]
 80035a8:	4622      	mov	r2, r4
 80035aa:	2302      	movs	r3, #2
 80035ac:	2180      	movs	r1, #128	; 0x80
 80035ae:	4638      	mov	r0, r7
 80035b0:	3501      	adds	r5, #1
 80035b2:	f884 8001 	strb.w	r8, [r4, #1]
 80035b6:	f7fe fdbd 	bl	8002134 <HAL_I2C_Master_Transmit>
 80035ba:	2d20      	cmp	r5, #32
 80035bc:	d1f0      	bne.n	80035a0 <MAX7300_Init+0x70>
 80035be:	b002      	add	sp, #8
 80035c0:	e8bd 81f0 	ldmia.w	sp!, {r4, r5, r6, r7, r8, pc}
 80035c4:	20000624 	.word	0x20000624
 80035c8:	20000638 	.word	0x20000638
 80035cc:	200000b8 	.word	0x200000b8
 80035d0:	20000618 	.word	0x20000618

080035d4 <MAX7300_setPin>:
 80035d4:	f1a0 030c 	sub.w	r3, r0, #12
 80035d8:	2b13      	cmp	r3, #19
 80035da:	b507      	push	{r0, r1, r2, lr}
 80035dc:	d80d      	bhi.n	80035fa <MAX7300_setPin+0x26>
 80035de:	2901      	cmp	r1, #1
 80035e0:	d80b      	bhi.n	80035fa <MAX7300_setPin+0x26>
 80035e2:	4b07      	ldr	r3, [pc, #28]	; (8003600 <MAX7300_setPin+0x2c>)
 80035e4:	4a07      	ldr	r2, [pc, #28]	; (8003604 <MAX7300_setPin+0x30>)
 80035e6:	5c1b      	ldrb	r3, [r3, r0]
 80035e8:	7013      	strb	r3, [r2, #0]
 80035ea:	230a      	movs	r3, #10
 80035ec:	7051      	strb	r1, [r2, #1]
 80035ee:	4806      	ldr	r0, [pc, #24]	; (8003608 <MAX7300_setPin+0x34>)
 80035f0:	9300      	str	r3, [sp, #0]
 80035f2:	2180      	movs	r1, #128	; 0x80
 80035f4:	2302      	movs	r3, #2
 80035f6:	f7fe fd9d 	bl	8002134 <HAL_I2C_Master_Transmit>
 80035fa:	b003      	add	sp, #12
 80035fc:	f85d fb04 	ldr.w	pc, [sp], #4
 8003600:	20000618 	.word	0x20000618
 8003604:	20000638 	.word	0x20000638
 8003608:	200000b8 	.word	0x200000b8

0800360c <__libc_init_array>:
 800360c:	b570      	push	{r4, r5, r6, lr}
 800360e:	4d0d      	ldr	r5, [pc, #52]	; (8003644 <__libc_init_array+0x38>)
 8003610:	4c0d      	ldr	r4, [pc, #52]	; (8003648 <__libc_init_array+0x3c>)
 8003612:	1b64      	subs	r4, r4, r5
 8003614:	10a4      	asrs	r4, r4, #2
 8003616:	2600      	movs	r6, #0
 8003618:	42a6      	cmp	r6, r4
 800361a:	d109      	bne.n	8003630 <__libc_init_array+0x24>
 800361c:	4d0b      	ldr	r5, [pc, #44]	; (800364c <__libc_init_array+0x40>)
 800361e:	4c0c      	ldr	r4, [pc, #48]	; (8003650 <__libc_init_array+0x44>)
 8003620:	f000 f820 	bl	8003664 <_init>
 8003624:	1b64      	subs	r4, r4, r5
 8003626:	10a4      	asrs	r4, r4, #2
 8003628:	2600      	movs	r6, #0
 800362a:	42a6      	cmp	r6, r4
 800362c:	d105      	bne.n	800363a <__libc_init_array+0x2e>
 800362e:	bd70      	pop	{r4, r5, r6, pc}
 8003630:	f855 3b04 	ldr.w	r3, [r5], #4
 8003634:	4798      	blx	r3
 8003636:	3601      	adds	r6, #1
 8003638:	e7ee      	b.n	8003618 <__libc_init_array+0xc>
 800363a:	f855 3b04 	ldr.w	r3, [r5], #4
 800363e:	4798      	blx	r3
 8003640:	3601      	adds	r6, #1
 8003642:	e7f2      	b.n	800362a <__libc_init_array+0x1e>
 8003644:	08003718 	.word	0x08003718
 8003648:	08003718 	.word	0x08003718
 800364c:	08003718 	.word	0x08003718
 8003650:	0800371c 	.word	0x0800371c

08003654 <memset>:
 8003654:	4402      	add	r2, r0
 8003656:	4603      	mov	r3, r0
 8003658:	4293      	cmp	r3, r2
 800365a:	d100      	bne.n	800365e <memset+0xa>
 800365c:	4770      	bx	lr
 800365e:	f803 1b01 	strb.w	r1, [r3], #1
 8003662:	e7f9      	b.n	8003658 <memset+0x4>

08003664 <_init>:
 8003664:	b5f8      	push	{r3, r4, r5, r6, r7, lr}
 8003666:	bf00      	nop
 8003668:	bcf8      	pop	{r3, r4, r5, r6, r7}
 800366a:	bc08      	pop	{r3}
 800366c:	469e      	mov	lr, r3
 800366e:	4770      	bx	lr

08003670 <_fini>:
 8003670:	b5f8      	push	{r3, r4, r5, r6, r7, lr}
 8003672:	bf00      	nop
 8003674:	bcf8      	pop	{r3, r4, r5, r6, r7}
 8003676:	bc08      	pop	{r3}
 8003678:	469e      	mov	lr, r3
 800367a:	4770      	bx	lr
