
Payload PCB.elf:     file format elf32-littlearm

Sections:
Idx Name          Size      VMA       LMA       File off  Algn
  0 .isr_vector   00000194  08000000  08000000  00010000  2**0
                  CONTENTS, ALLOC, LOAD, READONLY, DATA
  1 .text         00003d64  08000194  08000194  00010194  2**2
                  CONTENTS, ALLOC, LOAD, READONLY, CODE
  2 .rodata       0000009c  08003ef8  08003ef8  00013ef8  2**2
                  CONTENTS, ALLOC, LOAD, READONLY, DATA
  3 .ARM.extab    00000000  08003f94  08003f94  0002000c  2**0
                  CONTENTS
  4 .ARM          00000000  08003f94  08003f94  0002000c  2**0
                  CONTENTS
  5 .preinit_array 00000000  08003f94  08003f94  0002000c  2**0
                  CONTENTS, ALLOC, LOAD, DATA
  6 .init_array   00000004  08003f94  08003f94  00013f94  2**2
                  CONTENTS, ALLOC, LOAD, DATA
  7 .fini_array   00000004  08003f98  08003f98  00013f98  2**2
                  CONTENTS, ALLOC, LOAD, DATA
  8 .data         0000000c  20000000  08003f9c  00020000  2**2
                  CONTENTS, ALLOC, LOAD, DATA
  9 .bss          000006ac  2000000c  08003fa8  0002000c  2**2
                  ALLOC
 10 ._user_heap_stack 00000600  200006b8  08003fa8  000206b8  2**0
                  ALLOC
 11 .ARM.attributes 00000030  00000000  00000000  0002000c  2**0
                  CONTENTS, READONLY
 12 .comment      00000050  00000000  00000000  0002003c  2**0
                  CONTENTS, READONLY
 13 .debug_frame  0000004c  00000000  00000000  0002008c  2**2
                  CONTENTS, READONLY, DEBUGGING, OCTETS

Disassembly of section .text:

08000194 <__do_global_dtors_aux>:
 8000194:	b510      	push	{r4, lr}
 8000196:	4c05      	ldr	r4, [pc, #20]	; (80001ac <__do_global_dtors_aux+0x18>)
 8000198:	7823      	ldrb	r3, [r4, #0]
 800019a:	b933      	cbnz	r3, 80001aa <__do_global_dtors_aux+0x16>
 800019c:	4b04      	ldr	r3, [pc, #16]	; (80001b0 <__do_global_dtors_aux+0x1c>)
 800019e:	b113      	cbz	r3, 80001a6 <__do_global_dtors_aux+0x12>
 80001a0:	4804      	ldr	r0, [pc, #16]	; (80001b4 <__do_global_dtors_aux+0x20>)
 80001a2:	f3af 8000 	nop.w
 80001a6:	2301      	movs	r3, #1
 80001a8:	7023      	strb	r3, [r4, #0]
 80001aa:	bd10      	pop	{r4, pc}
 80001ac:	2000000c 	.word	0x2000000c
 80001b0:	00000000 	.word	0x00000000
 80001b4:	08003ee0 	.word	0x08003ee0

080001b8 <frame_dummy>:
 80001b8:	b508      	push	{r3, lr}
 80001ba:	4b03      	ldr	r3, [pc, #12]	; (80001c8 <frame_dummy+0x10>)
 80001bc:	b11b      	cbz	r3, 80001c6 <frame_dummy+0xe>
 80001be:	4903      	ldr	r1, [pc, #12]	; (80001cc <frame_dummy+0x14>)
 80001c0:	4803      	ldr	r0, [pc, #12]	; (80001d0 <frame_dummy+0x18>)
 80001c2:	f3af 8000 	nop.w
 80001c6:	bd08      	pop	{r3, pc}
 80001c8:	00000000 	.word	0x00000000
 80001cc:	20000010 	.word	0x20000010
 80001d0:	08003ee0 	.word	0x08003ee0

080001d4 <MX_ADC1_Init>:
 80001d4:	b57f      	push	{r0, r1, r2, r3, r4, r5, r6, lr}
 80001d6:	2218      	movs	r2, #24
 80001d8:	2100      	movs	r1, #0
 80001da:	4668      	mov	r0, sp
 80001dc:	f003 fe78 	bl	8003ed0 <memset>
 80001e0:	4817      	ldr	r0, [pc, #92]	; (8000240 <MX_ADC1_Init+0x6c>)
 80001e2:	4918      	ldr	r1, [pc, #96]	; (8000244 <MX_ADC1_Init+0x70>)
 80001e4:	2300      	movs	r3, #0
 80001e6:	2204      	movs	r2, #4
 80001e8:	6142      	str	r2, [r0, #20]
 80001ea:	8303      	strh	r3, [r0, #24]
 80001ec:	2201      	movs	r2, #1
 80001ee:	e9c0 1300 	strd	r1, r3, [r0]
 80001f2:	e9c0 3302 	strd	r3, r3, [r0, #8]
 80001f6:	e9c0 330a 	strd	r3, r3, [r0, #40]	; 0x28
 80001fa:	6103      	str	r3, [r0, #16]
 80001fc:	61c2      	str	r2, [r0, #28]
 80001fe:	f880 3020 	strb.w	r3, [r0, #32]
 8000202:	f880 3030 	strb.w	r3, [r0, #48]	; 0x30
 8000206:	6343      	str	r3, [r0, #52]	; 0x34
 8000208:	f880 3038 	strb.w	r3, [r0, #56]	; 0x38
 800020c:	f000 fd9e 	bl	8000d4c <HAL_ADC_Init>
 8000210:	b108      	cbz	r0, 8000216 <MX_ADC1_Init+0x42>
 8000212:	f000 fc15 	bl	8000a40 <Error_Handler>
 8000216:	4a0c      	ldr	r2, [pc, #48]	; (8000248 <MX_ADC1_Init+0x74>)
 8000218:	4809      	ldr	r0, [pc, #36]	; (8000240 <MX_ADC1_Init+0x6c>)
 800021a:	2306      	movs	r3, #6
 800021c:	e9cd 2300 	strd	r2, r3, [sp]
 8000220:	2300      	movs	r3, #0
 8000222:	227f      	movs	r2, #127	; 0x7f
 8000224:	e9cd 3202 	strd	r3, r2, [sp, #8]
 8000228:	4669      	mov	r1, sp
 800022a:	2204      	movs	r2, #4
 800022c:	e9cd 2304 	strd	r2, r3, [sp, #16]
 8000230:	f000 feb4 	bl	8000f9c <HAL_ADC_ConfigChannel>
 8000234:	b108      	cbz	r0, 800023a <MX_ADC1_Init+0x66>
 8000236:	f000 fc03 	bl	8000a40 <Error_Handler>
 800023a:	b007      	add	sp, #28
 800023c:	f85d fb04 	ldr.w	pc, [sp], #4
 8000240:	20000028 	.word	0x20000028
 8000244:	50040000 	.word	0x50040000
 8000248:	04300002 	.word	0x04300002

0800024c <HAL_ADC_MspInit>:
 800024c:	b530      	push	{r4, r5, lr}
 800024e:	b0a3      	sub	sp, #140	; 0x8c
 8000250:	4604      	mov	r4, r0
 8000252:	2214      	movs	r2, #20
 8000254:	2100      	movs	r1, #0
 8000256:	a803      	add	r0, sp, #12
 8000258:	f003 fe3a 	bl	8003ed0 <memset>
 800025c:	2268      	movs	r2, #104	; 0x68
 800025e:	2100      	movs	r1, #0
 8000260:	a808      	add	r0, sp, #32
 8000262:	f003 fe35 	bl	8003ed0 <memset>
 8000266:	6822      	ldr	r2, [r4, #0]
 8000268:	4b26      	ldr	r3, [pc, #152]	; (8000304 <HAL_ADC_MspInit+0xb8>)
 800026a:	429a      	cmp	r2, r3
 800026c:	d147      	bne.n	80002fe <HAL_ADC_MspInit+0xb2>
 800026e:	f44f 4380 	mov.w	r3, #16384	; 0x4000
 8000272:	9308      	str	r3, [sp, #32]
 8000274:	f04f 5380 	mov.w	r3, #268435456	; 0x10000000
 8000278:	931f      	str	r3, [sp, #124]	; 0x7c
 800027a:	2301      	movs	r3, #1
 800027c:	2010      	movs	r0, #16
 800027e:	e9cd 3309 	strd	r3, r3, [sp, #36]	; 0x24
 8000282:	2307      	movs	r3, #7
 8000284:	e9cd 030b 	strd	r0, r3, [sp, #44]	; 0x2c
 8000288:	2302      	movs	r3, #2
 800028a:	e9cd 330d 	strd	r3, r3, [sp, #52]	; 0x34
 800028e:	a808      	add	r0, sp, #32
 8000290:	f04f 7380 	mov.w	r3, #16777216	; 0x1000000
 8000294:	930f      	str	r3, [sp, #60]	; 0x3c
 8000296:	f002 fd11 	bl	8002cbc <HAL_RCCEx_PeriphCLKConfig>
 800029a:	b108      	cbz	r0, 80002a0 <HAL_ADC_MspInit+0x54>
 800029c:	f000 fbd0 	bl	8000a40 <Error_Handler>
 80002a0:	4b19      	ldr	r3, [pc, #100]	; (8000308 <HAL_ADC_MspInit+0xbc>)
 80002a2:	481a      	ldr	r0, [pc, #104]	; (800030c <HAL_ADC_MspInit+0xc0>)
 80002a4:	6cda      	ldr	r2, [r3, #76]	; 0x4c
 80002a6:	f442 5200 	orr.w	r2, r2, #8192	; 0x2000
 80002aa:	64da      	str	r2, [r3, #76]	; 0x4c
 80002ac:	6cda      	ldr	r2, [r3, #76]	; 0x4c
 80002ae:	f402 5200 	and.w	r2, r2, #8192	; 0x2000
 80002b2:	9200      	str	r2, [sp, #0]
 80002b4:	9a00      	ldr	r2, [sp, #0]
 80002b6:	6cda      	ldr	r2, [r3, #76]	; 0x4c
 80002b8:	f042 0204 	orr.w	r2, r2, #4
 80002bc:	64da      	str	r2, [r3, #76]	; 0x4c
 80002be:	6cda      	ldr	r2, [r3, #76]	; 0x4c
 80002c0:	f002 0204 	and.w	r2, r2, #4
 80002c4:	9201      	str	r2, [sp, #4]
 80002c6:	9a01      	ldr	r2, [sp, #4]
 80002c8:	6cda      	ldr	r2, [r3, #76]	; 0x4c
 80002ca:	f042 0201 	orr.w	r2, r2, #1
 80002ce:	64da      	str	r2, [r3, #76]	; 0x4c
 80002d0:	6cdb      	ldr	r3, [r3, #76]	; 0x4c
 80002d2:	f003 0301 	and.w	r3, r3, #1
 80002d6:	9302      	str	r3, [sp, #8]
 80002d8:	9b02      	ldr	r3, [sp, #8]
 80002da:	250b      	movs	r5, #11
 80002dc:	230f      	movs	r3, #15
 80002de:	2400      	movs	r4, #0
 80002e0:	a903      	add	r1, sp, #12
 80002e2:	e9cd 3503 	strd	r3, r5, [sp, #12]
 80002e6:	9405      	str	r4, [sp, #20]
 80002e8:	f001 fd18 	bl	8001d1c <HAL_GPIO_Init>
 80002ec:	233f      	movs	r3, #63	; 0x3f
 80002ee:	a903      	add	r1, sp, #12
 80002f0:	f04f 4090 	mov.w	r0, #1207959552	; 0x48000000
 80002f4:	e9cd 3503 	strd	r3, r5, [sp, #12]
 80002f8:	9405      	str	r4, [sp, #20]
 80002fa:	f001 fd0f 	bl	8001d1c <HAL_GPIO_Init>
 80002fe:	b023      	add	sp, #140	; 0x8c
 8000300:	bd30      	pop	{r4, r5, pc}
 8000302:	bf00      	nop
 8000304:	50040000 	.word	0x50040000
 8000308:	40021000 	.word	0x40021000
 800030c:	48000800 	.word	0x48000800

08000310 <MX_CAN1_Init>:
 8000310:	480c      	ldr	r0, [pc, #48]	; (8000344 <MX_CAN1_Init+0x34>)
 8000312:	4a0d      	ldr	r2, [pc, #52]	; (8000348 <MX_CAN1_Init+0x38>)
 8000314:	b508      	push	{r3, lr}
 8000316:	2310      	movs	r3, #16
 8000318:	e9c0 2300 	strd	r2, r3, [r0]
 800031c:	2300      	movs	r3, #0
 800031e:	f44f 2180 	mov.w	r1, #262144	; 0x40000
 8000322:	f44f 1240 	mov.w	r2, #3145728	; 0x300000
 8000326:	6183      	str	r3, [r0, #24]
 8000328:	8383      	strh	r3, [r0, #28]
 800032a:	e9c0 3302 	strd	r3, r3, [r0, #8]
 800032e:	e9c0 1204 	strd	r1, r2, [r0, #16]
 8000332:	f001 f999 	bl	8001668 <HAL_CAN_Init>
 8000336:	b118      	cbz	r0, 8000340 <MX_CAN1_Init+0x30>
 8000338:	e8bd 4008 	ldmia.w	sp!, {r3, lr}
 800033c:	f000 bb80 	b.w	8000a40 <Error_Handler>
 8000340:	bd08      	pop	{r3, pc}
 8000342:	bf00      	nop
 8000344:	20000090 	.word	0x20000090
 8000348:	40006400 	.word	0x40006400

0800034c <HAL_CAN_MspInit>:
 800034c:	b510      	push	{r4, lr}
 800034e:	4604      	mov	r4, r0
 8000350:	b088      	sub	sp, #32
 8000352:	2214      	movs	r2, #20
 8000354:	2100      	movs	r1, #0
 8000356:	a803      	add	r0, sp, #12
 8000358:	f003 fdba 	bl	8003ed0 <memset>
 800035c:	6822      	ldr	r2, [r4, #0]
 800035e:	4b17      	ldr	r3, [pc, #92]	; (80003bc <HAL_CAN_MspInit+0x70>)
 8000360:	429a      	cmp	r2, r3
 8000362:	d128      	bne.n	80003b6 <HAL_CAN_MspInit+0x6a>
 8000364:	f503 33d6 	add.w	r3, r3, #109568	; 0x1ac00
 8000368:	2103      	movs	r1, #3
 800036a:	6d9a      	ldr	r2, [r3, #88]	; 0x58
 800036c:	4814      	ldr	r0, [pc, #80]	; (80003c0 <HAL_CAN_MspInit+0x74>)
 800036e:	f042 7200 	orr.w	r2, r2, #33554432	; 0x2000000
 8000372:	659a      	str	r2, [r3, #88]	; 0x58
 8000374:	6d9a      	ldr	r2, [r3, #88]	; 0x58
 8000376:	f002 7200 	and.w	r2, r2, #33554432	; 0x2000000
 800037a:	9201      	str	r2, [sp, #4]
 800037c:	9a01      	ldr	r2, [sp, #4]
 800037e:	6cda      	ldr	r2, [r3, #76]	; 0x4c
 8000380:	f042 0202 	orr.w	r2, r2, #2
 8000384:	64da      	str	r2, [r3, #76]	; 0x4c
 8000386:	6cdb      	ldr	r3, [r3, #76]	; 0x4c
 8000388:	f003 0302 	and.w	r3, r3, #2
 800038c:	9302      	str	r3, [sp, #8]
 800038e:	f44f 5240 	mov.w	r2, #12288	; 0x3000
 8000392:	9b02      	ldr	r3, [sp, #8]
 8000394:	2302      	movs	r3, #2
 8000396:	e9cd 2303 	strd	r2, r3, [sp, #12]
 800039a:	230a      	movs	r3, #10
 800039c:	e9cd 1306 	strd	r1, r3, [sp, #24]
 80003a0:	a903      	add	r1, sp, #12
 80003a2:	f001 fcbb 	bl	8001d1c <HAL_GPIO_Init>
 80003a6:	2200      	movs	r2, #0
 80003a8:	2014      	movs	r0, #20
 80003aa:	4611      	mov	r1, r2
 80003ac:	f001 fc62 	bl	8001c74 <HAL_NVIC_SetPriority>
 80003b0:	2014      	movs	r0, #20
 80003b2:	f001 fc91 	bl	8001cd8 <HAL_NVIC_EnableIRQ>
 80003b6:	b008      	add	sp, #32
 80003b8:	bd10      	pop	{r4, pc}
 80003ba:	bf00      	nop
 80003bc:	40006400 	.word	0x40006400
 80003c0:	48000400 	.word	0x48000400

080003c4 <CAN_Init>:
 80003c4:	b500      	push	{lr}
 80003c6:	b08b      	sub	sp, #44	; 0x2c
 80003c8:	2300      	movs	r3, #0
 80003ca:	e9cd 3300 	strd	r3, r3, [sp]
 80003ce:	e9cd 3302 	strd	r3, r3, [sp, #8]
 80003d2:	e9cd 3304 	strd	r3, r3, [sp, #16]
 80003d6:	9306      	str	r3, [sp, #24]
 80003d8:	2301      	movs	r3, #1
 80003da:	e9cd 3307 	strd	r3, r3, [sp, #28]
 80003de:	4809      	ldr	r0, [pc, #36]	; (8000404 <CAN_Init+0x40>)
 80003e0:	230e      	movs	r3, #14
 80003e2:	4669      	mov	r1, sp
 80003e4:	9309      	str	r3, [sp, #36]	; 0x24
 80003e6:	f001 f9ba 	bl	800175e <HAL_CAN_ConfigFilter>
 80003ea:	b938      	cbnz	r0, 80003fc <CAN_Init+0x38>
 80003ec:	4805      	ldr	r0, [pc, #20]	; (8000404 <CAN_Init+0x40>)
 80003ee:	f001 fa25 	bl	800183c <HAL_CAN_Start>
 80003f2:	b918      	cbnz	r0, 80003fc <CAN_Init+0x38>
 80003f4:	4803      	ldr	r0, [pc, #12]	; (8000404 <CAN_Init+0x40>)
 80003f6:	2102      	movs	r1, #2
 80003f8:	f001 fb0f 	bl	8001a1a <HAL_CAN_ActivateNotification>
 80003fc:	b00b      	add	sp, #44	; 0x2c
 80003fe:	f85d fb04 	ldr.w	pc, [sp], #4
 8000402:	bf00      	nop
 8000404:	20000090 	.word	0x20000090

08000408 <CAN_Transmit_Message>:
 8000408:	b500      	push	{lr}
 800040a:	b08f      	sub	sp, #60	; 0x3c
 800040c:	ab01      	add	r3, sp, #4
 800040e:	e883 0007 	stmia.w	r3, {r0, r1, r2}
 8000412:	f89d 2004 	ldrb.w	r2, [sp, #4]
 8000416:	f89d 3006 	ldrb.w	r3, [sp, #6]
 800041a:	4819      	ldr	r0, [pc, #100]	; (8000480 <CAN_Transmit_Message+0x78>)
 800041c:	ea43 1302 	orr.w	r3, r3, r2, lsl #4
 8000420:	f89d 2007 	ldrb.w	r2, [sp, #7]
 8000424:	f88d 2018 	strb.w	r2, [sp, #24]
 8000428:	f89d 2008 	ldrb.w	r2, [sp, #8]
 800042c:	f88d 2019 	strb.w	r2, [sp, #25]
 8000430:	f89d 2009 	ldrb.w	r2, [sp, #9]
 8000434:	f88d 201a 	strb.w	r2, [sp, #26]
 8000438:	f89d 200a 	ldrb.w	r2, [sp, #10]
 800043c:	f88d 201b 	strb.w	r2, [sp, #27]
 8000440:	f89d 200b 	ldrb.w	r2, [sp, #11]
 8000444:	f88d 201c 	strb.w	r2, [sp, #28]
 8000448:	f043 0308 	orr.w	r3, r3, #8
 800044c:	f89d 200c 	ldrb.w	r2, [sp, #12]
 8000450:	f88d 201d 	strb.w	r2, [sp, #29]
 8000454:	9308      	str	r3, [sp, #32]
 8000456:	f89d 200d 	ldrb.w	r2, [sp, #13]
 800045a:	f88d 201e 	strb.w	r2, [sp, #30]
 800045e:	2300      	movs	r3, #0
 8000460:	f89d 200e 	ldrb.w	r2, [sp, #14]
 8000464:	f88d 201f 	strb.w	r2, [sp, #31]
 8000468:	e9cd 330a 	strd	r3, r3, [sp, #40]	; 0x28
 800046c:	2308      	movs	r3, #8
 800046e:	930c      	str	r3, [sp, #48]	; 0x30
 8000470:	aa06      	add	r2, sp, #24
 8000472:	ab05      	add	r3, sp, #20
 8000474:	a908      	add	r1, sp, #32
 8000476:	f001 fa0f 	bl	8001898 <HAL_CAN_AddTxMessage>
 800047a:	b00f      	add	sp, #60	; 0x3c
 800047c:	f85d fb04 	ldr.w	pc, [sp], #4
 8000480:	20000090 	.word	0x20000090

08000484 <CAN_Message_Received>:
 8000484:	b510      	push	{r4, lr}
 8000486:	b08c      	sub	sp, #48	; 0x30
 8000488:	4821      	ldr	r0, [pc, #132]	; (8000510 <CAN_Message_Received+0x8c>)
 800048a:	466b      	mov	r3, sp
 800048c:	aa05      	add	r2, sp, #20
 800048e:	2100      	movs	r1, #0
 8000490:	f001 fa4c 	bl	800192c <HAL_CAN_GetRxMessage>
 8000494:	4604      	mov	r4, r0
 8000496:	bbc0      	cbnz	r0, 800050a <CAN_Message_Received+0x86>
 8000498:	9b05      	ldr	r3, [sp, #20]
 800049a:	f003 0203 	and.w	r2, r3, #3
 800049e:	2a02      	cmp	r2, #2
 80004a0:	d133      	bne.n	800050a <CAN_Message_Received+0x86>
 80004a2:	f3c3 0381 	ubfx	r3, r3, #2, #2
 80004a6:	f88d 3009 	strb.w	r3, [sp, #9]
 80004aa:	2302      	movs	r3, #2
 80004ac:	f88d 300a 	strb.w	r3, [sp, #10]
 80004b0:	f89d 3000 	ldrb.w	r3, [sp]
 80004b4:	f88d 300b 	strb.w	r3, [sp, #11]
 80004b8:	f89d 3001 	ldrb.w	r3, [sp, #1]
 80004bc:	f88d 300c 	strb.w	r3, [sp, #12]
 80004c0:	f89d 3002 	ldrb.w	r3, [sp, #2]
 80004c4:	f88d 300d 	strb.w	r3, [sp, #13]
 80004c8:	f89d 3003 	ldrb.w	r3, [sp, #3]
 80004cc:	9a08      	ldr	r2, [sp, #32]
 80004ce:	f88d 300e 	strb.w	r3, [sp, #14]
 80004d2:	f89d 3004 	ldrb.w	r3, [sp, #4]
 80004d6:	f88d 300f 	strb.w	r3, [sp, #15]
 80004da:	f89d 3005 	ldrb.w	r3, [sp, #5]
 80004de:	f88d 3010 	strb.w	r3, [sp, #16]
 80004e2:	2a02      	cmp	r2, #2
 80004e4:	f89d 3006 	ldrb.w	r3, [sp, #6]
 80004e8:	bf18      	it	ne
 80004ea:	f89d 201b 	ldrbne.w	r2, [sp, #27]
 80004ee:	f88d 3011 	strb.w	r3, [sp, #17]
 80004f2:	bf08      	it	eq
 80004f4:	227f      	moveq	r2, #127	; 0x7f
 80004f6:	f89d 3007 	ldrb.w	r3, [sp, #7]
 80004fa:	4806      	ldr	r0, [pc, #24]	; (8000514 <CAN_Message_Received+0x90>)
 80004fc:	f88d 2008 	strb.w	r2, [sp, #8]
 8000500:	a902      	add	r1, sp, #8
 8000502:	f88d 3012 	strb.w	r3, [sp, #18]
 8000506:	f000 f846 	bl	8000596 <CAN_Queue_Enqueue>
 800050a:	4620      	mov	r0, r4
 800050c:	b00c      	add	sp, #48	; 0x30
 800050e:	bd10      	pop	{r4, pc}
 8000510:	20000090 	.word	0x20000090
 8000514:	2000010c 	.word	0x2000010c

08000518 <CAN_Send_Default_ACK>:
 8000518:	b088      	sub	sp, #32
 800051a:	ab01      	add	r3, sp, #4
 800051c:	e883 0007 	stmia.w	r3, {r0, r1, r2}
 8000520:	f89d 3004 	ldrb.w	r3, [sp, #4]
 8000524:	f88d 3014 	strb.w	r3, [sp, #20]
 8000528:	2302      	movs	r3, #2
 800052a:	f88d 3015 	strb.w	r3, [sp, #21]
 800052e:	f89d 3005 	ldrb.w	r3, [sp, #5]
 8000532:	f88d 3016 	strb.w	r3, [sp, #22]
 8000536:	2301      	movs	r3, #1
 8000538:	f88d 3017 	strb.w	r3, [sp, #23]
 800053c:	f89d 3007 	ldrb.w	r3, [sp, #7]
 8000540:	f88d 3018 	strb.w	r3, [sp, #24]
 8000544:	2300      	movs	r3, #0
 8000546:	f88d 3019 	strb.w	r3, [sp, #25]
 800054a:	f88d 301a 	strb.w	r3, [sp, #26]
 800054e:	f88d 301b 	strb.w	r3, [sp, #27]
 8000552:	f88d 301c 	strb.w	r3, [sp, #28]
 8000556:	f88d 301d 	strb.w	r3, [sp, #29]
 800055a:	f88d 301e 	strb.w	r3, [sp, #30]
 800055e:	ab08      	add	r3, sp, #32
 8000560:	e913 0007 	ldmdb	r3, {r0, r1, r2}
 8000564:	b008      	add	sp, #32
 8000566:	f7ff bf4f 	b.w	8000408 <CAN_Transmit_Message>

0800056a <CAN_Queue_Init>:
 800056a:	2300      	movs	r3, #0
 800056c:	e9c0 3300 	strd	r3, r3, [r0]
 8000570:	4770      	bx	lr

08000572 <CAN_Queue_IsEmpty>:
 8000572:	e9d0 2000 	ldrd	r2, r0, [r0]
 8000576:	1a13      	subs	r3, r2, r0
 8000578:	4258      	negs	r0, r3
 800057a:	4158      	adcs	r0, r3
 800057c:	4770      	bx	lr

0800057e <CAN_Queue_IsFull>:
 800057e:	6843      	ldr	r3, [r0, #4]
 8000580:	6800      	ldr	r0, [r0, #0]
 8000582:	2264      	movs	r2, #100	; 0x64
 8000584:	3301      	adds	r3, #1
 8000586:	fbb3 f1f2 	udiv	r1, r3, r2
 800058a:	fb02 3311 	mls	r3, r2, r1, r3
 800058e:	1a1b      	subs	r3, r3, r0
 8000590:	4258      	negs	r0, r3
 8000592:	4158      	adcs	r0, r3
 8000594:	4770      	bx	lr

08000596 <CAN_Queue_Enqueue>:
 8000596:	b538      	push	{r3, r4, r5, lr}
 8000598:	4604      	mov	r4, r0
 800059a:	460d      	mov	r5, r1
 800059c:	f7ff ffef 	bl	800057e <CAN_Queue_IsFull>
 80005a0:	b9b0      	cbnz	r0, 80005d0 <CAN_Queue_Enqueue+0x3a>
 80005a2:	6863      	ldr	r3, [r4, #4]
 80005a4:	6829      	ldr	r1, [r5, #0]
 80005a6:	220b      	movs	r2, #11
 80005a8:	4353      	muls	r3, r2
 80005aa:	3308      	adds	r3, #8
 80005ac:	18e2      	adds	r2, r4, r3
 80005ae:	50e1      	str	r1, [r4, r3]
 80005b0:	6869      	ldr	r1, [r5, #4]
 80005b2:	6051      	str	r1, [r2, #4]
 80005b4:	892b      	ldrh	r3, [r5, #8]
 80005b6:	8113      	strh	r3, [r2, #8]
 80005b8:	7aab      	ldrb	r3, [r5, #10]
 80005ba:	7293      	strb	r3, [r2, #10]
 80005bc:	6863      	ldr	r3, [r4, #4]
 80005be:	2264      	movs	r2, #100	; 0x64
 80005c0:	3301      	adds	r3, #1
 80005c2:	fbb3 f1f2 	udiv	r1, r3, r2
 80005c6:	fb02 3311 	mls	r3, r2, r1, r3
 80005ca:	6063      	str	r3, [r4, #4]
 80005cc:	2001      	movs	r0, #1
 80005ce:	bd38      	pop	{r3, r4, r5, pc}
 80005d0:	2000      	movs	r0, #0
 80005d2:	e7fc      	b.n	80005ce <CAN_Queue_Enqueue+0x38>

080005d4 <CAN_Queue_Dequeue>:
 80005d4:	e9d0 3200 	ldrd	r3, r2, [r0]
 80005d8:	4293      	cmp	r3, r2
 80005da:	d015      	beq.n	8000608 <CAN_Queue_Dequeue+0x34>
 80005dc:	220b      	movs	r2, #11
 80005de:	4353      	muls	r3, r2
 80005e0:	3308      	adds	r3, #8
 80005e2:	18c2      	adds	r2, r0, r3
 80005e4:	58c3      	ldr	r3, [r0, r3]
 80005e6:	600b      	str	r3, [r1, #0]
 80005e8:	6853      	ldr	r3, [r2, #4]
 80005ea:	604b      	str	r3, [r1, #4]
 80005ec:	8913      	ldrh	r3, [r2, #8]
 80005ee:	810b      	strh	r3, [r1, #8]
 80005f0:	7a93      	ldrb	r3, [r2, #10]
 80005f2:	728b      	strb	r3, [r1, #10]
 80005f4:	6803      	ldr	r3, [r0, #0]
 80005f6:	2264      	movs	r2, #100	; 0x64
 80005f8:	3301      	adds	r3, #1
 80005fa:	fbb3 f1f2 	udiv	r1, r3, r2
 80005fe:	fb02 3311 	mls	r3, r2, r1, r3
 8000602:	6003      	str	r3, [r0, #0]
 8000604:	2001      	movs	r0, #1
 8000606:	4770      	bx	lr
 8000608:	2000      	movs	r0, #0
 800060a:	4770      	bx	lr

0800060c <MX_GPIO_Init>:
 800060c:	b5f0      	push	{r4, r5, r6, r7, lr}
 800060e:	b089      	sub	sp, #36	; 0x24
 8000610:	2214      	movs	r2, #20
 8000612:	2100      	movs	r1, #0
 8000614:	a803      	add	r0, sp, #12
 8000616:	f003 fc5b 	bl	8003ed0 <memset>
 800061a:	4b2d      	ldr	r3, [pc, #180]	; (80006d0 <MX_GPIO_Init+0xc4>)
 800061c:	4f2d      	ldr	r7, [pc, #180]	; (80006d4 <MX_GPIO_Init+0xc8>)
 800061e:	6cda      	ldr	r2, [r3, #76]	; 0x4c
 8000620:	4e2d      	ldr	r6, [pc, #180]	; (80006d8 <MX_GPIO_Init+0xcc>)
 8000622:	f042 0204 	orr.w	r2, r2, #4
 8000626:	64da      	str	r2, [r3, #76]	; 0x4c
 8000628:	6cda      	ldr	r2, [r3, #76]	; 0x4c
 800062a:	f002 0204 	and.w	r2, r2, #4
 800062e:	9200      	str	r2, [sp, #0]
 8000630:	9a00      	ldr	r2, [sp, #0]
 8000632:	6cda      	ldr	r2, [r3, #76]	; 0x4c
 8000634:	f042 0201 	orr.w	r2, r2, #1
 8000638:	64da      	str	r2, [r3, #76]	; 0x4c
 800063a:	6cda      	ldr	r2, [r3, #76]	; 0x4c
 800063c:	f002 0201 	and.w	r2, r2, #1
 8000640:	9201      	str	r2, [sp, #4]
 8000642:	9a01      	ldr	r2, [sp, #4]
 8000644:	6cda      	ldr	r2, [r3, #76]	; 0x4c
 8000646:	f042 0202 	orr.w	r2, r2, #2
 800064a:	64da      	str	r2, [r3, #76]	; 0x4c
 800064c:	6cdb      	ldr	r3, [r3, #76]	; 0x4c
 800064e:	f003 0302 	and.w	r3, r3, #2
 8000652:	9302      	str	r3, [sp, #8]
 8000654:	4638      	mov	r0, r7
 8000656:	2200      	movs	r2, #0
 8000658:	f240 71f7 	movw	r1, #2039	; 0x7f7
 800065c:	9b02      	ldr	r3, [sp, #8]
 800065e:	f001 fc21 	bl	8001ea4 <HAL_GPIO_WritePin>
 8000662:	4630      	mov	r0, r6
 8000664:	2201      	movs	r2, #1
 8000666:	f44f 7180 	mov.w	r1, #256	; 0x100
 800066a:	f001 fc1b 	bl	8001ea4 <HAL_GPIO_WritePin>
 800066e:	4630      	mov	r0, r6
 8000670:	2200      	movs	r2, #0
 8000672:	f44f 7100 	mov.w	r1, #512	; 0x200
 8000676:	f001 fc15 	bl	8001ea4 <HAL_GPIO_WritePin>
 800067a:	2201      	movs	r2, #1
 800067c:	f44f 7180 	mov.w	r1, #256	; 0x100
 8000680:	f04f 4090 	mov.w	r0, #1207959552	; 0x48000000
 8000684:	f001 fc0e 	bl	8001ea4 <HAL_GPIO_WritePin>
 8000688:	2501      	movs	r5, #1
 800068a:	2400      	movs	r4, #0
 800068c:	f240 73f7 	movw	r3, #2039	; 0x7f7
 8000690:	a903      	add	r1, sp, #12
 8000692:	4638      	mov	r0, r7
 8000694:	e9cd 3503 	strd	r3, r5, [sp, #12]
 8000698:	e9cd 4405 	strd	r4, r4, [sp, #20]
 800069c:	f001 fb3e 	bl	8001d1c <HAL_GPIO_Init>
 80006a0:	f44f 7340 	mov.w	r3, #768	; 0x300
 80006a4:	a903      	add	r1, sp, #12
 80006a6:	4630      	mov	r0, r6
 80006a8:	e9cd 3503 	strd	r3, r5, [sp, #12]
 80006ac:	e9cd 4405 	strd	r4, r4, [sp, #20]
 80006b0:	f001 fb34 	bl	8001d1c <HAL_GPIO_Init>
 80006b4:	f44f 7380 	mov.w	r3, #256	; 0x100
 80006b8:	a903      	add	r1, sp, #12
 80006ba:	f04f 4090 	mov.w	r0, #1207959552	; 0x48000000
 80006be:	e9cd 3503 	strd	r3, r5, [sp, #12]
 80006c2:	e9cd 4405 	strd	r4, r4, [sp, #20]
 80006c6:	f001 fb29 	bl	8001d1c <HAL_GPIO_Init>
 80006ca:	b009      	add	sp, #36	; 0x24
 80006cc:	bdf0      	pop	{r4, r5, r6, r7, pc}
 80006ce:	bf00      	nop
 80006d0:	40021000 	.word	0x40021000
 80006d4:	48000400 	.word	0x48000400
 80006d8:	48000800 	.word	0x48000800

080006dc <MX_I2C1_Init>:
 80006dc:	b508      	push	{r3, lr}
 80006de:	4812      	ldr	r0, [pc, #72]	; (8000728 <MX_I2C1_Init+0x4c>)
 80006e0:	4a12      	ldr	r2, [pc, #72]	; (800072c <MX_I2C1_Init+0x50>)
 80006e2:	4b13      	ldr	r3, [pc, #76]	; (8000730 <MX_I2C1_Init+0x54>)
 80006e4:	e9c0 2300 	strd	r2, r3, [r0]
 80006e8:	2300      	movs	r3, #0
 80006ea:	2201      	movs	r2, #1
 80006ec:	e9c0 3202 	strd	r3, r2, [r0, #8]
 80006f0:	e9c0 3304 	strd	r3, r3, [r0, #16]
 80006f4:	e9c0 3306 	strd	r3, r3, [r0, #24]
 80006f8:	6203      	str	r3, [r0, #32]
 80006fa:	f001 fd06 	bl	800210a <HAL_I2C_Init>
 80006fe:	b108      	cbz	r0, 8000704 <MX_I2C1_Init+0x28>
 8000700:	f000 f99e 	bl	8000a40 <Error_Handler>
 8000704:	4808      	ldr	r0, [pc, #32]	; (8000728 <MX_I2C1_Init+0x4c>)
 8000706:	2100      	movs	r1, #0
 8000708:	f001 fde6 	bl	80022d8 <HAL_I2CEx_ConfigAnalogFilter>
 800070c:	b108      	cbz	r0, 8000712 <MX_I2C1_Init+0x36>
 800070e:	f000 f997 	bl	8000a40 <Error_Handler>
 8000712:	4805      	ldr	r0, [pc, #20]	; (8000728 <MX_I2C1_Init+0x4c>)
 8000714:	2100      	movs	r1, #0
 8000716:	f001 fe05 	bl	8002324 <HAL_I2CEx_ConfigDigitalFilter>
 800071a:	b118      	cbz	r0, 8000724 <MX_I2C1_Init+0x48>
 800071c:	e8bd 4008 	ldmia.w	sp!, {r3, lr}
 8000720:	f000 b98e 	b.w	8000a40 <Error_Handler>
 8000724:	bd08      	pop	{r3, pc}
 8000726:	bf00      	nop
 8000728:	200000b8 	.word	0x200000b8
 800072c:	40005400 	.word	0x40005400
 8000730:	10909cec 	.word	0x10909cec

08000734 <HAL_I2C_MspInit>:
 8000734:	b510      	push	{r4, lr}
 8000736:	b0a2      	sub	sp, #136	; 0x88
 8000738:	4604      	mov	r4, r0
 800073a:	2214      	movs	r2, #20
 800073c:	2100      	movs	r1, #0
 800073e:	a803      	add	r0, sp, #12
 8000740:	f003 fbc6 	bl	8003ed0 <memset>
 8000744:	2268      	movs	r2, #104	; 0x68
 8000746:	2100      	movs	r1, #0
 8000748:	a808      	add	r0, sp, #32
 800074a:	f003 fbc1 	bl	8003ed0 <memset>
 800074e:	6822      	ldr	r2, [r4, #0]
 8000750:	4b17      	ldr	r3, [pc, #92]	; (80007b0 <HAL_I2C_MspInit+0x7c>)
 8000752:	429a      	cmp	r2, r3
 8000754:	d12a      	bne.n	80007ac <HAL_I2C_MspInit+0x78>
 8000756:	2340      	movs	r3, #64	; 0x40
 8000758:	a808      	add	r0, sp, #32
 800075a:	9308      	str	r3, [sp, #32]
 800075c:	f002 faae 	bl	8002cbc <HAL_RCCEx_PeriphCLKConfig>
 8000760:	b108      	cbz	r0, 8000766 <HAL_I2C_MspInit+0x32>
 8000762:	f000 f96d 	bl	8000a40 <Error_Handler>
 8000766:	4c13      	ldr	r4, [pc, #76]	; (80007b4 <HAL_I2C_MspInit+0x80>)
 8000768:	6ce3      	ldr	r3, [r4, #76]	; 0x4c
 800076a:	f043 0301 	orr.w	r3, r3, #1
 800076e:	64e3      	str	r3, [r4, #76]	; 0x4c
 8000770:	6ce3      	ldr	r3, [r4, #76]	; 0x4c
 8000772:	f003 0301 	and.w	r3, r3, #1
 8000776:	9301      	str	r3, [sp, #4]
 8000778:	9b01      	ldr	r3, [sp, #4]
 800077a:	f44f 62c0 	mov.w	r2, #1536	; 0x600
 800077e:	2312      	movs	r3, #18
 8000780:	e9cd 2303 	strd	r2, r3, [sp, #12]
 8000784:	2100      	movs	r1, #0
 8000786:	2303      	movs	r3, #3
 8000788:	e9cd 1305 	strd	r1, r3, [sp, #20]
 800078c:	f04f 4090 	mov.w	r0, #1207959552	; 0x48000000
 8000790:	2304      	movs	r3, #4
 8000792:	a903      	add	r1, sp, #12
 8000794:	9307      	str	r3, [sp, #28]
 8000796:	f001 fac1 	bl	8001d1c <HAL_GPIO_Init>
 800079a:	6da3      	ldr	r3, [r4, #88]	; 0x58
 800079c:	f443 1300 	orr.w	r3, r3, #2097152	; 0x200000
 80007a0:	65a3      	str	r3, [r4, #88]	; 0x58
 80007a2:	6da3      	ldr	r3, [r4, #88]	; 0x58
 80007a4:	f403 1300 	and.w	r3, r3, #2097152	; 0x200000
 80007a8:	9302      	str	r3, [sp, #8]
 80007aa:	9b02      	ldr	r3, [sp, #8]
 80007ac:	b022      	add	sp, #136	; 0x88
 80007ae:	bd10      	pop	{r4, pc}
 80007b0:	40005400 	.word	0x40005400
 80007b4:	40021000 	.word	0x40021000

080007b8 <TEMP_transmitTemperatureData>:
 80007b8:	b51f      	push	{r0, r1, r2, r3, r4, lr}
 80007ba:	4604      	mov	r4, r0
 80007bc:	f003 fa66 	bl	8003c8c <TEMP_getWellTemperatureReading>
 80007c0:	2303      	movs	r3, #3
 80007c2:	2201      	movs	r2, #1
 80007c4:	f88d 3005 	strb.w	r3, [sp, #5]
 80007c8:	f88d 2006 	strb.w	r2, [sp, #6]
 80007cc:	f88d 3004 	strb.w	r3, [sp, #4]
 80007d0:	2234      	movs	r2, #52	; 0x34
 80007d2:	0a03      	lsrs	r3, r0, #8
 80007d4:	f88d 300a 	strb.w	r3, [sp, #10]
 80007d8:	f88d 2007 	strb.w	r2, [sp, #7]
 80007dc:	f88d 4008 	strb.w	r4, [sp, #8]
 80007e0:	f88d 4009 	strb.w	r4, [sp, #9]
 80007e4:	f88d 000b 	strb.w	r0, [sp, #11]
 80007e8:	ab04      	add	r3, sp, #16
 80007ea:	e913 0007 	ldmdb	r3, {r0, r1, r2}
 80007ee:	b004      	add	sp, #16
 80007f0:	e8bd 4010 	ldmia.w	sp!, {r4, lr}
 80007f4:	f7ff be08 	b.w	8000408 <CAN_Transmit_Message>

080007f8 <LIGHT_transmitLightLevelData>:
 80007f8:	b51f      	push	{r0, r1, r2, r3, r4, lr}
 80007fa:	4604      	mov	r4, r0
 80007fc:	f003 fa40 	bl	8003c80 <LIGHT_getWellLightReading>
 8000800:	2303      	movs	r3, #3
 8000802:	f88d 3005 	strb.w	r3, [sp, #5]
 8000806:	2301      	movs	r3, #1
 8000808:	f88d 3006 	strb.w	r3, [sp, #6]
 800080c:	2333      	movs	r3, #51	; 0x33
 800080e:	f88d 3007 	strb.w	r3, [sp, #7]
 8000812:	231f      	movs	r3, #31
 8000814:	f88d 3004 	strb.w	r3, [sp, #4]
 8000818:	0a03      	lsrs	r3, r0, #8
 800081a:	f88d 300a 	strb.w	r3, [sp, #10]
 800081e:	f88d 4008 	strb.w	r4, [sp, #8]
 8000822:	f88d 4009 	strb.w	r4, [sp, #9]
 8000826:	f88d 000b 	strb.w	r0, [sp, #11]
 800082a:	ab04      	add	r3, sp, #16
 800082c:	e913 0007 	ldmdb	r3, {r0, r1, r2}
 8000830:	b004      	add	sp, #16
 8000832:	e8bd 4010 	ldmia.w	sp!, {r4, lr}
 8000836:	f7ff bde7 	b.w	8000408 <CAN_Transmit_Message>

0800083a <HAL_CAN_RxFifo0MsgPendingCallback>:
 800083a:	f7ff be23 	b.w	8000484 <CAN_Message_Received>
	...

08000840 <HAL_TIM_PeriodElapsedCallback>:
 8000840:	b510      	push	{r4, lr}
 8000842:	4a0c      	ldr	r2, [pc, #48]	; (8000874 <HAL_TIM_PeriodElapsedCallback+0x34>)
 8000844:	7813      	ldrb	r3, [r2, #0]
 8000846:	3301      	adds	r3, #1
 8000848:	b2db      	uxtb	r3, r3
 800084a:	2b3b      	cmp	r3, #59	; 0x3b
 800084c:	d910      	bls.n	8000870 <HAL_TIM_PeriodElapsedCallback+0x30>
 800084e:	2300      	movs	r3, #0
 8000850:	7013      	strb	r3, [r2, #0]
 8000852:	2401      	movs	r4, #1
 8000854:	b2e0      	uxtb	r0, r4
 8000856:	3401      	adds	r4, #1
 8000858:	f7ff ffae 	bl	80007b8 <TEMP_transmitTemperatureData>
 800085c:	2c0b      	cmp	r4, #11
 800085e:	d1f9      	bne.n	8000854 <HAL_TIM_PeriodElapsedCallback+0x14>
 8000860:	2401      	movs	r4, #1
 8000862:	b2e0      	uxtb	r0, r4
 8000864:	3401      	adds	r4, #1
 8000866:	f7ff ffc7 	bl	80007f8 <LIGHT_transmitLightLevelData>
 800086a:	2c0b      	cmp	r4, #11
 800086c:	d1f9      	bne.n	8000862 <HAL_TIM_PeriodElapsedCallback+0x22>
 800086e:	bd10      	pop	{r4, pc}
 8000870:	7013      	strb	r3, [r2, #0]
 8000872:	e7fc      	b.n	800086e <HAL_TIM_PeriodElapsedCallback+0x2e>
 8000874:	20000560 	.word	0x20000560

08000878 <SystemClock_Config>:
 8000878:	b500      	push	{lr}
 800087a:	b097      	sub	sp, #92	; 0x5c
 800087c:	2244      	movs	r2, #68	; 0x44
 800087e:	2100      	movs	r1, #0
 8000880:	a805      	add	r0, sp, #20
 8000882:	f003 fb25 	bl	8003ed0 <memset>
 8000886:	2214      	movs	r2, #20
 8000888:	2100      	movs	r1, #0
 800088a:	4668      	mov	r0, sp
 800088c:	f003 fb20 	bl	8003ed0 <memset>
 8000890:	f44f 7000 	mov.w	r0, #512	; 0x200
 8000894:	f001 fd74 	bl	8002380 <HAL_PWREx_ControlVoltageScaling>
 8000898:	b108      	cbz	r0, 800089e <SystemClock_Config+0x26>
 800089a:	b672      	cpsid	i
 800089c:	e7fe      	b.n	800089c <SystemClock_Config+0x24>
 800089e:	2310      	movs	r3, #16
 80008a0:	9305      	str	r3, [sp, #20]
 80008a2:	2360      	movs	r3, #96	; 0x60
 80008a4:	2201      	movs	r2, #1
 80008a6:	930d      	str	r3, [sp, #52]	; 0x34
 80008a8:	2302      	movs	r3, #2
 80008aa:	e9cd 200b 	strd	r2, r0, [sp, #44]	; 0x2c
 80008ae:	e9cd 320f 	strd	r3, r2, [sp, #60]	; 0x3c
 80008b2:	2028      	movs	r0, #40	; 0x28
 80008b4:	9211      	str	r2, [sp, #68]	; 0x44
 80008b6:	2207      	movs	r2, #7
 80008b8:	e9cd 0212 	strd	r0, r2, [sp, #72]	; 0x48
 80008bc:	a805      	add	r0, sp, #20
 80008be:	e9cd 3314 	strd	r3, r3, [sp, #80]	; 0x50
 80008c2:	f001 fe23 	bl	800250c <HAL_RCC_OscConfig>
 80008c6:	b108      	cbz	r0, 80008cc <SystemClock_Config+0x54>
 80008c8:	b672      	cpsid	i
 80008ca:	e7fe      	b.n	80008ca <SystemClock_Config+0x52>
 80008cc:	e9cd 0002 	strd	r0, r0, [sp, #8]
 80008d0:	220f      	movs	r2, #15
 80008d2:	2303      	movs	r3, #3
 80008d4:	9004      	str	r0, [sp, #16]
 80008d6:	2104      	movs	r1, #4
 80008d8:	4668      	mov	r0, sp
 80008da:	e9cd 2300 	strd	r2, r3, [sp]
 80008de:	f002 f8b9 	bl	8002a54 <HAL_RCC_ClockConfig>
 80008e2:	b108      	cbz	r0, 80008e8 <SystemClock_Config+0x70>
 80008e4:	b672      	cpsid	i
 80008e6:	e7fe      	b.n	80008e6 <SystemClock_Config+0x6e>
 80008e8:	b017      	add	sp, #92	; 0x5c
 80008ea:	f85d fb04 	ldr.w	pc, [sp], #4
	...

080008f0 <main>:
 80008f0:	b5f0      	push	{r4, r5, r6, r7, lr}
 80008f2:	b087      	sub	sp, #28
 80008f4:	f000 f9de 	bl	8000cb4 <HAL_Init>
 80008f8:	f7ff ffbe 	bl	8000878 <SystemClock_Config>
 80008fc:	f7ff fe86 	bl	800060c <MX_GPIO_Init>
 8000900:	f7ff fc68 	bl	80001d4 <MX_ADC1_Init>
 8000904:	f7ff fd04 	bl	8000310 <MX_CAN1_Init>
 8000908:	f7ff fee8 	bl	80006dc <MX_I2C1_Init>
 800090c:	f000 f89a 	bl	8000a44 <MX_SPI3_Init>
 8000910:	f000 f92c 	bl	8000b6c <MX_TIM2_Init>
 8000914:	f003 fa12 	bl	8003d3c <MAX7300_Init>
 8000918:	4848      	ldr	r0, [pc, #288]	; (8000a3c <main+0x14c>)
 800091a:	4f48      	ldr	r7, [pc, #288]	; (8000a3c <main+0x14c>)
 800091c:	f7ff fe25 	bl	800056a <CAN_Queue_Init>
 8000920:	f7ff fd50 	bl	80003c4 <CAN_Init>
 8000924:	466c      	mov	r4, sp
 8000926:	2503      	movs	r5, #3
 8000928:	f003 f9f8 	bl	8003d1c <MAX6822_Toggle_WDI>
 800092c:	4638      	mov	r0, r7
 800092e:	f7ff fe20 	bl	8000572 <CAN_Queue_IsEmpty>
 8000932:	2800      	cmp	r0, #0
 8000934:	d1f8      	bne.n	8000928 <main+0x38>
 8000936:	4621      	mov	r1, r4
 8000938:	4638      	mov	r0, r7
 800093a:	f7ff fe4b 	bl	80005d4 <CAN_Queue_Dequeue>
 800093e:	2301      	movs	r3, #1
 8000940:	f88d 300e 	strb.w	r3, [sp, #14]
 8000944:	f88d 300f 	strb.w	r3, [sp, #15]
 8000948:	f89d 3003 	ldrb.w	r3, [sp, #3]
 800094c:	f88d 500d 	strb.w	r5, [sp, #13]
 8000950:	3ba0      	subs	r3, #160	; 0xa0
 8000952:	2b06      	cmp	r3, #6
 8000954:	d8e8      	bhi.n	8000928 <main+0x38>
 8000956:	e8df f003 	tbb	[pc, r3]
 800095a:	1604      	.short	0x1604
 800095c:	56483b2d 	.word	0x56483b2d
 8000960:	63          	.byte	0x63
 8000961:	00          	.byte	0x00
 8000962:	e894 0007 	ldmia.w	r4, {r0, r1, r2}
 8000966:	f7ff fdd7 	bl	8000518 <CAN_Send_Default_ACK>
 800096a:	2300      	movs	r3, #0
 800096c:	f88d 300c 	strb.w	r3, [sp, #12]
 8000970:	23a0      	movs	r3, #160	; 0xa0
 8000972:	f88d 3010 	strb.w	r3, [sp, #16]
 8000976:	ab06      	add	r3, sp, #24
 8000978:	e913 0007 	ldmdb	r3, {r0, r1, r2}
 800097c:	f7ff fd44 	bl	8000408 <CAN_Transmit_Message>
 8000980:	f003 f9d4 	bl	8003d2c <MAX6822_Manual_Reset>
 8000984:	e7d0      	b.n	8000928 <main+0x38>
 8000986:	e894 0007 	ldmia.w	r4, {r0, r1, r2}
 800098a:	f7ff fdc5 	bl	8000518 <CAN_Send_Default_ACK>
 800098e:	f89d 6004 	ldrb.w	r6, [sp, #4]
 8000992:	4630      	mov	r0, r6
 8000994:	f003 f964 	bl	8003c60 <LED_enableLED>
 8000998:	230f      	movs	r3, #15
 800099a:	f88d 300c 	strb.w	r3, [sp, #12]
 800099e:	23a1      	movs	r3, #161	; 0xa1
 80009a0:	f88d 3010 	strb.w	r3, [sp, #16]
 80009a4:	f88d 6011 	strb.w	r6, [sp, #17]
 80009a8:	ab06      	add	r3, sp, #24
 80009aa:	e913 0007 	ldmdb	r3, {r0, r1, r2}
 80009ae:	f7ff fd2b 	bl	8000408 <CAN_Transmit_Message>
 80009b2:	e7b9      	b.n	8000928 <main+0x38>
 80009b4:	e894 0007 	ldmia.w	r4, {r0, r1, r2}
 80009b8:	f7ff fdae 	bl	8000518 <CAN_Send_Default_ACK>
 80009bc:	f89d 6004 	ldrb.w	r6, [sp, #4]
 80009c0:	4630      	mov	r0, r6
 80009c2:	f003 f955 	bl	8003c70 <LED_disableLED>
 80009c6:	2307      	movs	r3, #7
 80009c8:	f88d 300c 	strb.w	r3, [sp, #12]
 80009cc:	23a2      	movs	r3, #162	; 0xa2
 80009ce:	e7e7      	b.n	80009a0 <main+0xb0>
 80009d0:	e894 0007 	ldmia.w	r4, {r0, r1, r2}
 80009d4:	f7ff fda0 	bl	8000518 <CAN_Send_Default_ACK>
 80009d8:	f89d 6004 	ldrb.w	r6, [sp, #4]
 80009dc:	4630      	mov	r0, r6
 80009de:	f003 f985 	bl	8003cec <THERM_enableThermostat>
 80009e2:	f88d 500c 	strb.w	r5, [sp, #12]
 80009e6:	23a3      	movs	r3, #163	; 0xa3
 80009e8:	e7da      	b.n	80009a0 <main+0xb0>
 80009ea:	e894 0007 	ldmia.w	r4, {r0, r1, r2}
 80009ee:	f7ff fd93 	bl	8000518 <CAN_Send_Default_ACK>
 80009f2:	f89d 6004 	ldrb.w	r6, [sp, #4]
 80009f6:	4630      	mov	r0, r6
 80009f8:	f003 f984 	bl	8003d04 <THERM_disableThermostat>
 80009fc:	2301      	movs	r3, #1
 80009fe:	f88d 300c 	strb.w	r3, [sp, #12]
 8000a02:	23a4      	movs	r3, #164	; 0xa4
 8000a04:	e7cc      	b.n	80009a0 <main+0xb0>
 8000a06:	e894 0007 	ldmia.w	r4, {r0, r1, r2}
 8000a0a:	f7ff fd85 	bl	8000518 <CAN_Send_Default_ACK>
 8000a0e:	f89d 6004 	ldrb.w	r6, [sp, #4]
 8000a12:	4630      	mov	r0, r6
 8000a14:	f003 f914 	bl	8003c40 <HEAT_enableHeater>
 8000a18:	f88d 500c 	strb.w	r5, [sp, #12]
 8000a1c:	23a5      	movs	r3, #165	; 0xa5
 8000a1e:	e7bf      	b.n	80009a0 <main+0xb0>
 8000a20:	e894 0007 	ldmia.w	r4, {r0, r1, r2}
 8000a24:	f7ff fd78 	bl	8000518 <CAN_Send_Default_ACK>
 8000a28:	f89d 6004 	ldrb.w	r6, [sp, #4]
 8000a2c:	4630      	mov	r0, r6
 8000a2e:	f003 f90f 	bl	8003c50 <HEAT_disableHeater>
 8000a32:	2301      	movs	r3, #1
 8000a34:	f88d 300c 	strb.w	r3, [sp, #12]
 8000a38:	23a6      	movs	r3, #166	; 0xa6
 8000a3a:	e7b1      	b.n	80009a0 <main+0xb0>
 8000a3c:	2000010c 	.word	0x2000010c

08000a40 <Error_Handler>:
 8000a40:	b672      	cpsid	i
 8000a42:	e7fe      	b.n	8000a42 <Error_Handler+0x2>

08000a44 <MX_SPI3_Init>:
 8000a44:	4811      	ldr	r0, [pc, #68]	; (8000a8c <MX_SPI3_Init+0x48>)
 8000a46:	4a12      	ldr	r2, [pc, #72]	; (8000a90 <MX_SPI3_Init+0x4c>)
 8000a48:	b508      	push	{r3, lr}
 8000a4a:	f44f 7382 	mov.w	r3, #260	; 0x104
 8000a4e:	e9c0 2300 	strd	r2, r3, [r0]
 8000a52:	2300      	movs	r3, #0
 8000a54:	f44f 62e0 	mov.w	r2, #1792	; 0x700
 8000a58:	e9c0 3202 	strd	r3, r2, [r0, #8]
 8000a5c:	f44f 7100 	mov.w	r1, #512	; 0x200
 8000a60:	2220      	movs	r2, #32
 8000a62:	e9c0 1206 	strd	r1, r2, [r0, #24]
 8000a66:	2207      	movs	r2, #7
 8000a68:	e9c0 3304 	strd	r3, r3, [r0, #16]
 8000a6c:	e9c0 3308 	strd	r3, r3, [r0, #32]
 8000a70:	e9c0 230b 	strd	r2, r3, [r0, #44]	; 0x2c
 8000a74:	6283      	str	r3, [r0, #40]	; 0x28
 8000a76:	2308      	movs	r3, #8
 8000a78:	6343      	str	r3, [r0, #52]	; 0x34
 8000a7a:	f002 fbc3 	bl	8003204 <HAL_SPI_Init>
 8000a7e:	b118      	cbz	r0, 8000a88 <MX_SPI3_Init+0x44>
 8000a80:	e8bd 4008 	ldmia.w	sp!, {r3, lr}
 8000a84:	f7ff bfdc 	b.w	8000a40 <Error_Handler>
 8000a88:	bd08      	pop	{r3, pc}
 8000a8a:	bf00      	nop
 8000a8c:	20000564 	.word	0x20000564
 8000a90:	40003c00 	.word	0x40003c00

08000a94 <HAL_SPI_MspInit>:
 8000a94:	b510      	push	{r4, lr}
 8000a96:	4604      	mov	r4, r0
 8000a98:	b088      	sub	sp, #32
 8000a9a:	2214      	movs	r2, #20
 8000a9c:	2100      	movs	r1, #0
 8000a9e:	a803      	add	r0, sp, #12
 8000aa0:	f003 fa16 	bl	8003ed0 <memset>
 8000aa4:	6822      	ldr	r2, [r4, #0]
 8000aa6:	4b13      	ldr	r3, [pc, #76]	; (8000af4 <HAL_SPI_MspInit+0x60>)
 8000aa8:	429a      	cmp	r2, r3
 8000aaa:	d120      	bne.n	8000aee <HAL_SPI_MspInit+0x5a>
 8000aac:	f503 33ea 	add.w	r3, r3, #119808	; 0x1d400
 8000ab0:	2103      	movs	r1, #3
 8000ab2:	6d9a      	ldr	r2, [r3, #88]	; 0x58
 8000ab4:	4810      	ldr	r0, [pc, #64]	; (8000af8 <HAL_SPI_MspInit+0x64>)
 8000ab6:	f442 4200 	orr.w	r2, r2, #32768	; 0x8000
 8000aba:	659a      	str	r2, [r3, #88]	; 0x58
 8000abc:	6d9a      	ldr	r2, [r3, #88]	; 0x58
 8000abe:	f402 4200 	and.w	r2, r2, #32768	; 0x8000
 8000ac2:	9201      	str	r2, [sp, #4]
 8000ac4:	9a01      	ldr	r2, [sp, #4]
 8000ac6:	6cda      	ldr	r2, [r3, #76]	; 0x4c
 8000ac8:	f042 0204 	orr.w	r2, r2, #4
 8000acc:	64da      	str	r2, [r3, #76]	; 0x4c
 8000ace:	6cdb      	ldr	r3, [r3, #76]	; 0x4c
 8000ad0:	f003 0304 	and.w	r3, r3, #4
 8000ad4:	9302      	str	r3, [sp, #8]
 8000ad6:	9b02      	ldr	r3, [sp, #8]
 8000ad8:	f44f 52e0 	mov.w	r2, #7168	; 0x1c00
 8000adc:	2302      	movs	r3, #2
 8000ade:	e9cd 2303 	strd	r2, r3, [sp, #12]
 8000ae2:	2306      	movs	r3, #6
 8000ae4:	e9cd 1306 	strd	r1, r3, [sp, #24]
 8000ae8:	a903      	add	r1, sp, #12
 8000aea:	f001 f917 	bl	8001d1c <HAL_GPIO_Init>
 8000aee:	b008      	add	sp, #32
 8000af0:	bd10      	pop	{r4, pc}
 8000af2:	bf00      	nop
 8000af4:	40003c00 	.word	0x40003c00
 8000af8:	48000800 	.word	0x48000800

08000afc <HAL_MspInit>:
 8000afc:	4b0a      	ldr	r3, [pc, #40]	; (8000b28 <HAL_MspInit+0x2c>)
 8000afe:	6e1a      	ldr	r2, [r3, #96]	; 0x60
 8000b00:	f042 0201 	orr.w	r2, r2, #1
 8000b04:	661a      	str	r2, [r3, #96]	; 0x60
 8000b06:	6e1a      	ldr	r2, [r3, #96]	; 0x60
 8000b08:	b082      	sub	sp, #8
 8000b0a:	f002 0201 	and.w	r2, r2, #1
 8000b0e:	9200      	str	r2, [sp, #0]
 8000b10:	9a00      	ldr	r2, [sp, #0]
 8000b12:	6d9a      	ldr	r2, [r3, #88]	; 0x58
 8000b14:	f042 5280 	orr.w	r2, r2, #268435456	; 0x10000000
 8000b18:	659a      	str	r2, [r3, #88]	; 0x58
 8000b1a:	6d9b      	ldr	r3, [r3, #88]	; 0x58
 8000b1c:	f003 5380 	and.w	r3, r3, #268435456	; 0x10000000
 8000b20:	9301      	str	r3, [sp, #4]
 8000b22:	9b01      	ldr	r3, [sp, #4]
 8000b24:	b002      	add	sp, #8
 8000b26:	4770      	bx	lr
 8000b28:	40021000 	.word	0x40021000

08000b2c <NMI_Handler>:
 8000b2c:	e7fe      	b.n	8000b2c <NMI_Handler>

08000b2e <HardFault_Handler>:
 8000b2e:	e7fe      	b.n	8000b2e <HardFault_Handler>

08000b30 <MemManage_Handler>:
 8000b30:	e7fe      	b.n	8000b30 <MemManage_Handler>

08000b32 <BusFault_Handler>:
 8000b32:	e7fe      	b.n	8000b32 <BusFault_Handler>

08000b34 <UsageFault_Handler>:
 8000b34:	e7fe      	b.n	8000b34 <UsageFault_Handler>

08000b36 <SVC_Handler>:
 8000b36:	4770      	bx	lr

08000b38 <DebugMon_Handler>:
 8000b38:	4770      	bx	lr

08000b3a <PendSV_Handler>:
 8000b3a:	4770      	bx	lr

08000b3c <SysTick_Handler>:
 8000b3c:	f000 b8ca 	b.w	8000cd4 <HAL_IncTick>

08000b40 <CAN1_RX0_IRQHandler>:
 8000b40:	4801      	ldr	r0, [pc, #4]	; (8000b48 <CAN1_RX0_IRQHandler+0x8>)
 8000b42:	f000 bf87 	b.w	8001a54 <HAL_CAN_IRQHandler>
 8000b46:	bf00      	nop
 8000b48:	20000090 	.word	0x20000090

08000b4c <TIM2_IRQHandler>:
 8000b4c:	4801      	ldr	r0, [pc, #4]	; (8000b54 <TIM2_IRQHandler+0x8>)
 8000b4e:	f002 be74 	b.w	800383a <HAL_TIM_IRQHandler>
 8000b52:	bf00      	nop
 8000b54:	200005c8 	.word	0x200005c8

08000b58 <SystemInit>:
 8000b58:	4a03      	ldr	r2, [pc, #12]	; (8000b68 <SystemInit+0x10>)
 8000b5a:	f8d2 3088 	ldr.w	r3, [r2, #136]	; 0x88
 8000b5e:	f443 0370 	orr.w	r3, r3, #15728640	; 0xf00000
 8000b62:	f8c2 3088 	str.w	r3, [r2, #136]	; 0x88
 8000b66:	4770      	bx	lr
 8000b68:	e000ed00 	.word	0xe000ed00

08000b6c <MX_TIM2_Init>:
 8000b6c:	b500      	push	{lr}
 8000b6e:	2210      	movs	r2, #16
 8000b70:	b089      	sub	sp, #36	; 0x24
 8000b72:	eb0d 0002 	add.w	r0, sp, r2
 8000b76:	2100      	movs	r1, #0
 8000b78:	f003 f9aa 	bl	8003ed0 <memset>
 8000b7c:	4814      	ldr	r0, [pc, #80]	; (8000bd0 <MX_TIM2_Init+0x64>)
 8000b7e:	2300      	movs	r3, #0
 8000b80:	f04f 4280 	mov.w	r2, #1073741824	; 0x40000000
 8000b84:	e9c0 2300 	strd	r2, r3, [r0]
 8000b88:	4a12      	ldr	r2, [pc, #72]	; (8000bd4 <MX_TIM2_Init+0x68>)
 8000b8a:	9303      	str	r3, [sp, #12]
 8000b8c:	e9cd 3301 	strd	r3, r3, [sp, #4]
 8000b90:	e9c0 2303 	strd	r2, r3, [r0, #12]
 8000b94:	6083      	str	r3, [r0, #8]
 8000b96:	6183      	str	r3, [r0, #24]
 8000b98:	f002 ff42 	bl	8003a20 <HAL_TIM_Base_Init>
 8000b9c:	b108      	cbz	r0, 8000ba2 <MX_TIM2_Init+0x36>
 8000b9e:	f7ff ff4f 	bl	8000a40 <Error_Handler>
 8000ba2:	f44f 5380 	mov.w	r3, #4096	; 0x1000
 8000ba6:	480a      	ldr	r0, [pc, #40]	; (8000bd0 <MX_TIM2_Init+0x64>)
 8000ba8:	9304      	str	r3, [sp, #16]
 8000baa:	a904      	add	r1, sp, #16
 8000bac:	f002 ff72 	bl	8003a94 <HAL_TIM_ConfigClockSource>
 8000bb0:	b108      	cbz	r0, 8000bb6 <MX_TIM2_Init+0x4a>
 8000bb2:	f7ff ff45 	bl	8000a40 <Error_Handler>
 8000bb6:	2300      	movs	r3, #0
 8000bb8:	4805      	ldr	r0, [pc, #20]	; (8000bd0 <MX_TIM2_Init+0x64>)
 8000bba:	9301      	str	r3, [sp, #4]
 8000bbc:	a901      	add	r1, sp, #4
 8000bbe:	9303      	str	r3, [sp, #12]
 8000bc0:	f003 f804 	bl	8003bcc <HAL_TIMEx_MasterConfigSynchronization>
 8000bc4:	b108      	cbz	r0, 8000bca <MX_TIM2_Init+0x5e>
 8000bc6:	f7ff ff3b 	bl	8000a40 <Error_Handler>
 8000bca:	b009      	add	sp, #36	; 0x24
 8000bcc:	f85d fb04 	ldr.w	pc, [sp], #4
 8000bd0:	200005c8 	.word	0x200005c8
 8000bd4:	04c4b400 	.word	0x04c4b400

08000bd8 <HAL_TIM_Base_MspInit>:
 8000bd8:	6803      	ldr	r3, [r0, #0]
 8000bda:	f1b3 4f80 	cmp.w	r3, #1073741824	; 0x40000000
 8000bde:	b507      	push	{r0, r1, r2, lr}
 8000be0:	d115      	bne.n	8000c0e <HAL_TIM_Base_MspInit+0x36>
 8000be2:	f503 3304 	add.w	r3, r3, #135168	; 0x21000
 8000be6:	201c      	movs	r0, #28
 8000be8:	6d9a      	ldr	r2, [r3, #88]	; 0x58
 8000bea:	f042 0201 	orr.w	r2, r2, #1
 8000bee:	659a      	str	r2, [r3, #88]	; 0x58
 8000bf0:	6d9b      	ldr	r3, [r3, #88]	; 0x58
 8000bf2:	2200      	movs	r2, #0
 8000bf4:	f003 0301 	and.w	r3, r3, #1
 8000bf8:	9301      	str	r3, [sp, #4]
 8000bfa:	4611      	mov	r1, r2
 8000bfc:	9b01      	ldr	r3, [sp, #4]
 8000bfe:	f001 f839 	bl	8001c74 <HAL_NVIC_SetPriority>
 8000c02:	201c      	movs	r0, #28
 8000c04:	b003      	add	sp, #12
 8000c06:	f85d eb04 	ldr.w	lr, [sp], #4
 8000c0a:	f001 b865 	b.w	8001cd8 <HAL_NVIC_EnableIRQ>
 8000c0e:	b003      	add	sp, #12
 8000c10:	f85d fb04 	ldr.w	pc, [sp], #4

08000c14 <Reset_Handler>:
 8000c14:	f8df d034 	ldr.w	sp, [pc, #52]	; 8000c4c <LoopForever+0x2>
 8000c18:	f7ff ff9e 	bl	8000b58 <SystemInit>
 8000c1c:	480c      	ldr	r0, [pc, #48]	; (8000c50 <LoopForever+0x6>)
 8000c1e:	490d      	ldr	r1, [pc, #52]	; (8000c54 <LoopForever+0xa>)
 8000c20:	4a0d      	ldr	r2, [pc, #52]	; (8000c58 <LoopForever+0xe>)
 8000c22:	2300      	movs	r3, #0
 8000c24:	e002      	b.n	8000c2c <LoopCopyDataInit>

08000c26 <CopyDataInit>:
 8000c26:	58d4      	ldr	r4, [r2, r3]
 8000c28:	50c4      	str	r4, [r0, r3]
 8000c2a:	3304      	adds	r3, #4

08000c2c <LoopCopyDataInit>:
 8000c2c:	18c4      	adds	r4, r0, r3
 8000c2e:	428c      	cmp	r4, r1
 8000c30:	d3f9      	bcc.n	8000c26 <CopyDataInit>
 8000c32:	4a0a      	ldr	r2, [pc, #40]	; (8000c5c <LoopForever+0x12>)
 8000c34:	4c0a      	ldr	r4, [pc, #40]	; (8000c60 <LoopForever+0x16>)
 8000c36:	2300      	movs	r3, #0
 8000c38:	e001      	b.n	8000c3e <LoopFillZerobss>

08000c3a <FillZerobss>:
 8000c3a:	6013      	str	r3, [r2, #0]
 8000c3c:	3204      	adds	r2, #4

08000c3e <LoopFillZerobss>:
 8000c3e:	42a2      	cmp	r2, r4
 8000c40:	d3fb      	bcc.n	8000c3a <FillZerobss>
 8000c42:	f003 f921 	bl	8003e88 <__libc_init_array>
 8000c46:	f7ff fe53 	bl	80008f0 <main>

08000c4a <LoopForever>:
 8000c4a:	e7fe      	b.n	8000c4a <LoopForever>
 8000c4c:	20028000 	.word	0x20028000
 8000c50:	20000000 	.word	0x20000000
 8000c54:	2000000c 	.word	0x2000000c
 8000c58:	08003f9c 	.word	0x08003f9c
 8000c5c:	2000000c 	.word	0x2000000c
 8000c60:	200006b8 	.word	0x200006b8

08000c64 <ADC1_IRQHandler>:
 8000c64:	e7fe      	b.n	8000c64 <ADC1_IRQHandler>
	...

08000c68 <HAL_InitTick>:
 8000c68:	b538      	push	{r3, r4, r5, lr}
 8000c6a:	4b0f      	ldr	r3, [pc, #60]	; (8000ca8 <HAL_InitTick+0x40>)
 8000c6c:	4605      	mov	r5, r0
 8000c6e:	7818      	ldrb	r0, [r3, #0]
 8000c70:	b908      	cbnz	r0, 8000c76 <HAL_InitTick+0xe>
 8000c72:	2001      	movs	r0, #1
 8000c74:	bd38      	pop	{r3, r4, r5, pc}
 8000c76:	4a0d      	ldr	r2, [pc, #52]	; (8000cac <HAL_InitTick+0x44>)
 8000c78:	f44f 737a 	mov.w	r3, #1000	; 0x3e8
 8000c7c:	fbb3 f3f0 	udiv	r3, r3, r0
 8000c80:	6810      	ldr	r0, [r2, #0]
 8000c82:	fbb0 f0f3 	udiv	r0, r0, r3
 8000c86:	f001 f835 	bl	8001cf4 <HAL_SYSTICK_Config>
 8000c8a:	4604      	mov	r4, r0
 8000c8c:	2800      	cmp	r0, #0
 8000c8e:	d1f0      	bne.n	8000c72 <HAL_InitTick+0xa>
 8000c90:	2d0f      	cmp	r5, #15
 8000c92:	d8ee      	bhi.n	8000c72 <HAL_InitTick+0xa>
 8000c94:	4602      	mov	r2, r0
 8000c96:	4629      	mov	r1, r5
 8000c98:	f04f 30ff 	mov.w	r0, #4294967295
 8000c9c:	f000 ffea 	bl	8001c74 <HAL_NVIC_SetPriority>
 8000ca0:	4b03      	ldr	r3, [pc, #12]	; (8000cb0 <HAL_InitTick+0x48>)
 8000ca2:	4620      	mov	r0, r4
 8000ca4:	601d      	str	r5, [r3, #0]
 8000ca6:	e7e5      	b.n	8000c74 <HAL_InitTick+0xc>
 8000ca8:	20000004 	.word	0x20000004
 8000cac:	20000000 	.word	0x20000000
 8000cb0:	20000008 	.word	0x20000008

08000cb4 <HAL_Init>:
 8000cb4:	b510      	push	{r4, lr}
 8000cb6:	2003      	movs	r0, #3
 8000cb8:	f000 ffca 	bl	8001c50 <HAL_NVIC_SetPriorityGrouping>
 8000cbc:	200f      	movs	r0, #15
 8000cbe:	f7ff ffd3 	bl	8000c68 <HAL_InitTick>
 8000cc2:	4604      	mov	r4, r0
 8000cc4:	b918      	cbnz	r0, 8000cce <HAL_Init+0x1a>
 8000cc6:	f7ff ff19 	bl	8000afc <HAL_MspInit>
 8000cca:	4620      	mov	r0, r4
 8000ccc:	bd10      	pop	{r4, pc}
 8000cce:	2401      	movs	r4, #1
 8000cd0:	e7fb      	b.n	8000cca <HAL_Init+0x16>
	...

08000cd4 <HAL_IncTick>:
 8000cd4:	4a03      	ldr	r2, [pc, #12]	; (8000ce4 <HAL_IncTick+0x10>)
 8000cd6:	4b04      	ldr	r3, [pc, #16]	; (8000ce8 <HAL_IncTick+0x14>)
 8000cd8:	6811      	ldr	r1, [r2, #0]
 8000cda:	781b      	ldrb	r3, [r3, #0]
 8000cdc:	440b      	add	r3, r1
 8000cde:	6013      	str	r3, [r2, #0]
 8000ce0:	4770      	bx	lr
 8000ce2:	bf00      	nop
 8000ce4:	20000614 	.word	0x20000614
 8000ce8:	20000004 	.word	0x20000004

08000cec <HAL_GetTick>:
 8000cec:	4b01      	ldr	r3, [pc, #4]	; (8000cf4 <HAL_GetTick+0x8>)
 8000cee:	6818      	ldr	r0, [r3, #0]
 8000cf0:	4770      	bx	lr
 8000cf2:	bf00      	nop
 8000cf4:	20000614 	.word	0x20000614

08000cf8 <HAL_Delay>:
 8000cf8:	b538      	push	{r3, r4, r5, lr}
 8000cfa:	4604      	mov	r4, r0
 8000cfc:	f7ff fff6 	bl	8000cec <HAL_GetTick>
 8000d00:	1c63      	adds	r3, r4, #1
 8000d02:	bf1c      	itt	ne
 8000d04:	4b05      	ldrne	r3, [pc, #20]	; (8000d1c <HAL_Delay+0x24>)
 8000d06:	781b      	ldrbne	r3, [r3, #0]
 8000d08:	4605      	mov	r5, r0
 8000d0a:	bf18      	it	ne
 8000d0c:	18e4      	addne	r4, r4, r3
 8000d0e:	f7ff ffed 	bl	8000cec <HAL_GetTick>
 8000d12:	1b43      	subs	r3, r0, r5
 8000d14:	42a3      	cmp	r3, r4
 8000d16:	d3fa      	bcc.n	8000d0e <HAL_Delay+0x16>
 8000d18:	bd38      	pop	{r3, r4, r5, pc}
 8000d1a:	bf00      	nop
 8000d1c:	20000004 	.word	0x20000004

08000d20 <LL_ADC_SetChannelSamplingTime>:
 8000d20:	b530      	push	{r4, r5, lr}
 8000d22:	0dcc      	lsrs	r4, r1, #23
 8000d24:	f004 0404 	and.w	r4, r4, #4
 8000d28:	3014      	adds	r0, #20
 8000d2a:	f3c1 5104 	ubfx	r1, r1, #20, #5
 8000d2e:	5823      	ldr	r3, [r4, r0]
 8000d30:	2507      	movs	r5, #7
 8000d32:	408d      	lsls	r5, r1
 8000d34:	ea23 0305 	bic.w	r3, r3, r5
 8000d38:	fa02 f101 	lsl.w	r1, r2, r1
 8000d3c:	430b      	orrs	r3, r1
 8000d3e:	5023      	str	r3, [r4, r0]
 8000d40:	bd30      	pop	{r4, r5, pc}

08000d42 <LL_ADC_REG_IsConversionOngoing>:
 8000d42:	6880      	ldr	r0, [r0, #8]
 8000d44:	f3c0 0080 	ubfx	r0, r0, #2, #1
 8000d48:	4770      	bx	lr
	...

08000d4c <HAL_ADC_Init>:
 8000d4c:	b537      	push	{r0, r1, r2, r4, r5, lr}
 8000d4e:	2300      	movs	r3, #0
 8000d50:	9301      	str	r3, [sp, #4]
 8000d52:	4604      	mov	r4, r0
 8000d54:	2800      	cmp	r0, #0
 8000d56:	f000 80c1 	beq.w	8000edc <HAL_ADC_Init+0x190>
 8000d5a:	6d85      	ldr	r5, [r0, #88]	; 0x58
 8000d5c:	b925      	cbnz	r5, 8000d68 <HAL_ADC_Init+0x1c>
 8000d5e:	f7ff fa75 	bl	800024c <HAL_ADC_MspInit>
 8000d62:	65e5      	str	r5, [r4, #92]	; 0x5c
 8000d64:	f884 5054 	strb.w	r5, [r4, #84]	; 0x54
 8000d68:	6820      	ldr	r0, [r4, #0]
 8000d6a:	6883      	ldr	r3, [r0, #8]
 8000d6c:	009b      	lsls	r3, r3, #2
 8000d6e:	bf41      	itttt	mi
 8000d70:	6883      	ldrmi	r3, [r0, #8]
 8000d72:	f023 4320 	bicmi.w	r3, r3, #2684354560	; 0xa0000000
 8000d76:	f023 033f 	bicmi.w	r3, r3, #63	; 0x3f
 8000d7a:	6083      	strmi	r3, [r0, #8]
 8000d7c:	6883      	ldr	r3, [r0, #8]
 8000d7e:	00dd      	lsls	r5, r3, #3
 8000d80:	f140 808c 	bpl.w	8000e9c <HAL_ADC_Init+0x150>
 8000d84:	6883      	ldr	r3, [r0, #8]
 8000d86:	00d9      	lsls	r1, r3, #3
 8000d88:	f100 809f 	bmi.w	8000eca <HAL_ADC_Init+0x17e>
 8000d8c:	6da3      	ldr	r3, [r4, #88]	; 0x58
 8000d8e:	f043 0310 	orr.w	r3, r3, #16
 8000d92:	65a3      	str	r3, [r4, #88]	; 0x58
 8000d94:	6de3      	ldr	r3, [r4, #92]	; 0x5c
 8000d96:	f043 0301 	orr.w	r3, r3, #1
 8000d9a:	65e3      	str	r3, [r4, #92]	; 0x5c
 8000d9c:	2101      	movs	r1, #1
 8000d9e:	f7ff ffd0 	bl	8000d42 <LL_ADC_REG_IsConversionOngoing>
 8000da2:	6da3      	ldr	r3, [r4, #88]	; 0x58
 8000da4:	f003 0310 	and.w	r3, r3, #16
 8000da8:	4303      	orrs	r3, r0
 8000daa:	6da3      	ldr	r3, [r4, #88]	; 0x58
 8000dac:	f040 8093 	bne.w	8000ed6 <HAL_ADC_Init+0x18a>
 8000db0:	f423 7381 	bic.w	r3, r3, #258	; 0x102
 8000db4:	f043 0302 	orr.w	r3, r3, #2
 8000db8:	6820      	ldr	r0, [r4, #0]
 8000dba:	65a3      	str	r3, [r4, #88]	; 0x58
 8000dbc:	6883      	ldr	r3, [r0, #8]
 8000dbe:	07da      	lsls	r2, r3, #31
 8000dc0:	d40a      	bmi.n	8000dd8 <HAL_ADC_Init+0x8c>
 8000dc2:	4b47      	ldr	r3, [pc, #284]	; (8000ee0 <HAL_ADC_Init+0x194>)
 8000dc4:	689b      	ldr	r3, [r3, #8]
 8000dc6:	07db      	lsls	r3, r3, #31
 8000dc8:	d406      	bmi.n	8000dd8 <HAL_ADC_Init+0x8c>
 8000dca:	4a46      	ldr	r2, [pc, #280]	; (8000ee4 <HAL_ADC_Init+0x198>)
 8000dcc:	6865      	ldr	r5, [r4, #4]
 8000dce:	6893      	ldr	r3, [r2, #8]
 8000dd0:	f423 137c 	bic.w	r3, r3, #4128768	; 0x3f0000
 8000dd4:	432b      	orrs	r3, r5
 8000dd6:	6093      	str	r3, [r2, #8]
 8000dd8:	68e5      	ldr	r5, [r4, #12]
 8000dda:	6b63      	ldr	r3, [r4, #52]	; 0x34
 8000ddc:	f894 2020 	ldrb.w	r2, [r4, #32]
 8000de0:	432b      	orrs	r3, r5
 8000de2:	68a5      	ldr	r5, [r4, #8]
 8000de4:	432b      	orrs	r3, r5
 8000de6:	7e65      	ldrb	r5, [r4, #25]
 8000de8:	2a01      	cmp	r2, #1
 8000dea:	ea43 3345 	orr.w	r3, r3, r5, lsl #13
 8000dee:	ea43 4302 	orr.w	r3, r3, r2, lsl #16
 8000df2:	bf02      	ittt	eq
 8000df4:	6a62      	ldreq	r2, [r4, #36]	; 0x24
 8000df6:	f102 32ff 	addeq.w	r2, r2, #4294967295
 8000dfa:	ea43 4342 	orreq.w	r3, r3, r2, lsl #17
 8000dfe:	6aa2      	ldr	r2, [r4, #40]	; 0x28
 8000e00:	b122      	cbz	r2, 8000e0c <HAL_ADC_Init+0xc0>
 8000e02:	6ae5      	ldr	r5, [r4, #44]	; 0x2c
 8000e04:	f402 7270 	and.w	r2, r2, #960	; 0x3c0
 8000e08:	432a      	orrs	r2, r5
 8000e0a:	4313      	orrs	r3, r2
 8000e0c:	68c5      	ldr	r5, [r0, #12]
 8000e0e:	4a36      	ldr	r2, [pc, #216]	; (8000ee8 <HAL_ADC_Init+0x19c>)
 8000e10:	402a      	ands	r2, r5
 8000e12:	4313      	orrs	r3, r2
 8000e14:	60c3      	str	r3, [r0, #12]
 8000e16:	f7ff ff94 	bl	8000d42 <LL_ADC_REG_IsConversionOngoing>
 8000e1a:	6823      	ldr	r3, [r4, #0]
 8000e1c:	689a      	ldr	r2, [r3, #8]
 8000e1e:	f002 0208 	and.w	r2, r2, #8
 8000e22:	4302      	orrs	r2, r0
 8000e24:	d122      	bne.n	8000e6c <HAL_ADC_Init+0x120>
 8000e26:	f894 2030 	ldrb.w	r2, [r4, #48]	; 0x30
 8000e2a:	7e25      	ldrb	r5, [r4, #24]
 8000e2c:	68d8      	ldr	r0, [r3, #12]
 8000e2e:	0052      	lsls	r2, r2, #1
 8000e30:	ea42 3285 	orr.w	r2, r2, r5, lsl #14
 8000e34:	6ce5      	ldr	r5, [r4, #76]	; 0x4c
 8000e36:	f420 4080 	bic.w	r0, r0, #16384	; 0x4000
 8000e3a:	432a      	orrs	r2, r5
 8000e3c:	f020 0006 	bic.w	r0, r0, #6
 8000e40:	4302      	orrs	r2, r0
 8000e42:	60da      	str	r2, [r3, #12]
 8000e44:	f894 2038 	ldrb.w	r2, [r4, #56]	; 0x38
 8000e48:	2a01      	cmp	r2, #1
 8000e4a:	d140      	bne.n	8000ece <HAL_ADC_Init+0x182>
 8000e4c:	e9d4 250f 	ldrd	r2, r5, [r4, #60]	; 0x3c
 8000e50:	6918      	ldr	r0, [r3, #16]
 8000e52:	f420 60ff 	bic.w	r0, r0, #2040	; 0x7f8
 8000e56:	f020 0004 	bic.w	r0, r0, #4
 8000e5a:	432a      	orrs	r2, r5
 8000e5c:	4302      	orrs	r2, r0
 8000e5e:	6c60      	ldr	r0, [r4, #68]	; 0x44
 8000e60:	4302      	orrs	r2, r0
 8000e62:	6ca0      	ldr	r0, [r4, #72]	; 0x48
 8000e64:	4302      	orrs	r2, r0
 8000e66:	f042 0201 	orr.w	r2, r2, #1
 8000e6a:	611a      	str	r2, [r3, #16]
 8000e6c:	6922      	ldr	r2, [r4, #16]
 8000e6e:	2a01      	cmp	r2, #1
 8000e70:	bf05      	ittet	eq
 8000e72:	6b18      	ldreq	r0, [r3, #48]	; 0x30
 8000e74:	69e2      	ldreq	r2, [r4, #28]
 8000e76:	6b1a      	ldrne	r2, [r3, #48]	; 0x30
 8000e78:	f102 32ff 	addeq.w	r2, r2, #4294967295
 8000e7c:	bf06      	itte	eq
 8000e7e:	f020 000f 	biceq.w	r0, r0, #15
 8000e82:	4302      	orreq	r2, r0
 8000e84:	f022 020f 	bicne.w	r2, r2, #15
 8000e88:	631a      	str	r2, [r3, #48]	; 0x30
 8000e8a:	6da3      	ldr	r3, [r4, #88]	; 0x58
 8000e8c:	f023 0303 	bic.w	r3, r3, #3
 8000e90:	f043 0301 	orr.w	r3, r3, #1
 8000e94:	65a3      	str	r3, [r4, #88]	; 0x58
 8000e96:	4608      	mov	r0, r1
 8000e98:	b003      	add	sp, #12
 8000e9a:	bd30      	pop	{r4, r5, pc}
 8000e9c:	6883      	ldr	r3, [r0, #8]
 8000e9e:	4a13      	ldr	r2, [pc, #76]	; (8000eec <HAL_ADC_Init+0x1a0>)
 8000ea0:	f023 4310 	bic.w	r3, r3, #2415919104	; 0x90000000
 8000ea4:	f023 033f 	bic.w	r3, r3, #63	; 0x3f
 8000ea8:	f043 5380 	orr.w	r3, r3, #268435456	; 0x10000000
 8000eac:	6083      	str	r3, [r0, #8]
 8000eae:	4b10      	ldr	r3, [pc, #64]	; (8000ef0 <HAL_ADC_Init+0x1a4>)
 8000eb0:	681b      	ldr	r3, [r3, #0]
 8000eb2:	fbb3 f3f2 	udiv	r3, r3, r2
 8000eb6:	3301      	adds	r3, #1
 8000eb8:	005b      	lsls	r3, r3, #1
 8000eba:	9301      	str	r3, [sp, #4]
 8000ebc:	9b01      	ldr	r3, [sp, #4]
 8000ebe:	2b00      	cmp	r3, #0
 8000ec0:	f43f af60 	beq.w	8000d84 <HAL_ADC_Init+0x38>
 8000ec4:	9b01      	ldr	r3, [sp, #4]
 8000ec6:	3b01      	subs	r3, #1
 8000ec8:	e7f7      	b.n	8000eba <HAL_ADC_Init+0x16e>
 8000eca:	2100      	movs	r1, #0
 8000ecc:	e767      	b.n	8000d9e <HAL_ADC_Init+0x52>
 8000ece:	691a      	ldr	r2, [r3, #16]
 8000ed0:	f022 0201 	bic.w	r2, r2, #1
 8000ed4:	e7c9      	b.n	8000e6a <HAL_ADC_Init+0x11e>
 8000ed6:	f043 0310 	orr.w	r3, r3, #16
 8000eda:	65a3      	str	r3, [r4, #88]	; 0x58
 8000edc:	2101      	movs	r1, #1
 8000ede:	e7da      	b.n	8000e96 <HAL_ADC_Init+0x14a>
 8000ee0:	50040000 	.word	0x50040000
 8000ee4:	50040300 	.word	0x50040300
 8000ee8:	fff0c007 	.word	0xfff0c007
 8000eec:	00030d40 	.word	0x00030d40
 8000ef0:	20000000 	.word	0x20000000

08000ef4 <HAL_ADC_PollForConversion>:
 8000ef4:	b5f8      	push	{r3, r4, r5, r6, r7, lr}
 8000ef6:	6945      	ldr	r5, [r0, #20]
 8000ef8:	2d08      	cmp	r5, #8
 8000efa:	4604      	mov	r4, r0
 8000efc:	460e      	mov	r6, r1
 8000efe:	d00a      	beq.n	8000f16 <HAL_ADC_PollForConversion+0x22>
 8000f00:	6803      	ldr	r3, [r0, #0]
 8000f02:	68db      	ldr	r3, [r3, #12]
 8000f04:	07dd      	lsls	r5, r3, #31
 8000f06:	d505      	bpl.n	8000f14 <HAL_ADC_PollForConversion+0x20>
 8000f08:	6d83      	ldr	r3, [r0, #88]	; 0x58
 8000f0a:	f043 0320 	orr.w	r3, r3, #32
 8000f0e:	6583      	str	r3, [r0, #88]	; 0x58
 8000f10:	2001      	movs	r0, #1
 8000f12:	bdf8      	pop	{r3, r4, r5, r6, r7, pc}
 8000f14:	2504      	movs	r5, #4
 8000f16:	f7ff fee9 	bl	8000cec <HAL_GetTick>
 8000f1a:	4607      	mov	r7, r0
 8000f1c:	6823      	ldr	r3, [r4, #0]
 8000f1e:	681a      	ldr	r2, [r3, #0]
 8000f20:	422a      	tst	r2, r5
 8000f22:	d01d      	beq.n	8000f60 <HAL_ADC_PollForConversion+0x6c>
 8000f24:	6da2      	ldr	r2, [r4, #88]	; 0x58
 8000f26:	f442 7200 	orr.w	r2, r2, #512	; 0x200
 8000f2a:	65a2      	str	r2, [r4, #88]	; 0x58
 8000f2c:	68da      	ldr	r2, [r3, #12]
 8000f2e:	f412 6f40 	tst.w	r2, #3072	; 0xc00
 8000f32:	d10f      	bne.n	8000f54 <HAL_ADC_PollForConversion+0x60>
 8000f34:	7e62      	ldrb	r2, [r4, #25]
 8000f36:	b96a      	cbnz	r2, 8000f54 <HAL_ADC_PollForConversion+0x60>
 8000f38:	681a      	ldr	r2, [r3, #0]
 8000f3a:	0711      	lsls	r1, r2, #28
 8000f3c:	d50a      	bpl.n	8000f54 <HAL_ADC_PollForConversion+0x60>
 8000f3e:	6da2      	ldr	r2, [r4, #88]	; 0x58
 8000f40:	f422 7280 	bic.w	r2, r2, #256	; 0x100
 8000f44:	65a2      	str	r2, [r4, #88]	; 0x58
 8000f46:	6da2      	ldr	r2, [r4, #88]	; 0x58
 8000f48:	04d2      	lsls	r2, r2, #19
 8000f4a:	bf5e      	ittt	pl
 8000f4c:	6da2      	ldrpl	r2, [r4, #88]	; 0x58
 8000f4e:	f042 0201 	orrpl.w	r2, r2, #1
 8000f52:	65a2      	strpl	r2, [r4, #88]	; 0x58
 8000f54:	2d08      	cmp	r5, #8
 8000f56:	68d8      	ldr	r0, [r3, #12]
 8000f58:	d117      	bne.n	8000f8a <HAL_ADC_PollForConversion+0x96>
 8000f5a:	601d      	str	r5, [r3, #0]
 8000f5c:	2000      	movs	r0, #0
 8000f5e:	e7d8      	b.n	8000f12 <HAL_ADC_PollForConversion+0x1e>
 8000f60:	1c70      	adds	r0, r6, #1
 8000f62:	d0dc      	beq.n	8000f1e <HAL_ADC_PollForConversion+0x2a>
 8000f64:	f7ff fec2 	bl	8000cec <HAL_GetTick>
 8000f68:	1bc0      	subs	r0, r0, r7
 8000f6a:	42b0      	cmp	r0, r6
 8000f6c:	d801      	bhi.n	8000f72 <HAL_ADC_PollForConversion+0x7e>
 8000f6e:	2e00      	cmp	r6, #0
 8000f70:	d1d4      	bne.n	8000f1c <HAL_ADC_PollForConversion+0x28>
 8000f72:	6823      	ldr	r3, [r4, #0]
 8000f74:	681b      	ldr	r3, [r3, #0]
 8000f76:	402b      	ands	r3, r5
 8000f78:	d1d0      	bne.n	8000f1c <HAL_ADC_PollForConversion+0x28>
 8000f7a:	6da2      	ldr	r2, [r4, #88]	; 0x58
 8000f7c:	f884 3054 	strb.w	r3, [r4, #84]	; 0x54
 8000f80:	f042 0204 	orr.w	r2, r2, #4
 8000f84:	65a2      	str	r2, [r4, #88]	; 0x58
 8000f86:	2003      	movs	r0, #3
 8000f88:	e7c3      	b.n	8000f12 <HAL_ADC_PollForConversion+0x1e>
 8000f8a:	f410 4080 	ands.w	r0, r0, #16384	; 0x4000
 8000f8e:	d1e5      	bne.n	8000f5c <HAL_ADC_PollForConversion+0x68>
 8000f90:	220c      	movs	r2, #12
 8000f92:	601a      	str	r2, [r3, #0]
 8000f94:	e7bd      	b.n	8000f12 <HAL_ADC_PollForConversion+0x1e>

08000f96 <HAL_ADC_GetValue>:
 8000f96:	6803      	ldr	r3, [r0, #0]
 8000f98:	6c18      	ldr	r0, [r3, #64]	; 0x40
 8000f9a:	4770      	bx	lr

08000f9c <HAL_ADC_ConfigChannel>:
 8000f9c:	b5f7      	push	{r0, r1, r2, r4, r5, r6, r7, lr}
 8000f9e:	2300      	movs	r3, #0
 8000fa0:	9301      	str	r3, [sp, #4]
 8000fa2:	f890 3054 	ldrb.w	r3, [r0, #84]	; 0x54
 8000fa6:	2b01      	cmp	r3, #1
 8000fa8:	4605      	mov	r5, r0
 8000faa:	460c      	mov	r4, r1
 8000fac:	f000 81a5 	beq.w	80012fa <HAL_ADC_ConfigChannel+0x35e>
 8000fb0:	2301      	movs	r3, #1
 8000fb2:	f880 3054 	strb.w	r3, [r0, #84]	; 0x54
 8000fb6:	6800      	ldr	r0, [r0, #0]
 8000fb8:	f7ff fec3 	bl	8000d42 <LL_ADC_REG_IsConversionOngoing>
 8000fbc:	2800      	cmp	r0, #0
 8000fbe:	f040 8196 	bne.w	80012ee <HAL_ADC_ConfigChannel+0x352>
 8000fc2:	684b      	ldr	r3, [r1, #4]
 8000fc4:	2b05      	cmp	r3, #5
 8000fc6:	d809      	bhi.n	8000fdc <HAL_ADC_ConfigChannel+0x40>
 8000fc8:	3b02      	subs	r3, #2
 8000fca:	2b03      	cmp	r3, #3
 8000fcc:	f200 8094 	bhi.w	80010f8 <HAL_ADC_ConfigChannel+0x15c>
 8000fd0:	e8df f003 	tbb	[pc, r3]
 8000fd4:	8f8d8b02 	.word	0x8f8d8b02
 8000fd8:	230c      	movs	r3, #12
 8000fda:	6063      	str	r3, [r4, #4]
 8000fdc:	6862      	ldr	r2, [r4, #4]
 8000fde:	6828      	ldr	r0, [r5, #0]
 8000fe0:	6823      	ldr	r3, [r4, #0]
 8000fe2:	0991      	lsrs	r1, r2, #6
 8000fe4:	f001 010c 	and.w	r1, r1, #12
 8000fe8:	f100 0730 	add.w	r7, r0, #48	; 0x30
 8000fec:	f002 021f 	and.w	r2, r2, #31
 8000ff0:	59ce      	ldr	r6, [r1, r7]
 8000ff2:	f04f 0c1f 	mov.w	ip, #31
 8000ff6:	f3c3 6384 	ubfx	r3, r3, #26, #5
 8000ffa:	4093      	lsls	r3, r2
 8000ffc:	fa0c f202 	lsl.w	r2, ip, r2
 8001000:	ea26 0202 	bic.w	r2, r6, r2
 8001004:	4313      	orrs	r3, r2
 8001006:	51cb      	str	r3, [r1, r7]
 8001008:	f7ff fe9b 	bl	8000d42 <LL_ADC_REG_IsConversionOngoing>
 800100c:	4601      	mov	r1, r0
 800100e:	6828      	ldr	r0, [r5, #0]
 8001010:	6882      	ldr	r2, [r0, #8]
 8001012:	f002 0208 	and.w	r2, r2, #8
 8001016:	430a      	orrs	r2, r1
 8001018:	d124      	bne.n	8001064 <HAL_ADC_ConfigChannel+0xc8>
 800101a:	68a3      	ldr	r3, [r4, #8]
 800101c:	6821      	ldr	r1, [r4, #0]
 800101e:	f1b3 4f00 	cmp.w	r3, #2147483648	; 0x80000000
 8001022:	d16b      	bne.n	80010fc <HAL_ADC_ConfigChannel+0x160>
 8001024:	f7ff fe7c 	bl	8000d20 <LL_ADC_SetChannelSamplingTime>
 8001028:	682a      	ldr	r2, [r5, #0]
 800102a:	6953      	ldr	r3, [r2, #20]
 800102c:	f043 4300 	orr.w	r3, r3, #2147483648	; 0x80000000
 8001030:	6153      	str	r3, [r2, #20]
 8001032:	6926      	ldr	r6, [r4, #16]
 8001034:	6828      	ldr	r0, [r5, #0]
 8001036:	6822      	ldr	r2, [r4, #0]
 8001038:	68c1      	ldr	r1, [r0, #12]
 800103a:	2e04      	cmp	r6, #4
 800103c:	f100 0360 	add.w	r3, r0, #96	; 0x60
 8001040:	d064      	beq.n	800110c <HAL_ADC_ConfigChannel+0x170>
 8001042:	f3c1 01c1 	ubfx	r1, r1, #3, #2
 8001046:	0048      	lsls	r0, r1, #1
 8001048:	6961      	ldr	r1, [r4, #20]
 800104a:	f853 7026 	ldr.w	r7, [r3, r6, lsl #2]
 800104e:	4081      	lsls	r1, r0
 8001050:	48ab      	ldr	r0, [pc, #684]	; (8001300 <HAL_ADC_ConfigChannel+0x364>)
 8001052:	f002 42f8 	and.w	r2, r2, #2080374784	; 0x7c000000
 8001056:	4038      	ands	r0, r7
 8001058:	4310      	orrs	r0, r2
 800105a:	4301      	orrs	r1, r0
 800105c:	f041 4100 	orr.w	r1, r1, #2147483648	; 0x80000000
 8001060:	f843 1026 	str.w	r1, [r3, r6, lsl #2]
 8001064:	6828      	ldr	r0, [r5, #0]
 8001066:	6883      	ldr	r3, [r0, #8]
 8001068:	07d9      	lsls	r1, r3, #31
 800106a:	d433      	bmi.n	80010d4 <HAL_ADC_ConfigChannel+0x138>
 800106c:	68e7      	ldr	r7, [r4, #12]
 800106e:	6823      	ldr	r3, [r4, #0]
 8001070:	4aa4      	ldr	r2, [pc, #656]	; (8001304 <HAL_ADC_ConfigChannel+0x368>)
 8001072:	f8d0 10b0 	ldr.w	r1, [r0, #176]	; 0xb0
 8001076:	f007 0c18 	and.w	ip, r7, #24
 800107a:	f3c3 0612 	ubfx	r6, r3, #0, #19
 800107e:	fa22 f20c 	lsr.w	r2, r2, ip
 8001082:	401a      	ands	r2, r3
 8001084:	ea21 0106 	bic.w	r1, r1, r6
 8001088:	430a      	orrs	r2, r1
 800108a:	f8c0 20b0 	str.w	r2, [r0, #176]	; 0xb0
 800108e:	4a9e      	ldr	r2, [pc, #632]	; (8001308 <HAL_ADC_ConfigChannel+0x36c>)
 8001090:	4297      	cmp	r7, r2
 8001092:	d11f      	bne.n	80010d4 <HAL_ADC_ConfigChannel+0x138>
 8001094:	2e00      	cmp	r6, #0
 8001096:	f040 808e 	bne.w	80011b6 <HAL_ADC_ConfigChannel+0x21a>
 800109a:	0e9a      	lsrs	r2, r3, #26
 800109c:	3201      	adds	r2, #1
 800109e:	f002 071f 	and.w	r7, r2, #31
 80010a2:	2101      	movs	r1, #1
 80010a4:	0692      	lsls	r2, r2, #26
 80010a6:	2f09      	cmp	r7, #9
 80010a8:	f002 42f8 	and.w	r2, r2, #2080374784	; 0x7c000000
 80010ac:	fa01 f107 	lsl.w	r1, r1, r7
 80010b0:	f200 80b3 	bhi.w	800121a <HAL_ADC_ConfigChannel+0x27e>
 80010b4:	430a      	orrs	r2, r1
 80010b6:	2e00      	cmp	r6, #0
 80010b8:	f040 8099 	bne.w	80011ee <HAL_ADC_ConfigChannel+0x252>
 80010bc:	0e9b      	lsrs	r3, r3, #26
 80010be:	3301      	adds	r3, #1
 80010c0:	f003 031f 	and.w	r3, r3, #31
 80010c4:	eb03 0343 	add.w	r3, r3, r3, lsl #1
 80010c8:	051b      	lsls	r3, r3, #20
 80010ca:	ea42 0103 	orr.w	r1, r2, r3
 80010ce:	68a2      	ldr	r2, [r4, #8]
 80010d0:	f7ff fe26 	bl	8000d20 <LL_ADC_SetChannelSamplingTime>
 80010d4:	6821      	ldr	r1, [r4, #0]
 80010d6:	4b8d      	ldr	r3, [pc, #564]	; (800130c <HAL_ADC_ConfigChannel+0x370>)
 80010d8:	4219      	tst	r1, r3
 80010da:	f040 80b9 	bne.w	8001250 <HAL_ADC_ConfigChannel+0x2b4>
 80010de:	2000      	movs	r0, #0
 80010e0:	2300      	movs	r3, #0
 80010e2:	f885 3054 	strb.w	r3, [r5, #84]	; 0x54
 80010e6:	b003      	add	sp, #12
 80010e8:	bdf0      	pop	{r4, r5, r6, r7, pc}
 80010ea:	2312      	movs	r3, #18
 80010ec:	e775      	b.n	8000fda <HAL_ADC_ConfigChannel+0x3e>
 80010ee:	2318      	movs	r3, #24
 80010f0:	e773      	b.n	8000fda <HAL_ADC_ConfigChannel+0x3e>
 80010f2:	f44f 7380 	mov.w	r3, #256	; 0x100
 80010f6:	e770      	b.n	8000fda <HAL_ADC_ConfigChannel+0x3e>
 80010f8:	2306      	movs	r3, #6
 80010fa:	e76e      	b.n	8000fda <HAL_ADC_ConfigChannel+0x3e>
 80010fc:	461a      	mov	r2, r3
 80010fe:	f7ff fe0f 	bl	8000d20 <LL_ADC_SetChannelSamplingTime>
 8001102:	682a      	ldr	r2, [r5, #0]
 8001104:	6953      	ldr	r3, [r2, #20]
 8001106:	f023 4300 	bic.w	r3, r3, #2147483648	; 0x80000000
 800110a:	e791      	b.n	8001030 <HAL_ADC_ConfigChannel+0x94>
 800110c:	6e01      	ldr	r1, [r0, #96]	; 0x60
 800110e:	6e01      	ldr	r1, [r0, #96]	; 0x60
 8001110:	f3c2 0612 	ubfx	r6, r2, #0, #19
 8001114:	f3c1 6184 	ubfx	r1, r1, #26, #5
 8001118:	2e00      	cmp	r6, #0
 800111a:	d138      	bne.n	800118e <HAL_ADC_ConfigChannel+0x1f2>
 800111c:	f3c2 6284 	ubfx	r2, r2, #26, #5
 8001120:	4291      	cmp	r1, r2
 8001122:	bf02      	ittt	eq
 8001124:	6e02      	ldreq	r2, [r0, #96]	; 0x60
 8001126:	f022 4200 	biceq.w	r2, r2, #2147483648	; 0x80000000
 800112a:	6602      	streq	r2, [r0, #96]	; 0x60
 800112c:	685a      	ldr	r2, [r3, #4]
 800112e:	6822      	ldr	r2, [r4, #0]
 8001130:	6859      	ldr	r1, [r3, #4]
 8001132:	f3c2 0012 	ubfx	r0, r2, #0, #19
 8001136:	f3c1 6184 	ubfx	r1, r1, #26, #5
 800113a:	bb68      	cbnz	r0, 8001198 <HAL_ADC_ConfigChannel+0x1fc>
 800113c:	f3c2 6284 	ubfx	r2, r2, #26, #5
 8001140:	4291      	cmp	r1, r2
 8001142:	bf02      	ittt	eq
 8001144:	685a      	ldreq	r2, [r3, #4]
 8001146:	f022 4200 	biceq.w	r2, r2, #2147483648	; 0x80000000
 800114a:	605a      	streq	r2, [r3, #4]
 800114c:	689a      	ldr	r2, [r3, #8]
 800114e:	6822      	ldr	r2, [r4, #0]
 8001150:	6899      	ldr	r1, [r3, #8]
 8001152:	f3c2 0012 	ubfx	r0, r2, #0, #19
 8001156:	f3c1 6184 	ubfx	r1, r1, #26, #5
 800115a:	bb10      	cbnz	r0, 80011a2 <HAL_ADC_ConfigChannel+0x206>
 800115c:	f3c2 6284 	ubfx	r2, r2, #26, #5
 8001160:	4291      	cmp	r1, r2
 8001162:	bf02      	ittt	eq
 8001164:	689a      	ldreq	r2, [r3, #8]
 8001166:	f022 4200 	biceq.w	r2, r2, #2147483648	; 0x80000000
 800116a:	609a      	streq	r2, [r3, #8]
 800116c:	68da      	ldr	r2, [r3, #12]
 800116e:	6822      	ldr	r2, [r4, #0]
 8001170:	68d9      	ldr	r1, [r3, #12]
 8001172:	f3c2 0012 	ubfx	r0, r2, #0, #19
 8001176:	f3c1 6184 	ubfx	r1, r1, #26, #5
 800117a:	b9b8      	cbnz	r0, 80011ac <HAL_ADC_ConfigChannel+0x210>
 800117c:	f3c2 6284 	ubfx	r2, r2, #26, #5
 8001180:	4291      	cmp	r1, r2
 8001182:	bf02      	ittt	eq
 8001184:	68da      	ldreq	r2, [r3, #12]
 8001186:	f022 4200 	biceq.w	r2, r2, #2147483648	; 0x80000000
 800118a:	60da      	streq	r2, [r3, #12]
 800118c:	e76a      	b.n	8001064 <HAL_ADC_ConfigChannel+0xc8>
 800118e:	fa92 f2a2 	rbit	r2, r2
 8001192:	fab2 f282 	clz	r2, r2
 8001196:	e7c3      	b.n	8001120 <HAL_ADC_ConfigChannel+0x184>
 8001198:	fa92 f2a2 	rbit	r2, r2
 800119c:	fab2 f282 	clz	r2, r2
 80011a0:	e7ce      	b.n	8001140 <HAL_ADC_ConfigChannel+0x1a4>
 80011a2:	fa92 f2a2 	rbit	r2, r2
 80011a6:	fab2 f282 	clz	r2, r2
 80011aa:	e7d9      	b.n	8001160 <HAL_ADC_ConfigChannel+0x1c4>
 80011ac:	fa92 f2a2 	rbit	r2, r2
 80011b0:	fab2 f282 	clz	r2, r2
 80011b4:	e7e4      	b.n	8001180 <HAL_ADC_ConfigChannel+0x1e4>
 80011b6:	fa93 f2a3 	rbit	r2, r3
 80011ba:	b132      	cbz	r2, 80011ca <HAL_ADC_ConfigChannel+0x22e>
 80011bc:	fab2 f282 	clz	r2, r2
 80011c0:	3201      	adds	r2, #1
 80011c2:	f002 021f 	and.w	r2, r2, #31
 80011c6:	2a09      	cmp	r2, #9
 80011c8:	d816      	bhi.n	80011f8 <HAL_ADC_ConfigChannel+0x25c>
 80011ca:	fa93 f2a3 	rbit	r2, r3
 80011ce:	fab2 f282 	clz	r2, r2
 80011d2:	3201      	adds	r2, #1
 80011d4:	0692      	lsls	r2, r2, #26
 80011d6:	f002 42f8 	and.w	r2, r2, #2080374784	; 0x7c000000
 80011da:	fa93 f1a3 	rbit	r1, r3
 80011de:	fab1 f181 	clz	r1, r1
 80011e2:	3101      	adds	r1, #1
 80011e4:	f001 071f 	and.w	r7, r1, #31
 80011e8:	2101      	movs	r1, #1
 80011ea:	40b9      	lsls	r1, r7
 80011ec:	e762      	b.n	80010b4 <HAL_ADC_ConfigChannel+0x118>
 80011ee:	fa93 f3a3 	rbit	r3, r3
 80011f2:	fab3 f383 	clz	r3, r3
 80011f6:	e762      	b.n	80010be <HAL_ADC_ConfigChannel+0x122>
 80011f8:	fa93 f2a3 	rbit	r2, r3
 80011fc:	fab2 f282 	clz	r2, r2
 8001200:	3201      	adds	r2, #1
 8001202:	0692      	lsls	r2, r2, #26
 8001204:	f002 42f8 	and.w	r2, r2, #2080374784	; 0x7c000000
 8001208:	fa93 f1a3 	rbit	r1, r3
 800120c:	fab1 f181 	clz	r1, r1
 8001210:	3101      	adds	r1, #1
 8001212:	f001 071f 	and.w	r7, r1, #31
 8001216:	2101      	movs	r1, #1
 8001218:	40b9      	lsls	r1, r7
 800121a:	430a      	orrs	r2, r1
 800121c:	b95e      	cbnz	r6, 8001236 <HAL_ADC_ConfigChannel+0x29a>
 800121e:	0e9e      	lsrs	r6, r3, #26
 8001220:	3601      	adds	r6, #1
 8001222:	f006 061f 	and.w	r6, r6, #31
 8001226:	eb06 0146 	add.w	r1, r6, r6, lsl #1
 800122a:	391e      	subs	r1, #30
 800122c:	0509      	lsls	r1, r1, #20
 800122e:	f041 7100 	orr.w	r1, r1, #33554432	; 0x2000000
 8001232:	4311      	orrs	r1, r2
 8001234:	e74b      	b.n	80010ce <HAL_ADC_ConfigChannel+0x132>
 8001236:	fa93 f1a3 	rbit	r1, r3
 800123a:	fab1 f181 	clz	r1, r1
 800123e:	3101      	adds	r1, #1
 8001240:	f001 031f 	and.w	r3, r1, #31
 8001244:	f06f 061d 	mvn.w	r6, #29
 8001248:	2103      	movs	r1, #3
 800124a:	fb11 6103 	smlabb	r1, r1, r3, r6
 800124e:	e7ed      	b.n	800122c <HAL_ADC_ConfigChannel+0x290>
 8001250:	4b2f      	ldr	r3, [pc, #188]	; (8001310 <HAL_ADC_ConfigChannel+0x374>)
 8001252:	4a30      	ldr	r2, [pc, #192]	; (8001314 <HAL_ADC_ConfigChannel+0x378>)
 8001254:	6898      	ldr	r0, [r3, #8]
 8001256:	4291      	cmp	r1, r2
 8001258:	f000 74e0 	and.w	r4, r0, #29360128	; 0x1c00000
 800125c:	d11e      	bne.n	800129c <HAL_ADC_ConfigChannel+0x300>
 800125e:	0202      	lsls	r2, r0, #8
 8001260:	f53f af3d 	bmi.w	80010de <HAL_ADC_ConfigChannel+0x142>
 8001264:	6829      	ldr	r1, [r5, #0]
 8001266:	4a2c      	ldr	r2, [pc, #176]	; (8001318 <HAL_ADC_ConfigChannel+0x37c>)
 8001268:	4291      	cmp	r1, r2
 800126a:	f47f af38 	bne.w	80010de <HAL_ADC_ConfigChannel+0x142>
 800126e:	689a      	ldr	r2, [r3, #8]
 8001270:	f022 72e0 	bic.w	r2, r2, #29360128	; 0x1c00000
 8001274:	4322      	orrs	r2, r4
 8001276:	f442 0200 	orr.w	r2, r2, #8388608	; 0x800000
 800127a:	609a      	str	r2, [r3, #8]
 800127c:	4b27      	ldr	r3, [pc, #156]	; (800131c <HAL_ADC_ConfigChannel+0x380>)
 800127e:	4a28      	ldr	r2, [pc, #160]	; (8001320 <HAL_ADC_ConfigChannel+0x384>)
 8001280:	681b      	ldr	r3, [r3, #0]
 8001282:	fbb3 f2f2 	udiv	r2, r3, r2
 8001286:	230c      	movs	r3, #12
 8001288:	fb02 3303 	mla	r3, r2, r3, r3
 800128c:	9301      	str	r3, [sp, #4]
 800128e:	9b01      	ldr	r3, [sp, #4]
 8001290:	2b00      	cmp	r3, #0
 8001292:	f43f af24 	beq.w	80010de <HAL_ADC_ConfigChannel+0x142>
 8001296:	9b01      	ldr	r3, [sp, #4]
 8001298:	3b01      	subs	r3, #1
 800129a:	e7f7      	b.n	800128c <HAL_ADC_ConfigChannel+0x2f0>
 800129c:	4a21      	ldr	r2, [pc, #132]	; (8001324 <HAL_ADC_ConfigChannel+0x388>)
 800129e:	4291      	cmp	r1, r2
 80012a0:	d111      	bne.n	80012c6 <HAL_ADC_ConfigChannel+0x32a>
 80012a2:	f010 7080 	ands.w	r0, r0, #16777216	; 0x1000000
 80012a6:	f47f af1a 	bne.w	80010de <HAL_ADC_ConfigChannel+0x142>
 80012aa:	6829      	ldr	r1, [r5, #0]
 80012ac:	f1a2 42f7 	sub.w	r2, r2, #2071986176	; 0x7b800000
 80012b0:	4291      	cmp	r1, r2
 80012b2:	f47f af14 	bne.w	80010de <HAL_ADC_ConfigChannel+0x142>
 80012b6:	689a      	ldr	r2, [r3, #8]
 80012b8:	f022 72e0 	bic.w	r2, r2, #29360128	; 0x1c00000
 80012bc:	4322      	orrs	r2, r4
 80012be:	f042 7280 	orr.w	r2, r2, #16777216	; 0x1000000
 80012c2:	609a      	str	r2, [r3, #8]
 80012c4:	e70c      	b.n	80010e0 <HAL_ADC_ConfigChannel+0x144>
 80012c6:	4a18      	ldr	r2, [pc, #96]	; (8001328 <HAL_ADC_ConfigChannel+0x38c>)
 80012c8:	4291      	cmp	r1, r2
 80012ca:	f47f af08 	bne.w	80010de <HAL_ADC_ConfigChannel+0x142>
 80012ce:	f410 0080 	ands.w	r0, r0, #4194304	; 0x400000
 80012d2:	f47f af04 	bne.w	80010de <HAL_ADC_ConfigChannel+0x142>
 80012d6:	6829      	ldr	r1, [r5, #0]
 80012d8:	4a0f      	ldr	r2, [pc, #60]	; (8001318 <HAL_ADC_ConfigChannel+0x37c>)
 80012da:	4291      	cmp	r1, r2
 80012dc:	f47f aeff 	bne.w	80010de <HAL_ADC_ConfigChannel+0x142>
 80012e0:	689a      	ldr	r2, [r3, #8]
 80012e2:	f022 72e0 	bic.w	r2, r2, #29360128	; 0x1c00000
 80012e6:	4322      	orrs	r2, r4
 80012e8:	f442 0280 	orr.w	r2, r2, #4194304	; 0x400000
 80012ec:	e7e9      	b.n	80012c2 <HAL_ADC_ConfigChannel+0x326>
 80012ee:	6daa      	ldr	r2, [r5, #88]	; 0x58
 80012f0:	f042 0220 	orr.w	r2, r2, #32
 80012f4:	65aa      	str	r2, [r5, #88]	; 0x58
 80012f6:	4618      	mov	r0, r3
 80012f8:	e6f2      	b.n	80010e0 <HAL_ADC_ConfigChannel+0x144>
 80012fa:	2002      	movs	r0, #2
 80012fc:	e6f3      	b.n	80010e6 <HAL_ADC_ConfigChannel+0x14a>
 80012fe:	bf00      	nop
 8001300:	03fff000 	.word	0x03fff000
 8001304:	0007ffff 	.word	0x0007ffff
 8001308:	407f0000 	.word	0x407f0000
 800130c:	80080000 	.word	0x80080000
 8001310:	50040300 	.word	0x50040300
 8001314:	c7520000 	.word	0xc7520000
 8001318:	50040000 	.word	0x50040000
 800131c:	20000000 	.word	0x20000000
 8001320:	00030d40 	.word	0x00030d40
 8001324:	cb840000 	.word	0xcb840000
 8001328:	80000001 	.word	0x80000001

0800132c <ADC_ConversionStop>:
 800132c:	b570      	push	{r4, r5, r6, lr}
 800132e:	4604      	mov	r4, r0
 8001330:	6800      	ldr	r0, [r0, #0]
 8001332:	f7ff fd06 	bl	8000d42 <LL_ADC_REG_IsConversionOngoing>
 8001336:	6823      	ldr	r3, [r4, #0]
 8001338:	689a      	ldr	r2, [r3, #8]
 800133a:	f002 0208 	and.w	r2, r2, #8
 800133e:	4302      	orrs	r2, r0
 8001340:	d101      	bne.n	8001346 <ADC_ConversionStop+0x1a>
 8001342:	2000      	movs	r0, #0
 8001344:	bd70      	pop	{r4, r5, r6, pc}
 8001346:	68da      	ldr	r2, [r3, #12]
 8001348:	0190      	lsls	r0, r2, #6
 800134a:	d52b      	bpl.n	80013a4 <ADC_ConversionStop+0x78>
 800134c:	8b20      	ldrh	r0, [r4, #24]
 800134e:	f240 1201 	movw	r2, #257	; 0x101
 8001352:	4290      	cmp	r0, r2
 8001354:	d126      	bne.n	80013a4 <ADC_ConversionStop+0x78>
 8001356:	4a28      	ldr	r2, [pc, #160]	; (80013f8 <ADC_ConversionStop+0xcc>)
 8001358:	6819      	ldr	r1, [r3, #0]
 800135a:	0649      	lsls	r1, r1, #25
 800135c:	d516      	bpl.n	800138c <ADC_ConversionStop+0x60>
 800135e:	2240      	movs	r2, #64	; 0x40
 8001360:	601a      	str	r2, [r3, #0]
 8001362:	2101      	movs	r1, #1
 8001364:	4618      	mov	r0, r3
 8001366:	f7ff fcec 	bl	8000d42 <LL_ADC_REG_IsConversionOngoing>
 800136a:	b158      	cbz	r0, 8001384 <ADC_ConversionStop+0x58>
 800136c:	6822      	ldr	r2, [r4, #0]
 800136e:	6893      	ldr	r3, [r2, #8]
 8001370:	079e      	lsls	r6, r3, #30
 8001372:	d407      	bmi.n	8001384 <ADC_ConversionStop+0x58>
 8001374:	6893      	ldr	r3, [r2, #8]
 8001376:	f023 4300 	bic.w	r3, r3, #2147483648	; 0x80000000
 800137a:	f023 033f 	bic.w	r3, r3, #63	; 0x3f
 800137e:	f043 0310 	orr.w	r3, r3, #16
 8001382:	6093      	str	r3, [r2, #8]
 8001384:	2901      	cmp	r1, #1
 8001386:	d10f      	bne.n	80013a8 <ADC_ConversionStop+0x7c>
 8001388:	2504      	movs	r5, #4
 800138a:	e022      	b.n	80013d2 <ADC_ConversionStop+0xa6>
 800138c:	3a01      	subs	r2, #1
 800138e:	d1e3      	bne.n	8001358 <ADC_ConversionStop+0x2c>
 8001390:	6da3      	ldr	r3, [r4, #88]	; 0x58
 8001392:	f043 0310 	orr.w	r3, r3, #16
 8001396:	65a3      	str	r3, [r4, #88]	; 0x58
 8001398:	6de3      	ldr	r3, [r4, #92]	; 0x5c
 800139a:	f043 0301 	orr.w	r3, r3, #1
 800139e:	65e3      	str	r3, [r4, #92]	; 0x5c
 80013a0:	2001      	movs	r0, #1
 80013a2:	e7cf      	b.n	8001344 <ADC_ConversionStop+0x18>
 80013a4:	2902      	cmp	r1, #2
 80013a6:	d1dd      	bne.n	8001364 <ADC_ConversionStop+0x38>
 80013a8:	6822      	ldr	r2, [r4, #0]
 80013aa:	6893      	ldr	r3, [r2, #8]
 80013ac:	0718      	lsls	r0, r3, #28
 80013ae:	d50a      	bpl.n	80013c6 <ADC_ConversionStop+0x9a>
 80013b0:	6893      	ldr	r3, [r2, #8]
 80013b2:	079b      	lsls	r3, r3, #30
 80013b4:	d407      	bmi.n	80013c6 <ADC_ConversionStop+0x9a>
 80013b6:	6893      	ldr	r3, [r2, #8]
 80013b8:	f023 4300 	bic.w	r3, r3, #2147483648	; 0x80000000
 80013bc:	f023 033f 	bic.w	r3, r3, #63	; 0x3f
 80013c0:	f043 0320 	orr.w	r3, r3, #32
 80013c4:	6093      	str	r3, [r2, #8]
 80013c6:	2902      	cmp	r1, #2
 80013c8:	d014      	beq.n	80013f4 <ADC_ConversionStop+0xc8>
 80013ca:	2903      	cmp	r1, #3
 80013cc:	bf14      	ite	ne
 80013ce:	2504      	movne	r5, #4
 80013d0:	250c      	moveq	r5, #12
 80013d2:	f7ff fc8b 	bl	8000cec <HAL_GetTick>
 80013d6:	4606      	mov	r6, r0
 80013d8:	6823      	ldr	r3, [r4, #0]
 80013da:	689b      	ldr	r3, [r3, #8]
 80013dc:	422b      	tst	r3, r5
 80013de:	d0b0      	beq.n	8001342 <ADC_ConversionStop+0x16>
 80013e0:	f7ff fc84 	bl	8000cec <HAL_GetTick>
 80013e4:	1b80      	subs	r0, r0, r6
 80013e6:	2805      	cmp	r0, #5
 80013e8:	d9f6      	bls.n	80013d8 <ADC_ConversionStop+0xac>
 80013ea:	6823      	ldr	r3, [r4, #0]
 80013ec:	689b      	ldr	r3, [r3, #8]
 80013ee:	422b      	tst	r3, r5
 80013f0:	d0f2      	beq.n	80013d8 <ADC_ConversionStop+0xac>
 80013f2:	e7cd      	b.n	8001390 <ADC_ConversionStop+0x64>
 80013f4:	2508      	movs	r5, #8
 80013f6:	e7ec      	b.n	80013d2 <ADC_ConversionStop+0xa6>
 80013f8:	a3400001 	.word	0xa3400001

080013fc <ADC_Enable>:
 80013fc:	b573      	push	{r0, r1, r4, r5, r6, lr}
 80013fe:	2300      	movs	r3, #0
 8001400:	6802      	ldr	r2, [r0, #0]
 8001402:	9301      	str	r3, [sp, #4]
 8001404:	6893      	ldr	r3, [r2, #8]
 8001406:	07dd      	lsls	r5, r3, #31
 8001408:	4604      	mov	r4, r0
 800140a:	d502      	bpl.n	8001412 <ADC_Enable+0x16>
 800140c:	2000      	movs	r0, #0
 800140e:	b002      	add	sp, #8
 8001410:	bd70      	pop	{r4, r5, r6, pc}
 8001412:	6891      	ldr	r1, [r2, #8]
 8001414:	4b20      	ldr	r3, [pc, #128]	; (8001498 <ADC_Enable+0x9c>)
 8001416:	4219      	tst	r1, r3
 8001418:	d009      	beq.n	800142e <ADC_Enable+0x32>
 800141a:	6da3      	ldr	r3, [r4, #88]	; 0x58
 800141c:	f043 0310 	orr.w	r3, r3, #16
 8001420:	65a3      	str	r3, [r4, #88]	; 0x58
 8001422:	6de3      	ldr	r3, [r4, #92]	; 0x5c
 8001424:	f043 0301 	orr.w	r3, r3, #1
 8001428:	65e3      	str	r3, [r4, #92]	; 0x5c
 800142a:	2001      	movs	r0, #1
 800142c:	e7ef      	b.n	800140e <ADC_Enable+0x12>
 800142e:	6893      	ldr	r3, [r2, #8]
 8001430:	f023 4300 	bic.w	r3, r3, #2147483648	; 0x80000000
 8001434:	f023 033f 	bic.w	r3, r3, #63	; 0x3f
 8001438:	f043 0301 	orr.w	r3, r3, #1
 800143c:	6093      	str	r3, [r2, #8]
 800143e:	4b17      	ldr	r3, [pc, #92]	; (800149c <ADC_Enable+0xa0>)
 8001440:	689b      	ldr	r3, [r3, #8]
 8001442:	0218      	lsls	r0, r3, #8
 8001444:	d419      	bmi.n	800147a <ADC_Enable+0x7e>
 8001446:	f7ff fc51 	bl	8000cec <HAL_GetTick>
 800144a:	4e15      	ldr	r6, [pc, #84]	; (80014a0 <ADC_Enable+0xa4>)
 800144c:	4605      	mov	r5, r0
 800144e:	6822      	ldr	r2, [r4, #0]
 8001450:	6813      	ldr	r3, [r2, #0]
 8001452:	07db      	lsls	r3, r3, #31
 8001454:	d4da      	bmi.n	800140c <ADC_Enable+0x10>
 8001456:	6893      	ldr	r3, [r2, #8]
 8001458:	07d9      	lsls	r1, r3, #31
 800145a:	bf5f      	itttt	pl
 800145c:	6893      	ldrpl	r3, [r2, #8]
 800145e:	4033      	andpl	r3, r6
 8001460:	f043 0301 	orrpl.w	r3, r3, #1
 8001464:	6093      	strpl	r3, [r2, #8]
 8001466:	f7ff fc41 	bl	8000cec <HAL_GetTick>
 800146a:	1b40      	subs	r0, r0, r5
 800146c:	2802      	cmp	r0, #2
 800146e:	d9ee      	bls.n	800144e <ADC_Enable+0x52>
 8001470:	6823      	ldr	r3, [r4, #0]
 8001472:	681b      	ldr	r3, [r3, #0]
 8001474:	07da      	lsls	r2, r3, #31
 8001476:	d4ea      	bmi.n	800144e <ADC_Enable+0x52>
 8001478:	e7cf      	b.n	800141a <ADC_Enable+0x1e>
 800147a:	4b0a      	ldr	r3, [pc, #40]	; (80014a4 <ADC_Enable+0xa8>)
 800147c:	4a0a      	ldr	r2, [pc, #40]	; (80014a8 <ADC_Enable+0xac>)
 800147e:	681b      	ldr	r3, [r3, #0]
 8001480:	fbb3 f2f2 	udiv	r2, r3, r2
 8001484:	230c      	movs	r3, #12
 8001486:	fb02 3303 	mla	r3, r2, r3, r3
 800148a:	9301      	str	r3, [sp, #4]
 800148c:	9b01      	ldr	r3, [sp, #4]
 800148e:	2b00      	cmp	r3, #0
 8001490:	d0d9      	beq.n	8001446 <ADC_Enable+0x4a>
 8001492:	9b01      	ldr	r3, [sp, #4]
 8001494:	3b01      	subs	r3, #1
 8001496:	e7f8      	b.n	800148a <ADC_Enable+0x8e>
 8001498:	8000003f 	.word	0x8000003f
 800149c:	50040300 	.word	0x50040300
 80014a0:	7fffffc0 	.word	0x7fffffc0
 80014a4:	20000000 	.word	0x20000000
 80014a8:	00030d40 	.word	0x00030d40

080014ac <HAL_ADC_Start>:
 80014ac:	b538      	push	{r3, r4, r5, lr}
 80014ae:	4604      	mov	r4, r0
 80014b0:	6800      	ldr	r0, [r0, #0]
 80014b2:	f7ff fc46 	bl	8000d42 <LL_ADC_REG_IsConversionOngoing>
 80014b6:	4605      	mov	r5, r0
 80014b8:	2800      	cmp	r0, #0
 80014ba:	d136      	bne.n	800152a <HAL_ADC_Start+0x7e>
 80014bc:	f894 3054 	ldrb.w	r3, [r4, #84]	; 0x54
 80014c0:	2b01      	cmp	r3, #1
 80014c2:	d032      	beq.n	800152a <HAL_ADC_Start+0x7e>
 80014c4:	2301      	movs	r3, #1
 80014c6:	f884 3054 	strb.w	r3, [r4, #84]	; 0x54
 80014ca:	4620      	mov	r0, r4
 80014cc:	f7ff ff96 	bl	80013fc <ADC_Enable>
 80014d0:	bb40      	cbnz	r0, 8001524 <HAL_ADC_Start+0x78>
 80014d2:	6da3      	ldr	r3, [r4, #88]	; 0x58
 80014d4:	f423 6370 	bic.w	r3, r3, #3840	; 0xf00
 80014d8:	f023 0301 	bic.w	r3, r3, #1
 80014dc:	f443 7380 	orr.w	r3, r3, #256	; 0x100
 80014e0:	65a3      	str	r3, [r4, #88]	; 0x58
 80014e2:	6da3      	ldr	r3, [r4, #88]	; 0x58
 80014e4:	04da      	lsls	r2, r3, #19
 80014e6:	bf48      	it	mi
 80014e8:	6de3      	ldrmi	r3, [r4, #92]	; 0x5c
 80014ea:	6822      	ldr	r2, [r4, #0]
 80014ec:	bf52      	itee	pl
 80014ee:	65e0      	strpl	r0, [r4, #92]	; 0x5c
 80014f0:	f023 0306 	bicmi.w	r3, r3, #6
 80014f4:	65e3      	strmi	r3, [r4, #92]	; 0x5c
 80014f6:	231c      	movs	r3, #28
 80014f8:	6013      	str	r3, [r2, #0]
 80014fa:	2300      	movs	r3, #0
 80014fc:	f884 3054 	strb.w	r3, [r4, #84]	; 0x54
 8001500:	68d3      	ldr	r3, [r2, #12]
 8001502:	019b      	lsls	r3, r3, #6
 8001504:	bf41      	itttt	mi
 8001506:	6da3      	ldrmi	r3, [r4, #88]	; 0x58
 8001508:	f423 5340 	bicmi.w	r3, r3, #12288	; 0x3000
 800150c:	f443 5380 	orrmi.w	r3, r3, #4096	; 0x1000
 8001510:	65a3      	strmi	r3, [r4, #88]	; 0x58
 8001512:	6893      	ldr	r3, [r2, #8]
 8001514:	f023 4300 	bic.w	r3, r3, #2147483648	; 0x80000000
 8001518:	f023 033f 	bic.w	r3, r3, #63	; 0x3f
 800151c:	f043 0304 	orr.w	r3, r3, #4
 8001520:	6093      	str	r3, [r2, #8]
 8001522:	bd38      	pop	{r3, r4, r5, pc}
 8001524:	f884 5054 	strb.w	r5, [r4, #84]	; 0x54
 8001528:	e7fb      	b.n	8001522 <HAL_ADC_Start+0x76>
 800152a:	2002      	movs	r0, #2
 800152c:	e7f9      	b.n	8001522 <HAL_ADC_Start+0x76>

0800152e <ADC_Disable>:
 800152e:	6802      	ldr	r2, [r0, #0]
 8001530:	b538      	push	{r3, r4, r5, lr}
 8001532:	6893      	ldr	r3, [r2, #8]
 8001534:	6891      	ldr	r1, [r2, #8]
 8001536:	4604      	mov	r4, r0
 8001538:	07c8      	lsls	r0, r1, #31
 800153a:	d401      	bmi.n	8001540 <ADC_Disable+0x12>
 800153c:	2000      	movs	r0, #0
 800153e:	bd38      	pop	{r3, r4, r5, pc}
 8001540:	0799      	lsls	r1, r3, #30
 8001542:	d4fb      	bmi.n	800153c <ADC_Disable+0xe>
 8001544:	6893      	ldr	r3, [r2, #8]
 8001546:	f003 030d 	and.w	r3, r3, #13
 800154a:	2b01      	cmp	r3, #1
 800154c:	d119      	bne.n	8001582 <ADC_Disable+0x54>
 800154e:	6893      	ldr	r3, [r2, #8]
 8001550:	f023 4300 	bic.w	r3, r3, #2147483648	; 0x80000000
 8001554:	f023 033f 	bic.w	r3, r3, #63	; 0x3f
 8001558:	f043 0302 	orr.w	r3, r3, #2
 800155c:	6093      	str	r3, [r2, #8]
 800155e:	2303      	movs	r3, #3
 8001560:	6013      	str	r3, [r2, #0]
 8001562:	f7ff fbc3 	bl	8000cec <HAL_GetTick>
 8001566:	4605      	mov	r5, r0
 8001568:	6823      	ldr	r3, [r4, #0]
 800156a:	689b      	ldr	r3, [r3, #8]
 800156c:	07db      	lsls	r3, r3, #31
 800156e:	d5e5      	bpl.n	800153c <ADC_Disable+0xe>
 8001570:	f7ff fbbc 	bl	8000cec <HAL_GetTick>
 8001574:	1b40      	subs	r0, r0, r5
 8001576:	2802      	cmp	r0, #2
 8001578:	d9f6      	bls.n	8001568 <ADC_Disable+0x3a>
 800157a:	6823      	ldr	r3, [r4, #0]
 800157c:	689b      	ldr	r3, [r3, #8]
 800157e:	07da      	lsls	r2, r3, #31
 8001580:	d5f2      	bpl.n	8001568 <ADC_Disable+0x3a>
 8001582:	6da3      	ldr	r3, [r4, #88]	; 0x58
 8001584:	f043 0310 	orr.w	r3, r3, #16
 8001588:	65a3      	str	r3, [r4, #88]	; 0x58
 800158a:	6de3      	ldr	r3, [r4, #92]	; 0x5c
 800158c:	f043 0301 	orr.w	r3, r3, #1
 8001590:	65e3      	str	r3, [r4, #92]	; 0x5c
 8001592:	2001      	movs	r0, #1
 8001594:	e7d3      	b.n	800153e <ADC_Disable+0x10>

08001596 <HAL_ADC_Stop>:
 8001596:	b510      	push	{r4, lr}
 8001598:	f890 3054 	ldrb.w	r3, [r0, #84]	; 0x54
 800159c:	2b01      	cmp	r3, #1
 800159e:	4604      	mov	r4, r0
 80015a0:	d016      	beq.n	80015d0 <HAL_ADC_Stop+0x3a>
 80015a2:	2301      	movs	r3, #1
 80015a4:	f880 3054 	strb.w	r3, [r0, #84]	; 0x54
 80015a8:	2103      	movs	r1, #3
 80015aa:	f7ff febf 	bl	800132c <ADC_ConversionStop>
 80015ae:	b958      	cbnz	r0, 80015c8 <HAL_ADC_Stop+0x32>
 80015b0:	4620      	mov	r0, r4
 80015b2:	f7ff ffbc 	bl	800152e <ADC_Disable>
 80015b6:	b938      	cbnz	r0, 80015c8 <HAL_ADC_Stop+0x32>
 80015b8:	6da3      	ldr	r3, [r4, #88]	; 0x58
 80015ba:	f423 5388 	bic.w	r3, r3, #4352	; 0x1100
 80015be:	f023 0301 	bic.w	r3, r3, #1
 80015c2:	f043 0301 	orr.w	r3, r3, #1
 80015c6:	65a3      	str	r3, [r4, #88]	; 0x58
 80015c8:	2300      	movs	r3, #0
 80015ca:	f884 3054 	strb.w	r3, [r4, #84]	; 0x54
 80015ce:	bd10      	pop	{r4, pc}
 80015d0:	2002      	movs	r0, #2
 80015d2:	e7fc      	b.n	80015ce <HAL_ADC_Stop+0x38>

080015d4 <HAL_ADCEx_Calibration_Start>:
 80015d4:	b573      	push	{r0, r1, r4, r5, r6, lr}
 80015d6:	2300      	movs	r3, #0
 80015d8:	9301      	str	r3, [sp, #4]
 80015da:	f890 3054 	ldrb.w	r3, [r0, #84]	; 0x54
 80015de:	2b01      	cmp	r3, #1
 80015e0:	4604      	mov	r4, r0
 80015e2:	460d      	mov	r5, r1
 80015e4:	d03e      	beq.n	8001664 <HAL_ADCEx_Calibration_Start+0x90>
 80015e6:	2301      	movs	r3, #1
 80015e8:	f880 3054 	strb.w	r3, [r0, #84]	; 0x54
 80015ec:	f7ff ff9f 	bl	800152e <ADC_Disable>
 80015f0:	2800      	cmp	r0, #0
 80015f2:	d133      	bne.n	800165c <HAL_ADCEx_Calibration_Start+0x88>
 80015f4:	6da2      	ldr	r2, [r4, #88]	; 0x58
 80015f6:	6826      	ldr	r6, [r4, #0]
 80015f8:	f422 5288 	bic.w	r2, r2, #4352	; 0x1100
 80015fc:	f022 0202 	bic.w	r2, r2, #2
 8001600:	f042 0202 	orr.w	r2, r2, #2
 8001604:	65a2      	str	r2, [r4, #88]	; 0x58
 8001606:	68b3      	ldr	r3, [r6, #8]
 8001608:	f023 4340 	bic.w	r3, r3, #3221225472	; 0xc0000000
 800160c:	f023 033f 	bic.w	r3, r3, #63	; 0x3f
 8001610:	f005 4580 	and.w	r5, r5, #1073741824	; 0x40000000
 8001614:	432b      	orrs	r3, r5
 8001616:	f043 4300 	orr.w	r3, r3, #2147483648	; 0x80000000
 800161a:	60b3      	str	r3, [r6, #8]
 800161c:	68b3      	ldr	r3, [r6, #8]
 800161e:	2b00      	cmp	r3, #0
 8001620:	da12      	bge.n	8001648 <HAL_ADCEx_Calibration_Start+0x74>
 8001622:	9b01      	ldr	r3, [sp, #4]
 8001624:	3301      	adds	r3, #1
 8001626:	9301      	str	r3, [sp, #4]
 8001628:	9b01      	ldr	r3, [sp, #4]
 800162a:	f5b3 2f91 	cmp.w	r3, #296960	; 0x48800
 800162e:	d3f5      	bcc.n	800161c <HAL_ADCEx_Calibration_Start+0x48>
 8001630:	6da3      	ldr	r3, [r4, #88]	; 0x58
 8001632:	f023 0312 	bic.w	r3, r3, #18
 8001636:	f043 0310 	orr.w	r3, r3, #16
 800163a:	65a3      	str	r3, [r4, #88]	; 0x58
 800163c:	2300      	movs	r3, #0
 800163e:	f884 3054 	strb.w	r3, [r4, #84]	; 0x54
 8001642:	2001      	movs	r0, #1
 8001644:	b002      	add	sp, #8
 8001646:	bd70      	pop	{r4, r5, r6, pc}
 8001648:	6da3      	ldr	r3, [r4, #88]	; 0x58
 800164a:	f023 0303 	bic.w	r3, r3, #3
 800164e:	f043 0301 	orr.w	r3, r3, #1
 8001652:	65a3      	str	r3, [r4, #88]	; 0x58
 8001654:	2300      	movs	r3, #0
 8001656:	f884 3054 	strb.w	r3, [r4, #84]	; 0x54
 800165a:	e7f3      	b.n	8001644 <HAL_ADCEx_Calibration_Start+0x70>
 800165c:	6da3      	ldr	r3, [r4, #88]	; 0x58
 800165e:	f043 0310 	orr.w	r3, r3, #16
 8001662:	e7f6      	b.n	8001652 <HAL_ADCEx_Calibration_Start+0x7e>
 8001664:	2002      	movs	r0, #2
 8001666:	e7ed      	b.n	8001644 <HAL_ADCEx_Calibration_Start+0x70>

08001668 <HAL_CAN_Init>:
 8001668:	b538      	push	{r3, r4, r5, lr}
 800166a:	4604      	mov	r4, r0
 800166c:	2800      	cmp	r0, #0
 800166e:	d06e      	beq.n	800174e <HAL_CAN_Init+0xe6>
 8001670:	f890 3020 	ldrb.w	r3, [r0, #32]
 8001674:	b90b      	cbnz	r3, 800167a <HAL_CAN_Init+0x12>
 8001676:	f7fe fe69 	bl	800034c <HAL_CAN_MspInit>
 800167a:	6822      	ldr	r2, [r4, #0]
 800167c:	6813      	ldr	r3, [r2, #0]
 800167e:	f043 0301 	orr.w	r3, r3, #1
 8001682:	6013      	str	r3, [r2, #0]
 8001684:	f7ff fb32 	bl	8000cec <HAL_GetTick>
 8001688:	4605      	mov	r5, r0
 800168a:	6823      	ldr	r3, [r4, #0]
 800168c:	685a      	ldr	r2, [r3, #4]
 800168e:	07d1      	lsls	r1, r2, #31
 8001690:	d551      	bpl.n	8001736 <HAL_CAN_Init+0xce>
 8001692:	681a      	ldr	r2, [r3, #0]
 8001694:	f022 0202 	bic.w	r2, r2, #2
 8001698:	601a      	str	r2, [r3, #0]
 800169a:	f7ff fb27 	bl	8000cec <HAL_GetTick>
 800169e:	4605      	mov	r5, r0
 80016a0:	6823      	ldr	r3, [r4, #0]
 80016a2:	685a      	ldr	r2, [r3, #4]
 80016a4:	0792      	lsls	r2, r2, #30
 80016a6:	d454      	bmi.n	8001752 <HAL_CAN_Init+0xea>
 80016a8:	7e22      	ldrb	r2, [r4, #24]
 80016aa:	2a01      	cmp	r2, #1
 80016ac:	681a      	ldr	r2, [r3, #0]
 80016ae:	bf0c      	ite	eq
 80016b0:	f042 0280 	orreq.w	r2, r2, #128	; 0x80
 80016b4:	f022 0280 	bicne.w	r2, r2, #128	; 0x80
 80016b8:	601a      	str	r2, [r3, #0]
 80016ba:	7e62      	ldrb	r2, [r4, #25]
 80016bc:	2a01      	cmp	r2, #1
 80016be:	681a      	ldr	r2, [r3, #0]
 80016c0:	bf0c      	ite	eq
 80016c2:	f042 0240 	orreq.w	r2, r2, #64	; 0x40
 80016c6:	f022 0240 	bicne.w	r2, r2, #64	; 0x40
 80016ca:	601a      	str	r2, [r3, #0]
 80016cc:	7ea2      	ldrb	r2, [r4, #26]
 80016ce:	2a01      	cmp	r2, #1
 80016d0:	681a      	ldr	r2, [r3, #0]
 80016d2:	bf0c      	ite	eq
 80016d4:	f042 0220 	orreq.w	r2, r2, #32
 80016d8:	f022 0220 	bicne.w	r2, r2, #32
 80016dc:	601a      	str	r2, [r3, #0]
 80016de:	7ee2      	ldrb	r2, [r4, #27]
 80016e0:	2a01      	cmp	r2, #1
 80016e2:	681a      	ldr	r2, [r3, #0]
 80016e4:	bf0c      	ite	eq
 80016e6:	f022 0210 	biceq.w	r2, r2, #16
 80016ea:	f042 0210 	orrne.w	r2, r2, #16
 80016ee:	601a      	str	r2, [r3, #0]
 80016f0:	7f22      	ldrb	r2, [r4, #28]
 80016f2:	2a01      	cmp	r2, #1
 80016f4:	681a      	ldr	r2, [r3, #0]
 80016f6:	bf0c      	ite	eq
 80016f8:	f042 0208 	orreq.w	r2, r2, #8
 80016fc:	f022 0208 	bicne.w	r2, r2, #8
 8001700:	601a      	str	r2, [r3, #0]
 8001702:	7f62      	ldrb	r2, [r4, #29]
 8001704:	2a01      	cmp	r2, #1
 8001706:	681a      	ldr	r2, [r3, #0]
 8001708:	bf0c      	ite	eq
 800170a:	f042 0204 	orreq.w	r2, r2, #4
 800170e:	f022 0204 	bicne.w	r2, r2, #4
 8001712:	601a      	str	r2, [r3, #0]
 8001714:	e9d4 2102 	ldrd	r2, r1, [r4, #8]
 8001718:	430a      	orrs	r2, r1
 800171a:	6921      	ldr	r1, [r4, #16]
 800171c:	430a      	orrs	r2, r1
 800171e:	6961      	ldr	r1, [r4, #20]
 8001720:	430a      	orrs	r2, r1
 8001722:	6861      	ldr	r1, [r4, #4]
 8001724:	3901      	subs	r1, #1
 8001726:	430a      	orrs	r2, r1
 8001728:	61da      	str	r2, [r3, #28]
 800172a:	2000      	movs	r0, #0
 800172c:	2301      	movs	r3, #1
 800172e:	6260      	str	r0, [r4, #36]	; 0x24
 8001730:	f884 3020 	strb.w	r3, [r4, #32]
 8001734:	bd38      	pop	{r3, r4, r5, pc}
 8001736:	f7ff fad9 	bl	8000cec <HAL_GetTick>
 800173a:	1b40      	subs	r0, r0, r5
 800173c:	280a      	cmp	r0, #10
 800173e:	d9a4      	bls.n	800168a <HAL_CAN_Init+0x22>
 8001740:	6a63      	ldr	r3, [r4, #36]	; 0x24
 8001742:	f443 3300 	orr.w	r3, r3, #131072	; 0x20000
 8001746:	6263      	str	r3, [r4, #36]	; 0x24
 8001748:	2305      	movs	r3, #5
 800174a:	f884 3020 	strb.w	r3, [r4, #32]
 800174e:	2001      	movs	r0, #1
 8001750:	e7f0      	b.n	8001734 <HAL_CAN_Init+0xcc>
 8001752:	f7ff facb 	bl	8000cec <HAL_GetTick>
 8001756:	1b40      	subs	r0, r0, r5
 8001758:	280a      	cmp	r0, #10
 800175a:	d9a1      	bls.n	80016a0 <HAL_CAN_Init+0x38>
 800175c:	e7f0      	b.n	8001740 <HAL_CAN_Init+0xd8>

0800175e <HAL_CAN_ConfigFilter>:
 800175e:	b570      	push	{r4, r5, r6, lr}
 8001760:	f890 3020 	ldrb.w	r3, [r0, #32]
 8001764:	3b01      	subs	r3, #1
 8001766:	2b01      	cmp	r3, #1
 8001768:	d862      	bhi.n	8001830 <HAL_CAN_ConfigFilter+0xd2>
 800176a:	6803      	ldr	r3, [r0, #0]
 800176c:	f8d3 2200 	ldr.w	r2, [r3, #512]	; 0x200
 8001770:	f042 0201 	orr.w	r2, r2, #1
 8001774:	f8c3 2200 	str.w	r2, [r3, #512]	; 0x200
 8001778:	694a      	ldr	r2, [r1, #20]
 800177a:	f8d3 521c 	ldr.w	r5, [r3, #540]	; 0x21c
 800177e:	2401      	movs	r4, #1
 8001780:	f002 001f 	and.w	r0, r2, #31
 8001784:	fa04 f000 	lsl.w	r0, r4, r0
 8001788:	ea25 0500 	bic.w	r5, r5, r0
 800178c:	f8c3 521c 	str.w	r5, [r3, #540]	; 0x21c
 8001790:	69cd      	ldr	r5, [r1, #28]
 8001792:	43c4      	mvns	r4, r0
 8001794:	bb85      	cbnz	r5, 80017f8 <HAL_CAN_ConfigFilter+0x9a>
 8001796:	f8d3 520c 	ldr.w	r5, [r3, #524]	; 0x20c
 800179a:	68ce      	ldr	r6, [r1, #12]
 800179c:	4025      	ands	r5, r4
 800179e:	f8c3 520c 	str.w	r5, [r3, #524]	; 0x20c
 80017a2:	888d      	ldrh	r5, [r1, #4]
 80017a4:	eb03 02c2 	add.w	r2, r3, r2, lsl #3
 80017a8:	ea45 4506 	orr.w	r5, r5, r6, lsl #16
 80017ac:	f8c2 5240 	str.w	r5, [r2, #576]	; 0x240
 80017b0:	688e      	ldr	r6, [r1, #8]
 80017b2:	880d      	ldrh	r5, [r1, #0]
 80017b4:	ea45 4506 	orr.w	r5, r5, r6, lsl #16
 80017b8:	f8c2 5244 	str.w	r5, [r2, #580]	; 0x244
 80017bc:	698a      	ldr	r2, [r1, #24]
 80017be:	bb6a      	cbnz	r2, 800181c <HAL_CAN_ConfigFilter+0xbe>
 80017c0:	f8d3 2204 	ldr.w	r2, [r3, #516]	; 0x204
 80017c4:	4022      	ands	r2, r4
 80017c6:	f8c3 2204 	str.w	r2, [r3, #516]	; 0x204
 80017ca:	690a      	ldr	r2, [r1, #16]
 80017cc:	bb52      	cbnz	r2, 8001824 <HAL_CAN_ConfigFilter+0xc6>
 80017ce:	f8d3 2214 	ldr.w	r2, [r3, #532]	; 0x214
 80017d2:	4014      	ands	r4, r2
 80017d4:	f8c3 4214 	str.w	r4, [r3, #532]	; 0x214
 80017d8:	6a0a      	ldr	r2, [r1, #32]
 80017da:	2a01      	cmp	r2, #1
 80017dc:	bf02      	ittt	eq
 80017de:	f8d3 221c 	ldreq.w	r2, [r3, #540]	; 0x21c
 80017e2:	4310      	orreq	r0, r2
 80017e4:	f8c3 021c 	streq.w	r0, [r3, #540]	; 0x21c
 80017e8:	f8d3 2200 	ldr.w	r2, [r3, #512]	; 0x200
 80017ec:	f022 0201 	bic.w	r2, r2, #1
 80017f0:	f8c3 2200 	str.w	r2, [r3, #512]	; 0x200
 80017f4:	2000      	movs	r0, #0
 80017f6:	bd70      	pop	{r4, r5, r6, pc}
 80017f8:	2d01      	cmp	r5, #1
 80017fa:	d1df      	bne.n	80017bc <HAL_CAN_ConfigFilter+0x5e>
 80017fc:	f8d3 520c 	ldr.w	r5, [r3, #524]	; 0x20c
 8001800:	680e      	ldr	r6, [r1, #0]
 8001802:	4305      	orrs	r5, r0
 8001804:	f8c3 520c 	str.w	r5, [r3, #524]	; 0x20c
 8001808:	888d      	ldrh	r5, [r1, #4]
 800180a:	eb03 02c2 	add.w	r2, r3, r2, lsl #3
 800180e:	ea45 4506 	orr.w	r5, r5, r6, lsl #16
 8001812:	f8c2 5240 	str.w	r5, [r2, #576]	; 0x240
 8001816:	688e      	ldr	r6, [r1, #8]
 8001818:	898d      	ldrh	r5, [r1, #12]
 800181a:	e7cb      	b.n	80017b4 <HAL_CAN_ConfigFilter+0x56>
 800181c:	f8d3 2204 	ldr.w	r2, [r3, #516]	; 0x204
 8001820:	4302      	orrs	r2, r0
 8001822:	e7d0      	b.n	80017c6 <HAL_CAN_ConfigFilter+0x68>
 8001824:	f8d3 2214 	ldr.w	r2, [r3, #532]	; 0x214
 8001828:	4302      	orrs	r2, r0
 800182a:	f8c3 2214 	str.w	r2, [r3, #532]	; 0x214
 800182e:	e7d3      	b.n	80017d8 <HAL_CAN_ConfigFilter+0x7a>
 8001830:	6a43      	ldr	r3, [r0, #36]	; 0x24
 8001832:	f443 2380 	orr.w	r3, r3, #262144	; 0x40000
 8001836:	6243      	str	r3, [r0, #36]	; 0x24
 8001838:	2001      	movs	r0, #1
 800183a:	e7dc      	b.n	80017f6 <HAL_CAN_ConfigFilter+0x98>

0800183c <HAL_CAN_Start>:
 800183c:	b570      	push	{r4, r5, r6, lr}
 800183e:	f890 3020 	ldrb.w	r3, [r0, #32]
 8001842:	2b01      	cmp	r3, #1
 8001844:	4604      	mov	r4, r0
 8001846:	b2dd      	uxtb	r5, r3
 8001848:	d120      	bne.n	800188c <HAL_CAN_Start+0x50>
 800184a:	6802      	ldr	r2, [r0, #0]
 800184c:	2302      	movs	r3, #2
 800184e:	f880 3020 	strb.w	r3, [r0, #32]
 8001852:	6813      	ldr	r3, [r2, #0]
 8001854:	f023 0301 	bic.w	r3, r3, #1
 8001858:	6013      	str	r3, [r2, #0]
 800185a:	f7ff fa47 	bl	8000cec <HAL_GetTick>
 800185e:	4606      	mov	r6, r0
 8001860:	6823      	ldr	r3, [r4, #0]
 8001862:	685b      	ldr	r3, [r3, #4]
 8001864:	f013 0301 	ands.w	r3, r3, #1
 8001868:	d102      	bne.n	8001870 <HAL_CAN_Start+0x34>
 800186a:	6263      	str	r3, [r4, #36]	; 0x24
 800186c:	461d      	mov	r5, r3
 800186e:	e00b      	b.n	8001888 <HAL_CAN_Start+0x4c>
 8001870:	f7ff fa3c 	bl	8000cec <HAL_GetTick>
 8001874:	1b80      	subs	r0, r0, r6
 8001876:	280a      	cmp	r0, #10
 8001878:	d9f2      	bls.n	8001860 <HAL_CAN_Start+0x24>
 800187a:	6a63      	ldr	r3, [r4, #36]	; 0x24
 800187c:	f443 3300 	orr.w	r3, r3, #131072	; 0x20000
 8001880:	6263      	str	r3, [r4, #36]	; 0x24
 8001882:	2305      	movs	r3, #5
 8001884:	f884 3020 	strb.w	r3, [r4, #32]
 8001888:	4628      	mov	r0, r5
 800188a:	bd70      	pop	{r4, r5, r6, pc}
 800188c:	6a43      	ldr	r3, [r0, #36]	; 0x24
 800188e:	f443 2300 	orr.w	r3, r3, #524288	; 0x80000
 8001892:	6243      	str	r3, [r0, #36]	; 0x24
 8001894:	2501      	movs	r5, #1
 8001896:	e7f7      	b.n	8001888 <HAL_CAN_Start+0x4c>

08001898 <HAL_CAN_AddTxMessage>:
 8001898:	b5f0      	push	{r4, r5, r6, r7, lr}
 800189a:	f890 5020 	ldrb.w	r5, [r0, #32]
 800189e:	6806      	ldr	r6, [r0, #0]
 80018a0:	3d01      	subs	r5, #1
 80018a2:	2d01      	cmp	r5, #1
 80018a4:	68b4      	ldr	r4, [r6, #8]
 80018a6:	d83d      	bhi.n	8001924 <HAL_CAN_AddTxMessage+0x8c>
 80018a8:	f014 5fe0 	tst.w	r4, #469762048	; 0x1c000000
 80018ac:	f04f 0501 	mov.w	r5, #1
 80018b0:	d032      	beq.n	8001918 <HAL_CAN_AddTxMessage+0x80>
 80018b2:	f3c4 6401 	ubfx	r4, r4, #24, #2
 80018b6:	40a5      	lsls	r5, r4
 80018b8:	601d      	str	r5, [r3, #0]
 80018ba:	e9d1 0702 	ldrd	r0, r7, [r1, #8]
 80018be:	f104 0318 	add.w	r3, r4, #24
 80018c2:	bb20      	cbnz	r0, 800190e <HAL_CAN_AddTxMessage+0x76>
 80018c4:	6808      	ldr	r0, [r1, #0]
 80018c6:	ea47 5040 	orr.w	r0, r7, r0, lsl #21
 80018ca:	011b      	lsls	r3, r3, #4
 80018cc:	50f0      	str	r0, [r6, r3]
 80018ce:	eb06 1304 	add.w	r3, r6, r4, lsl #4
 80018d2:	690d      	ldr	r5, [r1, #16]
 80018d4:	f8c3 5184 	str.w	r5, [r3, #388]	; 0x184
 80018d8:	7d09      	ldrb	r1, [r1, #20]
 80018da:	2901      	cmp	r1, #1
 80018dc:	bf08      	it	eq
 80018de:	f8d3 1184 	ldreq.w	r1, [r3, #388]	; 0x184
 80018e2:	ea4f 1004 	mov.w	r0, r4, lsl #4
 80018e6:	bf04      	itt	eq
 80018e8:	f441 7180 	orreq.w	r1, r1, #256	; 0x100
 80018ec:	f8c3 1184 	streq.w	r1, [r3, #388]	; 0x184
 80018f0:	4406      	add	r6, r0
 80018f2:	6851      	ldr	r1, [r2, #4]
 80018f4:	f8c6 118c 	str.w	r1, [r6, #396]	; 0x18c
 80018f8:	6812      	ldr	r2, [r2, #0]
 80018fa:	f8c6 2188 	str.w	r2, [r6, #392]	; 0x188
 80018fe:	f8d3 2180 	ldr.w	r2, [r3, #384]	; 0x180
 8001902:	f042 0201 	orr.w	r2, r2, #1
 8001906:	f8c3 2180 	str.w	r2, [r3, #384]	; 0x180
 800190a:	2000      	movs	r0, #0
 800190c:	bdf0      	pop	{r4, r5, r6, r7, pc}
 800190e:	684d      	ldr	r5, [r1, #4]
 8001910:	4338      	orrs	r0, r7
 8001912:	ea40 00c5 	orr.w	r0, r0, r5, lsl #3
 8001916:	e7d8      	b.n	80018ca <HAL_CAN_AddTxMessage+0x32>
 8001918:	6a43      	ldr	r3, [r0, #36]	; 0x24
 800191a:	f443 1300 	orr.w	r3, r3, #2097152	; 0x200000
 800191e:	6243      	str	r3, [r0, #36]	; 0x24
 8001920:	2001      	movs	r0, #1
 8001922:	e7f3      	b.n	800190c <HAL_CAN_AddTxMessage+0x74>
 8001924:	6a43      	ldr	r3, [r0, #36]	; 0x24
 8001926:	f443 2380 	orr.w	r3, r3, #262144	; 0x40000
 800192a:	e7f8      	b.n	800191e <HAL_CAN_AddTxMessage+0x86>

0800192c <HAL_CAN_GetRxMessage>:
 800192c:	b5f0      	push	{r4, r5, r6, r7, lr}
 800192e:	f890 4020 	ldrb.w	r4, [r0, #32]
 8001932:	3c01      	subs	r4, #1
 8001934:	2c01      	cmp	r4, #1
 8001936:	d86c      	bhi.n	8001a12 <HAL_CAN_GetRxMessage+0xe6>
 8001938:	6806      	ldr	r6, [r0, #0]
 800193a:	b941      	cbnz	r1, 800194e <HAL_CAN_GetRxMessage+0x22>
 800193c:	68f4      	ldr	r4, [r6, #12]
 800193e:	07a4      	lsls	r4, r4, #30
 8001940:	d107      	bne.n	8001952 <HAL_CAN_GetRxMessage+0x26>
 8001942:	6a43      	ldr	r3, [r0, #36]	; 0x24
 8001944:	f443 1300 	orr.w	r3, r3, #2097152	; 0x200000
 8001948:	6243      	str	r3, [r0, #36]	; 0x24
 800194a:	2001      	movs	r0, #1
 800194c:	e056      	b.n	80019fc <HAL_CAN_GetRxMessage+0xd0>
 800194e:	6934      	ldr	r4, [r6, #16]
 8001950:	e7f5      	b.n	800193e <HAL_CAN_GetRxMessage+0x12>
 8001952:	eb06 1501 	add.w	r5, r6, r1, lsl #4
 8001956:	010c      	lsls	r4, r1, #4
 8001958:	f8d5 71b0 	ldr.w	r7, [r5, #432]	; 0x1b0
 800195c:	f007 0704 	and.w	r7, r7, #4
 8001960:	6097      	str	r7, [r2, #8]
 8001962:	2f00      	cmp	r7, #0
 8001964:	d14b      	bne.n	80019fe <HAL_CAN_GetRxMessage+0xd2>
 8001966:	f8d5 71b0 	ldr.w	r7, [r5, #432]	; 0x1b0
 800196a:	0d7f      	lsrs	r7, r7, #21
 800196c:	6017      	str	r7, [r2, #0]
 800196e:	f8d5 71b0 	ldr.w	r7, [r5, #432]	; 0x1b0
 8001972:	f007 0702 	and.w	r7, r7, #2
 8001976:	60d7      	str	r7, [r2, #12]
 8001978:	f8d5 71b4 	ldr.w	r7, [r5, #436]	; 0x1b4
 800197c:	f007 070f 	and.w	r7, r7, #15
 8001980:	6117      	str	r7, [r2, #16]
 8001982:	f8d5 71b4 	ldr.w	r7, [r5, #436]	; 0x1b4
 8001986:	f8d5 51b4 	ldr.w	r5, [r5, #436]	; 0x1b4
 800198a:	4426      	add	r6, r4
 800198c:	f3c7 2707 	ubfx	r7, r7, #8, #8
 8001990:	0c2d      	lsrs	r5, r5, #16
 8001992:	6197      	str	r7, [r2, #24]
 8001994:	6155      	str	r5, [r2, #20]
 8001996:	f8d6 21b8 	ldr.w	r2, [r6, #440]	; 0x1b8
 800199a:	701a      	strb	r2, [r3, #0]
 800199c:	6802      	ldr	r2, [r0, #0]
 800199e:	4422      	add	r2, r4
 80019a0:	f8d2 21b8 	ldr.w	r2, [r2, #440]	; 0x1b8
 80019a4:	0a12      	lsrs	r2, r2, #8
 80019a6:	705a      	strb	r2, [r3, #1]
 80019a8:	6802      	ldr	r2, [r0, #0]
 80019aa:	4422      	add	r2, r4
 80019ac:	f8d2 21b8 	ldr.w	r2, [r2, #440]	; 0x1b8
 80019b0:	0c12      	lsrs	r2, r2, #16
 80019b2:	709a      	strb	r2, [r3, #2]
 80019b4:	6802      	ldr	r2, [r0, #0]
 80019b6:	4422      	add	r2, r4
 80019b8:	f8d2 21b8 	ldr.w	r2, [r2, #440]	; 0x1b8
 80019bc:	0e12      	lsrs	r2, r2, #24
 80019be:	70da      	strb	r2, [r3, #3]
 80019c0:	6802      	ldr	r2, [r0, #0]
 80019c2:	4422      	add	r2, r4
 80019c4:	f8d2 21bc 	ldr.w	r2, [r2, #444]	; 0x1bc
 80019c8:	711a      	strb	r2, [r3, #4]
 80019ca:	6802      	ldr	r2, [r0, #0]
 80019cc:	4422      	add	r2, r4
 80019ce:	f8d2 21bc 	ldr.w	r2, [r2, #444]	; 0x1bc
 80019d2:	0a12      	lsrs	r2, r2, #8
 80019d4:	715a      	strb	r2, [r3, #5]
 80019d6:	6802      	ldr	r2, [r0, #0]
 80019d8:	4422      	add	r2, r4
 80019da:	f8d2 21bc 	ldr.w	r2, [r2, #444]	; 0x1bc
 80019de:	0c12      	lsrs	r2, r2, #16
 80019e0:	719a      	strb	r2, [r3, #6]
 80019e2:	6802      	ldr	r2, [r0, #0]
 80019e4:	4422      	add	r2, r4
 80019e6:	f8d2 21bc 	ldr.w	r2, [r2, #444]	; 0x1bc
 80019ea:	0e12      	lsrs	r2, r2, #24
 80019ec:	71da      	strb	r2, [r3, #7]
 80019ee:	6803      	ldr	r3, [r0, #0]
 80019f0:	b951      	cbnz	r1, 8001a08 <HAL_CAN_GetRxMessage+0xdc>
 80019f2:	68da      	ldr	r2, [r3, #12]
 80019f4:	f042 0220 	orr.w	r2, r2, #32
 80019f8:	60da      	str	r2, [r3, #12]
 80019fa:	2000      	movs	r0, #0
 80019fc:	bdf0      	pop	{r4, r5, r6, r7, pc}
 80019fe:	f8d5 71b0 	ldr.w	r7, [r5, #432]	; 0x1b0
 8001a02:	08ff      	lsrs	r7, r7, #3
 8001a04:	6057      	str	r7, [r2, #4]
 8001a06:	e7b2      	b.n	800196e <HAL_CAN_GetRxMessage+0x42>
 8001a08:	691a      	ldr	r2, [r3, #16]
 8001a0a:	f042 0220 	orr.w	r2, r2, #32
 8001a0e:	611a      	str	r2, [r3, #16]
 8001a10:	e7f3      	b.n	80019fa <HAL_CAN_GetRxMessage+0xce>
 8001a12:	6a43      	ldr	r3, [r0, #36]	; 0x24
 8001a14:	f443 2380 	orr.w	r3, r3, #262144	; 0x40000
 8001a18:	e796      	b.n	8001948 <HAL_CAN_GetRxMessage+0x1c>

08001a1a <HAL_CAN_ActivateNotification>:
 8001a1a:	f890 3020 	ldrb.w	r3, [r0, #32]
 8001a1e:	3b01      	subs	r3, #1
 8001a20:	2b01      	cmp	r3, #1
 8001a22:	d805      	bhi.n	8001a30 <HAL_CAN_ActivateNotification+0x16>
 8001a24:	6802      	ldr	r2, [r0, #0]
 8001a26:	6953      	ldr	r3, [r2, #20]
 8001a28:	4319      	orrs	r1, r3
 8001a2a:	6151      	str	r1, [r2, #20]
 8001a2c:	2000      	movs	r0, #0
 8001a2e:	4770      	bx	lr
 8001a30:	6a43      	ldr	r3, [r0, #36]	; 0x24
 8001a32:	f443 2380 	orr.w	r3, r3, #262144	; 0x40000
 8001a36:	6243      	str	r3, [r0, #36]	; 0x24
 8001a38:	2001      	movs	r0, #1
 8001a3a:	4770      	bx	lr

08001a3c <HAL_CAN_TxMailbox0CompleteCallback>:
 8001a3c:	4770      	bx	lr

08001a3e <HAL_CAN_TxMailbox1CompleteCallback>:
 8001a3e:	4770      	bx	lr

08001a40 <HAL_CAN_TxMailbox2CompleteCallback>:
 8001a40:	4770      	bx	lr

08001a42 <HAL_CAN_TxMailbox0AbortCallback>:
 8001a42:	4770      	bx	lr

08001a44 <HAL_CAN_TxMailbox1AbortCallback>:
 8001a44:	4770      	bx	lr

08001a46 <HAL_CAN_TxMailbox2AbortCallback>:
 8001a46:	4770      	bx	lr

08001a48 <HAL_CAN_RxFifo0FullCallback>:
 8001a48:	4770      	bx	lr

08001a4a <HAL_CAN_RxFifo1MsgPendingCallback>:
 8001a4a:	4770      	bx	lr

08001a4c <HAL_CAN_RxFifo1FullCallback>:
 8001a4c:	4770      	bx	lr

08001a4e <HAL_CAN_SleepCallback>:
 8001a4e:	4770      	bx	lr

08001a50 <HAL_CAN_WakeUpFromRxMsgCallback>:
 8001a50:	4770      	bx	lr

08001a52 <HAL_CAN_ErrorCallback>:
 8001a52:	4770      	bx	lr

08001a54 <HAL_CAN_IRQHandler>:
 8001a54:	e92d 4ff8 	stmdb	sp!, {r3, r4, r5, r6, r7, r8, r9, sl, fp, lr}
 8001a58:	6803      	ldr	r3, [r0, #0]
 8001a5a:	695e      	ldr	r6, [r3, #20]
 8001a5c:	f8d3 9004 	ldr.w	r9, [r3, #4]
 8001a60:	689f      	ldr	r7, [r3, #8]
 8001a62:	f8d3 b00c 	ldr.w	fp, [r3, #12]
 8001a66:	f8d3 a010 	ldr.w	sl, [r3, #16]
 8001a6a:	f8d3 8018 	ldr.w	r8, [r3, #24]
 8001a6e:	f016 0401 	ands.w	r4, r6, #1
 8001a72:	4605      	mov	r5, r0
 8001a74:	d022      	beq.n	8001abc <HAL_CAN_IRQHandler+0x68>
 8001a76:	f017 0401 	ands.w	r4, r7, #1
 8001a7a:	d007      	beq.n	8001a8c <HAL_CAN_IRQHandler+0x38>
 8001a7c:	2201      	movs	r2, #1
 8001a7e:	07b9      	lsls	r1, r7, #30
 8001a80:	609a      	str	r2, [r3, #8]
 8001a82:	f140 80a5 	bpl.w	8001bd0 <HAL_CAN_IRQHandler+0x17c>
 8001a86:	f7ff ffd9 	bl	8001a3c <HAL_CAN_TxMailbox0CompleteCallback>
 8001a8a:	2400      	movs	r4, #0
 8001a8c:	05fb      	lsls	r3, r7, #23
 8001a8e:	d509      	bpl.n	8001aa4 <HAL_CAN_IRQHandler+0x50>
 8001a90:	682b      	ldr	r3, [r5, #0]
 8001a92:	f44f 7280 	mov.w	r2, #256	; 0x100
 8001a96:	05b8      	lsls	r0, r7, #22
 8001a98:	609a      	str	r2, [r3, #8]
 8001a9a:	f140 80a7 	bpl.w	8001bec <HAL_CAN_IRQHandler+0x198>
 8001a9e:	4628      	mov	r0, r5
 8001aa0:	f7ff ffcd 	bl	8001a3e <HAL_CAN_TxMailbox1CompleteCallback>
 8001aa4:	03fb      	lsls	r3, r7, #15
 8001aa6:	d509      	bpl.n	8001abc <HAL_CAN_IRQHandler+0x68>
 8001aa8:	682b      	ldr	r3, [r5, #0]
 8001aaa:	f44f 3280 	mov.w	r2, #65536	; 0x10000
 8001aae:	03b8      	lsls	r0, r7, #14
 8001ab0:	609a      	str	r2, [r3, #8]
 8001ab2:	f140 80a9 	bpl.w	8001c08 <HAL_CAN_IRQHandler+0x1b4>
 8001ab6:	4628      	mov	r0, r5
 8001ab8:	f7ff ffc2 	bl	8001a40 <HAL_CAN_TxMailbox2CompleteCallback>
 8001abc:	0733      	lsls	r3, r6, #28
 8001abe:	d507      	bpl.n	8001ad0 <HAL_CAN_IRQHandler+0x7c>
 8001ac0:	f01b 0f10 	tst.w	fp, #16
 8001ac4:	bf1f      	itttt	ne
 8001ac6:	682b      	ldrne	r3, [r5, #0]
 8001ac8:	2210      	movne	r2, #16
 8001aca:	f444 7400 	orrne.w	r4, r4, #512	; 0x200
 8001ace:	60da      	strne	r2, [r3, #12]
 8001ad0:	0777      	lsls	r7, r6, #29
 8001ad2:	d508      	bpl.n	8001ae6 <HAL_CAN_IRQHandler+0x92>
 8001ad4:	f01b 0f08 	tst.w	fp, #8
 8001ad8:	d005      	beq.n	8001ae6 <HAL_CAN_IRQHandler+0x92>
 8001ada:	682b      	ldr	r3, [r5, #0]
 8001adc:	2208      	movs	r2, #8
 8001ade:	60da      	str	r2, [r3, #12]
 8001ae0:	4628      	mov	r0, r5
 8001ae2:	f7ff ffb1 	bl	8001a48 <HAL_CAN_RxFifo0FullCallback>
 8001ae6:	07b0      	lsls	r0, r6, #30
 8001ae8:	d506      	bpl.n	8001af8 <HAL_CAN_IRQHandler+0xa4>
 8001aea:	682b      	ldr	r3, [r5, #0]
 8001aec:	68db      	ldr	r3, [r3, #12]
 8001aee:	0799      	lsls	r1, r3, #30
 8001af0:	d002      	beq.n	8001af8 <HAL_CAN_IRQHandler+0xa4>
 8001af2:	4628      	mov	r0, r5
 8001af4:	f7fe fea1 	bl	800083a <HAL_CAN_RxFifo0MsgPendingCallback>
 8001af8:	0672      	lsls	r2, r6, #25
 8001afa:	d507      	bpl.n	8001b0c <HAL_CAN_IRQHandler+0xb8>
 8001afc:	f01a 0f10 	tst.w	sl, #16
 8001b00:	bf1f      	itttt	ne
 8001b02:	682b      	ldrne	r3, [r5, #0]
 8001b04:	2210      	movne	r2, #16
 8001b06:	f444 6480 	orrne.w	r4, r4, #1024	; 0x400
 8001b0a:	611a      	strne	r2, [r3, #16]
 8001b0c:	06b3      	lsls	r3, r6, #26
 8001b0e:	d508      	bpl.n	8001b22 <HAL_CAN_IRQHandler+0xce>
 8001b10:	f01a 0f08 	tst.w	sl, #8
 8001b14:	d005      	beq.n	8001b22 <HAL_CAN_IRQHandler+0xce>
 8001b16:	682b      	ldr	r3, [r5, #0]
 8001b18:	2208      	movs	r2, #8
 8001b1a:	611a      	str	r2, [r3, #16]
 8001b1c:	4628      	mov	r0, r5
 8001b1e:	f7ff ff95 	bl	8001a4c <HAL_CAN_RxFifo1FullCallback>
 8001b22:	06f7      	lsls	r7, r6, #27
 8001b24:	d506      	bpl.n	8001b34 <HAL_CAN_IRQHandler+0xe0>
 8001b26:	682b      	ldr	r3, [r5, #0]
 8001b28:	691b      	ldr	r3, [r3, #16]
 8001b2a:	0798      	lsls	r0, r3, #30
 8001b2c:	d002      	beq.n	8001b34 <HAL_CAN_IRQHandler+0xe0>
 8001b2e:	4628      	mov	r0, r5
 8001b30:	f7ff ff8b 	bl	8001a4a <HAL_CAN_RxFifo1MsgPendingCallback>
 8001b34:	03b1      	lsls	r1, r6, #14
 8001b36:	d508      	bpl.n	8001b4a <HAL_CAN_IRQHandler+0xf6>
 8001b38:	f019 0f10 	tst.w	r9, #16
 8001b3c:	d005      	beq.n	8001b4a <HAL_CAN_IRQHandler+0xf6>
 8001b3e:	682b      	ldr	r3, [r5, #0]
 8001b40:	2210      	movs	r2, #16
 8001b42:	605a      	str	r2, [r3, #4]
 8001b44:	4628      	mov	r0, r5
 8001b46:	f7ff ff82 	bl	8001a4e <HAL_CAN_SleepCallback>
 8001b4a:	03f2      	lsls	r2, r6, #15
 8001b4c:	d508      	bpl.n	8001b60 <HAL_CAN_IRQHandler+0x10c>
 8001b4e:	f019 0f08 	tst.w	r9, #8
 8001b52:	d005      	beq.n	8001b60 <HAL_CAN_IRQHandler+0x10c>
 8001b54:	682b      	ldr	r3, [r5, #0]
 8001b56:	2208      	movs	r2, #8
 8001b58:	605a      	str	r2, [r3, #4]
 8001b5a:	4628      	mov	r0, r5
 8001b5c:	f7ff ff78 	bl	8001a50 <HAL_CAN_WakeUpFromRxMsgCallback>
 8001b60:	0433      	lsls	r3, r6, #16
 8001b62:	d52c      	bpl.n	8001bbe <HAL_CAN_IRQHandler+0x16a>
 8001b64:	f019 0f04 	tst.w	r9, #4
 8001b68:	682a      	ldr	r2, [r5, #0]
 8001b6a:	d026      	beq.n	8001bba <HAL_CAN_IRQHandler+0x166>
 8001b6c:	05f7      	lsls	r7, r6, #23
 8001b6e:	d504      	bpl.n	8001b7a <HAL_CAN_IRQHandler+0x126>
 8001b70:	f018 0f01 	tst.w	r8, #1
 8001b74:	bf18      	it	ne
 8001b76:	f044 0401 	orrne.w	r4, r4, #1
 8001b7a:	05b0      	lsls	r0, r6, #22
 8001b7c:	d504      	bpl.n	8001b88 <HAL_CAN_IRQHandler+0x134>
 8001b7e:	f018 0f02 	tst.w	r8, #2
 8001b82:	bf18      	it	ne
 8001b84:	f044 0402 	orrne.w	r4, r4, #2
 8001b88:	0571      	lsls	r1, r6, #21
 8001b8a:	d504      	bpl.n	8001b96 <HAL_CAN_IRQHandler+0x142>
 8001b8c:	f018 0f04 	tst.w	r8, #4
 8001b90:	bf18      	it	ne
 8001b92:	f044 0404 	orrne.w	r4, r4, #4
 8001b96:	0533      	lsls	r3, r6, #20
 8001b98:	d50f      	bpl.n	8001bba <HAL_CAN_IRQHandler+0x166>
 8001b9a:	f018 0370 	ands.w	r3, r8, #112	; 0x70
 8001b9e:	d00c      	beq.n	8001bba <HAL_CAN_IRQHandler+0x166>
 8001ba0:	2b40      	cmp	r3, #64	; 0x40
 8001ba2:	d04f      	beq.n	8001c44 <HAL_CAN_IRQHandler+0x1f0>
 8001ba4:	d83e      	bhi.n	8001c24 <HAL_CAN_IRQHandler+0x1d0>
 8001ba6:	2b20      	cmp	r3, #32
 8001ba8:	d046      	beq.n	8001c38 <HAL_CAN_IRQHandler+0x1e4>
 8001baa:	2b30      	cmp	r3, #48	; 0x30
 8001bac:	d047      	beq.n	8001c3e <HAL_CAN_IRQHandler+0x1ea>
 8001bae:	2b10      	cmp	r3, #16
 8001bb0:	d03f      	beq.n	8001c32 <HAL_CAN_IRQHandler+0x1de>
 8001bb2:	6993      	ldr	r3, [r2, #24]
 8001bb4:	f023 0370 	bic.w	r3, r3, #112	; 0x70
 8001bb8:	6193      	str	r3, [r2, #24]
 8001bba:	2304      	movs	r3, #4
 8001bbc:	6053      	str	r3, [r2, #4]
 8001bbe:	b12c      	cbz	r4, 8001bcc <HAL_CAN_IRQHandler+0x178>
 8001bc0:	6a6b      	ldr	r3, [r5, #36]	; 0x24
 8001bc2:	431c      	orrs	r4, r3
 8001bc4:	626c      	str	r4, [r5, #36]	; 0x24
 8001bc6:	4628      	mov	r0, r5
 8001bc8:	f7ff ff43 	bl	8001a52 <HAL_CAN_ErrorCallback>
 8001bcc:	e8bd 8ff8 	ldmia.w	sp!, {r3, r4, r5, r6, r7, r8, r9, sl, fp, pc}
 8001bd0:	077a      	lsls	r2, r7, #29
 8001bd2:	d405      	bmi.n	8001be0 <HAL_CAN_IRQHandler+0x18c>
 8001bd4:	f017 0408 	ands.w	r4, r7, #8
 8001bd8:	d105      	bne.n	8001be6 <HAL_CAN_IRQHandler+0x192>
 8001bda:	f7ff ff32 	bl	8001a42 <HAL_CAN_TxMailbox0AbortCallback>
 8001bde:	e755      	b.n	8001a8c <HAL_CAN_IRQHandler+0x38>
 8001be0:	f44f 6400 	mov.w	r4, #2048	; 0x800
 8001be4:	e752      	b.n	8001a8c <HAL_CAN_IRQHandler+0x38>
 8001be6:	f44f 5480 	mov.w	r4, #4096	; 0x1000
 8001bea:	e74f      	b.n	8001a8c <HAL_CAN_IRQHandler+0x38>
 8001bec:	0579      	lsls	r1, r7, #21
 8001bee:	d502      	bpl.n	8001bf6 <HAL_CAN_IRQHandler+0x1a2>
 8001bf0:	f444 5400 	orr.w	r4, r4, #8192	; 0x2000
 8001bf4:	e756      	b.n	8001aa4 <HAL_CAN_IRQHandler+0x50>
 8001bf6:	053a      	lsls	r2, r7, #20
 8001bf8:	d502      	bpl.n	8001c00 <HAL_CAN_IRQHandler+0x1ac>
 8001bfa:	f444 4480 	orr.w	r4, r4, #16384	; 0x4000
 8001bfe:	e751      	b.n	8001aa4 <HAL_CAN_IRQHandler+0x50>
 8001c00:	4628      	mov	r0, r5
 8001c02:	f7ff ff1f 	bl	8001a44 <HAL_CAN_TxMailbox1AbortCallback>
 8001c06:	e74d      	b.n	8001aa4 <HAL_CAN_IRQHandler+0x50>
 8001c08:	0379      	lsls	r1, r7, #13
 8001c0a:	d502      	bpl.n	8001c12 <HAL_CAN_IRQHandler+0x1be>
 8001c0c:	f444 4400 	orr.w	r4, r4, #32768	; 0x8000
 8001c10:	e754      	b.n	8001abc <HAL_CAN_IRQHandler+0x68>
 8001c12:	033a      	lsls	r2, r7, #12
 8001c14:	d502      	bpl.n	8001c1c <HAL_CAN_IRQHandler+0x1c8>
 8001c16:	f444 3480 	orr.w	r4, r4, #65536	; 0x10000
 8001c1a:	e74f      	b.n	8001abc <HAL_CAN_IRQHandler+0x68>
 8001c1c:	4628      	mov	r0, r5
 8001c1e:	f7ff ff12 	bl	8001a46 <HAL_CAN_TxMailbox2AbortCallback>
 8001c22:	e74b      	b.n	8001abc <HAL_CAN_IRQHandler+0x68>
 8001c24:	2b50      	cmp	r3, #80	; 0x50
 8001c26:	d010      	beq.n	8001c4a <HAL_CAN_IRQHandler+0x1f6>
 8001c28:	2b60      	cmp	r3, #96	; 0x60
 8001c2a:	d1c2      	bne.n	8001bb2 <HAL_CAN_IRQHandler+0x15e>
 8001c2c:	f444 7480 	orr.w	r4, r4, #256	; 0x100
 8001c30:	e7bf      	b.n	8001bb2 <HAL_CAN_IRQHandler+0x15e>
 8001c32:	f044 0408 	orr.w	r4, r4, #8
 8001c36:	e7bc      	b.n	8001bb2 <HAL_CAN_IRQHandler+0x15e>
 8001c38:	f044 0410 	orr.w	r4, r4, #16
 8001c3c:	e7b9      	b.n	8001bb2 <HAL_CAN_IRQHandler+0x15e>
 8001c3e:	f044 0420 	orr.w	r4, r4, #32
 8001c42:	e7b6      	b.n	8001bb2 <HAL_CAN_IRQHandler+0x15e>
 8001c44:	f044 0440 	orr.w	r4, r4, #64	; 0x40
 8001c48:	e7b3      	b.n	8001bb2 <HAL_CAN_IRQHandler+0x15e>
 8001c4a:	f044 0480 	orr.w	r4, r4, #128	; 0x80
 8001c4e:	e7b0      	b.n	8001bb2 <HAL_CAN_IRQHandler+0x15e>

08001c50 <HAL_NVIC_SetPriorityGrouping>:
 8001c50:	4907      	ldr	r1, [pc, #28]	; (8001c70 <HAL_NVIC_SetPriorityGrouping+0x20>)
 8001c52:	68ca      	ldr	r2, [r1, #12]
 8001c54:	f422 62e0 	bic.w	r2, r2, #1792	; 0x700
 8001c58:	0203      	lsls	r3, r0, #8
 8001c5a:	0412      	lsls	r2, r2, #16
 8001c5c:	f403 63e0 	and.w	r3, r3, #1792	; 0x700
 8001c60:	0c12      	lsrs	r2, r2, #16
 8001c62:	4313      	orrs	r3, r2
 8001c64:	f043 63bf 	orr.w	r3, r3, #100139008	; 0x5f80000
 8001c68:	f443 3300 	orr.w	r3, r3, #131072	; 0x20000
 8001c6c:	60cb      	str	r3, [r1, #12]
 8001c6e:	4770      	bx	lr
 8001c70:	e000ed00 	.word	0xe000ed00

08001c74 <HAL_NVIC_SetPriority>:
 8001c74:	4b16      	ldr	r3, [pc, #88]	; (8001cd0 <HAL_NVIC_SetPriority+0x5c>)
 8001c76:	b530      	push	{r4, r5, lr}
 8001c78:	68dc      	ldr	r4, [r3, #12]
 8001c7a:	f3c4 2402 	ubfx	r4, r4, #8, #3
 8001c7e:	f1c4 0507 	rsb	r5, r4, #7
 8001c82:	1d23      	adds	r3, r4, #4
 8001c84:	2d04      	cmp	r5, #4
 8001c86:	bf28      	it	cs
 8001c88:	2504      	movcs	r5, #4
 8001c8a:	2b06      	cmp	r3, #6
 8001c8c:	f04f 33ff 	mov.w	r3, #4294967295
 8001c90:	bf8c      	ite	hi
 8001c92:	3c03      	subhi	r4, #3
 8001c94:	2400      	movls	r4, #0
 8001c96:	fa03 f505 	lsl.w	r5, r3, r5
 8001c9a:	ea21 0105 	bic.w	r1, r1, r5
 8001c9e:	40a3      	lsls	r3, r4
 8001ca0:	ea22 0203 	bic.w	r2, r2, r3
 8001ca4:	40a1      	lsls	r1, r4
 8001ca6:	2800      	cmp	r0, #0
 8001ca8:	ea41 0302 	orr.w	r3, r1, r2
 8001cac:	bfac      	ite	ge
 8001cae:	f100 4060 	addge.w	r0, r0, #3758096384	; 0xe0000000
 8001cb2:	4a08      	ldrlt	r2, [pc, #32]	; (8001cd4 <HAL_NVIC_SetPriority+0x60>)
 8001cb4:	ea4f 1303 	mov.w	r3, r3, lsl #4
 8001cb8:	bfb8      	it	lt
 8001cba:	f000 000f 	andlt.w	r0, r0, #15
 8001cbe:	b2db      	uxtb	r3, r3
 8001cc0:	bfaa      	itet	ge
 8001cc2:	f500 4061 	addge.w	r0, r0, #57600	; 0xe100
 8001cc6:	5413      	strblt	r3, [r2, r0]
 8001cc8:	f880 3300 	strbge.w	r3, [r0, #768]	; 0x300
 8001ccc:	bd30      	pop	{r4, r5, pc}
 8001cce:	bf00      	nop
 8001cd0:	e000ed00 	.word	0xe000ed00
 8001cd4:	e000ed14 	.word	0xe000ed14

08001cd8 <HAL_NVIC_EnableIRQ>:
 8001cd8:	2800      	cmp	r0, #0
 8001cda:	db08      	blt.n	8001cee <HAL_NVIC_EnableIRQ+0x16>
 8001cdc:	2301      	movs	r3, #1
 8001cde:	0942      	lsrs	r2, r0, #5
 8001ce0:	f000 001f 	and.w	r0, r0, #31
 8001ce4:	fa03 f000 	lsl.w	r0, r3, r0
 8001ce8:	4b01      	ldr	r3, [pc, #4]	; (8001cf0 <HAL_NVIC_EnableIRQ+0x18>)
 8001cea:	f843 0022 	str.w	r0, [r3, r2, lsl #2]
 8001cee:	4770      	bx	lr
 8001cf0:	e000e100 	.word	0xe000e100

08001cf4 <HAL_SYSTICK_Config>:
 8001cf4:	3801      	subs	r0, #1
 8001cf6:	f1b0 7f80 	cmp.w	r0, #16777216	; 0x1000000
 8001cfa:	d20b      	bcs.n	8001d14 <HAL_SYSTICK_Config+0x20>
 8001cfc:	f04f 23e0 	mov.w	r3, #3758153728	; 0xe000e000
 8001d00:	4a05      	ldr	r2, [pc, #20]	; (8001d18 <HAL_SYSTICK_Config+0x24>)
 8001d02:	6158      	str	r0, [r3, #20]
 8001d04:	21f0      	movs	r1, #240	; 0xf0
 8001d06:	f882 1023 	strb.w	r1, [r2, #35]	; 0x23
 8001d0a:	2000      	movs	r0, #0
 8001d0c:	2207      	movs	r2, #7
 8001d0e:	6198      	str	r0, [r3, #24]
 8001d10:	611a      	str	r2, [r3, #16]
 8001d12:	4770      	bx	lr
 8001d14:	2001      	movs	r0, #1
 8001d16:	4770      	bx	lr
 8001d18:	e000ed00 	.word	0xe000ed00

08001d1c <HAL_GPIO_Init>:
 8001d1c:	e92d 4ff7 	stmdb	sp!, {r0, r1, r2, r4, r5, r6, r7, r8, r9, sl, fp, lr}
 8001d20:	f8df 917c 	ldr.w	r9, [pc, #380]	; 8001ea0 <HAL_GPIO_Init+0x184>
 8001d24:	4c5c      	ldr	r4, [pc, #368]	; (8001e98 <HAL_GPIO_Init+0x17c>)
 8001d26:	2300      	movs	r3, #0
 8001d28:	680a      	ldr	r2, [r1, #0]
 8001d2a:	fa32 f503 	lsrs.w	r5, r2, r3
 8001d2e:	d102      	bne.n	8001d36 <HAL_GPIO_Init+0x1a>
 8001d30:	b003      	add	sp, #12
 8001d32:	e8bd 8ff0 	ldmia.w	sp!, {r4, r5, r6, r7, r8, r9, sl, fp, pc}
 8001d36:	2501      	movs	r5, #1
 8001d38:	fa05 fe03 	lsl.w	lr, r5, r3
 8001d3c:	ea1e 0202 	ands.w	r2, lr, r2
 8001d40:	f000 80a0 	beq.w	8001e84 <HAL_GPIO_Init+0x168>
 8001d44:	684e      	ldr	r6, [r1, #4]
 8001d46:	2703      	movs	r7, #3
 8001d48:	f006 0503 	and.w	r5, r6, #3
 8001d4c:	ea4f 0843 	mov.w	r8, r3, lsl #1
 8001d50:	fa07 fc08 	lsl.w	ip, r7, r8
 8001d54:	1e6f      	subs	r7, r5, #1
 8001d56:	2f01      	cmp	r7, #1
 8001d58:	ea6f 0c0c 	mvn.w	ip, ip
 8001d5c:	d834      	bhi.n	8001dc8 <HAL_GPIO_Init+0xac>
 8001d5e:	6887      	ldr	r7, [r0, #8]
 8001d60:	ea07 0a0c 	and.w	sl, r7, ip
 8001d64:	68cf      	ldr	r7, [r1, #12]
 8001d66:	fa07 f708 	lsl.w	r7, r7, r8
 8001d6a:	ea47 070a 	orr.w	r7, r7, sl
 8001d6e:	6087      	str	r7, [r0, #8]
 8001d70:	6847      	ldr	r7, [r0, #4]
 8001d72:	ea27 0e0e 	bic.w	lr, r7, lr
 8001d76:	f3c6 1700 	ubfx	r7, r6, #4, #1
 8001d7a:	409f      	lsls	r7, r3
 8001d7c:	ea47 070e 	orr.w	r7, r7, lr
 8001d80:	6047      	str	r7, [r0, #4]
 8001d82:	68c7      	ldr	r7, [r0, #12]
 8001d84:	ea07 0e0c 	and.w	lr, r7, ip
 8001d88:	688f      	ldr	r7, [r1, #8]
 8001d8a:	fa07 f708 	lsl.w	r7, r7, r8
 8001d8e:	ea47 070e 	orr.w	r7, r7, lr
 8001d92:	2d02      	cmp	r5, #2
 8001d94:	60c7      	str	r7, [r0, #12]
 8001d96:	d119      	bne.n	8001dcc <HAL_GPIO_Init+0xb0>
 8001d98:	ea4f 0ad3 	mov.w	sl, r3, lsr #3
 8001d9c:	eb00 0a8a 	add.w	sl, r0, sl, lsl #2
 8001da0:	f003 0b07 	and.w	fp, r3, #7
 8001da4:	f8da 7020 	ldr.w	r7, [sl, #32]
 8001da8:	ea4f 0b8b 	mov.w	fp, fp, lsl #2
 8001dac:	f04f 0e0f 	mov.w	lr, #15
 8001db0:	fa0e fe0b 	lsl.w	lr, lr, fp
 8001db4:	ea27 0e0e 	bic.w	lr, r7, lr
 8001db8:	690f      	ldr	r7, [r1, #16]
 8001dba:	fa07 f70b 	lsl.w	r7, r7, fp
 8001dbe:	ea47 070e 	orr.w	r7, r7, lr
 8001dc2:	f8ca 7020 	str.w	r7, [sl, #32]
 8001dc6:	e001      	b.n	8001dcc <HAL_GPIO_Init+0xb0>
 8001dc8:	2d03      	cmp	r5, #3
 8001dca:	d1da      	bne.n	8001d82 <HAL_GPIO_Init+0x66>
 8001dcc:	6807      	ldr	r7, [r0, #0]
 8001dce:	fa05 f508 	lsl.w	r5, r5, r8
 8001dd2:	ea07 070c 	and.w	r7, r7, ip
 8001dd6:	432f      	orrs	r7, r5
 8001dd8:	f416 3f40 	tst.w	r6, #196608	; 0x30000
 8001ddc:	6007      	str	r7, [r0, #0]
 8001dde:	d051      	beq.n	8001e84 <HAL_GPIO_Init+0x168>
 8001de0:	f8d9 5060 	ldr.w	r5, [r9, #96]	; 0x60
 8001de4:	f045 0501 	orr.w	r5, r5, #1
 8001de8:	f8c9 5060 	str.w	r5, [r9, #96]	; 0x60
 8001dec:	f8d9 5060 	ldr.w	r5, [r9, #96]	; 0x60
 8001df0:	f023 0703 	bic.w	r7, r3, #3
 8001df4:	f107 4780 	add.w	r7, r7, #1073741824	; 0x40000000
 8001df8:	f005 0501 	and.w	r5, r5, #1
 8001dfc:	f507 3780 	add.w	r7, r7, #65536	; 0x10000
 8001e00:	9501      	str	r5, [sp, #4]
 8001e02:	f003 0e03 	and.w	lr, r3, #3
 8001e06:	9d01      	ldr	r5, [sp, #4]
 8001e08:	68bd      	ldr	r5, [r7, #8]
 8001e0a:	ea4f 0e8e 	mov.w	lr, lr, lsl #2
 8001e0e:	f04f 0c0f 	mov.w	ip, #15
 8001e12:	fa0c fc0e 	lsl.w	ip, ip, lr
 8001e16:	f1b0 4f90 	cmp.w	r0, #1207959552	; 0x48000000
 8001e1a:	ea25 0c0c 	bic.w	ip, r5, ip
 8001e1e:	d033      	beq.n	8001e88 <HAL_GPIO_Init+0x16c>
 8001e20:	4d1e      	ldr	r5, [pc, #120]	; (8001e9c <HAL_GPIO_Init+0x180>)
 8001e22:	42a8      	cmp	r0, r5
 8001e24:	d032      	beq.n	8001e8c <HAL_GPIO_Init+0x170>
 8001e26:	f505 6580 	add.w	r5, r5, #1024	; 0x400
 8001e2a:	42a8      	cmp	r0, r5
 8001e2c:	d030      	beq.n	8001e90 <HAL_GPIO_Init+0x174>
 8001e2e:	f505 6580 	add.w	r5, r5, #1024	; 0x400
 8001e32:	42a8      	cmp	r0, r5
 8001e34:	d02e      	beq.n	8001e94 <HAL_GPIO_Init+0x178>
 8001e36:	f505 6580 	add.w	r5, r5, #1024	; 0x400
 8001e3a:	42a8      	cmp	r0, r5
 8001e3c:	bf0c      	ite	eq
 8001e3e:	2504      	moveq	r5, #4
 8001e40:	2507      	movne	r5, #7
 8001e42:	fa05 f50e 	lsl.w	r5, r5, lr
 8001e46:	ea45 050c 	orr.w	r5, r5, ip
 8001e4a:	60bd      	str	r5, [r7, #8]
 8001e4c:	68a5      	ldr	r5, [r4, #8]
 8001e4e:	43d7      	mvns	r7, r2
 8001e50:	f416 1f80 	tst.w	r6, #1048576	; 0x100000
 8001e54:	bf0c      	ite	eq
 8001e56:	403d      	andeq	r5, r7
 8001e58:	4315      	orrne	r5, r2
 8001e5a:	60a5      	str	r5, [r4, #8]
 8001e5c:	68e5      	ldr	r5, [r4, #12]
 8001e5e:	f416 1f00 	tst.w	r6, #2097152	; 0x200000
 8001e62:	bf0c      	ite	eq
 8001e64:	403d      	andeq	r5, r7
 8001e66:	4315      	orrne	r5, r2
 8001e68:	60e5      	str	r5, [r4, #12]
 8001e6a:	6865      	ldr	r5, [r4, #4]
 8001e6c:	f416 3f00 	tst.w	r6, #131072	; 0x20000
 8001e70:	bf0c      	ite	eq
 8001e72:	403d      	andeq	r5, r7
 8001e74:	4315      	orrne	r5, r2
 8001e76:	6065      	str	r5, [r4, #4]
 8001e78:	6825      	ldr	r5, [r4, #0]
 8001e7a:	03f6      	lsls	r6, r6, #15
 8001e7c:	bf54      	ite	pl
 8001e7e:	403d      	andpl	r5, r7
 8001e80:	4315      	orrmi	r5, r2
 8001e82:	6025      	str	r5, [r4, #0]
 8001e84:	3301      	adds	r3, #1
 8001e86:	e74f      	b.n	8001d28 <HAL_GPIO_Init+0xc>
 8001e88:	2500      	movs	r5, #0
 8001e8a:	e7da      	b.n	8001e42 <HAL_GPIO_Init+0x126>
 8001e8c:	2501      	movs	r5, #1
 8001e8e:	e7d8      	b.n	8001e42 <HAL_GPIO_Init+0x126>
 8001e90:	2502      	movs	r5, #2
 8001e92:	e7d6      	b.n	8001e42 <HAL_GPIO_Init+0x126>
 8001e94:	2503      	movs	r5, #3
 8001e96:	e7d4      	b.n	8001e42 <HAL_GPIO_Init+0x126>
 8001e98:	40010400 	.word	0x40010400
 8001e9c:	48000400 	.word	0x48000400
 8001ea0:	40021000 	.word	0x40021000

08001ea4 <HAL_GPIO_WritePin>:
 8001ea4:	b10a      	cbz	r2, 8001eaa <HAL_GPIO_WritePin+0x6>
 8001ea6:	6181      	str	r1, [r0, #24]
 8001ea8:	4770      	bx	lr
 8001eaa:	6281      	str	r1, [r0, #40]	; 0x28
 8001eac:	4770      	bx	lr

08001eae <HAL_GPIO_TogglePin>:
 8001eae:	6943      	ldr	r3, [r0, #20]
 8001eb0:	ea01 0203 	and.w	r2, r1, r3
 8001eb4:	ea21 0103 	bic.w	r1, r1, r3
 8001eb8:	ea41 4102 	orr.w	r1, r1, r2, lsl #16
 8001ebc:	6181      	str	r1, [r0, #24]
 8001ebe:	4770      	bx	lr

08001ec0 <I2C_Flush_TXDR>:
 8001ec0:	6803      	ldr	r3, [r0, #0]
 8001ec2:	699a      	ldr	r2, [r3, #24]
 8001ec4:	0791      	lsls	r1, r2, #30
 8001ec6:	bf44      	itt	mi
 8001ec8:	2200      	movmi	r2, #0
 8001eca:	629a      	strmi	r2, [r3, #40]	; 0x28
 8001ecc:	699a      	ldr	r2, [r3, #24]
 8001ece:	07d2      	lsls	r2, r2, #31
 8001ed0:	bf5e      	ittt	pl
 8001ed2:	699a      	ldrpl	r2, [r3, #24]
 8001ed4:	f042 0201 	orrpl.w	r2, r2, #1
 8001ed8:	619a      	strpl	r2, [r3, #24]
 8001eda:	4770      	bx	lr

08001edc <I2C_TransferConfig>:
 8001edc:	b530      	push	{r4, r5, lr}
 8001ede:	9d03      	ldr	r5, [sp, #12]
 8001ee0:	6804      	ldr	r4, [r0, #0]
 8001ee2:	432b      	orrs	r3, r5
 8001ee4:	ea43 4302 	orr.w	r3, r3, r2, lsl #16
 8001ee8:	4a06      	ldr	r2, [pc, #24]	; (8001f04 <I2C_TransferConfig+0x28>)
 8001eea:	6860      	ldr	r0, [r4, #4]
 8001eec:	f3c1 0109 	ubfx	r1, r1, #0, #10
 8001ef0:	430b      	orrs	r3, r1
 8001ef2:	ea42 5255 	orr.w	r2, r2, r5, lsr #21
 8001ef6:	f023 4300 	bic.w	r3, r3, #2147483648	; 0x80000000
 8001efa:	ea20 0002 	bic.w	r0, r0, r2
 8001efe:	4303      	orrs	r3, r0
 8001f00:	6063      	str	r3, [r4, #4]
 8001f02:	bd30      	pop	{r4, r5, pc}
 8001f04:	03ff63ff 	.word	0x03ff63ff

08001f08 <I2C_IsErrorOccurred>:
 8001f08:	e92d 43f8 	stmdb	sp!, {r3, r4, r5, r6, r7, r8, r9, lr}
 8001f0c:	6803      	ldr	r3, [r0, #0]
 8001f0e:	699c      	ldr	r4, [r3, #24]
 8001f10:	f014 0410 	ands.w	r4, r4, #16
 8001f14:	4605      	mov	r5, r0
 8001f16:	4688      	mov	r8, r1
 8001f18:	4617      	mov	r7, r2
 8001f1a:	d079      	beq.n	8002010 <I2C_IsErrorOccurred+0x108>
 8001f1c:	2210      	movs	r2, #16
 8001f1e:	61da      	str	r2, [r3, #28]
 8001f20:	2600      	movs	r6, #0
 8001f22:	f04f 0920 	mov.w	r9, #32
 8001f26:	682b      	ldr	r3, [r5, #0]
 8001f28:	699a      	ldr	r2, [r3, #24]
 8001f2a:	0694      	lsls	r4, r2, #26
 8001f2c:	d436      	bmi.n	8001f9c <I2C_IsErrorOccurred+0x94>
 8001f2e:	b10e      	cbz	r6, 8001f34 <I2C_IsErrorOccurred+0x2c>
 8001f30:	2404      	movs	r4, #4
 8001f32:	e039      	b.n	8001fa8 <I2C_IsErrorOccurred+0xa0>
 8001f34:	f1b8 3fff 	cmp.w	r8, #4294967295
 8001f38:	d0f6      	beq.n	8001f28 <I2C_IsErrorOccurred+0x20>
 8001f3a:	f7fe fed7 	bl	8000cec <HAL_GetTick>
 8001f3e:	1bc0      	subs	r0, r0, r7
 8001f40:	4540      	cmp	r0, r8
 8001f42:	d802      	bhi.n	8001f4a <I2C_IsErrorOccurred+0x42>
 8001f44:	f1b8 0f00 	cmp.w	r8, #0
 8001f48:	d1ed      	bne.n	8001f26 <I2C_IsErrorOccurred+0x1e>
 8001f4a:	682b      	ldr	r3, [r5, #0]
 8001f4c:	6859      	ldr	r1, [r3, #4]
 8001f4e:	f895 2042 	ldrb.w	r2, [r5, #66]	; 0x42
 8001f52:	6998      	ldr	r0, [r3, #24]
 8001f54:	0400      	lsls	r0, r0, #16
 8001f56:	b2d2      	uxtb	r2, r2
 8001f58:	d50a      	bpl.n	8001f70 <I2C_IsErrorOccurred+0x68>
 8001f5a:	0449      	lsls	r1, r1, #17
 8001f5c:	d408      	bmi.n	8001f70 <I2C_IsErrorOccurred+0x68>
 8001f5e:	2a20      	cmp	r2, #32
 8001f60:	d006      	beq.n	8001f70 <I2C_IsErrorOccurred+0x68>
 8001f62:	685a      	ldr	r2, [r3, #4]
 8001f64:	f442 4280 	orr.w	r2, r2, #16384	; 0x4000
 8001f68:	605a      	str	r2, [r3, #4]
 8001f6a:	f7fe febf 	bl	8000cec <HAL_GetTick>
 8001f6e:	4607      	mov	r7, r0
 8001f70:	682b      	ldr	r3, [r5, #0]
 8001f72:	699c      	ldr	r4, [r3, #24]
 8001f74:	f014 0420 	ands.w	r4, r4, #32
 8001f78:	d1d5      	bne.n	8001f26 <I2C_IsErrorOccurred+0x1e>
 8001f7a:	f7fe feb7 	bl	8000cec <HAL_GetTick>
 8001f7e:	1bc0      	subs	r0, r0, r7
 8001f80:	2819      	cmp	r0, #25
 8001f82:	d9f5      	bls.n	8001f70 <I2C_IsErrorOccurred+0x68>
 8001f84:	6c6b      	ldr	r3, [r5, #68]	; 0x44
 8001f86:	f885 4040 	strb.w	r4, [r5, #64]	; 0x40
 8001f8a:	f043 0320 	orr.w	r3, r3, #32
 8001f8e:	646b      	str	r3, [r5, #68]	; 0x44
 8001f90:	2601      	movs	r6, #1
 8001f92:	f885 9041 	strb.w	r9, [r5, #65]	; 0x41
 8001f96:	f885 4042 	strb.w	r4, [r5, #66]	; 0x42
 8001f9a:	e7e9      	b.n	8001f70 <I2C_IsErrorOccurred+0x68>
 8001f9c:	2e00      	cmp	r6, #0
 8001f9e:	d1c7      	bne.n	8001f30 <I2C_IsErrorOccurred+0x28>
 8001fa0:	2220      	movs	r2, #32
 8001fa2:	61da      	str	r2, [r3, #28]
 8001fa4:	2404      	movs	r4, #4
 8001fa6:	2601      	movs	r6, #1
 8001fa8:	682b      	ldr	r3, [r5, #0]
 8001faa:	699a      	ldr	r2, [r3, #24]
 8001fac:	05d0      	lsls	r0, r2, #23
 8001fae:	bf41      	itttt	mi
 8001fb0:	f44f 7180 	movmi.w	r1, #256	; 0x100
 8001fb4:	61d9      	strmi	r1, [r3, #28]
 8001fb6:	f044 0401 	orrmi.w	r4, r4, #1
 8001fba:	2601      	movmi	r6, #1
 8001fbc:	0551      	lsls	r1, r2, #21
 8001fbe:	bf41      	itttt	mi
 8001fc0:	f44f 6180 	movmi.w	r1, #1024	; 0x400
 8001fc4:	f044 0408 	orrmi.w	r4, r4, #8
 8001fc8:	61d9      	strmi	r1, [r3, #28]
 8001fca:	2601      	movmi	r6, #1
 8001fcc:	0592      	lsls	r2, r2, #22
 8001fce:	d521      	bpl.n	8002014 <I2C_IsErrorOccurred+0x10c>
 8001fd0:	f44f 7200 	mov.w	r2, #512	; 0x200
 8001fd4:	f044 0402 	orr.w	r4, r4, #2
 8001fd8:	61da      	str	r2, [r3, #28]
 8001fda:	4628      	mov	r0, r5
 8001fdc:	f7ff ff70 	bl	8001ec0 <I2C_Flush_TXDR>
 8001fe0:	682a      	ldr	r2, [r5, #0]
 8001fe2:	6853      	ldr	r3, [r2, #4]
 8001fe4:	f023 73ff 	bic.w	r3, r3, #33423360	; 0x1fe0000
 8001fe8:	f423 338b 	bic.w	r3, r3, #71168	; 0x11600
 8001fec:	f423 73ff 	bic.w	r3, r3, #510	; 0x1fe
 8001ff0:	f023 0301 	bic.w	r3, r3, #1
 8001ff4:	6053      	str	r3, [r2, #4]
 8001ff6:	6c6b      	ldr	r3, [r5, #68]	; 0x44
 8001ff8:	431c      	orrs	r4, r3
 8001ffa:	2320      	movs	r3, #32
 8001ffc:	646c      	str	r4, [r5, #68]	; 0x44
 8001ffe:	f885 3041 	strb.w	r3, [r5, #65]	; 0x41
 8002002:	2300      	movs	r3, #0
 8002004:	f885 3042 	strb.w	r3, [r5, #66]	; 0x42
 8002008:	f885 3040 	strb.w	r3, [r5, #64]	; 0x40
 800200c:	2601      	movs	r6, #1
 800200e:	e003      	b.n	8002018 <I2C_IsErrorOccurred+0x110>
 8002010:	4626      	mov	r6, r4
 8002012:	e7c9      	b.n	8001fa8 <I2C_IsErrorOccurred+0xa0>
 8002014:	2e00      	cmp	r6, #0
 8002016:	d1e0      	bne.n	8001fda <I2C_IsErrorOccurred+0xd2>
 8002018:	4630      	mov	r0, r6
 800201a:	e8bd 83f8 	ldmia.w	sp!, {r3, r4, r5, r6, r7, r8, r9, pc}

0800201e <I2C_WaitOnTXISFlagUntilTimeout>:
 800201e:	b570      	push	{r4, r5, r6, lr}
 8002020:	4604      	mov	r4, r0
 8002022:	460d      	mov	r5, r1
 8002024:	4616      	mov	r6, r2
 8002026:	6823      	ldr	r3, [r4, #0]
 8002028:	699b      	ldr	r3, [r3, #24]
 800202a:	079b      	lsls	r3, r3, #30
 800202c:	d501      	bpl.n	8002032 <I2C_WaitOnTXISFlagUntilTimeout+0x14>
 800202e:	2000      	movs	r0, #0
 8002030:	bd70      	pop	{r4, r5, r6, pc}
 8002032:	4632      	mov	r2, r6
 8002034:	4629      	mov	r1, r5
 8002036:	4620      	mov	r0, r4
 8002038:	f7ff ff66 	bl	8001f08 <I2C_IsErrorOccurred>
 800203c:	b9a0      	cbnz	r0, 8002068 <I2C_WaitOnTXISFlagUntilTimeout+0x4a>
 800203e:	1c6a      	adds	r2, r5, #1
 8002040:	d0f1      	beq.n	8002026 <I2C_WaitOnTXISFlagUntilTimeout+0x8>
 8002042:	f7fe fe53 	bl	8000cec <HAL_GetTick>
 8002046:	1b80      	subs	r0, r0, r6
 8002048:	42a8      	cmp	r0, r5
 800204a:	d801      	bhi.n	8002050 <I2C_WaitOnTXISFlagUntilTimeout+0x32>
 800204c:	2d00      	cmp	r5, #0
 800204e:	d1ea      	bne.n	8002026 <I2C_WaitOnTXISFlagUntilTimeout+0x8>
 8002050:	6c63      	ldr	r3, [r4, #68]	; 0x44
 8002052:	f043 0320 	orr.w	r3, r3, #32
 8002056:	6463      	str	r3, [r4, #68]	; 0x44
 8002058:	2320      	movs	r3, #32
 800205a:	f884 3041 	strb.w	r3, [r4, #65]	; 0x41
 800205e:	2300      	movs	r3, #0
 8002060:	f884 3042 	strb.w	r3, [r4, #66]	; 0x42
 8002064:	f884 3040 	strb.w	r3, [r4, #64]	; 0x40
 8002068:	2001      	movs	r0, #1
 800206a:	e7e1      	b.n	8002030 <I2C_WaitOnTXISFlagUntilTimeout+0x12>

0800206c <I2C_WaitOnFlagUntilTimeout>:
 800206c:	e92d 41f0 	stmdb	sp!, {r4, r5, r6, r7, r8, lr}
 8002070:	9f06      	ldr	r7, [sp, #24]
 8002072:	4604      	mov	r4, r0
 8002074:	4688      	mov	r8, r1
 8002076:	4616      	mov	r6, r2
 8002078:	461d      	mov	r5, r3
 800207a:	6822      	ldr	r2, [r4, #0]
 800207c:	6993      	ldr	r3, [r2, #24]
 800207e:	ea38 0303 	bics.w	r3, r8, r3
 8002082:	bf0c      	ite	eq
 8002084:	2301      	moveq	r3, #1
 8002086:	2300      	movne	r3, #0
 8002088:	42b3      	cmp	r3, r6
 800208a:	d001      	beq.n	8002090 <I2C_WaitOnFlagUntilTimeout+0x24>
 800208c:	2000      	movs	r0, #0
 800208e:	e015      	b.n	80020bc <I2C_WaitOnFlagUntilTimeout+0x50>
 8002090:	1c6b      	adds	r3, r5, #1
 8002092:	d0f3      	beq.n	800207c <I2C_WaitOnFlagUntilTimeout+0x10>
 8002094:	f7fe fe2a 	bl	8000cec <HAL_GetTick>
 8002098:	1bc0      	subs	r0, r0, r7
 800209a:	42a8      	cmp	r0, r5
 800209c:	d801      	bhi.n	80020a2 <I2C_WaitOnFlagUntilTimeout+0x36>
 800209e:	2d00      	cmp	r5, #0
 80020a0:	d1eb      	bne.n	800207a <I2C_WaitOnFlagUntilTimeout+0xe>
 80020a2:	6c63      	ldr	r3, [r4, #68]	; 0x44
 80020a4:	f043 0320 	orr.w	r3, r3, #32
 80020a8:	6463      	str	r3, [r4, #68]	; 0x44
 80020aa:	2320      	movs	r3, #32
 80020ac:	f884 3041 	strb.w	r3, [r4, #65]	; 0x41
 80020b0:	2300      	movs	r3, #0
 80020b2:	f884 3042 	strb.w	r3, [r4, #66]	; 0x42
 80020b6:	f884 3040 	strb.w	r3, [r4, #64]	; 0x40
 80020ba:	2001      	movs	r0, #1
 80020bc:	e8bd 81f0 	ldmia.w	sp!, {r4, r5, r6, r7, r8, pc}

080020c0 <I2C_WaitOnSTOPFlagUntilTimeout>:
 80020c0:	b570      	push	{r4, r5, r6, lr}
 80020c2:	4604      	mov	r4, r0
 80020c4:	460d      	mov	r5, r1
 80020c6:	4616      	mov	r6, r2
 80020c8:	6823      	ldr	r3, [r4, #0]
 80020ca:	699b      	ldr	r3, [r3, #24]
 80020cc:	069b      	lsls	r3, r3, #26
 80020ce:	d501      	bpl.n	80020d4 <I2C_WaitOnSTOPFlagUntilTimeout+0x14>
 80020d0:	2000      	movs	r0, #0
 80020d2:	bd70      	pop	{r4, r5, r6, pc}
 80020d4:	4632      	mov	r2, r6
 80020d6:	4629      	mov	r1, r5
 80020d8:	4620      	mov	r0, r4
 80020da:	f7ff ff15 	bl	8001f08 <I2C_IsErrorOccurred>
 80020de:	b990      	cbnz	r0, 8002106 <I2C_WaitOnSTOPFlagUntilTimeout+0x46>
 80020e0:	f7fe fe04 	bl	8000cec <HAL_GetTick>
 80020e4:	1b80      	subs	r0, r0, r6
 80020e6:	42a8      	cmp	r0, r5
 80020e8:	d801      	bhi.n	80020ee <I2C_WaitOnSTOPFlagUntilTimeout+0x2e>
 80020ea:	2d00      	cmp	r5, #0
 80020ec:	d1ec      	bne.n	80020c8 <I2C_WaitOnSTOPFlagUntilTimeout+0x8>
 80020ee:	6c63      	ldr	r3, [r4, #68]	; 0x44
 80020f0:	f043 0320 	orr.w	r3, r3, #32
 80020f4:	6463      	str	r3, [r4, #68]	; 0x44
 80020f6:	2320      	movs	r3, #32
 80020f8:	f884 3041 	strb.w	r3, [r4, #65]	; 0x41
 80020fc:	2300      	movs	r3, #0
 80020fe:	f884 3042 	strb.w	r3, [r4, #66]	; 0x42
 8002102:	f884 3040 	strb.w	r3, [r4, #64]	; 0x40
 8002106:	2001      	movs	r0, #1
 8002108:	e7e3      	b.n	80020d2 <I2C_WaitOnSTOPFlagUntilTimeout+0x12>

0800210a <HAL_I2C_Init>:
 800210a:	b510      	push	{r4, lr}
 800210c:	4604      	mov	r4, r0
 800210e:	2800      	cmp	r0, #0
 8002110:	d04a      	beq.n	80021a8 <HAL_I2C_Init+0x9e>
 8002112:	f890 3041 	ldrb.w	r3, [r0, #65]	; 0x41
 8002116:	f003 02ff 	and.w	r2, r3, #255	; 0xff
 800211a:	b91b      	cbnz	r3, 8002124 <HAL_I2C_Init+0x1a>
 800211c:	f880 2040 	strb.w	r2, [r0, #64]	; 0x40
 8002120:	f7fe fb08 	bl	8000734 <HAL_I2C_MspInit>
 8002124:	2324      	movs	r3, #36	; 0x24
 8002126:	f884 3041 	strb.w	r3, [r4, #65]	; 0x41
 800212a:	6823      	ldr	r3, [r4, #0]
 800212c:	681a      	ldr	r2, [r3, #0]
 800212e:	f022 0201 	bic.w	r2, r2, #1
 8002132:	601a      	str	r2, [r3, #0]
 8002134:	6862      	ldr	r2, [r4, #4]
 8002136:	f022 6270 	bic.w	r2, r2, #251658240	; 0xf000000
 800213a:	611a      	str	r2, [r3, #16]
 800213c:	689a      	ldr	r2, [r3, #8]
 800213e:	f422 4200 	bic.w	r2, r2, #32768	; 0x8000
 8002142:	609a      	str	r2, [r3, #8]
 8002144:	e9d4 2102 	ldrd	r2, r1, [r4, #8]
 8002148:	2901      	cmp	r1, #1
 800214a:	d124      	bne.n	8002196 <HAL_I2C_Init+0x8c>
 800214c:	f442 4200 	orr.w	r2, r2, #32768	; 0x8000
 8002150:	609a      	str	r2, [r3, #8]
 8002152:	685a      	ldr	r2, [r3, #4]
 8002154:	f042 7200 	orr.w	r2, r2, #33554432	; 0x2000000
 8002158:	f442 4200 	orr.w	r2, r2, #32768	; 0x8000
 800215c:	605a      	str	r2, [r3, #4]
 800215e:	68da      	ldr	r2, [r3, #12]
 8002160:	f422 4200 	bic.w	r2, r2, #32768	; 0x8000
 8002164:	60da      	str	r2, [r3, #12]
 8002166:	e9d4 2104 	ldrd	r2, r1, [r4, #16]
 800216a:	430a      	orrs	r2, r1
 800216c:	69a1      	ldr	r1, [r4, #24]
 800216e:	ea42 2201 	orr.w	r2, r2, r1, lsl #8
 8002172:	60da      	str	r2, [r3, #12]
 8002174:	e9d4 2107 	ldrd	r2, r1, [r4, #28]
 8002178:	430a      	orrs	r2, r1
 800217a:	601a      	str	r2, [r3, #0]
 800217c:	681a      	ldr	r2, [r3, #0]
 800217e:	f042 0201 	orr.w	r2, r2, #1
 8002182:	601a      	str	r2, [r3, #0]
 8002184:	2000      	movs	r0, #0
 8002186:	2320      	movs	r3, #32
 8002188:	6460      	str	r0, [r4, #68]	; 0x44
 800218a:	f884 3041 	strb.w	r3, [r4, #65]	; 0x41
 800218e:	6320      	str	r0, [r4, #48]	; 0x30
 8002190:	f884 0042 	strb.w	r0, [r4, #66]	; 0x42
 8002194:	bd10      	pop	{r4, pc}
 8002196:	f442 4204 	orr.w	r2, r2, #33792	; 0x8400
 800219a:	2902      	cmp	r1, #2
 800219c:	609a      	str	r2, [r3, #8]
 800219e:	bf04      	itt	eq
 80021a0:	f44f 6200 	moveq.w	r2, #2048	; 0x800
 80021a4:	605a      	streq	r2, [r3, #4]
 80021a6:	e7d4      	b.n	8002152 <HAL_I2C_Init+0x48>
 80021a8:	2001      	movs	r0, #1
 80021aa:	e7f3      	b.n	8002194 <HAL_I2C_Init+0x8a>

080021ac <HAL_I2C_Master_Transmit>:
 80021ac:	e92d 47f3 	stmdb	sp!, {r0, r1, r4, r5, r6, r7, r8, r9, sl, lr}
 80021b0:	4698      	mov	r8, r3
 80021b2:	f890 3041 	ldrb.w	r3, [r0, #65]	; 0x41
 80021b6:	9f0a      	ldr	r7, [sp, #40]	; 0x28
 80021b8:	2b20      	cmp	r3, #32
 80021ba:	4604      	mov	r4, r0
 80021bc:	460e      	mov	r6, r1
 80021be:	4691      	mov	r9, r2
 80021c0:	f040 8086 	bne.w	80022d0 <HAL_I2C_Master_Transmit+0x124>
 80021c4:	f890 3040 	ldrb.w	r3, [r0, #64]	; 0x40
 80021c8:	2b01      	cmp	r3, #1
 80021ca:	f000 8081 	beq.w	80022d0 <HAL_I2C_Master_Transmit+0x124>
 80021ce:	f04f 0a01 	mov.w	sl, #1
 80021d2:	f880 a040 	strb.w	sl, [r0, #64]	; 0x40
 80021d6:	f7fe fd89 	bl	8000cec <HAL_GetTick>
 80021da:	2319      	movs	r3, #25
 80021dc:	4605      	mov	r5, r0
 80021de:	9000      	str	r0, [sp, #0]
 80021e0:	4652      	mov	r2, sl
 80021e2:	f44f 4100 	mov.w	r1, #32768	; 0x8000
 80021e6:	4620      	mov	r0, r4
 80021e8:	f7ff ff40 	bl	800206c <I2C_WaitOnFlagUntilTimeout>
 80021ec:	b118      	cbz	r0, 80021f6 <HAL_I2C_Master_Transmit+0x4a>
 80021ee:	2001      	movs	r0, #1
 80021f0:	b002      	add	sp, #8
 80021f2:	e8bd 87f0 	ldmia.w	sp!, {r4, r5, r6, r7, r8, r9, sl, pc}
 80021f6:	2321      	movs	r3, #33	; 0x21
 80021f8:	f884 3041 	strb.w	r3, [r4, #65]	; 0x41
 80021fc:	2310      	movs	r3, #16
 80021fe:	f884 3042 	strb.w	r3, [r4, #66]	; 0x42
 8002202:	6460      	str	r0, [r4, #68]	; 0x44
 8002204:	f8a4 802a 	strh.w	r8, [r4, #42]	; 0x2a
 8002208:	8d63      	ldrh	r3, [r4, #42]	; 0x2a
 800220a:	f8c4 9024 	str.w	r9, [r4, #36]	; 0x24
 800220e:	b29b      	uxth	r3, r3
 8002210:	2bff      	cmp	r3, #255	; 0xff
 8002212:	6360      	str	r0, [r4, #52]	; 0x34
 8002214:	4b2f      	ldr	r3, [pc, #188]	; (80022d4 <HAL_I2C_Master_Transmit+0x128>)
 8002216:	d926      	bls.n	8002266 <HAL_I2C_Master_Transmit+0xba>
 8002218:	22ff      	movs	r2, #255	; 0xff
 800221a:	8522      	strh	r2, [r4, #40]	; 0x28
 800221c:	9300      	str	r3, [sp, #0]
 800221e:	f04f 7380 	mov.w	r3, #16777216	; 0x1000000
 8002222:	4631      	mov	r1, r6
 8002224:	4620      	mov	r0, r4
 8002226:	f7ff fe59 	bl	8001edc <I2C_TransferConfig>
 800222a:	8d63      	ldrh	r3, [r4, #42]	; 0x2a
 800222c:	b29b      	uxth	r3, r3
 800222e:	462a      	mov	r2, r5
 8002230:	4639      	mov	r1, r7
 8002232:	4620      	mov	r0, r4
 8002234:	b9fb      	cbnz	r3, 8002276 <HAL_I2C_Master_Transmit+0xca>
 8002236:	f7ff ff43 	bl	80020c0 <I2C_WaitOnSTOPFlagUntilTimeout>
 800223a:	2800      	cmp	r0, #0
 800223c:	d1d7      	bne.n	80021ee <HAL_I2C_Master_Transmit+0x42>
 800223e:	6823      	ldr	r3, [r4, #0]
 8002240:	2120      	movs	r1, #32
 8002242:	61d9      	str	r1, [r3, #28]
 8002244:	685a      	ldr	r2, [r3, #4]
 8002246:	f022 72ff 	bic.w	r2, r2, #33423360	; 0x1fe0000
 800224a:	f422 328b 	bic.w	r2, r2, #71168	; 0x11600
 800224e:	f422 72ff 	bic.w	r2, r2, #510	; 0x1fe
 8002252:	f022 0201 	bic.w	r2, r2, #1
 8002256:	605a      	str	r2, [r3, #4]
 8002258:	f884 1041 	strb.w	r1, [r4, #65]	; 0x41
 800225c:	f884 0040 	strb.w	r0, [r4, #64]	; 0x40
 8002260:	f884 0042 	strb.w	r0, [r4, #66]	; 0x42
 8002264:	e7c4      	b.n	80021f0 <HAL_I2C_Master_Transmit+0x44>
 8002266:	8d62      	ldrh	r2, [r4, #42]	; 0x2a
 8002268:	9300      	str	r3, [sp, #0]
 800226a:	b292      	uxth	r2, r2
 800226c:	8522      	strh	r2, [r4, #40]	; 0x28
 800226e:	f04f 7300 	mov.w	r3, #33554432	; 0x2000000
 8002272:	b2d2      	uxtb	r2, r2
 8002274:	e7d5      	b.n	8002222 <HAL_I2C_Master_Transmit+0x76>
 8002276:	f7ff fed2 	bl	800201e <I2C_WaitOnTXISFlagUntilTimeout>
 800227a:	2800      	cmp	r0, #0
 800227c:	d1b7      	bne.n	80021ee <HAL_I2C_Master_Transmit+0x42>
 800227e:	6a63      	ldr	r3, [r4, #36]	; 0x24
 8002280:	6822      	ldr	r2, [r4, #0]
 8002282:	f813 1b01 	ldrb.w	r1, [r3], #1
 8002286:	6291      	str	r1, [r2, #40]	; 0x28
 8002288:	6263      	str	r3, [r4, #36]	; 0x24
 800228a:	8d63      	ldrh	r3, [r4, #42]	; 0x2a
 800228c:	8d22      	ldrh	r2, [r4, #40]	; 0x28
 800228e:	3b01      	subs	r3, #1
 8002290:	b29b      	uxth	r3, r3
 8002292:	8563      	strh	r3, [r4, #42]	; 0x2a
 8002294:	8d63      	ldrh	r3, [r4, #42]	; 0x2a
 8002296:	3a01      	subs	r2, #1
 8002298:	b292      	uxth	r2, r2
 800229a:	b29b      	uxth	r3, r3
 800229c:	8522      	strh	r2, [r4, #40]	; 0x28
 800229e:	2b00      	cmp	r3, #0
 80022a0:	d0c3      	beq.n	800222a <HAL_I2C_Master_Transmit+0x7e>
 80022a2:	2a00      	cmp	r2, #0
 80022a4:	d1c1      	bne.n	800222a <HAL_I2C_Master_Transmit+0x7e>
 80022a6:	9500      	str	r5, [sp, #0]
 80022a8:	463b      	mov	r3, r7
 80022aa:	2180      	movs	r1, #128	; 0x80
 80022ac:	4620      	mov	r0, r4
 80022ae:	f7ff fedd 	bl	800206c <I2C_WaitOnFlagUntilTimeout>
 80022b2:	2800      	cmp	r0, #0
 80022b4:	d19b      	bne.n	80021ee <HAL_I2C_Master_Transmit+0x42>
 80022b6:	8d63      	ldrh	r3, [r4, #42]	; 0x2a
 80022b8:	b29b      	uxth	r3, r3
 80022ba:	2bff      	cmp	r3, #255	; 0xff
 80022bc:	d903      	bls.n	80022c6 <HAL_I2C_Master_Transmit+0x11a>
 80022be:	22ff      	movs	r2, #255	; 0xff
 80022c0:	8522      	strh	r2, [r4, #40]	; 0x28
 80022c2:	9000      	str	r0, [sp, #0]
 80022c4:	e7ab      	b.n	800221e <HAL_I2C_Master_Transmit+0x72>
 80022c6:	8d62      	ldrh	r2, [r4, #42]	; 0x2a
 80022c8:	9000      	str	r0, [sp, #0]
 80022ca:	b292      	uxth	r2, r2
 80022cc:	8522      	strh	r2, [r4, #40]	; 0x28
 80022ce:	e7ce      	b.n	800226e <HAL_I2C_Master_Transmit+0xc2>
 80022d0:	2002      	movs	r0, #2
 80022d2:	e78d      	b.n	80021f0 <HAL_I2C_Master_Transmit+0x44>
 80022d4:	80002000 	.word	0x80002000

080022d8 <HAL_I2CEx_ConfigAnalogFilter>:
 80022d8:	b510      	push	{r4, lr}
 80022da:	f890 3041 	ldrb.w	r3, [r0, #65]	; 0x41
 80022de:	2b20      	cmp	r3, #32
 80022e0:	b2dc      	uxtb	r4, r3
 80022e2:	d11d      	bne.n	8002320 <HAL_I2CEx_ConfigAnalogFilter+0x48>
 80022e4:	f890 3040 	ldrb.w	r3, [r0, #64]	; 0x40
 80022e8:	2b01      	cmp	r3, #1
 80022ea:	d019      	beq.n	8002320 <HAL_I2CEx_ConfigAnalogFilter+0x48>
 80022ec:	2324      	movs	r3, #36	; 0x24
 80022ee:	f880 3041 	strb.w	r3, [r0, #65]	; 0x41
 80022f2:	6803      	ldr	r3, [r0, #0]
 80022f4:	681a      	ldr	r2, [r3, #0]
 80022f6:	f022 0201 	bic.w	r2, r2, #1
 80022fa:	601a      	str	r2, [r3, #0]
 80022fc:	681a      	ldr	r2, [r3, #0]
 80022fe:	f422 5280 	bic.w	r2, r2, #4096	; 0x1000
 8002302:	601a      	str	r2, [r3, #0]
 8002304:	681a      	ldr	r2, [r3, #0]
 8002306:	4311      	orrs	r1, r2
 8002308:	6019      	str	r1, [r3, #0]
 800230a:	681a      	ldr	r2, [r3, #0]
 800230c:	f042 0201 	orr.w	r2, r2, #1
 8002310:	601a      	str	r2, [r3, #0]
 8002312:	2300      	movs	r3, #0
 8002314:	f880 4041 	strb.w	r4, [r0, #65]	; 0x41
 8002318:	f880 3040 	strb.w	r3, [r0, #64]	; 0x40
 800231c:	4618      	mov	r0, r3
 800231e:	bd10      	pop	{r4, pc}
 8002320:	2002      	movs	r0, #2
 8002322:	e7fc      	b.n	800231e <HAL_I2CEx_ConfigAnalogFilter+0x46>

08002324 <HAL_I2CEx_ConfigDigitalFilter>:
 8002324:	b510      	push	{r4, lr}
 8002326:	f890 3041 	ldrb.w	r3, [r0, #65]	; 0x41
 800232a:	2b20      	cmp	r3, #32
 800232c:	b2dc      	uxtb	r4, r3
 800232e:	d11c      	bne.n	800236a <HAL_I2CEx_ConfigDigitalFilter+0x46>
 8002330:	f890 3040 	ldrb.w	r3, [r0, #64]	; 0x40
 8002334:	2b01      	cmp	r3, #1
 8002336:	d018      	beq.n	800236a <HAL_I2CEx_ConfigDigitalFilter+0x46>
 8002338:	2324      	movs	r3, #36	; 0x24
 800233a:	f880 3041 	strb.w	r3, [r0, #65]	; 0x41
 800233e:	6803      	ldr	r3, [r0, #0]
 8002340:	681a      	ldr	r2, [r3, #0]
 8002342:	f022 0201 	bic.w	r2, r2, #1
 8002346:	601a      	str	r2, [r3, #0]
 8002348:	681a      	ldr	r2, [r3, #0]
 800234a:	f422 6270 	bic.w	r2, r2, #3840	; 0xf00
 800234e:	ea42 2101 	orr.w	r1, r2, r1, lsl #8
 8002352:	6019      	str	r1, [r3, #0]
 8002354:	681a      	ldr	r2, [r3, #0]
 8002356:	f042 0201 	orr.w	r2, r2, #1
 800235a:	601a      	str	r2, [r3, #0]
 800235c:	2300      	movs	r3, #0
 800235e:	f880 4041 	strb.w	r4, [r0, #65]	; 0x41
 8002362:	f880 3040 	strb.w	r3, [r0, #64]	; 0x40
 8002366:	4618      	mov	r0, r3
 8002368:	bd10      	pop	{r4, pc}
 800236a:	2002      	movs	r0, #2
 800236c:	e7fc      	b.n	8002368 <HAL_I2CEx_ConfigDigitalFilter+0x44>
	...

08002370 <HAL_PWREx_GetVoltageRange>:
 8002370:	4b02      	ldr	r3, [pc, #8]	; (800237c <HAL_PWREx_GetVoltageRange+0xc>)
 8002372:	6818      	ldr	r0, [r3, #0]
 8002374:	f400 60c0 	and.w	r0, r0, #1536	; 0x600
 8002378:	4770      	bx	lr
 800237a:	bf00      	nop
 800237c:	40007000 	.word	0x40007000

08002380 <HAL_PWREx_ControlVoltageScaling>:
 8002380:	4a17      	ldr	r2, [pc, #92]	; (80023e0 <HAL_PWREx_ControlVoltageScaling+0x60>)
 8002382:	6813      	ldr	r3, [r2, #0]
 8002384:	f5b0 7f00 	cmp.w	r0, #512	; 0x200
 8002388:	f403 63c0 	and.w	r3, r3, #1536	; 0x600
 800238c:	d11d      	bne.n	80023ca <HAL_PWREx_ControlVoltageScaling+0x4a>
 800238e:	f5b3 7f00 	cmp.w	r3, #512	; 0x200
 8002392:	d101      	bne.n	8002398 <HAL_PWREx_ControlVoltageScaling+0x18>
 8002394:	2000      	movs	r0, #0
 8002396:	4770      	bx	lr
 8002398:	6813      	ldr	r3, [r2, #0]
 800239a:	f423 63c0 	bic.w	r3, r3, #1536	; 0x600
 800239e:	f443 7300 	orr.w	r3, r3, #512	; 0x200
 80023a2:	6013      	str	r3, [r2, #0]
 80023a4:	4b0f      	ldr	r3, [pc, #60]	; (80023e4 <HAL_PWREx_ControlVoltageScaling+0x64>)
 80023a6:	681b      	ldr	r3, [r3, #0]
 80023a8:	2132      	movs	r1, #50	; 0x32
 80023aa:	434b      	muls	r3, r1
 80023ac:	490e      	ldr	r1, [pc, #56]	; (80023e8 <HAL_PWREx_ControlVoltageScaling+0x68>)
 80023ae:	fbb3 f3f1 	udiv	r3, r3, r1
 80023b2:	3301      	adds	r3, #1
 80023b4:	6951      	ldr	r1, [r2, #20]
 80023b6:	0549      	lsls	r1, r1, #21
 80023b8:	d500      	bpl.n	80023bc <HAL_PWREx_ControlVoltageScaling+0x3c>
 80023ba:	b923      	cbnz	r3, 80023c6 <HAL_PWREx_ControlVoltageScaling+0x46>
 80023bc:	6953      	ldr	r3, [r2, #20]
 80023be:	055b      	lsls	r3, r3, #21
 80023c0:	d5e8      	bpl.n	8002394 <HAL_PWREx_ControlVoltageScaling+0x14>
 80023c2:	2003      	movs	r0, #3
 80023c4:	4770      	bx	lr
 80023c6:	3b01      	subs	r3, #1
 80023c8:	e7f4      	b.n	80023b4 <HAL_PWREx_ControlVoltageScaling+0x34>
 80023ca:	f5b3 6f80 	cmp.w	r3, #1024	; 0x400
 80023ce:	bf1f      	itttt	ne
 80023d0:	6813      	ldrne	r3, [r2, #0]
 80023d2:	f423 63c0 	bicne.w	r3, r3, #1536	; 0x600
 80023d6:	f443 6380 	orrne.w	r3, r3, #1024	; 0x400
 80023da:	6013      	strne	r3, [r2, #0]
 80023dc:	e7da      	b.n	8002394 <HAL_PWREx_ControlVoltageScaling+0x14>
 80023de:	bf00      	nop
 80023e0:	40007000 	.word	0x40007000
 80023e4:	20000000 	.word	0x20000000
 80023e8:	000f4240 	.word	0x000f4240

080023ec <RCC_SetFlashLatencyFromMSIRange>:
 80023ec:	b537      	push	{r0, r1, r2, r4, r5, lr}
 80023ee:	4d1e      	ldr	r5, [pc, #120]	; (8002468 <RCC_SetFlashLatencyFromMSIRange+0x7c>)
 80023f0:	6dab      	ldr	r3, [r5, #88]	; 0x58
 80023f2:	00da      	lsls	r2, r3, #3
 80023f4:	4604      	mov	r4, r0
 80023f6:	d518      	bpl.n	800242a <RCC_SetFlashLatencyFromMSIRange+0x3e>
 80023f8:	f7ff ffba 	bl	8002370 <HAL_PWREx_GetVoltageRange>
 80023fc:	f5b0 7f00 	cmp.w	r0, #512	; 0x200
 8002400:	d123      	bne.n	800244a <RCC_SetFlashLatencyFromMSIRange+0x5e>
 8002402:	2c80      	cmp	r4, #128	; 0x80
 8002404:	d929      	bls.n	800245a <RCC_SetFlashLatencyFromMSIRange+0x6e>
 8002406:	2ca0      	cmp	r4, #160	; 0xa0
 8002408:	bf8c      	ite	hi
 800240a:	2002      	movhi	r0, #2
 800240c:	2001      	movls	r0, #1
 800240e:	4a17      	ldr	r2, [pc, #92]	; (800246c <RCC_SetFlashLatencyFromMSIRange+0x80>)
 8002410:	6813      	ldr	r3, [r2, #0]
 8002412:	f023 0307 	bic.w	r3, r3, #7
 8002416:	4303      	orrs	r3, r0
 8002418:	6013      	str	r3, [r2, #0]
 800241a:	6813      	ldr	r3, [r2, #0]
 800241c:	f003 0307 	and.w	r3, r3, #7
 8002420:	1a18      	subs	r0, r3, r0
 8002422:	bf18      	it	ne
 8002424:	2001      	movne	r0, #1
 8002426:	b003      	add	sp, #12
 8002428:	bd30      	pop	{r4, r5, pc}
 800242a:	6dab      	ldr	r3, [r5, #88]	; 0x58
 800242c:	f043 5380 	orr.w	r3, r3, #268435456	; 0x10000000
 8002430:	65ab      	str	r3, [r5, #88]	; 0x58
 8002432:	6dab      	ldr	r3, [r5, #88]	; 0x58
 8002434:	f003 5380 	and.w	r3, r3, #268435456	; 0x10000000
 8002438:	9301      	str	r3, [sp, #4]
 800243a:	9b01      	ldr	r3, [sp, #4]
 800243c:	f7ff ff98 	bl	8002370 <HAL_PWREx_GetVoltageRange>
 8002440:	6dab      	ldr	r3, [r5, #88]	; 0x58
 8002442:	f023 5380 	bic.w	r3, r3, #268435456	; 0x10000000
 8002446:	65ab      	str	r3, [r5, #88]	; 0x58
 8002448:	e7d8      	b.n	80023fc <RCC_SetFlashLatencyFromMSIRange+0x10>
 800244a:	2c80      	cmp	r4, #128	; 0x80
 800244c:	d807      	bhi.n	800245e <RCC_SetFlashLatencyFromMSIRange+0x72>
 800244e:	d008      	beq.n	8002462 <RCC_SetFlashLatencyFromMSIRange+0x76>
 8002450:	f1a4 0370 	sub.w	r3, r4, #112	; 0x70
 8002454:	4258      	negs	r0, r3
 8002456:	4158      	adcs	r0, r3
 8002458:	e7d9      	b.n	800240e <RCC_SetFlashLatencyFromMSIRange+0x22>
 800245a:	2000      	movs	r0, #0
 800245c:	e7d7      	b.n	800240e <RCC_SetFlashLatencyFromMSIRange+0x22>
 800245e:	2003      	movs	r0, #3
 8002460:	e7d5      	b.n	800240e <RCC_SetFlashLatencyFromMSIRange+0x22>
 8002462:	2002      	movs	r0, #2
 8002464:	e7d3      	b.n	800240e <RCC_SetFlashLatencyFromMSIRange+0x22>
 8002466:	bf00      	nop
 8002468:	40021000 	.word	0x40021000
 800246c:	40022000 	.word	0x40022000

08002470 <HAL_RCC_GetSysClockFreq>:
 8002470:	4b22      	ldr	r3, [pc, #136]	; (80024fc <HAL_RCC_GetSysClockFreq+0x8c>)
 8002472:	689a      	ldr	r2, [r3, #8]
 8002474:	68d9      	ldr	r1, [r3, #12]
 8002476:	f012 020c 	ands.w	r2, r2, #12
 800247a:	d005      	beq.n	8002488 <HAL_RCC_GetSysClockFreq+0x18>
 800247c:	2a0c      	cmp	r2, #12
 800247e:	d115      	bne.n	80024ac <HAL_RCC_GetSysClockFreq+0x3c>
 8002480:	f001 0103 	and.w	r1, r1, #3
 8002484:	2901      	cmp	r1, #1
 8002486:	d118      	bne.n	80024ba <HAL_RCC_GetSysClockFreq+0x4a>
 8002488:	6819      	ldr	r1, [r3, #0]
 800248a:	481d      	ldr	r0, [pc, #116]	; (8002500 <HAL_RCC_GetSysClockFreq+0x90>)
 800248c:	0709      	lsls	r1, r1, #28
 800248e:	bf55      	itete	pl
 8002490:	f8d3 1094 	ldrpl.w	r1, [r3, #148]	; 0x94
 8002494:	6819      	ldrmi	r1, [r3, #0]
 8002496:	f3c1 2103 	ubfxpl	r1, r1, #8, #4
 800249a:	f3c1 1103 	ubfxmi	r1, r1, #4, #4
 800249e:	f850 0021 	ldr.w	r0, [r0, r1, lsl #2]
 80024a2:	b34a      	cbz	r2, 80024f8 <HAL_RCC_GetSysClockFreq+0x88>
 80024a4:	2a0c      	cmp	r2, #12
 80024a6:	d009      	beq.n	80024bc <HAL_RCC_GetSysClockFreq+0x4c>
 80024a8:	2000      	movs	r0, #0
 80024aa:	4770      	bx	lr
 80024ac:	2a04      	cmp	r2, #4
 80024ae:	d022      	beq.n	80024f6 <HAL_RCC_GetSysClockFreq+0x86>
 80024b0:	2a08      	cmp	r2, #8
 80024b2:	4814      	ldr	r0, [pc, #80]	; (8002504 <HAL_RCC_GetSysClockFreq+0x94>)
 80024b4:	bf18      	it	ne
 80024b6:	2000      	movne	r0, #0
 80024b8:	4770      	bx	lr
 80024ba:	2000      	movs	r0, #0
 80024bc:	68da      	ldr	r2, [r3, #12]
 80024be:	f002 0203 	and.w	r2, r2, #3
 80024c2:	2a02      	cmp	r2, #2
 80024c4:	d015      	beq.n	80024f2 <HAL_RCC_GetSysClockFreq+0x82>
 80024c6:	490f      	ldr	r1, [pc, #60]	; (8002504 <HAL_RCC_GetSysClockFreq+0x94>)
 80024c8:	2a03      	cmp	r2, #3
 80024ca:	bf08      	it	eq
 80024cc:	4608      	moveq	r0, r1
 80024ce:	68d9      	ldr	r1, [r3, #12]
 80024d0:	68da      	ldr	r2, [r3, #12]
 80024d2:	f3c2 2206 	ubfx	r2, r2, #8, #7
 80024d6:	4342      	muls	r2, r0
 80024d8:	68d8      	ldr	r0, [r3, #12]
 80024da:	f3c0 6041 	ubfx	r0, r0, #25, #2
 80024de:	f3c1 1102 	ubfx	r1, r1, #4, #3
 80024e2:	3001      	adds	r0, #1
 80024e4:	3101      	adds	r1, #1
 80024e6:	0040      	lsls	r0, r0, #1
 80024e8:	fbb2 f2f1 	udiv	r2, r2, r1
 80024ec:	fbb2 f0f0 	udiv	r0, r2, r0
 80024f0:	4770      	bx	lr
 80024f2:	4805      	ldr	r0, [pc, #20]	; (8002508 <HAL_RCC_GetSysClockFreq+0x98>)
 80024f4:	e7eb      	b.n	80024ce <HAL_RCC_GetSysClockFreq+0x5e>
 80024f6:	4804      	ldr	r0, [pc, #16]	; (8002508 <HAL_RCC_GetSysClockFreq+0x98>)
 80024f8:	4770      	bx	lr
 80024fa:	bf00      	nop
 80024fc:	40021000 	.word	0x40021000
 8002500:	08003f08 	.word	0x08003f08
 8002504:	007a1200 	.word	0x007a1200
 8002508:	00f42400 	.word	0x00f42400

0800250c <HAL_RCC_OscConfig>:
 800250c:	e92d 43f7 	stmdb	sp!, {r0, r1, r2, r4, r5, r6, r7, r8, r9, lr}
 8002510:	4605      	mov	r5, r0
 8002512:	b908      	cbnz	r0, 8002518 <HAL_RCC_OscConfig+0xc>
 8002514:	2001      	movs	r0, #1
 8002516:	e047      	b.n	80025a8 <HAL_RCC_OscConfig+0x9c>
 8002518:	4c94      	ldr	r4, [pc, #592]	; (800276c <HAL_RCC_OscConfig+0x260>)
 800251a:	6803      	ldr	r3, [r0, #0]
 800251c:	68a6      	ldr	r6, [r4, #8]
 800251e:	68e7      	ldr	r7, [r4, #12]
 8002520:	06db      	lsls	r3, r3, #27
 8002522:	f006 060c 	and.w	r6, r6, #12
 8002526:	f007 0703 	and.w	r7, r7, #3
 800252a:	d575      	bpl.n	8002618 <HAL_RCC_OscConfig+0x10c>
 800252c:	b11e      	cbz	r6, 8002536 <HAL_RCC_OscConfig+0x2a>
 800252e:	2e0c      	cmp	r6, #12
 8002530:	d154      	bne.n	80025dc <HAL_RCC_OscConfig+0xd0>
 8002532:	2f01      	cmp	r7, #1
 8002534:	d152      	bne.n	80025dc <HAL_RCC_OscConfig+0xd0>
 8002536:	6823      	ldr	r3, [r4, #0]
 8002538:	0798      	lsls	r0, r3, #30
 800253a:	d502      	bpl.n	8002542 <HAL_RCC_OscConfig+0x36>
 800253c:	69ab      	ldr	r3, [r5, #24]
 800253e:	2b00      	cmp	r3, #0
 8002540:	d0e8      	beq.n	8002514 <HAL_RCC_OscConfig+0x8>
 8002542:	6823      	ldr	r3, [r4, #0]
 8002544:	6a28      	ldr	r0, [r5, #32]
 8002546:	0719      	lsls	r1, r3, #28
 8002548:	bf56      	itet	pl
 800254a:	f8d4 3094 	ldrpl.w	r3, [r4, #148]	; 0x94
 800254e:	6823      	ldrmi	r3, [r4, #0]
 8002550:	091b      	lsrpl	r3, r3, #4
 8002552:	f003 03f0 	and.w	r3, r3, #240	; 0xf0
 8002556:	4298      	cmp	r0, r3
 8002558:	d929      	bls.n	80025ae <HAL_RCC_OscConfig+0xa2>
 800255a:	f7ff ff47 	bl	80023ec <RCC_SetFlashLatencyFromMSIRange>
 800255e:	2800      	cmp	r0, #0
 8002560:	d1d8      	bne.n	8002514 <HAL_RCC_OscConfig+0x8>
 8002562:	6823      	ldr	r3, [r4, #0]
 8002564:	f043 0308 	orr.w	r3, r3, #8
 8002568:	6023      	str	r3, [r4, #0]
 800256a:	6823      	ldr	r3, [r4, #0]
 800256c:	6a2a      	ldr	r2, [r5, #32]
 800256e:	f023 03f0 	bic.w	r3, r3, #240	; 0xf0
 8002572:	4313      	orrs	r3, r2
 8002574:	6023      	str	r3, [r4, #0]
 8002576:	6863      	ldr	r3, [r4, #4]
 8002578:	69ea      	ldr	r2, [r5, #28]
 800257a:	f423 437f 	bic.w	r3, r3, #65280	; 0xff00
 800257e:	ea43 2302 	orr.w	r3, r3, r2, lsl #8
 8002582:	6063      	str	r3, [r4, #4]
 8002584:	f7ff ff74 	bl	8002470 <HAL_RCC_GetSysClockFreq>
 8002588:	68a3      	ldr	r3, [r4, #8]
 800258a:	4a79      	ldr	r2, [pc, #484]	; (8002770 <HAL_RCC_OscConfig+0x264>)
 800258c:	f3c3 1303 	ubfx	r3, r3, #4, #4
 8002590:	5cd3      	ldrb	r3, [r2, r3]
 8002592:	f003 031f 	and.w	r3, r3, #31
 8002596:	40d8      	lsrs	r0, r3
 8002598:	4b76      	ldr	r3, [pc, #472]	; (8002774 <HAL_RCC_OscConfig+0x268>)
 800259a:	6018      	str	r0, [r3, #0]
 800259c:	4b76      	ldr	r3, [pc, #472]	; (8002778 <HAL_RCC_OscConfig+0x26c>)
 800259e:	6818      	ldr	r0, [r3, #0]
 80025a0:	f7fe fb62 	bl	8000c68 <HAL_InitTick>
 80025a4:	2800      	cmp	r0, #0
 80025a6:	d037      	beq.n	8002618 <HAL_RCC_OscConfig+0x10c>
 80025a8:	b003      	add	sp, #12
 80025aa:	e8bd 83f0 	ldmia.w	sp!, {r4, r5, r6, r7, r8, r9, pc}
 80025ae:	6823      	ldr	r3, [r4, #0]
 80025b0:	f043 0308 	orr.w	r3, r3, #8
 80025b4:	6023      	str	r3, [r4, #0]
 80025b6:	6823      	ldr	r3, [r4, #0]
 80025b8:	f023 03f0 	bic.w	r3, r3, #240	; 0xf0
 80025bc:	4303      	orrs	r3, r0
 80025be:	6023      	str	r3, [r4, #0]
 80025c0:	6863      	ldr	r3, [r4, #4]
 80025c2:	69ea      	ldr	r2, [r5, #28]
 80025c4:	f423 437f 	bic.w	r3, r3, #65280	; 0xff00
 80025c8:	ea43 2302 	orr.w	r3, r3, r2, lsl #8
 80025cc:	6063      	str	r3, [r4, #4]
 80025ce:	2e00      	cmp	r6, #0
 80025d0:	d1d8      	bne.n	8002584 <HAL_RCC_OscConfig+0x78>
 80025d2:	f7ff ff0b 	bl	80023ec <RCC_SetFlashLatencyFromMSIRange>
 80025d6:	2800      	cmp	r0, #0
 80025d8:	d0d4      	beq.n	8002584 <HAL_RCC_OscConfig+0x78>
 80025da:	e79b      	b.n	8002514 <HAL_RCC_OscConfig+0x8>
 80025dc:	69ab      	ldr	r3, [r5, #24]
 80025de:	2b00      	cmp	r3, #0
 80025e0:	d03a      	beq.n	8002658 <HAL_RCC_OscConfig+0x14c>
 80025e2:	6823      	ldr	r3, [r4, #0]
 80025e4:	f043 0301 	orr.w	r3, r3, #1
 80025e8:	6023      	str	r3, [r4, #0]
 80025ea:	f7fe fb7f 	bl	8000cec <HAL_GetTick>
 80025ee:	4680      	mov	r8, r0
 80025f0:	6823      	ldr	r3, [r4, #0]
 80025f2:	079a      	lsls	r2, r3, #30
 80025f4:	d528      	bpl.n	8002648 <HAL_RCC_OscConfig+0x13c>
 80025f6:	6823      	ldr	r3, [r4, #0]
 80025f8:	f043 0308 	orr.w	r3, r3, #8
 80025fc:	6023      	str	r3, [r4, #0]
 80025fe:	6823      	ldr	r3, [r4, #0]
 8002600:	6a2a      	ldr	r2, [r5, #32]
 8002602:	f023 03f0 	bic.w	r3, r3, #240	; 0xf0
 8002606:	4313      	orrs	r3, r2
 8002608:	6023      	str	r3, [r4, #0]
 800260a:	6863      	ldr	r3, [r4, #4]
 800260c:	69ea      	ldr	r2, [r5, #28]
 800260e:	f423 437f 	bic.w	r3, r3, #65280	; 0xff00
 8002612:	ea43 2302 	orr.w	r3, r3, r2, lsl #8
 8002616:	6063      	str	r3, [r4, #4]
 8002618:	682b      	ldr	r3, [r5, #0]
 800261a:	07d8      	lsls	r0, r3, #31
 800261c:	d42d      	bmi.n	800267a <HAL_RCC_OscConfig+0x16e>
 800261e:	682b      	ldr	r3, [r5, #0]
 8002620:	0799      	lsls	r1, r3, #30
 8002622:	d46b      	bmi.n	80026fc <HAL_RCC_OscConfig+0x1f0>
 8002624:	682b      	ldr	r3, [r5, #0]
 8002626:	0718      	lsls	r0, r3, #28
 8002628:	f100 80a8 	bmi.w	800277c <HAL_RCC_OscConfig+0x270>
 800262c:	682b      	ldr	r3, [r5, #0]
 800262e:	0759      	lsls	r1, r3, #29
 8002630:	f100 80ce 	bmi.w	80027d0 <HAL_RCC_OscConfig+0x2c4>
 8002634:	682b      	ldr	r3, [r5, #0]
 8002636:	0699      	lsls	r1, r3, #26
 8002638:	f100 8137 	bmi.w	80028aa <HAL_RCC_OscConfig+0x39e>
 800263c:	6aab      	ldr	r3, [r5, #40]	; 0x28
 800263e:	2b00      	cmp	r3, #0
 8002640:	f040 815d 	bne.w	80028fe <HAL_RCC_OscConfig+0x3f2>
 8002644:	2000      	movs	r0, #0
 8002646:	e7af      	b.n	80025a8 <HAL_RCC_OscConfig+0x9c>
 8002648:	f7fe fb50 	bl	8000cec <HAL_GetTick>
 800264c:	eba0 0008 	sub.w	r0, r0, r8
 8002650:	2802      	cmp	r0, #2
 8002652:	d9cd      	bls.n	80025f0 <HAL_RCC_OscConfig+0xe4>
 8002654:	2003      	movs	r0, #3
 8002656:	e7a7      	b.n	80025a8 <HAL_RCC_OscConfig+0x9c>
 8002658:	6823      	ldr	r3, [r4, #0]
 800265a:	f023 0301 	bic.w	r3, r3, #1
 800265e:	6023      	str	r3, [r4, #0]
 8002660:	f7fe fb44 	bl	8000cec <HAL_GetTick>
 8002664:	4680      	mov	r8, r0
 8002666:	6823      	ldr	r3, [r4, #0]
 8002668:	079b      	lsls	r3, r3, #30
 800266a:	d5d5      	bpl.n	8002618 <HAL_RCC_OscConfig+0x10c>
 800266c:	f7fe fb3e 	bl	8000cec <HAL_GetTick>
 8002670:	eba0 0008 	sub.w	r0, r0, r8
 8002674:	2802      	cmp	r0, #2
 8002676:	d9f6      	bls.n	8002666 <HAL_RCC_OscConfig+0x15a>
 8002678:	e7ec      	b.n	8002654 <HAL_RCC_OscConfig+0x148>
 800267a:	2e08      	cmp	r6, #8
 800267c:	d003      	beq.n	8002686 <HAL_RCC_OscConfig+0x17a>
 800267e:	2e0c      	cmp	r6, #12
 8002680:	d108      	bne.n	8002694 <HAL_RCC_OscConfig+0x188>
 8002682:	2f03      	cmp	r7, #3
 8002684:	d106      	bne.n	8002694 <HAL_RCC_OscConfig+0x188>
 8002686:	6823      	ldr	r3, [r4, #0]
 8002688:	039a      	lsls	r2, r3, #14
 800268a:	d5c8      	bpl.n	800261e <HAL_RCC_OscConfig+0x112>
 800268c:	686b      	ldr	r3, [r5, #4]
 800268e:	2b00      	cmp	r3, #0
 8002690:	d1c5      	bne.n	800261e <HAL_RCC_OscConfig+0x112>
 8002692:	e73f      	b.n	8002514 <HAL_RCC_OscConfig+0x8>
 8002694:	686b      	ldr	r3, [r5, #4]
 8002696:	f5b3 3f80 	cmp.w	r3, #65536	; 0x10000
 800269a:	d110      	bne.n	80026be <HAL_RCC_OscConfig+0x1b2>
 800269c:	6823      	ldr	r3, [r4, #0]
 800269e:	f443 3380 	orr.w	r3, r3, #65536	; 0x10000
 80026a2:	6023      	str	r3, [r4, #0]
 80026a4:	f7fe fb22 	bl	8000cec <HAL_GetTick>
 80026a8:	4680      	mov	r8, r0
 80026aa:	6823      	ldr	r3, [r4, #0]
 80026ac:	039b      	lsls	r3, r3, #14
 80026ae:	d4b6      	bmi.n	800261e <HAL_RCC_OscConfig+0x112>
 80026b0:	f7fe fb1c 	bl	8000cec <HAL_GetTick>
 80026b4:	eba0 0008 	sub.w	r0, r0, r8
 80026b8:	2864      	cmp	r0, #100	; 0x64
 80026ba:	d9f6      	bls.n	80026aa <HAL_RCC_OscConfig+0x19e>
 80026bc:	e7ca      	b.n	8002654 <HAL_RCC_OscConfig+0x148>
 80026be:	f5b3 2fa0 	cmp.w	r3, #327680	; 0x50000
 80026c2:	d104      	bne.n	80026ce <HAL_RCC_OscConfig+0x1c2>
 80026c4:	6823      	ldr	r3, [r4, #0]
 80026c6:	f443 2380 	orr.w	r3, r3, #262144	; 0x40000
 80026ca:	6023      	str	r3, [r4, #0]
 80026cc:	e7e6      	b.n	800269c <HAL_RCC_OscConfig+0x190>
 80026ce:	6822      	ldr	r2, [r4, #0]
 80026d0:	f422 3280 	bic.w	r2, r2, #65536	; 0x10000
 80026d4:	6022      	str	r2, [r4, #0]
 80026d6:	6822      	ldr	r2, [r4, #0]
 80026d8:	f422 2280 	bic.w	r2, r2, #262144	; 0x40000
 80026dc:	6022      	str	r2, [r4, #0]
 80026de:	2b00      	cmp	r3, #0
 80026e0:	d1e0      	bne.n	80026a4 <HAL_RCC_OscConfig+0x198>
 80026e2:	f7fe fb03 	bl	8000cec <HAL_GetTick>
 80026e6:	4680      	mov	r8, r0
 80026e8:	6823      	ldr	r3, [r4, #0]
 80026ea:	0398      	lsls	r0, r3, #14
 80026ec:	d597      	bpl.n	800261e <HAL_RCC_OscConfig+0x112>
 80026ee:	f7fe fafd 	bl	8000cec <HAL_GetTick>
 80026f2:	eba0 0008 	sub.w	r0, r0, r8
 80026f6:	2864      	cmp	r0, #100	; 0x64
 80026f8:	d9f6      	bls.n	80026e8 <HAL_RCC_OscConfig+0x1dc>
 80026fa:	e7ab      	b.n	8002654 <HAL_RCC_OscConfig+0x148>
 80026fc:	2e04      	cmp	r6, #4
 80026fe:	d003      	beq.n	8002708 <HAL_RCC_OscConfig+0x1fc>
 8002700:	2e0c      	cmp	r6, #12
 8002702:	d110      	bne.n	8002726 <HAL_RCC_OscConfig+0x21a>
 8002704:	2f02      	cmp	r7, #2
 8002706:	d10e      	bne.n	8002726 <HAL_RCC_OscConfig+0x21a>
 8002708:	6823      	ldr	r3, [r4, #0]
 800270a:	0559      	lsls	r1, r3, #21
 800270c:	d503      	bpl.n	8002716 <HAL_RCC_OscConfig+0x20a>
 800270e:	68eb      	ldr	r3, [r5, #12]
 8002710:	2b00      	cmp	r3, #0
 8002712:	f43f aeff 	beq.w	8002514 <HAL_RCC_OscConfig+0x8>
 8002716:	6863      	ldr	r3, [r4, #4]
 8002718:	692a      	ldr	r2, [r5, #16]
 800271a:	f023 43fe 	bic.w	r3, r3, #2130706432	; 0x7f000000
 800271e:	ea43 6302 	orr.w	r3, r3, r2, lsl #24
 8002722:	6063      	str	r3, [r4, #4]
 8002724:	e77e      	b.n	8002624 <HAL_RCC_OscConfig+0x118>
 8002726:	68eb      	ldr	r3, [r5, #12]
 8002728:	b17b      	cbz	r3, 800274a <HAL_RCC_OscConfig+0x23e>
 800272a:	6823      	ldr	r3, [r4, #0]
 800272c:	f443 7380 	orr.w	r3, r3, #256	; 0x100
 8002730:	6023      	str	r3, [r4, #0]
 8002732:	f7fe fadb 	bl	8000cec <HAL_GetTick>
 8002736:	4607      	mov	r7, r0
 8002738:	6823      	ldr	r3, [r4, #0]
 800273a:	055a      	lsls	r2, r3, #21
 800273c:	d4eb      	bmi.n	8002716 <HAL_RCC_OscConfig+0x20a>
 800273e:	f7fe fad5 	bl	8000cec <HAL_GetTick>
 8002742:	1bc0      	subs	r0, r0, r7
 8002744:	2802      	cmp	r0, #2
 8002746:	d9f7      	bls.n	8002738 <HAL_RCC_OscConfig+0x22c>
 8002748:	e784      	b.n	8002654 <HAL_RCC_OscConfig+0x148>
 800274a:	6823      	ldr	r3, [r4, #0]
 800274c:	f423 7380 	bic.w	r3, r3, #256	; 0x100
 8002750:	6023      	str	r3, [r4, #0]
 8002752:	f7fe facb 	bl	8000cec <HAL_GetTick>
 8002756:	4607      	mov	r7, r0
 8002758:	6823      	ldr	r3, [r4, #0]
 800275a:	055b      	lsls	r3, r3, #21
 800275c:	f57f af62 	bpl.w	8002624 <HAL_RCC_OscConfig+0x118>
 8002760:	f7fe fac4 	bl	8000cec <HAL_GetTick>
 8002764:	1bc0      	subs	r0, r0, r7
 8002766:	2802      	cmp	r0, #2
 8002768:	d9f6      	bls.n	8002758 <HAL_RCC_OscConfig+0x24c>
 800276a:	e773      	b.n	8002654 <HAL_RCC_OscConfig+0x148>
 800276c:	40021000 	.word	0x40021000
 8002770:	08003ef8 	.word	0x08003ef8
 8002774:	20000000 	.word	0x20000000
 8002778:	20000008 	.word	0x20000008
 800277c:	696b      	ldr	r3, [r5, #20]
 800277e:	b19b      	cbz	r3, 80027a8 <HAL_RCC_OscConfig+0x29c>
 8002780:	f8d4 3094 	ldr.w	r3, [r4, #148]	; 0x94
 8002784:	f043 0301 	orr.w	r3, r3, #1
 8002788:	f8c4 3094 	str.w	r3, [r4, #148]	; 0x94
 800278c:	f7fe faae 	bl	8000cec <HAL_GetTick>
 8002790:	4607      	mov	r7, r0
 8002792:	f8d4 3094 	ldr.w	r3, [r4, #148]	; 0x94
 8002796:	079a      	lsls	r2, r3, #30
 8002798:	f53f af48 	bmi.w	800262c <HAL_RCC_OscConfig+0x120>
 800279c:	f7fe faa6 	bl	8000cec <HAL_GetTick>
 80027a0:	1bc0      	subs	r0, r0, r7
 80027a2:	2802      	cmp	r0, #2
 80027a4:	d9f5      	bls.n	8002792 <HAL_RCC_OscConfig+0x286>
 80027a6:	e755      	b.n	8002654 <HAL_RCC_OscConfig+0x148>
 80027a8:	f8d4 3094 	ldr.w	r3, [r4, #148]	; 0x94
 80027ac:	f023 0301 	bic.w	r3, r3, #1
 80027b0:	f8c4 3094 	str.w	r3, [r4, #148]	; 0x94
 80027b4:	f7fe fa9a 	bl	8000cec <HAL_GetTick>
 80027b8:	4607      	mov	r7, r0
 80027ba:	f8d4 3094 	ldr.w	r3, [r4, #148]	; 0x94
 80027be:	079b      	lsls	r3, r3, #30
 80027c0:	f57f af34 	bpl.w	800262c <HAL_RCC_OscConfig+0x120>
 80027c4:	f7fe fa92 	bl	8000cec <HAL_GetTick>
 80027c8:	1bc0      	subs	r0, r0, r7
 80027ca:	2802      	cmp	r0, #2
 80027cc:	d9f5      	bls.n	80027ba <HAL_RCC_OscConfig+0x2ae>
 80027ce:	e741      	b.n	8002654 <HAL_RCC_OscConfig+0x148>
 80027d0:	6da3      	ldr	r3, [r4, #88]	; 0x58
 80027d2:	00d8      	lsls	r0, r3, #3
 80027d4:	d429      	bmi.n	800282a <HAL_RCC_OscConfig+0x31e>
 80027d6:	6da3      	ldr	r3, [r4, #88]	; 0x58
 80027d8:	f043 5380 	orr.w	r3, r3, #268435456	; 0x10000000
 80027dc:	65a3      	str	r3, [r4, #88]	; 0x58
 80027de:	6da3      	ldr	r3, [r4, #88]	; 0x58
 80027e0:	f003 5380 	and.w	r3, r3, #268435456	; 0x10000000
 80027e4:	9301      	str	r3, [sp, #4]
 80027e6:	9b01      	ldr	r3, [sp, #4]
 80027e8:	f04f 0801 	mov.w	r8, #1
 80027ec:	4f96      	ldr	r7, [pc, #600]	; (8002a48 <HAL_RCC_OscConfig+0x53c>)
 80027ee:	683b      	ldr	r3, [r7, #0]
 80027f0:	05d9      	lsls	r1, r3, #23
 80027f2:	d51d      	bpl.n	8002830 <HAL_RCC_OscConfig+0x324>
 80027f4:	68ab      	ldr	r3, [r5, #8]
 80027f6:	2b01      	cmp	r3, #1
 80027f8:	d12b      	bne.n	8002852 <HAL_RCC_OscConfig+0x346>
 80027fa:	f8d4 3090 	ldr.w	r3, [r4, #144]	; 0x90
 80027fe:	f043 0301 	orr.w	r3, r3, #1
 8002802:	f8c4 3090 	str.w	r3, [r4, #144]	; 0x90
 8002806:	f7fe fa71 	bl	8000cec <HAL_GetTick>
 800280a:	f241 3988 	movw	r9, #5000	; 0x1388
 800280e:	4607      	mov	r7, r0
 8002810:	f8d4 3090 	ldr.w	r3, [r4, #144]	; 0x90
 8002814:	079b      	lsls	r3, r3, #30
 8002816:	d542      	bpl.n	800289e <HAL_RCC_OscConfig+0x392>
 8002818:	f1b8 0f00 	cmp.w	r8, #0
 800281c:	f43f af0a 	beq.w	8002634 <HAL_RCC_OscConfig+0x128>
 8002820:	6da3      	ldr	r3, [r4, #88]	; 0x58
 8002822:	f023 5380 	bic.w	r3, r3, #268435456	; 0x10000000
 8002826:	65a3      	str	r3, [r4, #88]	; 0x58
 8002828:	e704      	b.n	8002634 <HAL_RCC_OscConfig+0x128>
 800282a:	f04f 0800 	mov.w	r8, #0
 800282e:	e7dd      	b.n	80027ec <HAL_RCC_OscConfig+0x2e0>
 8002830:	683b      	ldr	r3, [r7, #0]
 8002832:	f443 7380 	orr.w	r3, r3, #256	; 0x100
 8002836:	603b      	str	r3, [r7, #0]
 8002838:	f7fe fa58 	bl	8000cec <HAL_GetTick>
 800283c:	4681      	mov	r9, r0
 800283e:	683b      	ldr	r3, [r7, #0]
 8002840:	05da      	lsls	r2, r3, #23
 8002842:	d4d7      	bmi.n	80027f4 <HAL_RCC_OscConfig+0x2e8>
 8002844:	f7fe fa52 	bl	8000cec <HAL_GetTick>
 8002848:	eba0 0009 	sub.w	r0, r0, r9
 800284c:	2802      	cmp	r0, #2
 800284e:	d9f6      	bls.n	800283e <HAL_RCC_OscConfig+0x332>
 8002850:	e700      	b.n	8002654 <HAL_RCC_OscConfig+0x148>
 8002852:	2b05      	cmp	r3, #5
 8002854:	d106      	bne.n	8002864 <HAL_RCC_OscConfig+0x358>
 8002856:	f8d4 3090 	ldr.w	r3, [r4, #144]	; 0x90
 800285a:	f043 0304 	orr.w	r3, r3, #4
 800285e:	f8c4 3090 	str.w	r3, [r4, #144]	; 0x90
 8002862:	e7ca      	b.n	80027fa <HAL_RCC_OscConfig+0x2ee>
 8002864:	f8d4 2090 	ldr.w	r2, [r4, #144]	; 0x90
 8002868:	f022 0201 	bic.w	r2, r2, #1
 800286c:	f8c4 2090 	str.w	r2, [r4, #144]	; 0x90
 8002870:	f8d4 2090 	ldr.w	r2, [r4, #144]	; 0x90
 8002874:	f022 0204 	bic.w	r2, r2, #4
 8002878:	f8c4 2090 	str.w	r2, [r4, #144]	; 0x90
 800287c:	2b00      	cmp	r3, #0
 800287e:	d1c2      	bne.n	8002806 <HAL_RCC_OscConfig+0x2fa>
 8002880:	f7fe fa34 	bl	8000cec <HAL_GetTick>
 8002884:	f241 3988 	movw	r9, #5000	; 0x1388
 8002888:	4607      	mov	r7, r0
 800288a:	f8d4 3090 	ldr.w	r3, [r4, #144]	; 0x90
 800288e:	0798      	lsls	r0, r3, #30
 8002890:	d5c2      	bpl.n	8002818 <HAL_RCC_OscConfig+0x30c>
 8002892:	f7fe fa2b 	bl	8000cec <HAL_GetTick>
 8002896:	1bc0      	subs	r0, r0, r7
 8002898:	4548      	cmp	r0, r9
 800289a:	d9f6      	bls.n	800288a <HAL_RCC_OscConfig+0x37e>
 800289c:	e6da      	b.n	8002654 <HAL_RCC_OscConfig+0x148>
 800289e:	f7fe fa25 	bl	8000cec <HAL_GetTick>
 80028a2:	1bc0      	subs	r0, r0, r7
 80028a4:	4548      	cmp	r0, r9
 80028a6:	d9b3      	bls.n	8002810 <HAL_RCC_OscConfig+0x304>
 80028a8:	e6d4      	b.n	8002654 <HAL_RCC_OscConfig+0x148>
 80028aa:	6a6b      	ldr	r3, [r5, #36]	; 0x24
 80028ac:	b19b      	cbz	r3, 80028d6 <HAL_RCC_OscConfig+0x3ca>
 80028ae:	f8d4 3098 	ldr.w	r3, [r4, #152]	; 0x98
 80028b2:	f043 0301 	orr.w	r3, r3, #1
 80028b6:	f8c4 3098 	str.w	r3, [r4, #152]	; 0x98
 80028ba:	f7fe fa17 	bl	8000cec <HAL_GetTick>
 80028be:	4607      	mov	r7, r0
 80028c0:	f8d4 3098 	ldr.w	r3, [r4, #152]	; 0x98
 80028c4:	079a      	lsls	r2, r3, #30
 80028c6:	f53f aeb9 	bmi.w	800263c <HAL_RCC_OscConfig+0x130>
 80028ca:	f7fe fa0f 	bl	8000cec <HAL_GetTick>
 80028ce:	1bc0      	subs	r0, r0, r7
 80028d0:	2802      	cmp	r0, #2
 80028d2:	d9f5      	bls.n	80028c0 <HAL_RCC_OscConfig+0x3b4>
 80028d4:	e6be      	b.n	8002654 <HAL_RCC_OscConfig+0x148>
 80028d6:	f8d4 3098 	ldr.w	r3, [r4, #152]	; 0x98
 80028da:	f023 0301 	bic.w	r3, r3, #1
 80028de:	f8c4 3098 	str.w	r3, [r4, #152]	; 0x98
 80028e2:	f7fe fa03 	bl	8000cec <HAL_GetTick>
 80028e6:	4607      	mov	r7, r0
 80028e8:	f8d4 3098 	ldr.w	r3, [r4, #152]	; 0x98
 80028ec:	079b      	lsls	r3, r3, #30
 80028ee:	f57f aea5 	bpl.w	800263c <HAL_RCC_OscConfig+0x130>
 80028f2:	f7fe f9fb 	bl	8000cec <HAL_GetTick>
 80028f6:	1bc0      	subs	r0, r0, r7
 80028f8:	2802      	cmp	r0, #2
 80028fa:	d9f5      	bls.n	80028e8 <HAL_RCC_OscConfig+0x3dc>
 80028fc:	e6aa      	b.n	8002654 <HAL_RCC_OscConfig+0x148>
 80028fe:	2b02      	cmp	r3, #2
 8002900:	f040 8088 	bne.w	8002a14 <HAL_RCC_OscConfig+0x508>
 8002904:	68e3      	ldr	r3, [r4, #12]
 8002906:	6aea      	ldr	r2, [r5, #44]	; 0x2c
 8002908:	f003 0103 	and.w	r1, r3, #3
 800290c:	4291      	cmp	r1, r2
 800290e:	d122      	bne.n	8002956 <HAL_RCC_OscConfig+0x44a>
 8002910:	6b29      	ldr	r1, [r5, #48]	; 0x30
 8002912:	f003 0270 	and.w	r2, r3, #112	; 0x70
 8002916:	3901      	subs	r1, #1
 8002918:	ebb2 1f01 	cmp.w	r2, r1, lsl #4
 800291c:	d11b      	bne.n	8002956 <HAL_RCC_OscConfig+0x44a>
 800291e:	6b69      	ldr	r1, [r5, #52]	; 0x34
 8002920:	f403 42fe 	and.w	r2, r3, #32512	; 0x7f00
 8002924:	ebb2 2f01 	cmp.w	r2, r1, lsl #8
 8002928:	d115      	bne.n	8002956 <HAL_RCC_OscConfig+0x44a>
 800292a:	6ba9      	ldr	r1, [r5, #56]	; 0x38
 800292c:	f003 4278 	and.w	r2, r3, #4160749568	; 0xf8000000
 8002930:	ebb2 6fc1 	cmp.w	r2, r1, lsl #27
 8002934:	d10f      	bne.n	8002956 <HAL_RCC_OscConfig+0x44a>
 8002936:	6bea      	ldr	r2, [r5, #60]	; 0x3c
 8002938:	0852      	lsrs	r2, r2, #1
 800293a:	f403 01c0 	and.w	r1, r3, #6291456	; 0x600000
 800293e:	3a01      	subs	r2, #1
 8002940:	ebb1 5f42 	cmp.w	r1, r2, lsl #21
 8002944:	d107      	bne.n	8002956 <HAL_RCC_OscConfig+0x44a>
 8002946:	6c2a      	ldr	r2, [r5, #64]	; 0x40
 8002948:	0852      	lsrs	r2, r2, #1
 800294a:	f003 63c0 	and.w	r3, r3, #100663296	; 0x6000000
 800294e:	3a01      	subs	r2, #1
 8002950:	ebb3 6f42 	cmp.w	r3, r2, lsl #25
 8002954:	d045      	beq.n	80029e2 <HAL_RCC_OscConfig+0x4d6>
 8002956:	2e0c      	cmp	r6, #12
 8002958:	f43f addc 	beq.w	8002514 <HAL_RCC_OscConfig+0x8>
 800295c:	6823      	ldr	r3, [r4, #0]
 800295e:	015e      	lsls	r6, r3, #5
 8002960:	f53f add8 	bmi.w	8002514 <HAL_RCC_OscConfig+0x8>
 8002964:	6823      	ldr	r3, [r4, #0]
 8002966:	f023 7380 	bic.w	r3, r3, #16777216	; 0x1000000
 800296a:	6023      	str	r3, [r4, #0]
 800296c:	f7fe f9be 	bl	8000cec <HAL_GetTick>
 8002970:	4606      	mov	r6, r0
 8002972:	6823      	ldr	r3, [r4, #0]
 8002974:	0198      	lsls	r0, r3, #6
 8002976:	d42e      	bmi.n	80029d6 <HAL_RCC_OscConfig+0x4ca>
 8002978:	68e2      	ldr	r2, [r4, #12]
 800297a:	4b34      	ldr	r3, [pc, #208]	; (8002a4c <HAL_RCC_OscConfig+0x540>)
 800297c:	4013      	ands	r3, r2
 800297e:	6aea      	ldr	r2, [r5, #44]	; 0x2c
 8002980:	4313      	orrs	r3, r2
 8002982:	6b6a      	ldr	r2, [r5, #52]	; 0x34
 8002984:	ea43 2302 	orr.w	r3, r3, r2, lsl #8
 8002988:	6baa      	ldr	r2, [r5, #56]	; 0x38
 800298a:	ea43 63c2 	orr.w	r3, r3, r2, lsl #27
 800298e:	6b2a      	ldr	r2, [r5, #48]	; 0x30
 8002990:	3a01      	subs	r2, #1
 8002992:	ea43 1302 	orr.w	r3, r3, r2, lsl #4
 8002996:	6bea      	ldr	r2, [r5, #60]	; 0x3c
 8002998:	0852      	lsrs	r2, r2, #1
 800299a:	3a01      	subs	r2, #1
 800299c:	ea43 5342 	orr.w	r3, r3, r2, lsl #21
 80029a0:	6c2a      	ldr	r2, [r5, #64]	; 0x40
 80029a2:	0852      	lsrs	r2, r2, #1
 80029a4:	3a01      	subs	r2, #1
 80029a6:	ea43 6342 	orr.w	r3, r3, r2, lsl #25
 80029aa:	60e3      	str	r3, [r4, #12]
 80029ac:	6823      	ldr	r3, [r4, #0]
 80029ae:	f043 7380 	orr.w	r3, r3, #16777216	; 0x1000000
 80029b2:	6023      	str	r3, [r4, #0]
 80029b4:	68e3      	ldr	r3, [r4, #12]
 80029b6:	f043 7380 	orr.w	r3, r3, #16777216	; 0x1000000
 80029ba:	60e3      	str	r3, [r4, #12]
 80029bc:	f7fe f996 	bl	8000cec <HAL_GetTick>
 80029c0:	4605      	mov	r5, r0
 80029c2:	6823      	ldr	r3, [r4, #0]
 80029c4:	0199      	lsls	r1, r3, #6
 80029c6:	f53f ae3d 	bmi.w	8002644 <HAL_RCC_OscConfig+0x138>
 80029ca:	f7fe f98f 	bl	8000cec <HAL_GetTick>
 80029ce:	1b40      	subs	r0, r0, r5
 80029d0:	2802      	cmp	r0, #2
 80029d2:	d9f6      	bls.n	80029c2 <HAL_RCC_OscConfig+0x4b6>
 80029d4:	e63e      	b.n	8002654 <HAL_RCC_OscConfig+0x148>
 80029d6:	f7fe f989 	bl	8000cec <HAL_GetTick>
 80029da:	1b80      	subs	r0, r0, r6
 80029dc:	2802      	cmp	r0, #2
 80029de:	d9c8      	bls.n	8002972 <HAL_RCC_OscConfig+0x466>
 80029e0:	e638      	b.n	8002654 <HAL_RCC_OscConfig+0x148>
 80029e2:	6823      	ldr	r3, [r4, #0]
 80029e4:	019a      	lsls	r2, r3, #6
 80029e6:	f53f ae2d 	bmi.w	8002644 <HAL_RCC_OscConfig+0x138>
 80029ea:	6823      	ldr	r3, [r4, #0]
 80029ec:	f043 7380 	orr.w	r3, r3, #16777216	; 0x1000000
 80029f0:	6023      	str	r3, [r4, #0]
 80029f2:	68e3      	ldr	r3, [r4, #12]
 80029f4:	f043 7380 	orr.w	r3, r3, #16777216	; 0x1000000
 80029f8:	60e3      	str	r3, [r4, #12]
 80029fa:	f7fe f977 	bl	8000cec <HAL_GetTick>
 80029fe:	4605      	mov	r5, r0
 8002a00:	6823      	ldr	r3, [r4, #0]
 8002a02:	019b      	lsls	r3, r3, #6
 8002a04:	f53f ae1e 	bmi.w	8002644 <HAL_RCC_OscConfig+0x138>
 8002a08:	f7fe f970 	bl	8000cec <HAL_GetTick>
 8002a0c:	1b40      	subs	r0, r0, r5
 8002a0e:	2802      	cmp	r0, #2
 8002a10:	d9f6      	bls.n	8002a00 <HAL_RCC_OscConfig+0x4f4>
 8002a12:	e61f      	b.n	8002654 <HAL_RCC_OscConfig+0x148>
 8002a14:	2e0c      	cmp	r6, #12
 8002a16:	f43f ad7d 	beq.w	8002514 <HAL_RCC_OscConfig+0x8>
 8002a1a:	6823      	ldr	r3, [r4, #0]
 8002a1c:	f023 7380 	bic.w	r3, r3, #16777216	; 0x1000000
 8002a20:	6023      	str	r3, [r4, #0]
 8002a22:	f7fe f963 	bl	8000cec <HAL_GetTick>
 8002a26:	4605      	mov	r5, r0
 8002a28:	6823      	ldr	r3, [r4, #0]
 8002a2a:	f013 7300 	ands.w	r3, r3, #33554432	; 0x2000000
 8002a2e:	d104      	bne.n	8002a3a <HAL_RCC_OscConfig+0x52e>
 8002a30:	68e1      	ldr	r1, [r4, #12]
 8002a32:	4a07      	ldr	r2, [pc, #28]	; (8002a50 <HAL_RCC_OscConfig+0x544>)
 8002a34:	400a      	ands	r2, r1
 8002a36:	60e2      	str	r2, [r4, #12]
 8002a38:	e604      	b.n	8002644 <HAL_RCC_OscConfig+0x138>
 8002a3a:	f7fe f957 	bl	8000cec <HAL_GetTick>
 8002a3e:	1b40      	subs	r0, r0, r5
 8002a40:	2802      	cmp	r0, #2
 8002a42:	d9f1      	bls.n	8002a28 <HAL_RCC_OscConfig+0x51c>
 8002a44:	e606      	b.n	8002654 <HAL_RCC_OscConfig+0x148>
 8002a46:	bf00      	nop
 8002a48:	40007000 	.word	0x40007000
 8002a4c:	019d808c 	.word	0x019d808c
 8002a50:	feeefffc 	.word	0xfeeefffc

08002a54 <HAL_RCC_ClockConfig>:
 8002a54:	e92d 41f0 	stmdb	sp!, {r4, r5, r6, r7, r8, lr}
 8002a58:	460d      	mov	r5, r1
 8002a5a:	4604      	mov	r4, r0
 8002a5c:	b910      	cbnz	r0, 8002a64 <HAL_RCC_ClockConfig+0x10>
 8002a5e:	2001      	movs	r0, #1
 8002a60:	e8bd 81f0 	ldmia.w	sp!, {r4, r5, r6, r7, r8, pc}
 8002a64:	4a4b      	ldr	r2, [pc, #300]	; (8002b94 <HAL_RCC_ClockConfig+0x140>)
 8002a66:	6813      	ldr	r3, [r2, #0]
 8002a68:	f003 0307 	and.w	r3, r3, #7
 8002a6c:	428b      	cmp	r3, r1
 8002a6e:	d32c      	bcc.n	8002aca <HAL_RCC_ClockConfig+0x76>
 8002a70:	6820      	ldr	r0, [r4, #0]
 8002a72:	0786      	lsls	r6, r0, #30
 8002a74:	d434      	bmi.n	8002ae0 <HAL_RCC_ClockConfig+0x8c>
 8002a76:	07c1      	lsls	r1, r0, #31
 8002a78:	d43f      	bmi.n	8002afa <HAL_RCC_ClockConfig+0xa6>
 8002a7a:	6821      	ldr	r1, [r4, #0]
 8002a7c:	078a      	lsls	r2, r1, #30
 8002a7e:	d468      	bmi.n	8002b52 <HAL_RCC_ClockConfig+0xfe>
 8002a80:	4a44      	ldr	r2, [pc, #272]	; (8002b94 <HAL_RCC_ClockConfig+0x140>)
 8002a82:	6813      	ldr	r3, [r2, #0]
 8002a84:	f003 0307 	and.w	r3, r3, #7
 8002a88:	42ab      	cmp	r3, r5
 8002a8a:	d86f      	bhi.n	8002b6c <HAL_RCC_ClockConfig+0x118>
 8002a8c:	f011 0f04 	tst.w	r1, #4
 8002a90:	4d41      	ldr	r5, [pc, #260]	; (8002b98 <HAL_RCC_ClockConfig+0x144>)
 8002a92:	d177      	bne.n	8002b84 <HAL_RCC_ClockConfig+0x130>
 8002a94:	070b      	lsls	r3, r1, #28
 8002a96:	d506      	bpl.n	8002aa6 <HAL_RCC_ClockConfig+0x52>
 8002a98:	68ab      	ldr	r3, [r5, #8]
 8002a9a:	6922      	ldr	r2, [r4, #16]
 8002a9c:	f423 5360 	bic.w	r3, r3, #14336	; 0x3800
 8002aa0:	ea43 03c2 	orr.w	r3, r3, r2, lsl #3
 8002aa4:	60ab      	str	r3, [r5, #8]
 8002aa6:	f7ff fce3 	bl	8002470 <HAL_RCC_GetSysClockFreq>
 8002aaa:	68ab      	ldr	r3, [r5, #8]
 8002aac:	4a3b      	ldr	r2, [pc, #236]	; (8002b9c <HAL_RCC_ClockConfig+0x148>)
 8002aae:	f3c3 1303 	ubfx	r3, r3, #4, #4
 8002ab2:	e8bd 41f0 	ldmia.w	sp!, {r4, r5, r6, r7, r8, lr}
 8002ab6:	5cd3      	ldrb	r3, [r2, r3]
 8002ab8:	f003 031f 	and.w	r3, r3, #31
 8002abc:	40d8      	lsrs	r0, r3
 8002abe:	4b38      	ldr	r3, [pc, #224]	; (8002ba0 <HAL_RCC_ClockConfig+0x14c>)
 8002ac0:	6018      	str	r0, [r3, #0]
 8002ac2:	4b38      	ldr	r3, [pc, #224]	; (8002ba4 <HAL_RCC_ClockConfig+0x150>)
 8002ac4:	6818      	ldr	r0, [r3, #0]
 8002ac6:	f7fe b8cf 	b.w	8000c68 <HAL_InitTick>
 8002aca:	6813      	ldr	r3, [r2, #0]
 8002acc:	f023 0307 	bic.w	r3, r3, #7
 8002ad0:	430b      	orrs	r3, r1
 8002ad2:	6013      	str	r3, [r2, #0]
 8002ad4:	6813      	ldr	r3, [r2, #0]
 8002ad6:	f003 0307 	and.w	r3, r3, #7
 8002ada:	428b      	cmp	r3, r1
 8002adc:	d1bf      	bne.n	8002a5e <HAL_RCC_ClockConfig+0xa>
 8002ade:	e7c7      	b.n	8002a70 <HAL_RCC_ClockConfig+0x1c>
 8002ae0:	4a2d      	ldr	r2, [pc, #180]	; (8002b98 <HAL_RCC_ClockConfig+0x144>)
 8002ae2:	68a6      	ldr	r6, [r4, #8]
 8002ae4:	6891      	ldr	r1, [r2, #8]
 8002ae6:	f001 01f0 	and.w	r1, r1, #240	; 0xf0
 8002aea:	428e      	cmp	r6, r1
 8002aec:	bf81      	itttt	hi
 8002aee:	6893      	ldrhi	r3, [r2, #8]
 8002af0:	f023 03f0 	bichi.w	r3, r3, #240	; 0xf0
 8002af4:	4333      	orrhi	r3, r6
 8002af6:	6093      	strhi	r3, [r2, #8]
 8002af8:	e7bd      	b.n	8002a76 <HAL_RCC_ClockConfig+0x22>
 8002afa:	6862      	ldr	r2, [r4, #4]
 8002afc:	4e26      	ldr	r6, [pc, #152]	; (8002b98 <HAL_RCC_ClockConfig+0x144>)
 8002afe:	2a03      	cmp	r2, #3
 8002b00:	6833      	ldr	r3, [r6, #0]
 8002b02:	d11a      	bne.n	8002b3a <HAL_RCC_ClockConfig+0xe6>
 8002b04:	f013 7f00 	tst.w	r3, #33554432	; 0x2000000
 8002b08:	d0a9      	beq.n	8002a5e <HAL_RCC_ClockConfig+0xa>
 8002b0a:	68b3      	ldr	r3, [r6, #8]
 8002b0c:	f023 0303 	bic.w	r3, r3, #3
 8002b10:	4313      	orrs	r3, r2
 8002b12:	60b3      	str	r3, [r6, #8]
 8002b14:	f7fe f8ea 	bl	8000cec <HAL_GetTick>
 8002b18:	f241 3888 	movw	r8, #5000	; 0x1388
 8002b1c:	4607      	mov	r7, r0
 8002b1e:	68b3      	ldr	r3, [r6, #8]
 8002b20:	6862      	ldr	r2, [r4, #4]
 8002b22:	f003 030c 	and.w	r3, r3, #12
 8002b26:	ebb3 0f82 	cmp.w	r3, r2, lsl #2
 8002b2a:	d0a6      	beq.n	8002a7a <HAL_RCC_ClockConfig+0x26>
 8002b2c:	f7fe f8de 	bl	8000cec <HAL_GetTick>
 8002b30:	1bc0      	subs	r0, r0, r7
 8002b32:	4540      	cmp	r0, r8
 8002b34:	d9f3      	bls.n	8002b1e <HAL_RCC_ClockConfig+0xca>
 8002b36:	2003      	movs	r0, #3
 8002b38:	e792      	b.n	8002a60 <HAL_RCC_ClockConfig+0xc>
 8002b3a:	2a02      	cmp	r2, #2
 8002b3c:	d102      	bne.n	8002b44 <HAL_RCC_ClockConfig+0xf0>
 8002b3e:	f413 3f00 	tst.w	r3, #131072	; 0x20000
 8002b42:	e7e1      	b.n	8002b08 <HAL_RCC_ClockConfig+0xb4>
 8002b44:	b912      	cbnz	r2, 8002b4c <HAL_RCC_ClockConfig+0xf8>
 8002b46:	f013 0f02 	tst.w	r3, #2
 8002b4a:	e7dd      	b.n	8002b08 <HAL_RCC_ClockConfig+0xb4>
 8002b4c:	f413 6f80 	tst.w	r3, #1024	; 0x400
 8002b50:	e7da      	b.n	8002b08 <HAL_RCC_ClockConfig+0xb4>
 8002b52:	4a11      	ldr	r2, [pc, #68]	; (8002b98 <HAL_RCC_ClockConfig+0x144>)
 8002b54:	68a6      	ldr	r6, [r4, #8]
 8002b56:	6890      	ldr	r0, [r2, #8]
 8002b58:	f000 00f0 	and.w	r0, r0, #240	; 0xf0
 8002b5c:	4286      	cmp	r6, r0
 8002b5e:	bf3f      	itttt	cc
 8002b60:	6893      	ldrcc	r3, [r2, #8]
 8002b62:	f023 03f0 	biccc.w	r3, r3, #240	; 0xf0
 8002b66:	4333      	orrcc	r3, r6
 8002b68:	6093      	strcc	r3, [r2, #8]
 8002b6a:	e789      	b.n	8002a80 <HAL_RCC_ClockConfig+0x2c>
 8002b6c:	6813      	ldr	r3, [r2, #0]
 8002b6e:	f023 0307 	bic.w	r3, r3, #7
 8002b72:	432b      	orrs	r3, r5
 8002b74:	6013      	str	r3, [r2, #0]
 8002b76:	6813      	ldr	r3, [r2, #0]
 8002b78:	f003 0307 	and.w	r3, r3, #7
 8002b7c:	42ab      	cmp	r3, r5
 8002b7e:	f47f af6e 	bne.w	8002a5e <HAL_RCC_ClockConfig+0xa>
 8002b82:	e783      	b.n	8002a8c <HAL_RCC_ClockConfig+0x38>
 8002b84:	68ab      	ldr	r3, [r5, #8]
 8002b86:	68e2      	ldr	r2, [r4, #12]
 8002b88:	f423 63e0 	bic.w	r3, r3, #1792	; 0x700
 8002b8c:	4313      	orrs	r3, r2
 8002b8e:	60ab      	str	r3, [r5, #8]
 8002b90:	e780      	b.n	8002a94 <HAL_RCC_ClockConfig+0x40>
 8002b92:	bf00      	nop
 8002b94:	40022000 	.word	0x40022000
 8002b98:	40021000 	.word	0x40021000
 8002b9c:	08003ef8 	.word	0x08003ef8
 8002ba0:	20000000 	.word	0x20000000
 8002ba4:	20000008 	.word	0x20000008

08002ba8 <RCCEx_PLLSAI1_Config>:
 8002ba8:	b5f8      	push	{r3, r4, r5, r6, r7, lr}
 8002baa:	4c43      	ldr	r4, [pc, #268]	; (8002cb8 <RCCEx_PLLSAI1_Config+0x110>)
 8002bac:	6803      	ldr	r3, [r0, #0]
 8002bae:	68e2      	ldr	r2, [r4, #12]
 8002bb0:	4605      	mov	r5, r0
 8002bb2:	0790      	lsls	r0, r2, #30
 8002bb4:	460e      	mov	r6, r1
 8002bb6:	d039      	beq.n	8002c2c <RCCEx_PLLSAI1_Config+0x84>
 8002bb8:	68e2      	ldr	r2, [r4, #12]
 8002bba:	f002 0203 	and.w	r2, r2, #3
 8002bbe:	429a      	cmp	r2, r3
 8002bc0:	d177      	bne.n	8002cb2 <RCCEx_PLLSAI1_Config+0x10a>
 8002bc2:	2a00      	cmp	r2, #0
 8002bc4:	d075      	beq.n	8002cb2 <RCCEx_PLLSAI1_Config+0x10a>
 8002bc6:	68e3      	ldr	r3, [r4, #12]
 8002bc8:	686a      	ldr	r2, [r5, #4]
 8002bca:	f3c3 1302 	ubfx	r3, r3, #4, #3
 8002bce:	3301      	adds	r3, #1
 8002bd0:	4293      	cmp	r3, r2
 8002bd2:	d16e      	bne.n	8002cb2 <RCCEx_PLLSAI1_Config+0x10a>
 8002bd4:	6823      	ldr	r3, [r4, #0]
 8002bd6:	f023 6380 	bic.w	r3, r3, #67108864	; 0x4000000
 8002bda:	6023      	str	r3, [r4, #0]
 8002bdc:	f7fe f886 	bl	8000cec <HAL_GetTick>
 8002be0:	4607      	mov	r7, r0
 8002be2:	6823      	ldr	r3, [r4, #0]
 8002be4:	011a      	lsls	r2, r3, #4
 8002be6:	d440      	bmi.n	8002c6a <RCCEx_PLLSAI1_Config+0xc2>
 8002be8:	68ab      	ldr	r3, [r5, #8]
 8002bea:	0218      	lsls	r0, r3, #8
 8002bec:	2e00      	cmp	r6, #0
 8002bee:	d043      	beq.n	8002c78 <RCCEx_PLLSAI1_Config+0xd0>
 8002bf0:	2e01      	cmp	r6, #1
 8002bf2:	d14c      	bne.n	8002c8e <RCCEx_PLLSAI1_Config+0xe6>
 8002bf4:	692a      	ldr	r2, [r5, #16]
 8002bf6:	6921      	ldr	r1, [r4, #16]
 8002bf8:	0852      	lsrs	r2, r2, #1
 8002bfa:	1e53      	subs	r3, r2, #1
 8002bfc:	f421 02c0 	bic.w	r2, r1, #6291456	; 0x600000
 8002c00:	f422 42fe 	bic.w	r2, r2, #32512	; 0x7f00
 8002c04:	4302      	orrs	r2, r0
 8002c06:	ea42 5243 	orr.w	r2, r2, r3, lsl #21
 8002c0a:	6122      	str	r2, [r4, #16]
 8002c0c:	6823      	ldr	r3, [r4, #0]
 8002c0e:	f043 6380 	orr.w	r3, r3, #67108864	; 0x4000000
 8002c12:	6023      	str	r3, [r4, #0]
 8002c14:	f7fe f86a 	bl	8000cec <HAL_GetTick>
 8002c18:	4606      	mov	r6, r0
 8002c1a:	6823      	ldr	r3, [r4, #0]
 8002c1c:	011b      	lsls	r3, r3, #4
 8002c1e:	d542      	bpl.n	8002ca6 <RCCEx_PLLSAI1_Config+0xfe>
 8002c20:	6923      	ldr	r3, [r4, #16]
 8002c22:	69aa      	ldr	r2, [r5, #24]
 8002c24:	4313      	orrs	r3, r2
 8002c26:	6123      	str	r3, [r4, #16]
 8002c28:	2000      	movs	r0, #0
 8002c2a:	e024      	b.n	8002c76 <RCCEx_PLLSAI1_Config+0xce>
 8002c2c:	2b02      	cmp	r3, #2
 8002c2e:	d011      	beq.n	8002c54 <RCCEx_PLLSAI1_Config+0xac>
 8002c30:	2b03      	cmp	r3, #3
 8002c32:	d013      	beq.n	8002c5c <RCCEx_PLLSAI1_Config+0xb4>
 8002c34:	2b01      	cmp	r3, #1
 8002c36:	d13c      	bne.n	8002cb2 <RCCEx_PLLSAI1_Config+0x10a>
 8002c38:	6822      	ldr	r2, [r4, #0]
 8002c3a:	f012 0f02 	tst.w	r2, #2
 8002c3e:	d038      	beq.n	8002cb2 <RCCEx_PLLSAI1_Config+0x10a>
 8002c40:	68e0      	ldr	r0, [r4, #12]
 8002c42:	686a      	ldr	r2, [r5, #4]
 8002c44:	f020 0073 	bic.w	r0, r0, #115	; 0x73
 8002c48:	3a01      	subs	r2, #1
 8002c4a:	4318      	orrs	r0, r3
 8002c4c:	ea40 1002 	orr.w	r0, r0, r2, lsl #4
 8002c50:	60e0      	str	r0, [r4, #12]
 8002c52:	e7bf      	b.n	8002bd4 <RCCEx_PLLSAI1_Config+0x2c>
 8002c54:	6822      	ldr	r2, [r4, #0]
 8002c56:	f412 6f80 	tst.w	r2, #1024	; 0x400
 8002c5a:	e7f0      	b.n	8002c3e <RCCEx_PLLSAI1_Config+0x96>
 8002c5c:	6822      	ldr	r2, [r4, #0]
 8002c5e:	0391      	lsls	r1, r2, #14
 8002c60:	d4ee      	bmi.n	8002c40 <RCCEx_PLLSAI1_Config+0x98>
 8002c62:	6822      	ldr	r2, [r4, #0]
 8002c64:	f412 2f80 	tst.w	r2, #262144	; 0x40000
 8002c68:	e7e9      	b.n	8002c3e <RCCEx_PLLSAI1_Config+0x96>
 8002c6a:	f7fe f83f 	bl	8000cec <HAL_GetTick>
 8002c6e:	1bc0      	subs	r0, r0, r7
 8002c70:	2802      	cmp	r0, #2
 8002c72:	d9b6      	bls.n	8002be2 <RCCEx_PLLSAI1_Config+0x3a>
 8002c74:	2003      	movs	r0, #3
 8002c76:	bdf8      	pop	{r3, r4, r5, r6, r7, pc}
 8002c78:	6922      	ldr	r2, [r4, #16]
 8002c7a:	68eb      	ldr	r3, [r5, #12]
 8002c7c:	ea40 63c3 	orr.w	r3, r0, r3, lsl #27
 8002c80:	f022 4078 	bic.w	r0, r2, #4160749568	; 0xf8000000
 8002c84:	f420 40fe 	bic.w	r0, r0, #32512	; 0x7f00
 8002c88:	4303      	orrs	r3, r0
 8002c8a:	6123      	str	r3, [r4, #16]
 8002c8c:	e7be      	b.n	8002c0c <RCCEx_PLLSAI1_Config+0x64>
 8002c8e:	696b      	ldr	r3, [r5, #20]
 8002c90:	6922      	ldr	r2, [r4, #16]
 8002c92:	085b      	lsrs	r3, r3, #1
 8002c94:	1e59      	subs	r1, r3, #1
 8002c96:	f022 63c0 	bic.w	r3, r2, #100663296	; 0x6000000
 8002c9a:	f423 43fe 	bic.w	r3, r3, #32512	; 0x7f00
 8002c9e:	4303      	orrs	r3, r0
 8002ca0:	ea43 6341 	orr.w	r3, r3, r1, lsl #25
 8002ca4:	e7f1      	b.n	8002c8a <RCCEx_PLLSAI1_Config+0xe2>
 8002ca6:	f7fe f821 	bl	8000cec <HAL_GetTick>
 8002caa:	1b80      	subs	r0, r0, r6
 8002cac:	2802      	cmp	r0, #2
 8002cae:	d9b4      	bls.n	8002c1a <RCCEx_PLLSAI1_Config+0x72>
 8002cb0:	e7e0      	b.n	8002c74 <RCCEx_PLLSAI1_Config+0xcc>
 8002cb2:	2001      	movs	r0, #1
 8002cb4:	e7df      	b.n	8002c76 <RCCEx_PLLSAI1_Config+0xce>
 8002cb6:	bf00      	nop
 8002cb8:	40021000 	.word	0x40021000

08002cbc <HAL_RCCEx_PeriphCLKConfig>:
 8002cbc:	e92d 43f7 	stmdb	sp!, {r0, r1, r2, r4, r5, r6, r7, r8, r9, lr}
 8002cc0:	6805      	ldr	r5, [r0, #0]
 8002cc2:	f415 6500 	ands.w	r5, r5, #2048	; 0x800
 8002cc6:	4604      	mov	r4, r0
 8002cc8:	d009      	beq.n	8002cde <HAL_RCCEx_PeriphCLKConfig+0x22>
 8002cca:	6cc1      	ldr	r1, [r0, #76]	; 0x4c
 8002ccc:	f5b1 0f00 	cmp.w	r1, #8388608	; 0x800000
 8002cd0:	d035      	beq.n	8002d3e <HAL_RCCEx_PeriphCLKConfig+0x82>
 8002cd2:	f5b1 0f40 	cmp.w	r1, #12582912	; 0xc00000
 8002cd6:	d037      	beq.n	8002d48 <HAL_RCCEx_PeriphCLKConfig+0x8c>
 8002cd8:	2900      	cmp	r1, #0
 8002cda:	d040      	beq.n	8002d5e <HAL_RCCEx_PeriphCLKConfig+0xa2>
 8002cdc:	2501      	movs	r5, #1
 8002cde:	6823      	ldr	r3, [r4, #0]
 8002ce0:	039e      	lsls	r6, r3, #14
 8002ce2:	d551      	bpl.n	8002d88 <HAL_RCCEx_PeriphCLKConfig+0xcc>
 8002ce4:	4eaf      	ldr	r6, [pc, #700]	; (8002fa4 <HAL_RCCEx_PeriphCLKConfig+0x2e8>)
 8002ce6:	6db3      	ldr	r3, [r6, #88]	; 0x58
 8002ce8:	00d8      	lsls	r0, r3, #3
 8002cea:	d43f      	bmi.n	8002d6c <HAL_RCCEx_PeriphCLKConfig+0xb0>
 8002cec:	6db3      	ldr	r3, [r6, #88]	; 0x58
 8002cee:	f043 5380 	orr.w	r3, r3, #268435456	; 0x10000000
 8002cf2:	65b3      	str	r3, [r6, #88]	; 0x58
 8002cf4:	6db3      	ldr	r3, [r6, #88]	; 0x58
 8002cf6:	f003 5380 	and.w	r3, r3, #268435456	; 0x10000000
 8002cfa:	9301      	str	r3, [sp, #4]
 8002cfc:	9b01      	ldr	r3, [sp, #4]
 8002cfe:	2701      	movs	r7, #1
 8002d00:	f8df 82a4 	ldr.w	r8, [pc, #676]	; 8002fa8 <HAL_RCCEx_PeriphCLKConfig+0x2ec>
 8002d04:	f8d8 3000 	ldr.w	r3, [r8]
 8002d08:	f443 7380 	orr.w	r3, r3, #256	; 0x100
 8002d0c:	f8c8 3000 	str.w	r3, [r8]
 8002d10:	f7fd ffec 	bl	8000cec <HAL_GetTick>
 8002d14:	4681      	mov	r9, r0
 8002d16:	f8d8 3000 	ldr.w	r3, [r8]
 8002d1a:	05d9      	lsls	r1, r3, #23
 8002d1c:	d528      	bpl.n	8002d70 <HAL_RCCEx_PeriphCLKConfig+0xb4>
 8002d1e:	bb75      	cbnz	r5, 8002d7e <HAL_RCCEx_PeriphCLKConfig+0xc2>
 8002d20:	f8d6 3090 	ldr.w	r3, [r6, #144]	; 0x90
 8002d24:	f413 7340 	ands.w	r3, r3, #768	; 0x300
 8002d28:	f040 8106 	bne.w	8002f38 <HAL_RCCEx_PeriphCLKConfig+0x27c>
 8002d2c:	f8d6 3090 	ldr.w	r3, [r6, #144]	; 0x90
 8002d30:	6e62      	ldr	r2, [r4, #100]	; 0x64
 8002d32:	f423 7340 	bic.w	r3, r3, #768	; 0x300
 8002d36:	4313      	orrs	r3, r2
 8002d38:	f8c6 3090 	str.w	r3, [r6, #144]	; 0x90
 8002d3c:	e01f      	b.n	8002d7e <HAL_RCCEx_PeriphCLKConfig+0xc2>
 8002d3e:	4a99      	ldr	r2, [pc, #612]	; (8002fa4 <HAL_RCCEx_PeriphCLKConfig+0x2e8>)
 8002d40:	68d3      	ldr	r3, [r2, #12]
 8002d42:	f443 3380 	orr.w	r3, r3, #65536	; 0x10000
 8002d46:	60d3      	str	r3, [r2, #12]
 8002d48:	4a96      	ldr	r2, [pc, #600]	; (8002fa4 <HAL_RCCEx_PeriphCLKConfig+0x2e8>)
 8002d4a:	6ce1      	ldr	r1, [r4, #76]	; 0x4c
 8002d4c:	f8d2 3088 	ldr.w	r3, [r2, #136]	; 0x88
 8002d50:	f423 0340 	bic.w	r3, r3, #12582912	; 0xc00000
 8002d54:	430b      	orrs	r3, r1
 8002d56:	f8c2 3088 	str.w	r3, [r2, #136]	; 0x88
 8002d5a:	2500      	movs	r5, #0
 8002d5c:	e7bf      	b.n	8002cde <HAL_RCCEx_PeriphCLKConfig+0x22>
 8002d5e:	3004      	adds	r0, #4
 8002d60:	f7ff ff22 	bl	8002ba8 <RCCEx_PLLSAI1_Config>
 8002d64:	4605      	mov	r5, r0
 8002d66:	2800      	cmp	r0, #0
 8002d68:	d1b9      	bne.n	8002cde <HAL_RCCEx_PeriphCLKConfig+0x22>
 8002d6a:	e7ed      	b.n	8002d48 <HAL_RCCEx_PeriphCLKConfig+0x8c>
 8002d6c:	2700      	movs	r7, #0
 8002d6e:	e7c7      	b.n	8002d00 <HAL_RCCEx_PeriphCLKConfig+0x44>
 8002d70:	f7fd ffbc 	bl	8000cec <HAL_GetTick>
 8002d74:	eba0 0009 	sub.w	r0, r0, r9
 8002d78:	2802      	cmp	r0, #2
 8002d7a:	d9cc      	bls.n	8002d16 <HAL_RCCEx_PeriphCLKConfig+0x5a>
 8002d7c:	2503      	movs	r5, #3
 8002d7e:	b11f      	cbz	r7, 8002d88 <HAL_RCCEx_PeriphCLKConfig+0xcc>
 8002d80:	6db3      	ldr	r3, [r6, #88]	; 0x58
 8002d82:	f023 5380 	bic.w	r3, r3, #268435456	; 0x10000000
 8002d86:	65b3      	str	r3, [r6, #88]	; 0x58
 8002d88:	6823      	ldr	r3, [r4, #0]
 8002d8a:	07df      	lsls	r7, r3, #31
 8002d8c:	d508      	bpl.n	8002da0 <HAL_RCCEx_PeriphCLKConfig+0xe4>
 8002d8e:	4985      	ldr	r1, [pc, #532]	; (8002fa4 <HAL_RCCEx_PeriphCLKConfig+0x2e8>)
 8002d90:	6a20      	ldr	r0, [r4, #32]
 8002d92:	f8d1 2088 	ldr.w	r2, [r1, #136]	; 0x88
 8002d96:	f022 0203 	bic.w	r2, r2, #3
 8002d9a:	4302      	orrs	r2, r0
 8002d9c:	f8c1 2088 	str.w	r2, [r1, #136]	; 0x88
 8002da0:	079e      	lsls	r6, r3, #30
 8002da2:	d508      	bpl.n	8002db6 <HAL_RCCEx_PeriphCLKConfig+0xfa>
 8002da4:	497f      	ldr	r1, [pc, #508]	; (8002fa4 <HAL_RCCEx_PeriphCLKConfig+0x2e8>)
 8002da6:	6a60      	ldr	r0, [r4, #36]	; 0x24
 8002da8:	f8d1 2088 	ldr.w	r2, [r1, #136]	; 0x88
 8002dac:	f022 020c 	bic.w	r2, r2, #12
 8002db0:	4302      	orrs	r2, r0
 8002db2:	f8c1 2088 	str.w	r2, [r1, #136]	; 0x88
 8002db6:	0758      	lsls	r0, r3, #29
 8002db8:	d508      	bpl.n	8002dcc <HAL_RCCEx_PeriphCLKConfig+0x110>
 8002dba:	497a      	ldr	r1, [pc, #488]	; (8002fa4 <HAL_RCCEx_PeriphCLKConfig+0x2e8>)
 8002dbc:	6aa0      	ldr	r0, [r4, #40]	; 0x28
 8002dbe:	f8d1 2088 	ldr.w	r2, [r1, #136]	; 0x88
 8002dc2:	f022 0230 	bic.w	r2, r2, #48	; 0x30
 8002dc6:	4302      	orrs	r2, r0
 8002dc8:	f8c1 2088 	str.w	r2, [r1, #136]	; 0x88
 8002dcc:	0719      	lsls	r1, r3, #28
 8002dce:	d508      	bpl.n	8002de2 <HAL_RCCEx_PeriphCLKConfig+0x126>
 8002dd0:	4974      	ldr	r1, [pc, #464]	; (8002fa4 <HAL_RCCEx_PeriphCLKConfig+0x2e8>)
 8002dd2:	6ae0      	ldr	r0, [r4, #44]	; 0x2c
 8002dd4:	f8d1 2088 	ldr.w	r2, [r1, #136]	; 0x88
 8002dd8:	f022 02c0 	bic.w	r2, r2, #192	; 0xc0
 8002ddc:	4302      	orrs	r2, r0
 8002dde:	f8c1 2088 	str.w	r2, [r1, #136]	; 0x88
 8002de2:	069a      	lsls	r2, r3, #26
 8002de4:	d508      	bpl.n	8002df8 <HAL_RCCEx_PeriphCLKConfig+0x13c>
 8002de6:	496f      	ldr	r1, [pc, #444]	; (8002fa4 <HAL_RCCEx_PeriphCLKConfig+0x2e8>)
 8002de8:	6b20      	ldr	r0, [r4, #48]	; 0x30
 8002dea:	f8d1 2088 	ldr.w	r2, [r1, #136]	; 0x88
 8002dee:	f422 6240 	bic.w	r2, r2, #3072	; 0xc00
 8002df2:	4302      	orrs	r2, r0
 8002df4:	f8c1 2088 	str.w	r2, [r1, #136]	; 0x88
 8002df8:	059f      	lsls	r7, r3, #22
 8002dfa:	d508      	bpl.n	8002e0e <HAL_RCCEx_PeriphCLKConfig+0x152>
 8002dfc:	4969      	ldr	r1, [pc, #420]	; (8002fa4 <HAL_RCCEx_PeriphCLKConfig+0x2e8>)
 8002dfe:	6c60      	ldr	r0, [r4, #68]	; 0x44
 8002e00:	f8d1 2088 	ldr.w	r2, [r1, #136]	; 0x88
 8002e04:	f422 2240 	bic.w	r2, r2, #786432	; 0xc0000
 8002e08:	4302      	orrs	r2, r0
 8002e0a:	f8c1 2088 	str.w	r2, [r1, #136]	; 0x88
 8002e0e:	055e      	lsls	r6, r3, #21
 8002e10:	d508      	bpl.n	8002e24 <HAL_RCCEx_PeriphCLKConfig+0x168>
 8002e12:	4964      	ldr	r1, [pc, #400]	; (8002fa4 <HAL_RCCEx_PeriphCLKConfig+0x2e8>)
 8002e14:	6ca0      	ldr	r0, [r4, #72]	; 0x48
 8002e16:	f8d1 2088 	ldr.w	r2, [r1, #136]	; 0x88
 8002e1a:	f422 1240 	bic.w	r2, r2, #3145728	; 0x300000
 8002e1e:	4302      	orrs	r2, r0
 8002e20:	f8c1 2088 	str.w	r2, [r1, #136]	; 0x88
 8002e24:	0658      	lsls	r0, r3, #25
 8002e26:	d508      	bpl.n	8002e3a <HAL_RCCEx_PeriphCLKConfig+0x17e>
 8002e28:	495e      	ldr	r1, [pc, #376]	; (8002fa4 <HAL_RCCEx_PeriphCLKConfig+0x2e8>)
 8002e2a:	6b60      	ldr	r0, [r4, #52]	; 0x34
 8002e2c:	f8d1 2088 	ldr.w	r2, [r1, #136]	; 0x88
 8002e30:	f422 5240 	bic.w	r2, r2, #12288	; 0x3000
 8002e34:	4302      	orrs	r2, r0
 8002e36:	f8c1 2088 	str.w	r2, [r1, #136]	; 0x88
 8002e3a:	0619      	lsls	r1, r3, #24
 8002e3c:	d508      	bpl.n	8002e50 <HAL_RCCEx_PeriphCLKConfig+0x194>
 8002e3e:	4959      	ldr	r1, [pc, #356]	; (8002fa4 <HAL_RCCEx_PeriphCLKConfig+0x2e8>)
 8002e40:	6ba0      	ldr	r0, [r4, #56]	; 0x38
 8002e42:	f8d1 2088 	ldr.w	r2, [r1, #136]	; 0x88
 8002e46:	f422 4240 	bic.w	r2, r2, #49152	; 0xc000
 8002e4a:	4302      	orrs	r2, r0
 8002e4c:	f8c1 2088 	str.w	r2, [r1, #136]	; 0x88
 8002e50:	05da      	lsls	r2, r3, #23
 8002e52:	d508      	bpl.n	8002e66 <HAL_RCCEx_PeriphCLKConfig+0x1aa>
 8002e54:	4953      	ldr	r1, [pc, #332]	; (8002fa4 <HAL_RCCEx_PeriphCLKConfig+0x2e8>)
 8002e56:	6be0      	ldr	r0, [r4, #60]	; 0x3c
 8002e58:	f8d1 2088 	ldr.w	r2, [r1, #136]	; 0x88
 8002e5c:	f422 3240 	bic.w	r2, r2, #196608	; 0x30000
 8002e60:	4302      	orrs	r2, r0
 8002e62:	f8c1 2088 	str.w	r2, [r1, #136]	; 0x88
 8002e66:	02df      	lsls	r7, r3, #11
 8002e68:	d508      	bpl.n	8002e7c <HAL_RCCEx_PeriphCLKConfig+0x1c0>
 8002e6a:	494e      	ldr	r1, [pc, #312]	; (8002fa4 <HAL_RCCEx_PeriphCLKConfig+0x2e8>)
 8002e6c:	6c20      	ldr	r0, [r4, #64]	; 0x40
 8002e6e:	f8d1 209c 	ldr.w	r2, [r1, #156]	; 0x9c
 8002e72:	f022 0203 	bic.w	r2, r2, #3
 8002e76:	4302      	orrs	r2, r0
 8002e78:	f8c1 209c 	str.w	r2, [r1, #156]	; 0x9c
 8002e7c:	049e      	lsls	r6, r3, #18
 8002e7e:	d50f      	bpl.n	8002ea0 <HAL_RCCEx_PeriphCLKConfig+0x1e4>
 8002e80:	4a48      	ldr	r2, [pc, #288]	; (8002fa4 <HAL_RCCEx_PeriphCLKConfig+0x2e8>)
 8002e82:	6d21      	ldr	r1, [r4, #80]	; 0x50
 8002e84:	f8d2 3088 	ldr.w	r3, [r2, #136]	; 0x88
 8002e88:	f023 6340 	bic.w	r3, r3, #201326592	; 0xc000000
 8002e8c:	430b      	orrs	r3, r1
 8002e8e:	f1b1 6f00 	cmp.w	r1, #134217728	; 0x8000000
 8002e92:	f8c2 3088 	str.w	r3, [r2, #136]	; 0x88
 8002e96:	d179      	bne.n	8002f8c <HAL_RCCEx_PeriphCLKConfig+0x2d0>
 8002e98:	68d3      	ldr	r3, [r2, #12]
 8002e9a:	f443 1380 	orr.w	r3, r3, #1048576	; 0x100000
 8002e9e:	60d3      	str	r3, [r2, #12]
 8002ea0:	6823      	ldr	r3, [r4, #0]
 8002ea2:	0318      	lsls	r0, r3, #12
 8002ea4:	d50f      	bpl.n	8002ec6 <HAL_RCCEx_PeriphCLKConfig+0x20a>
 8002ea6:	4a3f      	ldr	r2, [pc, #252]	; (8002fa4 <HAL_RCCEx_PeriphCLKConfig+0x2e8>)
 8002ea8:	6d61      	ldr	r1, [r4, #84]	; 0x54
 8002eaa:	f8d2 3088 	ldr.w	r3, [r2, #136]	; 0x88
 8002eae:	f023 6340 	bic.w	r3, r3, #201326592	; 0xc000000
 8002eb2:	430b      	orrs	r3, r1
 8002eb4:	f1b1 6f00 	cmp.w	r1, #134217728	; 0x8000000
 8002eb8:	f8c2 3088 	str.w	r3, [r2, #136]	; 0x88
 8002ebc:	d176      	bne.n	8002fac <HAL_RCCEx_PeriphCLKConfig+0x2f0>
 8002ebe:	68d3      	ldr	r3, [r2, #12]
 8002ec0:	f443 1380 	orr.w	r3, r3, #1048576	; 0x100000
 8002ec4:	60d3      	str	r3, [r2, #12]
 8002ec6:	6823      	ldr	r3, [r4, #0]
 8002ec8:	0359      	lsls	r1, r3, #13
 8002eca:	d50f      	bpl.n	8002eec <HAL_RCCEx_PeriphCLKConfig+0x230>
 8002ecc:	4a35      	ldr	r2, [pc, #212]	; (8002fa4 <HAL_RCCEx_PeriphCLKConfig+0x2e8>)
 8002ece:	6da1      	ldr	r1, [r4, #88]	; 0x58
 8002ed0:	f8d2 3088 	ldr.w	r3, [r2, #136]	; 0x88
 8002ed4:	f023 6340 	bic.w	r3, r3, #201326592	; 0xc000000
 8002ed8:	430b      	orrs	r3, r1
 8002eda:	f1b1 6f00 	cmp.w	r1, #134217728	; 0x8000000
 8002ede:	f8c2 3088 	str.w	r3, [r2, #136]	; 0x88
 8002ee2:	d16e      	bne.n	8002fc2 <HAL_RCCEx_PeriphCLKConfig+0x306>
 8002ee4:	68d3      	ldr	r3, [r2, #12]
 8002ee6:	f443 1380 	orr.w	r3, r3, #1048576	; 0x100000
 8002eea:	60d3      	str	r3, [r2, #12]
 8002eec:	6823      	ldr	r3, [r4, #0]
 8002eee:	045a      	lsls	r2, r3, #17
 8002ef0:	d512      	bpl.n	8002f18 <HAL_RCCEx_PeriphCLKConfig+0x25c>
 8002ef2:	492c      	ldr	r1, [pc, #176]	; (8002fa4 <HAL_RCCEx_PeriphCLKConfig+0x2e8>)
 8002ef4:	6de2      	ldr	r2, [r4, #92]	; 0x5c
 8002ef6:	f8d1 3088 	ldr.w	r3, [r1, #136]	; 0x88
 8002efa:	f023 5340 	bic.w	r3, r3, #805306368	; 0x30000000
 8002efe:	4313      	orrs	r3, r2
 8002f00:	f1b2 5f80 	cmp.w	r2, #268435456	; 0x10000000
 8002f04:	f8c1 3088 	str.w	r3, [r1, #136]	; 0x88
 8002f08:	d106      	bne.n	8002f18 <HAL_RCCEx_PeriphCLKConfig+0x25c>
 8002f0a:	2102      	movs	r1, #2
 8002f0c:	1d20      	adds	r0, r4, #4
 8002f0e:	f7ff fe4b 	bl	8002ba8 <RCCEx_PLLSAI1_Config>
 8002f12:	2800      	cmp	r0, #0
 8002f14:	bf18      	it	ne
 8002f16:	4605      	movne	r5, r0
 8002f18:	6823      	ldr	r3, [r4, #0]
 8002f1a:	03db      	lsls	r3, r3, #15
 8002f1c:	d508      	bpl.n	8002f30 <HAL_RCCEx_PeriphCLKConfig+0x274>
 8002f1e:	4a21      	ldr	r2, [pc, #132]	; (8002fa4 <HAL_RCCEx_PeriphCLKConfig+0x2e8>)
 8002f20:	6e21      	ldr	r1, [r4, #96]	; 0x60
 8002f22:	f8d2 3088 	ldr.w	r3, [r2, #136]	; 0x88
 8002f26:	f023 4300 	bic.w	r3, r3, #2147483648	; 0x80000000
 8002f2a:	430b      	orrs	r3, r1
 8002f2c:	f8c2 3088 	str.w	r3, [r2, #136]	; 0x88
 8002f30:	4628      	mov	r0, r5
 8002f32:	b003      	add	sp, #12
 8002f34:	e8bd 83f0 	ldmia.w	sp!, {r4, r5, r6, r7, r8, r9, pc}
 8002f38:	6e62      	ldr	r2, [r4, #100]	; 0x64
 8002f3a:	4293      	cmp	r3, r2
 8002f3c:	f43f aef6 	beq.w	8002d2c <HAL_RCCEx_PeriphCLKConfig+0x70>
 8002f40:	f8d6 2090 	ldr.w	r2, [r6, #144]	; 0x90
 8002f44:	f8d6 3090 	ldr.w	r3, [r6, #144]	; 0x90
 8002f48:	f443 3380 	orr.w	r3, r3, #65536	; 0x10000
 8002f4c:	f8c6 3090 	str.w	r3, [r6, #144]	; 0x90
 8002f50:	f8d6 3090 	ldr.w	r3, [r6, #144]	; 0x90
 8002f54:	f422 7140 	bic.w	r1, r2, #768	; 0x300
 8002f58:	f423 3380 	bic.w	r3, r3, #65536	; 0x10000
 8002f5c:	07d2      	lsls	r2, r2, #31
 8002f5e:	f8c6 3090 	str.w	r3, [r6, #144]	; 0x90
 8002f62:	f8c6 1090 	str.w	r1, [r6, #144]	; 0x90
 8002f66:	f57f aee1 	bpl.w	8002d2c <HAL_RCCEx_PeriphCLKConfig+0x70>
 8002f6a:	f7fd febf 	bl	8000cec <HAL_GetTick>
 8002f6e:	f241 3988 	movw	r9, #5000	; 0x1388
 8002f72:	4680      	mov	r8, r0
 8002f74:	f8d6 3090 	ldr.w	r3, [r6, #144]	; 0x90
 8002f78:	079b      	lsls	r3, r3, #30
 8002f7a:	f53f aed7 	bmi.w	8002d2c <HAL_RCCEx_PeriphCLKConfig+0x70>
 8002f7e:	f7fd feb5 	bl	8000cec <HAL_GetTick>
 8002f82:	eba0 0008 	sub.w	r0, r0, r8
 8002f86:	4548      	cmp	r0, r9
 8002f88:	d9f4      	bls.n	8002f74 <HAL_RCCEx_PeriphCLKConfig+0x2b8>
 8002f8a:	e6f7      	b.n	8002d7c <HAL_RCCEx_PeriphCLKConfig+0xc0>
 8002f8c:	f1b1 6f80 	cmp.w	r1, #67108864	; 0x4000000
 8002f90:	d186      	bne.n	8002ea0 <HAL_RCCEx_PeriphCLKConfig+0x1e4>
 8002f92:	2101      	movs	r1, #1
 8002f94:	1d20      	adds	r0, r4, #4
 8002f96:	f7ff fe07 	bl	8002ba8 <RCCEx_PLLSAI1_Config>
 8002f9a:	2800      	cmp	r0, #0
 8002f9c:	bf18      	it	ne
 8002f9e:	4605      	movne	r5, r0
 8002fa0:	e77e      	b.n	8002ea0 <HAL_RCCEx_PeriphCLKConfig+0x1e4>
 8002fa2:	bf00      	nop
 8002fa4:	40021000 	.word	0x40021000
 8002fa8:	40007000 	.word	0x40007000
 8002fac:	f1b1 6f80 	cmp.w	r1, #67108864	; 0x4000000
 8002fb0:	d189      	bne.n	8002ec6 <HAL_RCCEx_PeriphCLKConfig+0x20a>
 8002fb2:	2101      	movs	r1, #1
 8002fb4:	1d20      	adds	r0, r4, #4
 8002fb6:	f7ff fdf7 	bl	8002ba8 <RCCEx_PLLSAI1_Config>
 8002fba:	2800      	cmp	r0, #0
 8002fbc:	bf18      	it	ne
 8002fbe:	4605      	movne	r5, r0
 8002fc0:	e781      	b.n	8002ec6 <HAL_RCCEx_PeriphCLKConfig+0x20a>
 8002fc2:	f1b1 6f80 	cmp.w	r1, #67108864	; 0x4000000
 8002fc6:	d191      	bne.n	8002eec <HAL_RCCEx_PeriphCLKConfig+0x230>
 8002fc8:	2101      	movs	r1, #1
 8002fca:	1d20      	adds	r0, r4, #4
 8002fcc:	f7ff fdec 	bl	8002ba8 <RCCEx_PLLSAI1_Config>
 8002fd0:	2800      	cmp	r0, #0
 8002fd2:	bf18      	it	ne
 8002fd4:	4605      	movne	r5, r0
 8002fd6:	e789      	b.n	8002eec <HAL_RCCEx_PeriphCLKConfig+0x230>

08002fd8 <SPI_WaitFifoStateUntilTimeout.constprop.0>:
 8002fd8:	e92d 43f7 	stmdb	sp!, {r0, r1, r2, r4, r5, r6, r7, r8, r9, lr}
 8002fdc:	4698      	mov	r8, r3
 8002fde:	2300      	movs	r3, #0
 8002fe0:	4617      	mov	r7, r2
 8002fe2:	f88d 3003 	strb.w	r3, [sp, #3]
 8002fe6:	4605      	mov	r5, r0
 8002fe8:	460e      	mov	r6, r1
 8002fea:	f7fd fe7f 	bl	8000cec <HAL_GetTick>
 8002fee:	44b8      	add	r8, r7
 8002ff0:	eba8 0400 	sub.w	r4, r8, r0
 8002ff4:	f7fd fe7a 	bl	8000cec <HAL_GetTick>
 8002ff8:	4b29      	ldr	r3, [pc, #164]	; (80030a0 <SPI_WaitFifoStateUntilTimeout.constprop.0+0xc8>)
 8002ffa:	f8d5 9000 	ldr.w	r9, [r5]
 8002ffe:	681b      	ldr	r3, [r3, #0]
 8003000:	2223      	movs	r2, #35	; 0x23
 8003002:	4353      	muls	r3, r2
 8003004:	0d1b      	lsrs	r3, r3, #20
 8003006:	4680      	mov	r8, r0
 8003008:	4363      	muls	r3, r4
 800300a:	682a      	ldr	r2, [r5, #0]
 800300c:	9301      	str	r3, [sp, #4]
 800300e:	6893      	ldr	r3, [r2, #8]
 8003010:	4033      	ands	r3, r6
 8003012:	d101      	bne.n	8003018 <SPI_WaitFifoStateUntilTimeout.constprop.0+0x40>
 8003014:	4618      	mov	r0, r3
 8003016:	e038      	b.n	800308a <SPI_WaitFifoStateUntilTimeout.constprop.0+0xb2>
 8003018:	f5b6 6fc0 	cmp.w	r6, #1536	; 0x600
 800301c:	bf01      	itttt	eq
 800301e:	f899 300c 	ldrbeq.w	r3, [r9, #12]
 8003022:	b2db      	uxtbeq	r3, r3
 8003024:	f88d 3003 	strbeq.w	r3, [sp, #3]
 8003028:	f89d 3003 	ldrbeq.w	r3, [sp, #3]
 800302c:	1c7b      	adds	r3, r7, #1
 800302e:	d0ee      	beq.n	800300e <SPI_WaitFifoStateUntilTimeout.constprop.0+0x36>
 8003030:	f7fd fe5c 	bl	8000cec <HAL_GetTick>
 8003034:	eba0 0008 	sub.w	r0, r0, r8
 8003038:	42a0      	cmp	r0, r4
 800303a:	d329      	bcc.n	8003090 <SPI_WaitFifoStateUntilTimeout.constprop.0+0xb8>
 800303c:	682b      	ldr	r3, [r5, #0]
 800303e:	685a      	ldr	r2, [r3, #4]
 8003040:	f022 02e0 	bic.w	r2, r2, #224	; 0xe0
 8003044:	605a      	str	r2, [r3, #4]
 8003046:	686a      	ldr	r2, [r5, #4]
 8003048:	f5b2 7f82 	cmp.w	r2, #260	; 0x104
 800304c:	d10a      	bne.n	8003064 <SPI_WaitFifoStateUntilTimeout.constprop.0+0x8c>
 800304e:	68aa      	ldr	r2, [r5, #8]
 8003050:	f5b2 4f00 	cmp.w	r2, #32768	; 0x8000
 8003054:	d002      	beq.n	800305c <SPI_WaitFifoStateUntilTimeout.constprop.0+0x84>
 8003056:	f5b2 6f80 	cmp.w	r2, #1024	; 0x400
 800305a:	d103      	bne.n	8003064 <SPI_WaitFifoStateUntilTimeout.constprop.0+0x8c>
 800305c:	681a      	ldr	r2, [r3, #0]
 800305e:	f022 0240 	bic.w	r2, r2, #64	; 0x40
 8003062:	601a      	str	r2, [r3, #0]
 8003064:	6aaa      	ldr	r2, [r5, #40]	; 0x28
 8003066:	f5b2 5f00 	cmp.w	r2, #8192	; 0x2000
 800306a:	d107      	bne.n	800307c <SPI_WaitFifoStateUntilTimeout.constprop.0+0xa4>
 800306c:	681a      	ldr	r2, [r3, #0]
 800306e:	f422 5200 	bic.w	r2, r2, #8192	; 0x2000
 8003072:	601a      	str	r2, [r3, #0]
 8003074:	681a      	ldr	r2, [r3, #0]
 8003076:	f442 5200 	orr.w	r2, r2, #8192	; 0x2000
 800307a:	601a      	str	r2, [r3, #0]
 800307c:	2301      	movs	r3, #1
 800307e:	f885 305d 	strb.w	r3, [r5, #93]	; 0x5d
 8003082:	2300      	movs	r3, #0
 8003084:	f885 305c 	strb.w	r3, [r5, #92]	; 0x5c
 8003088:	2003      	movs	r0, #3
 800308a:	b003      	add	sp, #12
 800308c:	e8bd 83f0 	ldmia.w	sp!, {r4, r5, r6, r7, r8, r9, pc}
 8003090:	9b01      	ldr	r3, [sp, #4]
 8003092:	2b00      	cmp	r3, #0
 8003094:	9b01      	ldr	r3, [sp, #4]
 8003096:	bf08      	it	eq
 8003098:	2400      	moveq	r4, #0
 800309a:	3b01      	subs	r3, #1
 800309c:	e7b5      	b.n	800300a <SPI_WaitFifoStateUntilTimeout.constprop.0+0x32>
 800309e:	bf00      	nop
 80030a0:	20000000 	.word	0x20000000

080030a4 <SPI_WaitFlagStateUntilTimeout.constprop.0>:
 80030a4:	b5f7      	push	{r0, r1, r2, r4, r5, r6, r7, lr}
 80030a6:	460e      	mov	r6, r1
 80030a8:	4617      	mov	r7, r2
 80030aa:	4605      	mov	r5, r0
 80030ac:	f7fd fe1e 	bl	8000cec <HAL_GetTick>
 80030b0:	4437      	add	r7, r6
 80030b2:	1a3c      	subs	r4, r7, r0
 80030b4:	f7fd fe1a 	bl	8000cec <HAL_GetTick>
 80030b8:	4b22      	ldr	r3, [pc, #136]	; (8003144 <SPI_WaitFlagStateUntilTimeout.constprop.0+0xa0>)
 80030ba:	681b      	ldr	r3, [r3, #0]
 80030bc:	f3c3 33cb 	ubfx	r3, r3, #15, #12
 80030c0:	4607      	mov	r7, r0
 80030c2:	4363      	muls	r3, r4
 80030c4:	682a      	ldr	r2, [r5, #0]
 80030c6:	9301      	str	r3, [sp, #4]
 80030c8:	6893      	ldr	r3, [r2, #8]
 80030ca:	f013 0380 	ands.w	r3, r3, #128	; 0x80
 80030ce:	d101      	bne.n	80030d4 <SPI_WaitFlagStateUntilTimeout.constprop.0+0x30>
 80030d0:	4618      	mov	r0, r3
 80030d2:	e02d      	b.n	8003130 <SPI_WaitFlagStateUntilTimeout.constprop.0+0x8c>
 80030d4:	1c73      	adds	r3, r6, #1
 80030d6:	d0f7      	beq.n	80030c8 <SPI_WaitFlagStateUntilTimeout.constprop.0+0x24>
 80030d8:	f7fd fe08 	bl	8000cec <HAL_GetTick>
 80030dc:	1bc0      	subs	r0, r0, r7
 80030de:	42a0      	cmp	r0, r4
 80030e0:	d328      	bcc.n	8003134 <SPI_WaitFlagStateUntilTimeout.constprop.0+0x90>
 80030e2:	682b      	ldr	r3, [r5, #0]
 80030e4:	685a      	ldr	r2, [r3, #4]
 80030e6:	f022 02e0 	bic.w	r2, r2, #224	; 0xe0
 80030ea:	605a      	str	r2, [r3, #4]
 80030ec:	686a      	ldr	r2, [r5, #4]
 80030ee:	f5b2 7f82 	cmp.w	r2, #260	; 0x104
 80030f2:	d10a      	bne.n	800310a <SPI_WaitFlagStateUntilTimeout.constprop.0+0x66>
 80030f4:	68aa      	ldr	r2, [r5, #8]
 80030f6:	f5b2 4f00 	cmp.w	r2, #32768	; 0x8000
 80030fa:	d002      	beq.n	8003102 <SPI_WaitFlagStateUntilTimeout.constprop.0+0x5e>
 80030fc:	f5b2 6f80 	cmp.w	r2, #1024	; 0x400
 8003100:	d103      	bne.n	800310a <SPI_WaitFlagStateUntilTimeout.constprop.0+0x66>
 8003102:	681a      	ldr	r2, [r3, #0]
 8003104:	f022 0240 	bic.w	r2, r2, #64	; 0x40
 8003108:	601a      	str	r2, [r3, #0]
 800310a:	6aaa      	ldr	r2, [r5, #40]	; 0x28
 800310c:	f5b2 5f00 	cmp.w	r2, #8192	; 0x2000
 8003110:	d107      	bne.n	8003122 <SPI_WaitFlagStateUntilTimeout.constprop.0+0x7e>
 8003112:	681a      	ldr	r2, [r3, #0]
 8003114:	f422 5200 	bic.w	r2, r2, #8192	; 0x2000
 8003118:	601a      	str	r2, [r3, #0]
 800311a:	681a      	ldr	r2, [r3, #0]
 800311c:	f442 5200 	orr.w	r2, r2, #8192	; 0x2000
 8003120:	601a      	str	r2, [r3, #0]
 8003122:	2301      	movs	r3, #1
 8003124:	f885 305d 	strb.w	r3, [r5, #93]	; 0x5d
 8003128:	2300      	movs	r3, #0
 800312a:	f885 305c 	strb.w	r3, [r5, #92]	; 0x5c
 800312e:	2003      	movs	r0, #3
 8003130:	b003      	add	sp, #12
 8003132:	bdf0      	pop	{r4, r5, r6, r7, pc}
 8003134:	9b01      	ldr	r3, [sp, #4]
 8003136:	2b00      	cmp	r3, #0
 8003138:	9b01      	ldr	r3, [sp, #4]
 800313a:	bf08      	it	eq
 800313c:	2400      	moveq	r4, #0
 800313e:	3b01      	subs	r3, #1
 8003140:	e7c0      	b.n	80030c4 <SPI_WaitFlagStateUntilTimeout.constprop.0+0x20>
 8003142:	bf00      	nop
 8003144:	20000000 	.word	0x20000000

08003148 <SPI_EndRxTransaction>:
 8003148:	4613      	mov	r3, r2
 800314a:	6842      	ldr	r2, [r0, #4]
 800314c:	f5b2 7f82 	cmp.w	r2, #260	; 0x104
 8003150:	b573      	push	{r0, r1, r4, r5, r6, lr}
 8003152:	4604      	mov	r4, r0
 8003154:	460e      	mov	r6, r1
 8003156:	d10b      	bne.n	8003170 <SPI_EndRxTransaction+0x28>
 8003158:	6882      	ldr	r2, [r0, #8]
 800315a:	f5b2 4f00 	cmp.w	r2, #32768	; 0x8000
 800315e:	d002      	beq.n	8003166 <SPI_EndRxTransaction+0x1e>
 8003160:	f5b2 6f80 	cmp.w	r2, #1024	; 0x400
 8003164:	d104      	bne.n	8003170 <SPI_EndRxTransaction+0x28>
 8003166:	6820      	ldr	r0, [r4, #0]
 8003168:	6802      	ldr	r2, [r0, #0]
 800316a:	f022 0240 	bic.w	r2, r2, #64	; 0x40
 800316e:	6002      	str	r2, [r0, #0]
 8003170:	461a      	mov	r2, r3
 8003172:	4631      	mov	r1, r6
 8003174:	4620      	mov	r0, r4
 8003176:	9301      	str	r3, [sp, #4]
 8003178:	f7ff ff94 	bl	80030a4 <SPI_WaitFlagStateUntilTimeout.constprop.0>
 800317c:	9b01      	ldr	r3, [sp, #4]
 800317e:	4605      	mov	r5, r0
 8003180:	b128      	cbz	r0, 800318e <SPI_EndRxTransaction+0x46>
 8003182:	6e23      	ldr	r3, [r4, #96]	; 0x60
 8003184:	f043 0320 	orr.w	r3, r3, #32
 8003188:	6623      	str	r3, [r4, #96]	; 0x60
 800318a:	2503      	movs	r5, #3
 800318c:	e012      	b.n	80031b4 <SPI_EndRxTransaction+0x6c>
 800318e:	6862      	ldr	r2, [r4, #4]
 8003190:	f5b2 7f82 	cmp.w	r2, #260	; 0x104
 8003194:	d10e      	bne.n	80031b4 <SPI_EndRxTransaction+0x6c>
 8003196:	68a2      	ldr	r2, [r4, #8]
 8003198:	f5b2 4f00 	cmp.w	r2, #32768	; 0x8000
 800319c:	d002      	beq.n	80031a4 <SPI_EndRxTransaction+0x5c>
 800319e:	f5b2 6f80 	cmp.w	r2, #1024	; 0x400
 80031a2:	d107      	bne.n	80031b4 <SPI_EndRxTransaction+0x6c>
 80031a4:	4632      	mov	r2, r6
 80031a6:	f44f 61c0 	mov.w	r1, #1536	; 0x600
 80031aa:	4620      	mov	r0, r4
 80031ac:	f7ff ff14 	bl	8002fd8 <SPI_WaitFifoStateUntilTimeout.constprop.0>
 80031b0:	2800      	cmp	r0, #0
 80031b2:	d1e6      	bne.n	8003182 <SPI_EndRxTransaction+0x3a>
 80031b4:	4628      	mov	r0, r5
 80031b6:	b002      	add	sp, #8
 80031b8:	bd70      	pop	{r4, r5, r6, pc}

080031ba <SPI_EndRxTxTransaction>:
 80031ba:	b537      	push	{r0, r1, r2, r4, r5, lr}
 80031bc:	4613      	mov	r3, r2
 80031be:	9201      	str	r2, [sp, #4]
 80031c0:	460d      	mov	r5, r1
 80031c2:	460a      	mov	r2, r1
 80031c4:	f44f 51c0 	mov.w	r1, #6144	; 0x1800
 80031c8:	4604      	mov	r4, r0
 80031ca:	f7ff ff05 	bl	8002fd8 <SPI_WaitFifoStateUntilTimeout.constprop.0>
 80031ce:	9b01      	ldr	r3, [sp, #4]
 80031d0:	b128      	cbz	r0, 80031de <SPI_EndRxTxTransaction+0x24>
 80031d2:	6e23      	ldr	r3, [r4, #96]	; 0x60
 80031d4:	f043 0320 	orr.w	r3, r3, #32
 80031d8:	6623      	str	r3, [r4, #96]	; 0x60
 80031da:	2003      	movs	r0, #3
 80031dc:	e010      	b.n	8003200 <SPI_EndRxTxTransaction+0x46>
 80031de:	461a      	mov	r2, r3
 80031e0:	4629      	mov	r1, r5
 80031e2:	4620      	mov	r0, r4
 80031e4:	9301      	str	r3, [sp, #4]
 80031e6:	f7ff ff5d 	bl	80030a4 <SPI_WaitFlagStateUntilTimeout.constprop.0>
 80031ea:	9b01      	ldr	r3, [sp, #4]
 80031ec:	2800      	cmp	r0, #0
 80031ee:	d1f0      	bne.n	80031d2 <SPI_EndRxTxTransaction+0x18>
 80031f0:	462a      	mov	r2, r5
 80031f2:	f44f 61c0 	mov.w	r1, #1536	; 0x600
 80031f6:	4620      	mov	r0, r4
 80031f8:	f7ff feee 	bl	8002fd8 <SPI_WaitFifoStateUntilTimeout.constprop.0>
 80031fc:	2800      	cmp	r0, #0
 80031fe:	d1e8      	bne.n	80031d2 <SPI_EndRxTxTransaction+0x18>
 8003200:	b003      	add	sp, #12
 8003202:	bd30      	pop	{r4, r5, pc}

08003204 <HAL_SPI_Init>:
 8003204:	b570      	push	{r4, r5, r6, lr}
 8003206:	4604      	mov	r4, r0
 8003208:	2800      	cmp	r0, #0
 800320a:	d05f      	beq.n	80032cc <HAL_SPI_Init+0xc8>
 800320c:	6a43      	ldr	r3, [r0, #36]	; 0x24
 800320e:	2b00      	cmp	r3, #0
 8003210:	d158      	bne.n	80032c4 <HAL_SPI_Init+0xc0>
 8003212:	6842      	ldr	r2, [r0, #4]
 8003214:	f5b2 7f82 	cmp.w	r2, #260	; 0x104
 8003218:	d000      	beq.n	800321c <HAL_SPI_Init+0x18>
 800321a:	61c3      	str	r3, [r0, #28]
 800321c:	2300      	movs	r3, #0
 800321e:	62a3      	str	r3, [r4, #40]	; 0x28
 8003220:	f894 305d 	ldrb.w	r3, [r4, #93]	; 0x5d
 8003224:	f003 02ff 	and.w	r2, r3, #255	; 0xff
 8003228:	b923      	cbnz	r3, 8003234 <HAL_SPI_Init+0x30>
 800322a:	f884 205c 	strb.w	r2, [r4, #92]	; 0x5c
 800322e:	4620      	mov	r0, r4
 8003230:	f7fd fc30 	bl	8000a94 <HAL_SPI_MspInit>
 8003234:	6825      	ldr	r5, [r4, #0]
 8003236:	68e1      	ldr	r1, [r4, #12]
 8003238:	2302      	movs	r3, #2
 800323a:	f884 305d 	strb.w	r3, [r4, #93]	; 0x5d
 800323e:	682b      	ldr	r3, [r5, #0]
 8003240:	f5b1 6fe0 	cmp.w	r1, #1792	; 0x700
 8003244:	f023 0340 	bic.w	r3, r3, #64	; 0x40
 8003248:	602b      	str	r3, [r5, #0]
 800324a:	f04f 0300 	mov.w	r3, #0
 800324e:	d83f      	bhi.n	80032d0 <HAL_SPI_Init+0xcc>
 8003250:	f44f 5080 	mov.w	r0, #4096	; 0x1000
 8003254:	d000      	beq.n	8003258 <HAL_SPI_Init+0x54>
 8003256:	62a3      	str	r3, [r4, #40]	; 0x28
 8003258:	6863      	ldr	r3, [r4, #4]
 800325a:	68a6      	ldr	r6, [r4, #8]
 800325c:	69a2      	ldr	r2, [r4, #24]
 800325e:	f406 4604 	and.w	r6, r6, #33792	; 0x8400
 8003262:	f403 7382 	and.w	r3, r3, #260	; 0x104
 8003266:	4333      	orrs	r3, r6
 8003268:	6926      	ldr	r6, [r4, #16]
 800326a:	f006 0602 	and.w	r6, r6, #2
 800326e:	4333      	orrs	r3, r6
 8003270:	6966      	ldr	r6, [r4, #20]
 8003272:	f006 0601 	and.w	r6, r6, #1
 8003276:	4333      	orrs	r3, r6
 8003278:	f402 7600 	and.w	r6, r2, #512	; 0x200
 800327c:	4333      	orrs	r3, r6
 800327e:	69e6      	ldr	r6, [r4, #28]
 8003280:	f006 0638 	and.w	r6, r6, #56	; 0x38
 8003284:	4333      	orrs	r3, r6
 8003286:	6a26      	ldr	r6, [r4, #32]
 8003288:	f006 0680 	and.w	r6, r6, #128	; 0x80
 800328c:	4333      	orrs	r3, r6
 800328e:	6aa6      	ldr	r6, [r4, #40]	; 0x28
 8003290:	f406 5600 	and.w	r6, r6, #8192	; 0x2000
 8003294:	4333      	orrs	r3, r6
 8003296:	602b      	str	r3, [r5, #0]
 8003298:	6b66      	ldr	r6, [r4, #52]	; 0x34
 800329a:	6a63      	ldr	r3, [r4, #36]	; 0x24
 800329c:	f006 0608 	and.w	r6, r6, #8
 80032a0:	f003 0310 	and.w	r3, r3, #16
 80032a4:	4333      	orrs	r3, r6
 80032a6:	f401 6170 	and.w	r1, r1, #3840	; 0xf00
 80032aa:	0c12      	lsrs	r2, r2, #16
 80032ac:	4319      	orrs	r1, r3
 80032ae:	f002 0204 	and.w	r2, r2, #4
 80032b2:	430a      	orrs	r2, r1
 80032b4:	4310      	orrs	r0, r2
 80032b6:	6068      	str	r0, [r5, #4]
 80032b8:	2301      	movs	r3, #1
 80032ba:	2000      	movs	r0, #0
 80032bc:	6620      	str	r0, [r4, #96]	; 0x60
 80032be:	f884 305d 	strb.w	r3, [r4, #93]	; 0x5d
 80032c2:	bd70      	pop	{r4, r5, r6, pc}
 80032c4:	2300      	movs	r3, #0
 80032c6:	e9c0 3304 	strd	r3, r3, [r0, #16]
 80032ca:	e7a7      	b.n	800321c <HAL_SPI_Init+0x18>
 80032cc:	2001      	movs	r0, #1
 80032ce:	e7f8      	b.n	80032c2 <HAL_SPI_Init+0xbe>
 80032d0:	4618      	mov	r0, r3
 80032d2:	f5b1 6f70 	cmp.w	r1, #3840	; 0xf00
 80032d6:	e7bd      	b.n	8003254 <HAL_SPI_Init+0x50>

080032d8 <HAL_SPI_Transmit>:
 80032d8:	e92d 43f7 	stmdb	sp!, {r0, r1, r2, r4, r5, r6, r7, r8, r9, lr}
 80032dc:	461f      	mov	r7, r3
 80032de:	f890 305c 	ldrb.w	r3, [r0, #92]	; 0x5c
 80032e2:	2b01      	cmp	r3, #1
 80032e4:	4604      	mov	r4, r0
 80032e6:	460d      	mov	r5, r1
 80032e8:	4690      	mov	r8, r2
 80032ea:	f000 80bc 	beq.w	8003466 <HAL_SPI_Transmit+0x18e>
 80032ee:	2301      	movs	r3, #1
 80032f0:	f880 305c 	strb.w	r3, [r0, #92]	; 0x5c
 80032f4:	f7fd fcfa 	bl	8000cec <HAL_GetTick>
 80032f8:	f894 305d 	ldrb.w	r3, [r4, #93]	; 0x5d
 80032fc:	2b01      	cmp	r3, #1
 80032fe:	4681      	mov	r9, r0
 8003300:	b2d8      	uxtb	r0, r3
 8003302:	f040 80ae 	bne.w	8003462 <HAL_SPI_Transmit+0x18a>
 8003306:	2d00      	cmp	r5, #0
 8003308:	d063      	beq.n	80033d2 <HAL_SPI_Transmit+0xfa>
 800330a:	f1b8 0f00 	cmp.w	r8, #0
 800330e:	d060      	beq.n	80033d2 <HAL_SPI_Transmit+0xfa>
 8003310:	2303      	movs	r3, #3
 8003312:	f884 305d 	strb.w	r3, [r4, #93]	; 0x5d
 8003316:	2300      	movs	r3, #0
 8003318:	6623      	str	r3, [r4, #96]	; 0x60
 800331a:	e9c4 3313 	strd	r3, r3, [r4, #76]	; 0x4c
 800331e:	f8a4 803e 	strh.w	r8, [r4, #62]	; 0x3e
 8003322:	6423      	str	r3, [r4, #64]	; 0x40
 8003324:	f8a4 3044 	strh.w	r3, [r4, #68]	; 0x44
 8003328:	f8a4 3046 	strh.w	r3, [r4, #70]	; 0x46
 800332c:	68a3      	ldr	r3, [r4, #8]
 800332e:	6826      	ldr	r6, [r4, #0]
 8003330:	63a5      	str	r5, [r4, #56]	; 0x38
 8003332:	f5b3 4f00 	cmp.w	r3, #32768	; 0x8000
 8003336:	f8a4 803c 	strh.w	r8, [r4, #60]	; 0x3c
 800333a:	d107      	bne.n	800334c <HAL_SPI_Transmit+0x74>
 800333c:	6833      	ldr	r3, [r6, #0]
 800333e:	f023 0340 	bic.w	r3, r3, #64	; 0x40
 8003342:	6033      	str	r3, [r6, #0]
 8003344:	6833      	ldr	r3, [r6, #0]
 8003346:	f443 4380 	orr.w	r3, r3, #16384	; 0x4000
 800334a:	6033      	str	r3, [r6, #0]
 800334c:	6833      	ldr	r3, [r6, #0]
 800334e:	68e2      	ldr	r2, [r4, #12]
 8003350:	065b      	lsls	r3, r3, #25
 8003352:	bf5e      	ittt	pl
 8003354:	6833      	ldrpl	r3, [r6, #0]
 8003356:	f043 0340 	orrpl.w	r3, r3, #64	; 0x40
 800335a:	6033      	strpl	r3, [r6, #0]
 800335c:	f5b2 6fe0 	cmp.w	r2, #1792	; 0x700
 8003360:	6863      	ldr	r3, [r4, #4]
 8003362:	d942      	bls.n	80033ea <HAL_SPI_Transmit+0x112>
 8003364:	b113      	cbz	r3, 800336c <HAL_SPI_Transmit+0x94>
 8003366:	f1b8 0f01 	cmp.w	r8, #1
 800336a:	d107      	bne.n	800337c <HAL_SPI_Transmit+0xa4>
 800336c:	f835 3b02 	ldrh.w	r3, [r5], #2
 8003370:	60f3      	str	r3, [r6, #12]
 8003372:	63a5      	str	r5, [r4, #56]	; 0x38
 8003374:	8fe3      	ldrh	r3, [r4, #62]	; 0x3e
 8003376:	3b01      	subs	r3, #1
 8003378:	b29b      	uxth	r3, r3
 800337a:	87e3      	strh	r3, [r4, #62]	; 0x3e
 800337c:	8fe3      	ldrh	r3, [r4, #62]	; 0x3e
 800337e:	b29b      	uxth	r3, r3
 8003380:	b9a3      	cbnz	r3, 80033ac <HAL_SPI_Transmit+0xd4>
 8003382:	464a      	mov	r2, r9
 8003384:	4639      	mov	r1, r7
 8003386:	4620      	mov	r0, r4
 8003388:	f7ff ff17 	bl	80031ba <SPI_EndRxTxTransaction>
 800338c:	2800      	cmp	r0, #0
 800338e:	d165      	bne.n	800345c <HAL_SPI_Transmit+0x184>
 8003390:	68a3      	ldr	r3, [r4, #8]
 8003392:	b933      	cbnz	r3, 80033a2 <HAL_SPI_Transmit+0xca>
 8003394:	9301      	str	r3, [sp, #4]
 8003396:	6823      	ldr	r3, [r4, #0]
 8003398:	68da      	ldr	r2, [r3, #12]
 800339a:	9201      	str	r2, [sp, #4]
 800339c:	689b      	ldr	r3, [r3, #8]
 800339e:	9301      	str	r3, [sp, #4]
 80033a0:	9b01      	ldr	r3, [sp, #4]
 80033a2:	6e20      	ldr	r0, [r4, #96]	; 0x60
 80033a4:	3800      	subs	r0, #0
 80033a6:	bf18      	it	ne
 80033a8:	2001      	movne	r0, #1
 80033aa:	e012      	b.n	80033d2 <HAL_SPI_Transmit+0xfa>
 80033ac:	6822      	ldr	r2, [r4, #0]
 80033ae:	6893      	ldr	r3, [r2, #8]
 80033b0:	079d      	lsls	r5, r3, #30
 80033b2:	d505      	bpl.n	80033c0 <HAL_SPI_Transmit+0xe8>
 80033b4:	6ba3      	ldr	r3, [r4, #56]	; 0x38
 80033b6:	f833 1b02 	ldrh.w	r1, [r3], #2
 80033ba:	60d1      	str	r1, [r2, #12]
 80033bc:	63a3      	str	r3, [r4, #56]	; 0x38
 80033be:	e7d9      	b.n	8003374 <HAL_SPI_Transmit+0x9c>
 80033c0:	f7fd fc94 	bl	8000cec <HAL_GetTick>
 80033c4:	eba0 0009 	sub.w	r0, r0, r9
 80033c8:	42b8      	cmp	r0, r7
 80033ca:	d30b      	bcc.n	80033e4 <HAL_SPI_Transmit+0x10c>
 80033cc:	1c78      	adds	r0, r7, #1
 80033ce:	d0d5      	beq.n	800337c <HAL_SPI_Transmit+0xa4>
 80033d0:	2003      	movs	r0, #3
 80033d2:	2301      	movs	r3, #1
 80033d4:	f884 305d 	strb.w	r3, [r4, #93]	; 0x5d
 80033d8:	2300      	movs	r3, #0
 80033da:	f884 305c 	strb.w	r3, [r4, #92]	; 0x5c
 80033de:	b003      	add	sp, #12
 80033e0:	e8bd 83f0 	ldmia.w	sp!, {r4, r5, r6, r7, r8, r9, pc}
 80033e4:	2f00      	cmp	r7, #0
 80033e6:	d1c9      	bne.n	800337c <HAL_SPI_Transmit+0xa4>
 80033e8:	e7f2      	b.n	80033d0 <HAL_SPI_Transmit+0xf8>
 80033ea:	b113      	cbz	r3, 80033f2 <HAL_SPI_Transmit+0x11a>
 80033ec:	f1b8 0f01 	cmp.w	r8, #1
 80033f0:	d113      	bne.n	800341a <HAL_SPI_Transmit+0x142>
 80033f2:	8fe3      	ldrh	r3, [r4, #62]	; 0x3e
 80033f4:	b29b      	uxth	r3, r3
 80033f6:	2b01      	cmp	r3, #1
 80033f8:	d906      	bls.n	8003408 <HAL_SPI_Transmit+0x130>
 80033fa:	f835 3b02 	ldrh.w	r3, [r5], #2
 80033fe:	60f3      	str	r3, [r6, #12]
 8003400:	63a5      	str	r5, [r4, #56]	; 0x38
 8003402:	8fe3      	ldrh	r3, [r4, #62]	; 0x3e
 8003404:	3b02      	subs	r3, #2
 8003406:	e006      	b.n	8003416 <HAL_SPI_Transmit+0x13e>
 8003408:	782b      	ldrb	r3, [r5, #0]
 800340a:	7333      	strb	r3, [r6, #12]
 800340c:	6ba3      	ldr	r3, [r4, #56]	; 0x38
 800340e:	3301      	adds	r3, #1
 8003410:	63a3      	str	r3, [r4, #56]	; 0x38
 8003412:	8fe3      	ldrh	r3, [r4, #62]	; 0x3e
 8003414:	3b01      	subs	r3, #1
 8003416:	b29b      	uxth	r3, r3
 8003418:	87e3      	strh	r3, [r4, #62]	; 0x3e
 800341a:	8fe3      	ldrh	r3, [r4, #62]	; 0x3e
 800341c:	b29b      	uxth	r3, r3
 800341e:	2b00      	cmp	r3, #0
 8003420:	d0af      	beq.n	8003382 <HAL_SPI_Transmit+0xaa>
 8003422:	6822      	ldr	r2, [r4, #0]
 8003424:	6893      	ldr	r3, [r2, #8]
 8003426:	0799      	lsls	r1, r3, #30
 8003428:	d50c      	bpl.n	8003444 <HAL_SPI_Transmit+0x16c>
 800342a:	8fe1      	ldrh	r1, [r4, #62]	; 0x3e
 800342c:	6ba3      	ldr	r3, [r4, #56]	; 0x38
 800342e:	b289      	uxth	r1, r1
 8003430:	2901      	cmp	r1, #1
 8003432:	d904      	bls.n	800343e <HAL_SPI_Transmit+0x166>
 8003434:	f833 1b02 	ldrh.w	r1, [r3], #2
 8003438:	60d1      	str	r1, [r2, #12]
 800343a:	63a3      	str	r3, [r4, #56]	; 0x38
 800343c:	e7e1      	b.n	8003402 <HAL_SPI_Transmit+0x12a>
 800343e:	781b      	ldrb	r3, [r3, #0]
 8003440:	7313      	strb	r3, [r2, #12]
 8003442:	e7e3      	b.n	800340c <HAL_SPI_Transmit+0x134>
 8003444:	f7fd fc52 	bl	8000cec <HAL_GetTick>
 8003448:	eba0 0009 	sub.w	r0, r0, r9
 800344c:	42b8      	cmp	r0, r7
 800344e:	d302      	bcc.n	8003456 <HAL_SPI_Transmit+0x17e>
 8003450:	1c7b      	adds	r3, r7, #1
 8003452:	d0e2      	beq.n	800341a <HAL_SPI_Transmit+0x142>
 8003454:	e7bc      	b.n	80033d0 <HAL_SPI_Transmit+0xf8>
 8003456:	2f00      	cmp	r7, #0
 8003458:	d1df      	bne.n	800341a <HAL_SPI_Transmit+0x142>
 800345a:	e7b9      	b.n	80033d0 <HAL_SPI_Transmit+0xf8>
 800345c:	2320      	movs	r3, #32
 800345e:	6623      	str	r3, [r4, #96]	; 0x60
 8003460:	e796      	b.n	8003390 <HAL_SPI_Transmit+0xb8>
 8003462:	2002      	movs	r0, #2
 8003464:	e7b5      	b.n	80033d2 <HAL_SPI_Transmit+0xfa>
 8003466:	2002      	movs	r0, #2
 8003468:	e7b9      	b.n	80033de <HAL_SPI_Transmit+0x106>

0800346a <HAL_SPI_TransmitReceive>:
 800346a:	e92d 43f8 	stmdb	sp!, {r3, r4, r5, r6, r7, r8, r9, lr}
 800346e:	461f      	mov	r7, r3
 8003470:	f890 305c 	ldrb.w	r3, [r0, #92]	; 0x5c
 8003474:	f8dd 8020 	ldr.w	r8, [sp, #32]
 8003478:	2b01      	cmp	r3, #1
 800347a:	4604      	mov	r4, r0
 800347c:	460d      	mov	r5, r1
 800347e:	4616      	mov	r6, r2
 8003480:	f000 811d 	beq.w	80036be <HAL_SPI_TransmitReceive+0x254>
 8003484:	2301      	movs	r3, #1
 8003486:	f880 305c 	strb.w	r3, [r0, #92]	; 0x5c
 800348a:	f7fd fc2f 	bl	8000cec <HAL_GetTick>
 800348e:	f894 205d 	ldrb.w	r2, [r4, #93]	; 0x5d
 8003492:	6863      	ldr	r3, [r4, #4]
 8003494:	2a01      	cmp	r2, #1
 8003496:	4681      	mov	r9, r0
 8003498:	b2d1      	uxtb	r1, r2
 800349a:	d00a      	beq.n	80034b2 <HAL_SPI_TransmitReceive+0x48>
 800349c:	f5b3 7f82 	cmp.w	r3, #260	; 0x104
 80034a0:	f040 810b 	bne.w	80036ba <HAL_SPI_TransmitReceive+0x250>
 80034a4:	68a2      	ldr	r2, [r4, #8]
 80034a6:	2a00      	cmp	r2, #0
 80034a8:	f040 8107 	bne.w	80036ba <HAL_SPI_TransmitReceive+0x250>
 80034ac:	2904      	cmp	r1, #4
 80034ae:	f040 8104 	bne.w	80036ba <HAL_SPI_TransmitReceive+0x250>
 80034b2:	2d00      	cmp	r5, #0
 80034b4:	d047      	beq.n	8003546 <HAL_SPI_TransmitReceive+0xdc>
 80034b6:	2e00      	cmp	r6, #0
 80034b8:	d045      	beq.n	8003546 <HAL_SPI_TransmitReceive+0xdc>
 80034ba:	2f00      	cmp	r7, #0
 80034bc:	d043      	beq.n	8003546 <HAL_SPI_TransmitReceive+0xdc>
 80034be:	f894 205d 	ldrb.w	r2, [r4, #93]	; 0x5d
 80034c2:	68e1      	ldr	r1, [r4, #12]
 80034c4:	6426      	str	r6, [r4, #64]	; 0x40
 80034c6:	2a04      	cmp	r2, #4
 80034c8:	bf1c      	itt	ne
 80034ca:	2205      	movne	r2, #5
 80034cc:	f884 205d 	strbne.w	r2, [r4, #93]	; 0x5d
 80034d0:	6826      	ldr	r6, [r4, #0]
 80034d2:	f8a4 7044 	strh.w	r7, [r4, #68]	; 0x44
 80034d6:	2200      	movs	r2, #0
 80034d8:	6622      	str	r2, [r4, #96]	; 0x60
 80034da:	f5b1 6fe0 	cmp.w	r1, #1792	; 0x700
 80034de:	f8a4 7046 	strh.w	r7, [r4, #70]	; 0x46
 80034e2:	87e7      	strh	r7, [r4, #62]	; 0x3e
 80034e4:	e9c4 2213 	strd	r2, r2, [r4, #76]	; 0x4c
 80034e8:	63a5      	str	r5, [r4, #56]	; 0x38
 80034ea:	6872      	ldr	r2, [r6, #4]
 80034ec:	87a7      	strh	r7, [r4, #60]	; 0x3c
 80034ee:	d801      	bhi.n	80034f4 <HAL_SPI_TransmitReceive+0x8a>
 80034f0:	2f01      	cmp	r7, #1
 80034f2:	d02a      	beq.n	800354a <HAL_SPI_TransmitReceive+0xe0>
 80034f4:	f422 5280 	bic.w	r2, r2, #4096	; 0x1000
 80034f8:	6072      	str	r2, [r6, #4]
 80034fa:	6832      	ldr	r2, [r6, #0]
 80034fc:	0650      	lsls	r0, r2, #25
 80034fe:	bf5e      	ittt	pl
 8003500:	6832      	ldrpl	r2, [r6, #0]
 8003502:	f042 0240 	orrpl.w	r2, r2, #64	; 0x40
 8003506:	6032      	strpl	r2, [r6, #0]
 8003508:	f5b1 6fe0 	cmp.w	r1, #1792	; 0x700
 800350c:	d958      	bls.n	80035c0 <HAL_SPI_TransmitReceive+0x156>
 800350e:	b10b      	cbz	r3, 8003514 <HAL_SPI_TransmitReceive+0xaa>
 8003510:	2f01      	cmp	r7, #1
 8003512:	d107      	bne.n	8003524 <HAL_SPI_TransmitReceive+0xba>
 8003514:	f835 3b02 	ldrh.w	r3, [r5], #2
 8003518:	60f3      	str	r3, [r6, #12]
 800351a:	8fe3      	ldrh	r3, [r4, #62]	; 0x3e
 800351c:	63a5      	str	r5, [r4, #56]	; 0x38
 800351e:	3b01      	subs	r3, #1
 8003520:	b29b      	uxth	r3, r3
 8003522:	87e3      	strh	r3, [r4, #62]	; 0x3e
 8003524:	2501      	movs	r5, #1
 8003526:	8fe3      	ldrh	r3, [r4, #62]	; 0x3e
 8003528:	b29b      	uxth	r3, r3
 800352a:	b98b      	cbnz	r3, 8003550 <HAL_SPI_TransmitReceive+0xe6>
 800352c:	f8b4 3046 	ldrh.w	r3, [r4, #70]	; 0x46
 8003530:	b29b      	uxth	r3, r3
 8003532:	b96b      	cbnz	r3, 8003550 <HAL_SPI_TransmitReceive+0xe6>
 8003534:	464a      	mov	r2, r9
 8003536:	4641      	mov	r1, r8
 8003538:	4620      	mov	r0, r4
 800353a:	f7ff fe3e 	bl	80031ba <SPI_EndRxTxTransaction>
 800353e:	2800      	cmp	r0, #0
 8003540:	d036      	beq.n	80035b0 <HAL_SPI_TransmitReceive+0x146>
 8003542:	2320      	movs	r3, #32
 8003544:	6623      	str	r3, [r4, #96]	; 0x60
 8003546:	2001      	movs	r0, #1
 8003548:	e032      	b.n	80035b0 <HAL_SPI_TransmitReceive+0x146>
 800354a:	f442 5280 	orr.w	r2, r2, #4096	; 0x1000
 800354e:	e7d3      	b.n	80034f8 <HAL_SPI_TransmitReceive+0x8e>
 8003550:	6821      	ldr	r1, [r4, #0]
 8003552:	688b      	ldr	r3, [r1, #8]
 8003554:	079a      	lsls	r2, r3, #30
 8003556:	d50d      	bpl.n	8003574 <HAL_SPI_TransmitReceive+0x10a>
 8003558:	8fe3      	ldrh	r3, [r4, #62]	; 0x3e
 800355a:	b29b      	uxth	r3, r3
 800355c:	b153      	cbz	r3, 8003574 <HAL_SPI_TransmitReceive+0x10a>
 800355e:	b14d      	cbz	r5, 8003574 <HAL_SPI_TransmitReceive+0x10a>
 8003560:	6ba3      	ldr	r3, [r4, #56]	; 0x38
 8003562:	f833 2b02 	ldrh.w	r2, [r3], #2
 8003566:	60ca      	str	r2, [r1, #12]
 8003568:	63a3      	str	r3, [r4, #56]	; 0x38
 800356a:	8fe3      	ldrh	r3, [r4, #62]	; 0x3e
 800356c:	3b01      	subs	r3, #1
 800356e:	b29b      	uxth	r3, r3
 8003570:	87e3      	strh	r3, [r4, #62]	; 0x3e
 8003572:	2500      	movs	r5, #0
 8003574:	688a      	ldr	r2, [r1, #8]
 8003576:	f012 0201 	ands.w	r2, r2, #1
 800357a:	d00f      	beq.n	800359c <HAL_SPI_TransmitReceive+0x132>
 800357c:	f8b4 3046 	ldrh.w	r3, [r4, #70]	; 0x46
 8003580:	b29b      	uxth	r3, r3
 8003582:	b15b      	cbz	r3, 800359c <HAL_SPI_TransmitReceive+0x132>
 8003584:	6c23      	ldr	r3, [r4, #64]	; 0x40
 8003586:	68c9      	ldr	r1, [r1, #12]
 8003588:	f823 1b02 	strh.w	r1, [r3], #2
 800358c:	6423      	str	r3, [r4, #64]	; 0x40
 800358e:	f8b4 3046 	ldrh.w	r3, [r4, #70]	; 0x46
 8003592:	3b01      	subs	r3, #1
 8003594:	b29b      	uxth	r3, r3
 8003596:	f8a4 3046 	strh.w	r3, [r4, #70]	; 0x46
 800359a:	4615      	mov	r5, r2
 800359c:	f7fd fba6 	bl	8000cec <HAL_GetTick>
 80035a0:	eba0 0009 	sub.w	r0, r0, r9
 80035a4:	4540      	cmp	r0, r8
 80035a6:	d3be      	bcc.n	8003526 <HAL_SPI_TransmitReceive+0xbc>
 80035a8:	f1b8 3fff 	cmp.w	r8, #4294967295
 80035ac:	d0bb      	beq.n	8003526 <HAL_SPI_TransmitReceive+0xbc>
 80035ae:	2003      	movs	r0, #3
 80035b0:	2301      	movs	r3, #1
 80035b2:	f884 305d 	strb.w	r3, [r4, #93]	; 0x5d
 80035b6:	2300      	movs	r3, #0
 80035b8:	f884 305c 	strb.w	r3, [r4, #92]	; 0x5c
 80035bc:	e8bd 83f8 	ldmia.w	sp!, {r3, r4, r5, r6, r7, r8, r9, pc}
 80035c0:	b10b      	cbz	r3, 80035c6 <HAL_SPI_TransmitReceive+0x15c>
 80035c2:	2f01      	cmp	r7, #1
 80035c4:	d10b      	bne.n	80035de <HAL_SPI_TransmitReceive+0x174>
 80035c6:	8fe3      	ldrh	r3, [r4, #62]	; 0x3e
 80035c8:	b29b      	uxth	r3, r3
 80035ca:	2b01      	cmp	r3, #1
 80035cc:	d909      	bls.n	80035e2 <HAL_SPI_TransmitReceive+0x178>
 80035ce:	f835 3b02 	ldrh.w	r3, [r5], #2
 80035d2:	60f3      	str	r3, [r6, #12]
 80035d4:	8fe3      	ldrh	r3, [r4, #62]	; 0x3e
 80035d6:	63a5      	str	r5, [r4, #56]	; 0x38
 80035d8:	3b02      	subs	r3, #2
 80035da:	b29b      	uxth	r3, r3
 80035dc:	87e3      	strh	r3, [r4, #62]	; 0x3e
 80035de:	2501      	movs	r5, #1
 80035e0:	e049      	b.n	8003676 <HAL_SPI_TransmitReceive+0x20c>
 80035e2:	782b      	ldrb	r3, [r5, #0]
 80035e4:	7333      	strb	r3, [r6, #12]
 80035e6:	6ba3      	ldr	r3, [r4, #56]	; 0x38
 80035e8:	3301      	adds	r3, #1
 80035ea:	63a3      	str	r3, [r4, #56]	; 0x38
 80035ec:	8fe3      	ldrh	r3, [r4, #62]	; 0x3e
 80035ee:	3b01      	subs	r3, #1
 80035f0:	e7f3      	b.n	80035da <HAL_SPI_TransmitReceive+0x170>
 80035f2:	6822      	ldr	r2, [r4, #0]
 80035f4:	6893      	ldr	r3, [r2, #8]
 80035f6:	079b      	lsls	r3, r3, #30
 80035f8:	d511      	bpl.n	800361e <HAL_SPI_TransmitReceive+0x1b4>
 80035fa:	8fe3      	ldrh	r3, [r4, #62]	; 0x3e
 80035fc:	b29b      	uxth	r3, r3
 80035fe:	b173      	cbz	r3, 800361e <HAL_SPI_TransmitReceive+0x1b4>
 8003600:	b16d      	cbz	r5, 800361e <HAL_SPI_TransmitReceive+0x1b4>
 8003602:	8fe1      	ldrh	r1, [r4, #62]	; 0x3e
 8003604:	6ba3      	ldr	r3, [r4, #56]	; 0x38
 8003606:	b289      	uxth	r1, r1
 8003608:	2901      	cmp	r1, #1
 800360a:	d93e      	bls.n	800368a <HAL_SPI_TransmitReceive+0x220>
 800360c:	f833 1b02 	ldrh.w	r1, [r3], #2
 8003610:	60d1      	str	r1, [r2, #12]
 8003612:	63a3      	str	r3, [r4, #56]	; 0x38
 8003614:	8fe3      	ldrh	r3, [r4, #62]	; 0x3e
 8003616:	3b02      	subs	r3, #2
 8003618:	b29b      	uxth	r3, r3
 800361a:	87e3      	strh	r3, [r4, #62]	; 0x3e
 800361c:	2500      	movs	r5, #0
 800361e:	6822      	ldr	r2, [r4, #0]
 8003620:	6893      	ldr	r3, [r2, #8]
 8003622:	f013 0301 	ands.w	r3, r3, #1
 8003626:	d01d      	beq.n	8003664 <HAL_SPI_TransmitReceive+0x1fa>
 8003628:	f8b4 1046 	ldrh.w	r1, [r4, #70]	; 0x46
 800362c:	b289      	uxth	r1, r1
 800362e:	b1c9      	cbz	r1, 8003664 <HAL_SPI_TransmitReceive+0x1fa>
 8003630:	f8b4 0046 	ldrh.w	r0, [r4, #70]	; 0x46
 8003634:	6c21      	ldr	r1, [r4, #64]	; 0x40
 8003636:	b280      	uxth	r0, r0
 8003638:	2801      	cmp	r0, #1
 800363a:	d92e      	bls.n	800369a <HAL_SPI_TransmitReceive+0x230>
 800363c:	68d0      	ldr	r0, [r2, #12]
 800363e:	f821 0b02 	strh.w	r0, [r1], #2
 8003642:	6421      	str	r1, [r4, #64]	; 0x40
 8003644:	f8b4 1046 	ldrh.w	r1, [r4, #70]	; 0x46
 8003648:	3902      	subs	r1, #2
 800364a:	b289      	uxth	r1, r1
 800364c:	f8a4 1046 	strh.w	r1, [r4, #70]	; 0x46
 8003650:	f8b4 1046 	ldrh.w	r1, [r4, #70]	; 0x46
 8003654:	b289      	uxth	r1, r1
 8003656:	2901      	cmp	r1, #1
 8003658:	d803      	bhi.n	8003662 <HAL_SPI_TransmitReceive+0x1f8>
 800365a:	6851      	ldr	r1, [r2, #4]
 800365c:	f441 5180 	orr.w	r1, r1, #4096	; 0x1000
 8003660:	6051      	str	r1, [r2, #4]
 8003662:	461d      	mov	r5, r3
 8003664:	f7fd fb42 	bl	8000cec <HAL_GetTick>
 8003668:	eba0 0009 	sub.w	r0, r0, r9
 800366c:	4540      	cmp	r0, r8
 800366e:	d320      	bcc.n	80036b2 <HAL_SPI_TransmitReceive+0x248>
 8003670:	f1b8 3fff 	cmp.w	r8, #4294967295
 8003674:	d19b      	bne.n	80035ae <HAL_SPI_TransmitReceive+0x144>
 8003676:	8fe3      	ldrh	r3, [r4, #62]	; 0x3e
 8003678:	b29b      	uxth	r3, r3
 800367a:	2b00      	cmp	r3, #0
 800367c:	d1b9      	bne.n	80035f2 <HAL_SPI_TransmitReceive+0x188>
 800367e:	f8b4 3046 	ldrh.w	r3, [r4, #70]	; 0x46
 8003682:	b29b      	uxth	r3, r3
 8003684:	2b00      	cmp	r3, #0
 8003686:	d1b4      	bne.n	80035f2 <HAL_SPI_TransmitReceive+0x188>
 8003688:	e754      	b.n	8003534 <HAL_SPI_TransmitReceive+0xca>
 800368a:	781b      	ldrb	r3, [r3, #0]
 800368c:	7313      	strb	r3, [r2, #12]
 800368e:	6ba3      	ldr	r3, [r4, #56]	; 0x38
 8003690:	3301      	adds	r3, #1
 8003692:	63a3      	str	r3, [r4, #56]	; 0x38
 8003694:	8fe3      	ldrh	r3, [r4, #62]	; 0x3e
 8003696:	3b01      	subs	r3, #1
 8003698:	e7be      	b.n	8003618 <HAL_SPI_TransmitReceive+0x1ae>
 800369a:	7b12      	ldrb	r2, [r2, #12]
 800369c:	700a      	strb	r2, [r1, #0]
 800369e:	6c22      	ldr	r2, [r4, #64]	; 0x40
 80036a0:	3201      	adds	r2, #1
 80036a2:	6422      	str	r2, [r4, #64]	; 0x40
 80036a4:	f8b4 2046 	ldrh.w	r2, [r4, #70]	; 0x46
 80036a8:	3a01      	subs	r2, #1
 80036aa:	b292      	uxth	r2, r2
 80036ac:	f8a4 2046 	strh.w	r2, [r4, #70]	; 0x46
 80036b0:	e7d7      	b.n	8003662 <HAL_SPI_TransmitReceive+0x1f8>
 80036b2:	f1b8 0f00 	cmp.w	r8, #0
 80036b6:	d1de      	bne.n	8003676 <HAL_SPI_TransmitReceive+0x20c>
 80036b8:	e779      	b.n	80035ae <HAL_SPI_TransmitReceive+0x144>
 80036ba:	2002      	movs	r0, #2
 80036bc:	e778      	b.n	80035b0 <HAL_SPI_TransmitReceive+0x146>
 80036be:	2002      	movs	r0, #2
 80036c0:	e77c      	b.n	80035bc <HAL_SPI_TransmitReceive+0x152>

080036c2 <HAL_SPI_Receive>:
 80036c2:	e92d 43f7 	stmdb	sp!, {r0, r1, r2, r4, r5, r6, r7, r8, r9, lr}
 80036c6:	461e      	mov	r6, r3
 80036c8:	6843      	ldr	r3, [r0, #4]
 80036ca:	f5b3 7f82 	cmp.w	r3, #260	; 0x104
 80036ce:	4604      	mov	r4, r0
 80036d0:	4689      	mov	r9, r1
 80036d2:	4617      	mov	r7, r2
 80036d4:	d10c      	bne.n	80036f0 <HAL_SPI_Receive+0x2e>
 80036d6:	6883      	ldr	r3, [r0, #8]
 80036d8:	b953      	cbnz	r3, 80036f0 <HAL_SPI_Receive+0x2e>
 80036da:	2304      	movs	r3, #4
 80036dc:	f880 305d 	strb.w	r3, [r0, #93]	; 0x5d
 80036e0:	4613      	mov	r3, r2
 80036e2:	9600      	str	r6, [sp, #0]
 80036e4:	460a      	mov	r2, r1
 80036e6:	f7ff fec0 	bl	800346a <HAL_SPI_TransmitReceive>
 80036ea:	b003      	add	sp, #12
 80036ec:	e8bd 83f0 	ldmia.w	sp!, {r4, r5, r6, r7, r8, r9, pc}
 80036f0:	f894 305c 	ldrb.w	r3, [r4, #92]	; 0x5c
 80036f4:	2b01      	cmp	r3, #1
 80036f6:	f000 809a 	beq.w	800382e <HAL_SPI_Receive+0x16c>
 80036fa:	2301      	movs	r3, #1
 80036fc:	f884 305c 	strb.w	r3, [r4, #92]	; 0x5c
 8003700:	f7fd faf4 	bl	8000cec <HAL_GetTick>
 8003704:	f894 305d 	ldrb.w	r3, [r4, #93]	; 0x5d
 8003708:	2b01      	cmp	r3, #1
 800370a:	4680      	mov	r8, r0
 800370c:	b2d8      	uxtb	r0, r3
 800370e:	f040 808c 	bne.w	800382a <HAL_SPI_Receive+0x168>
 8003712:	f1b9 0f00 	cmp.w	r9, #0
 8003716:	d06f      	beq.n	80037f8 <HAL_SPI_Receive+0x136>
 8003718:	2f00      	cmp	r7, #0
 800371a:	d06d      	beq.n	80037f8 <HAL_SPI_Receive+0x136>
 800371c:	2500      	movs	r5, #0
 800371e:	2304      	movs	r3, #4
 8003720:	f884 305d 	strb.w	r3, [r4, #93]	; 0x5d
 8003724:	e9c4 5513 	strd	r5, r5, [r4, #76]	; 0x4c
 8003728:	6625      	str	r5, [r4, #96]	; 0x60
 800372a:	63a5      	str	r5, [r4, #56]	; 0x38
 800372c:	f8a4 7046 	strh.w	r7, [r4, #70]	; 0x46
 8003730:	87a5      	strh	r5, [r4, #60]	; 0x3c
 8003732:	87e5      	strh	r5, [r4, #62]	; 0x3e
 8003734:	6825      	ldr	r5, [r4, #0]
 8003736:	68e2      	ldr	r2, [r4, #12]
 8003738:	686b      	ldr	r3, [r5, #4]
 800373a:	f8c4 9040 	str.w	r9, [r4, #64]	; 0x40
 800373e:	f5b2 6fe0 	cmp.w	r2, #1792	; 0x700
 8003742:	bf8c      	ite	hi
 8003744:	f423 5380 	bichi.w	r3, r3, #4096	; 0x1000
 8003748:	f443 5380 	orrls.w	r3, r3, #4096	; 0x1000
 800374c:	f8a4 7044 	strh.w	r7, [r4, #68]	; 0x44
 8003750:	606b      	str	r3, [r5, #4]
 8003752:	68a3      	ldr	r3, [r4, #8]
 8003754:	f5b3 4f00 	cmp.w	r3, #32768	; 0x8000
 8003758:	d107      	bne.n	800376a <HAL_SPI_Receive+0xa8>
 800375a:	682b      	ldr	r3, [r5, #0]
 800375c:	f023 0340 	bic.w	r3, r3, #64	; 0x40
 8003760:	602b      	str	r3, [r5, #0]
 8003762:	682b      	ldr	r3, [r5, #0]
 8003764:	f423 4380 	bic.w	r3, r3, #16384	; 0x4000
 8003768:	602b      	str	r3, [r5, #0]
 800376a:	682b      	ldr	r3, [r5, #0]
 800376c:	065f      	lsls	r7, r3, #25
 800376e:	bf5e      	ittt	pl
 8003770:	682b      	ldrpl	r3, [r5, #0]
 8003772:	f043 0340 	orrpl.w	r3, r3, #64	; 0x40
 8003776:	602b      	strpl	r3, [r5, #0]
 8003778:	f5b2 6fe0 	cmp.w	r2, #1792	; 0x700
 800377c:	d923      	bls.n	80037c6 <HAL_SPI_Receive+0x104>
 800377e:	f8b4 3046 	ldrh.w	r3, [r4, #70]	; 0x46
 8003782:	b29b      	uxth	r3, r3
 8003784:	b323      	cbz	r3, 80037d0 <HAL_SPI_Receive+0x10e>
 8003786:	6823      	ldr	r3, [r4, #0]
 8003788:	689a      	ldr	r2, [r3, #8]
 800378a:	07d2      	lsls	r2, r2, #31
 800378c:	d53e      	bpl.n	800380c <HAL_SPI_Receive+0x14a>
 800378e:	68da      	ldr	r2, [r3, #12]
 8003790:	6c23      	ldr	r3, [r4, #64]	; 0x40
 8003792:	f823 2b02 	strh.w	r2, [r3], #2
 8003796:	6423      	str	r3, [r4, #64]	; 0x40
 8003798:	f8b4 3046 	ldrh.w	r3, [r4, #70]	; 0x46
 800379c:	3b01      	subs	r3, #1
 800379e:	b29b      	uxth	r3, r3
 80037a0:	f8a4 3046 	strh.w	r3, [r4, #70]	; 0x46
 80037a4:	e7eb      	b.n	800377e <HAL_SPI_Receive+0xbc>
 80037a6:	6823      	ldr	r3, [r4, #0]
 80037a8:	689a      	ldr	r2, [r3, #8]
 80037aa:	07d0      	lsls	r0, r2, #31
 80037ac:	d51b      	bpl.n	80037e6 <HAL_SPI_Receive+0x124>
 80037ae:	6c22      	ldr	r2, [r4, #64]	; 0x40
 80037b0:	7b1b      	ldrb	r3, [r3, #12]
 80037b2:	7013      	strb	r3, [r2, #0]
 80037b4:	6c23      	ldr	r3, [r4, #64]	; 0x40
 80037b6:	3301      	adds	r3, #1
 80037b8:	6423      	str	r3, [r4, #64]	; 0x40
 80037ba:	f8b4 3046 	ldrh.w	r3, [r4, #70]	; 0x46
 80037be:	3b01      	subs	r3, #1
 80037c0:	b29b      	uxth	r3, r3
 80037c2:	f8a4 3046 	strh.w	r3, [r4, #70]	; 0x46
 80037c6:	f8b4 3046 	ldrh.w	r3, [r4, #70]	; 0x46
 80037ca:	b29b      	uxth	r3, r3
 80037cc:	2b00      	cmp	r3, #0
 80037ce:	d1ea      	bne.n	80037a6 <HAL_SPI_Receive+0xe4>
 80037d0:	4642      	mov	r2, r8
 80037d2:	4631      	mov	r1, r6
 80037d4:	4620      	mov	r0, r4
 80037d6:	f7ff fcb7 	bl	8003148 <SPI_EndRxTransaction>
 80037da:	bb18      	cbnz	r0, 8003824 <HAL_SPI_Receive+0x162>
 80037dc:	6e20      	ldr	r0, [r4, #96]	; 0x60
 80037de:	3800      	subs	r0, #0
 80037e0:	bf18      	it	ne
 80037e2:	2001      	movne	r0, #1
 80037e4:	e008      	b.n	80037f8 <HAL_SPI_Receive+0x136>
 80037e6:	f7fd fa81 	bl	8000cec <HAL_GetTick>
 80037ea:	eba0 0008 	sub.w	r0, r0, r8
 80037ee:	42b0      	cmp	r0, r6
 80037f0:	d309      	bcc.n	8003806 <HAL_SPI_Receive+0x144>
 80037f2:	1c71      	adds	r1, r6, #1
 80037f4:	d0e7      	beq.n	80037c6 <HAL_SPI_Receive+0x104>
 80037f6:	2003      	movs	r0, #3
 80037f8:	2301      	movs	r3, #1
 80037fa:	f884 305d 	strb.w	r3, [r4, #93]	; 0x5d
 80037fe:	2300      	movs	r3, #0
 8003800:	f884 305c 	strb.w	r3, [r4, #92]	; 0x5c
 8003804:	e771      	b.n	80036ea <HAL_SPI_Receive+0x28>
 8003806:	2e00      	cmp	r6, #0
 8003808:	d1dd      	bne.n	80037c6 <HAL_SPI_Receive+0x104>
 800380a:	e7f4      	b.n	80037f6 <HAL_SPI_Receive+0x134>
 800380c:	f7fd fa6e 	bl	8000cec <HAL_GetTick>
 8003810:	eba0 0008 	sub.w	r0, r0, r8
 8003814:	42b0      	cmp	r0, r6
 8003816:	d302      	bcc.n	800381e <HAL_SPI_Receive+0x15c>
 8003818:	1c73      	adds	r3, r6, #1
 800381a:	d0b0      	beq.n	800377e <HAL_SPI_Receive+0xbc>
 800381c:	e7eb      	b.n	80037f6 <HAL_SPI_Receive+0x134>
 800381e:	2e00      	cmp	r6, #0
 8003820:	d1ad      	bne.n	800377e <HAL_SPI_Receive+0xbc>
 8003822:	e7e8      	b.n	80037f6 <HAL_SPI_Receive+0x134>
 8003824:	2320      	movs	r3, #32
 8003826:	6623      	str	r3, [r4, #96]	; 0x60
 8003828:	e7d8      	b.n	80037dc <HAL_SPI_Receive+0x11a>
 800382a:	2002      	movs	r0, #2
 800382c:	e7e4      	b.n	80037f8 <HAL_SPI_Receive+0x136>
 800382e:	2002      	movs	r0, #2
 8003830:	e75b      	b.n	80036ea <HAL_SPI_Receive+0x28>

08003832 <HAL_TIM_OC_DelayElapsedCallback>:
 8003832:	4770      	bx	lr

08003834 <HAL_TIM_IC_CaptureCallback>:
 8003834:	4770      	bx	lr

08003836 <HAL_TIM_PWM_PulseFinishedCallback>:
 8003836:	4770      	bx	lr

08003838 <HAL_TIM_TriggerCallback>:
 8003838:	4770      	bx	lr

0800383a <HAL_TIM_IRQHandler>:
 800383a:	6803      	ldr	r3, [r0, #0]
 800383c:	691a      	ldr	r2, [r3, #16]
 800383e:	0791      	lsls	r1, r2, #30
 8003840:	b510      	push	{r4, lr}
 8003842:	4604      	mov	r4, r0
 8003844:	d50f      	bpl.n	8003866 <HAL_TIM_IRQHandler+0x2c>
 8003846:	68da      	ldr	r2, [r3, #12]
 8003848:	0792      	lsls	r2, r2, #30
 800384a:	d50c      	bpl.n	8003866 <HAL_TIM_IRQHandler+0x2c>
 800384c:	f06f 0202 	mvn.w	r2, #2
 8003850:	611a      	str	r2, [r3, #16]
 8003852:	2201      	movs	r2, #1
 8003854:	7702      	strb	r2, [r0, #28]
 8003856:	699b      	ldr	r3, [r3, #24]
 8003858:	0799      	lsls	r1, r3, #30
 800385a:	f000 8085 	beq.w	8003968 <HAL_TIM_IRQHandler+0x12e>
 800385e:	f7ff ffe9 	bl	8003834 <HAL_TIM_IC_CaptureCallback>
 8003862:	2300      	movs	r3, #0
 8003864:	7723      	strb	r3, [r4, #28]
 8003866:	6823      	ldr	r3, [r4, #0]
 8003868:	691a      	ldr	r2, [r3, #16]
 800386a:	0752      	lsls	r2, r2, #29
 800386c:	d510      	bpl.n	8003890 <HAL_TIM_IRQHandler+0x56>
 800386e:	68da      	ldr	r2, [r3, #12]
 8003870:	0750      	lsls	r0, r2, #29
 8003872:	d50d      	bpl.n	8003890 <HAL_TIM_IRQHandler+0x56>
 8003874:	f06f 0204 	mvn.w	r2, #4
 8003878:	611a      	str	r2, [r3, #16]
 800387a:	2202      	movs	r2, #2
 800387c:	7722      	strb	r2, [r4, #28]
 800387e:	699b      	ldr	r3, [r3, #24]
 8003880:	f413 7f40 	tst.w	r3, #768	; 0x300
 8003884:	4620      	mov	r0, r4
 8003886:	d075      	beq.n	8003974 <HAL_TIM_IRQHandler+0x13a>
 8003888:	f7ff ffd4 	bl	8003834 <HAL_TIM_IC_CaptureCallback>
 800388c:	2300      	movs	r3, #0
 800388e:	7723      	strb	r3, [r4, #28]
 8003890:	6823      	ldr	r3, [r4, #0]
 8003892:	691a      	ldr	r2, [r3, #16]
 8003894:	0711      	lsls	r1, r2, #28
 8003896:	d50f      	bpl.n	80038b8 <HAL_TIM_IRQHandler+0x7e>
 8003898:	68da      	ldr	r2, [r3, #12]
 800389a:	0712      	lsls	r2, r2, #28
 800389c:	d50c      	bpl.n	80038b8 <HAL_TIM_IRQHandler+0x7e>
 800389e:	f06f 0208 	mvn.w	r2, #8
 80038a2:	611a      	str	r2, [r3, #16]
 80038a4:	2204      	movs	r2, #4
 80038a6:	7722      	strb	r2, [r4, #28]
 80038a8:	69db      	ldr	r3, [r3, #28]
 80038aa:	079b      	lsls	r3, r3, #30
 80038ac:	4620      	mov	r0, r4
 80038ae:	d067      	beq.n	8003980 <HAL_TIM_IRQHandler+0x146>
 80038b0:	f7ff ffc0 	bl	8003834 <HAL_TIM_IC_CaptureCallback>
 80038b4:	2300      	movs	r3, #0
 80038b6:	7723      	strb	r3, [r4, #28]
 80038b8:	6823      	ldr	r3, [r4, #0]
 80038ba:	691a      	ldr	r2, [r3, #16]
 80038bc:	06d0      	lsls	r0, r2, #27
 80038be:	d510      	bpl.n	80038e2 <HAL_TIM_IRQHandler+0xa8>
 80038c0:	68da      	ldr	r2, [r3, #12]
 80038c2:	06d1      	lsls	r1, r2, #27
 80038c4:	d50d      	bpl.n	80038e2 <HAL_TIM_IRQHandler+0xa8>
 80038c6:	f06f 0210 	mvn.w	r2, #16
 80038ca:	611a      	str	r2, [r3, #16]
 80038cc:	2208      	movs	r2, #8
 80038ce:	7722      	strb	r2, [r4, #28]
 80038d0:	69db      	ldr	r3, [r3, #28]
 80038d2:	f413 7f40 	tst.w	r3, #768	; 0x300
 80038d6:	4620      	mov	r0, r4
 80038d8:	d058      	beq.n	800398c <HAL_TIM_IRQHandler+0x152>
 80038da:	f7ff ffab 	bl	8003834 <HAL_TIM_IC_CaptureCallback>
 80038de:	2300      	movs	r3, #0
 80038e0:	7723      	strb	r3, [r4, #28]
 80038e2:	6823      	ldr	r3, [r4, #0]
 80038e4:	691a      	ldr	r2, [r3, #16]
 80038e6:	07d2      	lsls	r2, r2, #31
 80038e8:	d508      	bpl.n	80038fc <HAL_TIM_IRQHandler+0xc2>
 80038ea:	68da      	ldr	r2, [r3, #12]
 80038ec:	07d0      	lsls	r0, r2, #31
 80038ee:	d505      	bpl.n	80038fc <HAL_TIM_IRQHandler+0xc2>
 80038f0:	f06f 0201 	mvn.w	r2, #1
 80038f4:	611a      	str	r2, [r3, #16]
 80038f6:	4620      	mov	r0, r4
 80038f8:	f7fc ffa2 	bl	8000840 <HAL_TIM_PeriodElapsedCallback>
 80038fc:	6823      	ldr	r3, [r4, #0]
 80038fe:	691a      	ldr	r2, [r3, #16]
 8003900:	0611      	lsls	r1, r2, #24
 8003902:	d508      	bpl.n	8003916 <HAL_TIM_IRQHandler+0xdc>
 8003904:	68da      	ldr	r2, [r3, #12]
 8003906:	0612      	lsls	r2, r2, #24
 8003908:	d505      	bpl.n	8003916 <HAL_TIM_IRQHandler+0xdc>
 800390a:	f06f 0280 	mvn.w	r2, #128	; 0x80
 800390e:	611a      	str	r2, [r3, #16]
 8003910:	4620      	mov	r0, r4
 8003912:	f000 f992 	bl	8003c3a <HAL_TIMEx_BreakCallback>
 8003916:	6823      	ldr	r3, [r4, #0]
 8003918:	691a      	ldr	r2, [r3, #16]
 800391a:	05d0      	lsls	r0, r2, #23
 800391c:	d508      	bpl.n	8003930 <HAL_TIM_IRQHandler+0xf6>
 800391e:	68da      	ldr	r2, [r3, #12]
 8003920:	0611      	lsls	r1, r2, #24
 8003922:	d505      	bpl.n	8003930 <HAL_TIM_IRQHandler+0xf6>
 8003924:	f46f 7280 	mvn.w	r2, #256	; 0x100
 8003928:	611a      	str	r2, [r3, #16]
 800392a:	4620      	mov	r0, r4
 800392c:	f000 f986 	bl	8003c3c <HAL_TIMEx_Break2Callback>
 8003930:	6823      	ldr	r3, [r4, #0]
 8003932:	691a      	ldr	r2, [r3, #16]
 8003934:	0652      	lsls	r2, r2, #25
 8003936:	d508      	bpl.n	800394a <HAL_TIM_IRQHandler+0x110>
 8003938:	68da      	ldr	r2, [r3, #12]
 800393a:	0650      	lsls	r0, r2, #25
 800393c:	d505      	bpl.n	800394a <HAL_TIM_IRQHandler+0x110>
 800393e:	f06f 0240 	mvn.w	r2, #64	; 0x40
 8003942:	611a      	str	r2, [r3, #16]
 8003944:	4620      	mov	r0, r4
 8003946:	f7ff ff77 	bl	8003838 <HAL_TIM_TriggerCallback>
 800394a:	6823      	ldr	r3, [r4, #0]
 800394c:	691a      	ldr	r2, [r3, #16]
 800394e:	0691      	lsls	r1, r2, #26
 8003950:	d522      	bpl.n	8003998 <HAL_TIM_IRQHandler+0x15e>
 8003952:	68da      	ldr	r2, [r3, #12]
 8003954:	0692      	lsls	r2, r2, #26
 8003956:	d51f      	bpl.n	8003998 <HAL_TIM_IRQHandler+0x15e>
 8003958:	f06f 0220 	mvn.w	r2, #32
 800395c:	4620      	mov	r0, r4
 800395e:	611a      	str	r2, [r3, #16]
 8003960:	e8bd 4010 	ldmia.w	sp!, {r4, lr}
 8003964:	f000 b968 	b.w	8003c38 <HAL_TIMEx_CommutCallback>
 8003968:	f7ff ff63 	bl	8003832 <HAL_TIM_OC_DelayElapsedCallback>
 800396c:	4620      	mov	r0, r4
 800396e:	f7ff ff62 	bl	8003836 <HAL_TIM_PWM_PulseFinishedCallback>
 8003972:	e776      	b.n	8003862 <HAL_TIM_IRQHandler+0x28>
 8003974:	f7ff ff5d 	bl	8003832 <HAL_TIM_OC_DelayElapsedCallback>
 8003978:	4620      	mov	r0, r4
 800397a:	f7ff ff5c 	bl	8003836 <HAL_TIM_PWM_PulseFinishedCallback>
 800397e:	e785      	b.n	800388c <HAL_TIM_IRQHandler+0x52>
 8003980:	f7ff ff57 	bl	8003832 <HAL_TIM_OC_DelayElapsedCallback>
 8003984:	4620      	mov	r0, r4
 8003986:	f7ff ff56 	bl	8003836 <HAL_TIM_PWM_PulseFinishedCallback>
 800398a:	e793      	b.n	80038b4 <HAL_TIM_IRQHandler+0x7a>
 800398c:	f7ff ff51 	bl	8003832 <HAL_TIM_OC_DelayElapsedCallback>
 8003990:	4620      	mov	r0, r4
 8003992:	f7ff ff50 	bl	8003836 <HAL_TIM_PWM_PulseFinishedCallback>
 8003996:	e7a2      	b.n	80038de <HAL_TIM_IRQHandler+0xa4>
 8003998:	bd10      	pop	{r4, pc}
	...

0800399c <TIM_Base_SetConfig>:
 800399c:	4a1d      	ldr	r2, [pc, #116]	; (8003a14 <TIM_Base_SetConfig+0x78>)
 800399e:	6803      	ldr	r3, [r0, #0]
 80039a0:	4290      	cmp	r0, r2
 80039a2:	b510      	push	{r4, lr}
 80039a4:	d005      	beq.n	80039b2 <TIM_Base_SetConfig+0x16>
 80039a6:	f1b0 4f80 	cmp.w	r0, #1073741824	; 0x40000000
 80039aa:	d002      	beq.n	80039b2 <TIM_Base_SetConfig+0x16>
 80039ac:	4c1a      	ldr	r4, [pc, #104]	; (8003a18 <TIM_Base_SetConfig+0x7c>)
 80039ae:	42a0      	cmp	r0, r4
 80039b0:	d10c      	bne.n	80039cc <TIM_Base_SetConfig+0x30>
 80039b2:	684c      	ldr	r4, [r1, #4]
 80039b4:	f023 0370 	bic.w	r3, r3, #112	; 0x70
 80039b8:	4290      	cmp	r0, r2
 80039ba:	ea43 0304 	orr.w	r3, r3, r4
 80039be:	d00c      	beq.n	80039da <TIM_Base_SetConfig+0x3e>
 80039c0:	f1b0 4f80 	cmp.w	r0, #1073741824	; 0x40000000
 80039c4:	d009      	beq.n	80039da <TIM_Base_SetConfig+0x3e>
 80039c6:	4a14      	ldr	r2, [pc, #80]	; (8003a18 <TIM_Base_SetConfig+0x7c>)
 80039c8:	4290      	cmp	r0, r2
 80039ca:	d006      	beq.n	80039da <TIM_Base_SetConfig+0x3e>
 80039cc:	4a13      	ldr	r2, [pc, #76]	; (8003a1c <TIM_Base_SetConfig+0x80>)
 80039ce:	4290      	cmp	r0, r2
 80039d0:	d003      	beq.n	80039da <TIM_Base_SetConfig+0x3e>
 80039d2:	f502 6280 	add.w	r2, r2, #1024	; 0x400
 80039d6:	4290      	cmp	r0, r2
 80039d8:	d103      	bne.n	80039e2 <TIM_Base_SetConfig+0x46>
 80039da:	68ca      	ldr	r2, [r1, #12]
 80039dc:	f423 7340 	bic.w	r3, r3, #768	; 0x300
 80039e0:	4313      	orrs	r3, r2
 80039e2:	694a      	ldr	r2, [r1, #20]
 80039e4:	f023 0380 	bic.w	r3, r3, #128	; 0x80
 80039e8:	4313      	orrs	r3, r2
 80039ea:	6003      	str	r3, [r0, #0]
 80039ec:	688b      	ldr	r3, [r1, #8]
 80039ee:	62c3      	str	r3, [r0, #44]	; 0x2c
 80039f0:	680b      	ldr	r3, [r1, #0]
 80039f2:	6283      	str	r3, [r0, #40]	; 0x28
 80039f4:	4b07      	ldr	r3, [pc, #28]	; (8003a14 <TIM_Base_SetConfig+0x78>)
 80039f6:	4298      	cmp	r0, r3
 80039f8:	d007      	beq.n	8003a0a <TIM_Base_SetConfig+0x6e>
 80039fa:	f503 53a0 	add.w	r3, r3, #5120	; 0x1400
 80039fe:	4298      	cmp	r0, r3
 8003a00:	d003      	beq.n	8003a0a <TIM_Base_SetConfig+0x6e>
 8003a02:	f503 6380 	add.w	r3, r3, #1024	; 0x400
 8003a06:	4298      	cmp	r0, r3
 8003a08:	d101      	bne.n	8003a0e <TIM_Base_SetConfig+0x72>
 8003a0a:	690b      	ldr	r3, [r1, #16]
 8003a0c:	6303      	str	r3, [r0, #48]	; 0x30
 8003a0e:	2301      	movs	r3, #1
 8003a10:	6143      	str	r3, [r0, #20]
 8003a12:	bd10      	pop	{r4, pc}
 8003a14:	40012c00 	.word	0x40012c00
 8003a18:	40000400 	.word	0x40000400
 8003a1c:	40014000 	.word	0x40014000

08003a20 <HAL_TIM_Base_Init>:
 8003a20:	b510      	push	{r4, lr}
 8003a22:	4604      	mov	r4, r0
 8003a24:	b350      	cbz	r0, 8003a7c <HAL_TIM_Base_Init+0x5c>
 8003a26:	f890 303d 	ldrb.w	r3, [r0, #61]	; 0x3d
 8003a2a:	f003 02ff 	and.w	r2, r3, #255	; 0xff
 8003a2e:	b91b      	cbnz	r3, 8003a38 <HAL_TIM_Base_Init+0x18>
 8003a30:	f880 203c 	strb.w	r2, [r0, #60]	; 0x3c
 8003a34:	f7fd f8d0 	bl	8000bd8 <HAL_TIM_Base_MspInit>
 8003a38:	2302      	movs	r3, #2
 8003a3a:	6820      	ldr	r0, [r4, #0]
 8003a3c:	f884 303d 	strb.w	r3, [r4, #61]	; 0x3d
 8003a40:	1d21      	adds	r1, r4, #4
 8003a42:	f7ff ffab 	bl	800399c <TIM_Base_SetConfig>
 8003a46:	2301      	movs	r3, #1
 8003a48:	f884 3048 	strb.w	r3, [r4, #72]	; 0x48
 8003a4c:	2000      	movs	r0, #0
 8003a4e:	f884 303e 	strb.w	r3, [r4, #62]	; 0x3e
 8003a52:	f884 303f 	strb.w	r3, [r4, #63]	; 0x3f
 8003a56:	f884 3040 	strb.w	r3, [r4, #64]	; 0x40
 8003a5a:	f884 3041 	strb.w	r3, [r4, #65]	; 0x41
 8003a5e:	f884 3042 	strb.w	r3, [r4, #66]	; 0x42
 8003a62:	f884 3043 	strb.w	r3, [r4, #67]	; 0x43
 8003a66:	f884 3044 	strb.w	r3, [r4, #68]	; 0x44
 8003a6a:	f884 3045 	strb.w	r3, [r4, #69]	; 0x45
 8003a6e:	f884 3046 	strb.w	r3, [r4, #70]	; 0x46
 8003a72:	f884 3047 	strb.w	r3, [r4, #71]	; 0x47
 8003a76:	f884 303d 	strb.w	r3, [r4, #61]	; 0x3d
 8003a7a:	bd10      	pop	{r4, pc}
 8003a7c:	2001      	movs	r0, #1
 8003a7e:	e7fc      	b.n	8003a7a <HAL_TIM_Base_Init+0x5a>

08003a80 <TIM_ETR_SetConfig>:
 8003a80:	b510      	push	{r4, lr}
 8003a82:	6884      	ldr	r4, [r0, #8]
 8003a84:	4311      	orrs	r1, r2
 8003a86:	f424 447f 	bic.w	r4, r4, #65280	; 0xff00
 8003a8a:	ea41 2303 	orr.w	r3, r1, r3, lsl #8
 8003a8e:	4323      	orrs	r3, r4
 8003a90:	6083      	str	r3, [r0, #8]
 8003a92:	bd10      	pop	{r4, pc}

08003a94 <HAL_TIM_ConfigClockSource>:
 8003a94:	b570      	push	{r4, r5, r6, lr}
 8003a96:	f890 303c 	ldrb.w	r3, [r0, #60]	; 0x3c
 8003a9a:	2b01      	cmp	r3, #1
 8003a9c:	4604      	mov	r4, r0
 8003a9e:	f04f 0302 	mov.w	r3, #2
 8003aa2:	f000 808f 	beq.w	8003bc4 <HAL_TIM_ConfigClockSource+0x130>
 8003aa6:	2201      	movs	r2, #1
 8003aa8:	f880 303d 	strb.w	r3, [r0, #61]	; 0x3d
 8003aac:	f880 203c 	strb.w	r2, [r0, #60]	; 0x3c
 8003ab0:	6800      	ldr	r0, [r0, #0]
 8003ab2:	4b45      	ldr	r3, [pc, #276]	; (8003bc8 <HAL_TIM_ConfigClockSource+0x134>)
 8003ab4:	6885      	ldr	r5, [r0, #8]
 8003ab6:	402b      	ands	r3, r5
 8003ab8:	6083      	str	r3, [r0, #8]
 8003aba:	680b      	ldr	r3, [r1, #0]
 8003abc:	2b60      	cmp	r3, #96	; 0x60
 8003abe:	d052      	beq.n	8003b66 <HAL_TIM_ConfigClockSource+0xd2>
 8003ac0:	d833      	bhi.n	8003b2a <HAL_TIM_ConfigClockSource+0x96>
 8003ac2:	2b40      	cmp	r3, #64	; 0x40
 8003ac4:	d067      	beq.n	8003b96 <HAL_TIM_ConfigClockSource+0x102>
 8003ac6:	d816      	bhi.n	8003af6 <HAL_TIM_ConfigClockSource+0x62>
 8003ac8:	2b20      	cmp	r3, #32
 8003aca:	d00d      	beq.n	8003ae8 <HAL_TIM_ConfigClockSource+0x54>
 8003acc:	d80a      	bhi.n	8003ae4 <HAL_TIM_ConfigClockSource+0x50>
 8003ace:	f033 0110 	bics.w	r1, r3, #16
 8003ad2:	d009      	beq.n	8003ae8 <HAL_TIM_ConfigClockSource+0x54>
 8003ad4:	2301      	movs	r3, #1
 8003ad6:	f884 303d 	strb.w	r3, [r4, #61]	; 0x3d
 8003ada:	2300      	movs	r3, #0
 8003adc:	f884 303c 	strb.w	r3, [r4, #60]	; 0x3c
 8003ae0:	4610      	mov	r0, r2
 8003ae2:	bd70      	pop	{r4, r5, r6, pc}
 8003ae4:	2b30      	cmp	r3, #48	; 0x30
 8003ae6:	d1f5      	bne.n	8003ad4 <HAL_TIM_ConfigClockSource+0x40>
 8003ae8:	6882      	ldr	r2, [r0, #8]
 8003aea:	f022 0270 	bic.w	r2, r2, #112	; 0x70
 8003aee:	4313      	orrs	r3, r2
 8003af0:	f043 0307 	orr.w	r3, r3, #7
 8003af4:	e017      	b.n	8003b26 <HAL_TIM_ConfigClockSource+0x92>
 8003af6:	2b50      	cmp	r3, #80	; 0x50
 8003af8:	d1ec      	bne.n	8003ad4 <HAL_TIM_ConfigClockSource+0x40>
 8003afa:	684a      	ldr	r2, [r1, #4]
 8003afc:	68ce      	ldr	r6, [r1, #12]
 8003afe:	6a01      	ldr	r1, [r0, #32]
 8003b00:	6a05      	ldr	r5, [r0, #32]
 8003b02:	f025 0501 	bic.w	r5, r5, #1
 8003b06:	6205      	str	r5, [r0, #32]
 8003b08:	6983      	ldr	r3, [r0, #24]
 8003b0a:	f021 010a 	bic.w	r1, r1, #10
 8003b0e:	f023 03f0 	bic.w	r3, r3, #240	; 0xf0
 8003b12:	ea43 1306 	orr.w	r3, r3, r6, lsl #4
 8003b16:	430a      	orrs	r2, r1
 8003b18:	6183      	str	r3, [r0, #24]
 8003b1a:	6202      	str	r2, [r0, #32]
 8003b1c:	6883      	ldr	r3, [r0, #8]
 8003b1e:	f023 0370 	bic.w	r3, r3, #112	; 0x70
 8003b22:	f043 0357 	orr.w	r3, r3, #87	; 0x57
 8003b26:	6083      	str	r3, [r0, #8]
 8003b28:	e011      	b.n	8003b4e <HAL_TIM_ConfigClockSource+0xba>
 8003b2a:	f5b3 5f80 	cmp.w	r3, #4096	; 0x1000
 8003b2e:	d00e      	beq.n	8003b4e <HAL_TIM_ConfigClockSource+0xba>
 8003b30:	f5b3 5f00 	cmp.w	r3, #8192	; 0x2000
 8003b34:	d00d      	beq.n	8003b52 <HAL_TIM_ConfigClockSource+0xbe>
 8003b36:	2b70      	cmp	r3, #112	; 0x70
 8003b38:	d1cc      	bne.n	8003ad4 <HAL_TIM_ConfigClockSource+0x40>
 8003b3a:	68cb      	ldr	r3, [r1, #12]
 8003b3c:	e9d1 2101 	ldrd	r2, r1, [r1, #4]
 8003b40:	f7ff ff9e 	bl	8003a80 <TIM_ETR_SetConfig>
 8003b44:	6822      	ldr	r2, [r4, #0]
 8003b46:	6893      	ldr	r3, [r2, #8]
 8003b48:	f043 0377 	orr.w	r3, r3, #119	; 0x77
 8003b4c:	6093      	str	r3, [r2, #8]
 8003b4e:	2200      	movs	r2, #0
 8003b50:	e7c0      	b.n	8003ad4 <HAL_TIM_ConfigClockSource+0x40>
 8003b52:	68cb      	ldr	r3, [r1, #12]
 8003b54:	e9d1 2101 	ldrd	r2, r1, [r1, #4]
 8003b58:	f7ff ff92 	bl	8003a80 <TIM_ETR_SetConfig>
 8003b5c:	6822      	ldr	r2, [r4, #0]
 8003b5e:	6893      	ldr	r3, [r2, #8]
 8003b60:	f443 4380 	orr.w	r3, r3, #16384	; 0x4000
 8003b64:	e7f2      	b.n	8003b4c <HAL_TIM_ConfigClockSource+0xb8>
 8003b66:	684d      	ldr	r5, [r1, #4]
 8003b68:	68ce      	ldr	r6, [r1, #12]
 8003b6a:	6a01      	ldr	r1, [r0, #32]
 8003b6c:	f021 0110 	bic.w	r1, r1, #16
 8003b70:	6201      	str	r1, [r0, #32]
 8003b72:	6982      	ldr	r2, [r0, #24]
 8003b74:	6a03      	ldr	r3, [r0, #32]
 8003b76:	f422 4270 	bic.w	r2, r2, #61440	; 0xf000
 8003b7a:	f023 03a0 	bic.w	r3, r3, #160	; 0xa0
 8003b7e:	ea43 1305 	orr.w	r3, r3, r5, lsl #4
 8003b82:	ea42 3206 	orr.w	r2, r2, r6, lsl #12
 8003b86:	6182      	str	r2, [r0, #24]
 8003b88:	6203      	str	r3, [r0, #32]
 8003b8a:	6883      	ldr	r3, [r0, #8]
 8003b8c:	f023 0370 	bic.w	r3, r3, #112	; 0x70
 8003b90:	f043 0367 	orr.w	r3, r3, #103	; 0x67
 8003b94:	e7c7      	b.n	8003b26 <HAL_TIM_ConfigClockSource+0x92>
 8003b96:	684a      	ldr	r2, [r1, #4]
 8003b98:	68ce      	ldr	r6, [r1, #12]
 8003b9a:	6a01      	ldr	r1, [r0, #32]
 8003b9c:	6a05      	ldr	r5, [r0, #32]
 8003b9e:	f025 0501 	bic.w	r5, r5, #1
 8003ba2:	6205      	str	r5, [r0, #32]
 8003ba4:	6983      	ldr	r3, [r0, #24]
 8003ba6:	f021 010a 	bic.w	r1, r1, #10
 8003baa:	f023 03f0 	bic.w	r3, r3, #240	; 0xf0
 8003bae:	ea43 1306 	orr.w	r3, r3, r6, lsl #4
 8003bb2:	430a      	orrs	r2, r1
 8003bb4:	6183      	str	r3, [r0, #24]
 8003bb6:	6202      	str	r2, [r0, #32]
 8003bb8:	6883      	ldr	r3, [r0, #8]
 8003bba:	f023 0370 	bic.w	r3, r3, #112	; 0x70
 8003bbe:	f043 0347 	orr.w	r3, r3, #71	; 0x47
 8003bc2:	e7b0      	b.n	8003b26 <HAL_TIM_ConfigClockSource+0x92>
 8003bc4:	461a      	mov	r2, r3
 8003bc6:	e78b      	b.n	8003ae0 <HAL_TIM_ConfigClockSource+0x4c>
 8003bc8:	fffe0088 	.word	0xfffe0088

08003bcc <HAL_TIMEx_MasterConfigSynchronization>:
 8003bcc:	b570      	push	{r4, r5, r6, lr}
 8003bce:	f890 303c 	ldrb.w	r3, [r0, #60]	; 0x3c
 8003bd2:	2b01      	cmp	r3, #1
 8003bd4:	f04f 0302 	mov.w	r3, #2
 8003bd8:	d027      	beq.n	8003c2a <HAL_TIMEx_MasterConfigSynchronization+0x5e>
 8003bda:	f880 303d 	strb.w	r3, [r0, #61]	; 0x3d
 8003bde:	4d14      	ldr	r5, [pc, #80]	; (8003c30 <HAL_TIMEx_MasterConfigSynchronization+0x64>)
 8003be0:	6803      	ldr	r3, [r0, #0]
 8003be2:	685a      	ldr	r2, [r3, #4]
 8003be4:	689c      	ldr	r4, [r3, #8]
 8003be6:	42ab      	cmp	r3, r5
 8003be8:	bf02      	ittt	eq
 8003bea:	684e      	ldreq	r6, [r1, #4]
 8003bec:	f422 0270 	biceq.w	r2, r2, #15728640	; 0xf00000
 8003bf0:	4332      	orreq	r2, r6
 8003bf2:	680e      	ldr	r6, [r1, #0]
 8003bf4:	f022 0270 	bic.w	r2, r2, #112	; 0x70
 8003bf8:	4332      	orrs	r2, r6
 8003bfa:	42ab      	cmp	r3, r5
 8003bfc:	605a      	str	r2, [r3, #4]
 8003bfe:	d009      	beq.n	8003c14 <HAL_TIMEx_MasterConfigSynchronization+0x48>
 8003c00:	f1b3 4f80 	cmp.w	r3, #1073741824	; 0x40000000
 8003c04:	d006      	beq.n	8003c14 <HAL_TIMEx_MasterConfigSynchronization+0x48>
 8003c06:	4a0b      	ldr	r2, [pc, #44]	; (8003c34 <HAL_TIMEx_MasterConfigSynchronization+0x68>)
 8003c08:	4293      	cmp	r3, r2
 8003c0a:	d003      	beq.n	8003c14 <HAL_TIMEx_MasterConfigSynchronization+0x48>
 8003c0c:	f502 329e 	add.w	r2, r2, #80896	; 0x13c00
 8003c10:	4293      	cmp	r3, r2
 8003c12:	d104      	bne.n	8003c1e <HAL_TIMEx_MasterConfigSynchronization+0x52>
 8003c14:	6889      	ldr	r1, [r1, #8]
 8003c16:	f024 0280 	bic.w	r2, r4, #128	; 0x80
 8003c1a:	430a      	orrs	r2, r1
 8003c1c:	609a      	str	r2, [r3, #8]
 8003c1e:	2301      	movs	r3, #1
 8003c20:	f880 303d 	strb.w	r3, [r0, #61]	; 0x3d
 8003c24:	2300      	movs	r3, #0
 8003c26:	f880 303c 	strb.w	r3, [r0, #60]	; 0x3c
 8003c2a:	4618      	mov	r0, r3
 8003c2c:	bd70      	pop	{r4, r5, r6, pc}
 8003c2e:	bf00      	nop
 8003c30:	40012c00 	.word	0x40012c00
 8003c34:	40000400 	.word	0x40000400

08003c38 <HAL_TIMEx_CommutCallback>:
 8003c38:	4770      	bx	lr

08003c3a <HAL_TIMEx_BreakCallback>:
 8003c3a:	4770      	bx	lr

08003c3c <HAL_TIMEx_Break2Callback>:
 8003c3c:	4770      	bx	lr
	...

08003c40 <HEAT_enableHeater>:
 8003c40:	4b02      	ldr	r3, [pc, #8]	; (8003c4c <HEAT_enableHeater+0xc>)
 8003c42:	2101      	movs	r1, #1
 8003c44:	5c18      	ldrb	r0, [r3, r0]
 8003c46:	f000 b8cb 	b.w	8003de0 <MAX7300_setPin>
 8003c4a:	bf00      	nop
 8003c4c:	08003f38 	.word	0x08003f38

08003c50 <HEAT_disableHeater>:
 8003c50:	4b02      	ldr	r3, [pc, #8]	; (8003c5c <HEAT_disableHeater+0xc>)
 8003c52:	2100      	movs	r1, #0
 8003c54:	5c18      	ldrb	r0, [r3, r0]
 8003c56:	f000 b8c3 	b.w	8003de0 <MAX7300_setPin>
 8003c5a:	bf00      	nop
 8003c5c:	08003f38 	.word	0x08003f38

08003c60 <LED_enableLED>:
 8003c60:	4b02      	ldr	r3, [pc, #8]	; (8003c6c <LED_enableLED+0xc>)
 8003c62:	2101      	movs	r1, #1
 8003c64:	5c18      	ldrb	r0, [r3, r0]
 8003c66:	f000 b8bb 	b.w	8003de0 <MAX7300_setPin>
 8003c6a:	bf00      	nop
 8003c6c:	08003f43 	.word	0x08003f43

08003c70 <LED_disableLED>:
 8003c70:	4b02      	ldr	r3, [pc, #8]	; (8003c7c <LED_disableLED+0xc>)
 8003c72:	2100      	movs	r1, #0
 8003c74:	5c18      	ldrb	r0, [r3, r0]
 8003c76:	f000 b8b3 	b.w	8003de0 <MAX7300_setPin>
 8003c7a:	bf00      	nop
 8003c7c:	08003f43 	.word	0x08003f43

08003c80 <LIGHT_getWellLightReading>:
 8003c80:	b508      	push	{r3, lr}
 8003c82:	3801      	subs	r0, #1
 8003c84:	f000 f8d6 	bl	8003e34 <TLV2553_measureChannel>
 8003c88:	b280      	uxth	r0, r0
 8003c8a:	bd08      	pop	{r3, pc}

08003c8c <TEMP_getWellTemperatureReading>:
 8003c8c:	b510      	push	{r4, lr}
 8003c8e:	b086      	sub	sp, #24
 8003c90:	2300      	movs	r3, #0
 8003c92:	9305      	str	r3, [sp, #20]
 8003c94:	4b13      	ldr	r3, [pc, #76]	; (8003ce4 <TEMP_getWellTemperatureReading+0x58>)
 8003c96:	f853 3020 	ldr.w	r3, [r3, r0, lsl #2]
 8003c9a:	9300      	str	r3, [sp, #0]
 8003c9c:	2206      	movs	r2, #6
 8003c9e:	2307      	movs	r3, #7
 8003ca0:	e9cd 2301 	strd	r2, r3, [sp, #4]
 8003ca4:	247f      	movs	r4, #127	; 0x7f
 8003ca6:	2304      	movs	r3, #4
 8003ca8:	4669      	mov	r1, sp
 8003caa:	480f      	ldr	r0, [pc, #60]	; (8003ce8 <TEMP_getWellTemperatureReading+0x5c>)
 8003cac:	e9cd 4303 	strd	r4, r3, [sp, #12]
 8003cb0:	f7fd f974 	bl	8000f9c <HAL_ADC_ConfigChannel>
 8003cb4:	480c      	ldr	r0, [pc, #48]	; (8003ce8 <TEMP_getWellTemperatureReading+0x5c>)
 8003cb6:	4621      	mov	r1, r4
 8003cb8:	f7fd fc8c 	bl	80015d4 <HAL_ADCEx_Calibration_Start>
 8003cbc:	480a      	ldr	r0, [pc, #40]	; (8003ce8 <TEMP_getWellTemperatureReading+0x5c>)
 8003cbe:	f7fd fbf5 	bl	80014ac <HAL_ADC_Start>
 8003cc2:	4809      	ldr	r0, [pc, #36]	; (8003ce8 <TEMP_getWellTemperatureReading+0x5c>)
 8003cc4:	2101      	movs	r1, #1
 8003cc6:	f7fd f915 	bl	8000ef4 <HAL_ADC_PollForConversion>
 8003cca:	2800      	cmp	r0, #0
 8003ccc:	d1f9      	bne.n	8003cc2 <TEMP_getWellTemperatureReading+0x36>
 8003cce:	4806      	ldr	r0, [pc, #24]	; (8003ce8 <TEMP_getWellTemperatureReading+0x5c>)
 8003cd0:	f7fd f961 	bl	8000f96 <HAL_ADC_GetValue>
 8003cd4:	4604      	mov	r4, r0
 8003cd6:	4804      	ldr	r0, [pc, #16]	; (8003ce8 <TEMP_getWellTemperatureReading+0x5c>)
 8003cd8:	f7fd fc5d 	bl	8001596 <HAL_ADC_Stop>
 8003cdc:	f3c4 000b 	ubfx	r0, r4, #0, #12
 8003ce0:	b006      	add	sp, #24
 8003ce2:	bd10      	pop	{r4, pc}
 8003ce4:	08003f50 	.word	0x08003f50
 8003ce8:	20000028 	.word	0x20000028

08003cec <THERM_enableThermostat>:
 8003cec:	4b03      	ldr	r3, [pc, #12]	; (8003cfc <THERM_enableThermostat+0x10>)
 8003cee:	2201      	movs	r2, #1
 8003cf0:	f833 1010 	ldrh.w	r1, [r3, r0, lsl #1]
 8003cf4:	4802      	ldr	r0, [pc, #8]	; (8003d00 <THERM_enableThermostat+0x14>)
 8003cf6:	f7fe b8d5 	b.w	8001ea4 <HAL_GPIO_WritePin>
 8003cfa:	bf00      	nop
 8003cfc:	08003f7c 	.word	0x08003f7c
 8003d00:	48000400 	.word	0x48000400

08003d04 <THERM_disableThermostat>:
 8003d04:	4b03      	ldr	r3, [pc, #12]	; (8003d14 <THERM_disableThermostat+0x10>)
 8003d06:	2200      	movs	r2, #0
 8003d08:	f833 1010 	ldrh.w	r1, [r3, r0, lsl #1]
 8003d0c:	4802      	ldr	r0, [pc, #8]	; (8003d18 <THERM_disableThermostat+0x14>)
 8003d0e:	f7fe b8c9 	b.w	8001ea4 <HAL_GPIO_WritePin>
 8003d12:	bf00      	nop
 8003d14:	08003f7c 	.word	0x08003f7c
 8003d18:	48000400 	.word	0x48000400

08003d1c <MAX6822_Toggle_WDI>:
 8003d1c:	4802      	ldr	r0, [pc, #8]	; (8003d28 <MAX6822_Toggle_WDI+0xc>)
 8003d1e:	f44f 7100 	mov.w	r1, #512	; 0x200
 8003d22:	f7fe b8c4 	b.w	8001eae <HAL_GPIO_TogglePin>
 8003d26:	bf00      	nop
 8003d28:	48000800 	.word	0x48000800

08003d2c <MAX6822_Manual_Reset>:
 8003d2c:	4802      	ldr	r0, [pc, #8]	; (8003d38 <MAX6822_Manual_Reset+0xc>)
 8003d2e:	2200      	movs	r2, #0
 8003d30:	f44f 7180 	mov.w	r1, #256	; 0x100
 8003d34:	f7fe b8b6 	b.w	8001ea4 <HAL_GPIO_WritePin>
 8003d38:	48000800 	.word	0x48000800

08003d3c <MAX7300_Init>:
 8003d3c:	e92d 41f3 	stmdb	sp!, {r0, r1, r4, r5, r6, r7, r8, lr}
 8003d40:	4a23      	ldr	r2, [pc, #140]	; (8003dd0 <MAX7300_Init+0x94>)
 8003d42:	232c      	movs	r3, #44	; 0x2c
 8003d44:	f802 3b01 	strb.w	r3, [r2], #1
 8003d48:	3301      	adds	r3, #1
 8003d4a:	2b40      	cmp	r3, #64	; 0x40
 8003d4c:	d1fa      	bne.n	8003d44 <MAX7300_Init+0x8>
 8003d4e:	4c21      	ldr	r4, [pc, #132]	; (8003dd4 <MAX7300_Init+0x98>)
 8003d50:	4821      	ldr	r0, [pc, #132]	; (8003dd8 <MAX7300_Init+0x9c>)
 8003d52:	4e22      	ldr	r6, [pc, #136]	; (8003ddc <MAX7300_Init+0xa0>)
 8003d54:	250a      	movs	r5, #10
 8003d56:	2304      	movs	r3, #4
 8003d58:	2701      	movs	r7, #1
 8003d5a:	7023      	strb	r3, [r4, #0]
 8003d5c:	9500      	str	r5, [sp, #0]
 8003d5e:	2302      	movs	r3, #2
 8003d60:	4622      	mov	r2, r4
 8003d62:	2180      	movs	r1, #128	; 0x80
 8003d64:	7067      	strb	r7, [r4, #1]
 8003d66:	f7fe fa21 	bl	80021ac <HAL_I2C_Master_Transmit>
 8003d6a:	4620      	mov	r0, r4
 8003d6c:	7b33      	ldrb	r3, [r6, #12]
 8003d6e:	f800 3b0c 	strb.w	r3, [r0], #12
 8003d72:	4639      	mov	r1, r7
 8003d74:	2214      	movs	r2, #20
 8003d76:	f000 f8ab 	bl	8003ed0 <memset>
 8003d7a:	9500      	str	r5, [sp, #0]
 8003d7c:	2315      	movs	r3, #21
 8003d7e:	4622      	mov	r2, r4
 8003d80:	2180      	movs	r1, #128	; 0x80
 8003d82:	4815      	ldr	r0, [pc, #84]	; (8003dd8 <MAX7300_Init+0x9c>)
 8003d84:	4f14      	ldr	r7, [pc, #80]	; (8003dd8 <MAX7300_Init+0x9c>)
 8003d86:	f7fe fa11 	bl	80021ac <HAL_I2C_Master_Transmit>
 8003d8a:	230b      	movs	r3, #11
 8003d8c:	7023      	strb	r3, [r4, #0]
 8003d8e:	2355      	movs	r3, #85	; 0x55
 8003d90:	7063      	strb	r3, [r4, #1]
 8003d92:	70a3      	strb	r3, [r4, #2]
 8003d94:	70e3      	strb	r3, [r4, #3]
 8003d96:	7123      	strb	r3, [r4, #4]
 8003d98:	9500      	str	r5, [sp, #0]
 8003d9a:	480f      	ldr	r0, [pc, #60]	; (8003dd8 <MAX7300_Init+0x9c>)
 8003d9c:	2305      	movs	r3, #5
 8003d9e:	4622      	mov	r2, r4
 8003da0:	2180      	movs	r1, #128	; 0x80
 8003da2:	f7fe fa03 	bl	80021ac <HAL_I2C_Master_Transmit>
 8003da6:	250c      	movs	r5, #12
 8003da8:	f04f 0800 	mov.w	r8, #0
 8003dac:	5d73      	ldrb	r3, [r6, r5]
 8003dae:	7023      	strb	r3, [r4, #0]
 8003db0:	230a      	movs	r3, #10
 8003db2:	9300      	str	r3, [sp, #0]
 8003db4:	4622      	mov	r2, r4
 8003db6:	2302      	movs	r3, #2
 8003db8:	2180      	movs	r1, #128	; 0x80
 8003dba:	4638      	mov	r0, r7
 8003dbc:	3501      	adds	r5, #1
 8003dbe:	f884 8001 	strb.w	r8, [r4, #1]
 8003dc2:	f7fe f9f3 	bl	80021ac <HAL_I2C_Master_Transmit>
 8003dc6:	2d20      	cmp	r5, #32
 8003dc8:	d1f0      	bne.n	8003dac <MAX7300_Init+0x70>
 8003dca:	b002      	add	sp, #8
 8003dcc:	e8bd 81f0 	ldmia.w	sp!, {r4, r5, r6, r7, r8, pc}
 8003dd0:	20000624 	.word	0x20000624
 8003dd4:	20000638 	.word	0x20000638
 8003dd8:	200000b8 	.word	0x200000b8
 8003ddc:	20000618 	.word	0x20000618

08003de0 <MAX7300_setPin>:
 8003de0:	f1a0 030c 	sub.w	r3, r0, #12
 8003de4:	2b13      	cmp	r3, #19
 8003de6:	b507      	push	{r0, r1, r2, lr}
 8003de8:	d80d      	bhi.n	8003e06 <MAX7300_setPin+0x26>
 8003dea:	2901      	cmp	r1, #1
 8003dec:	d80b      	bhi.n	8003e06 <MAX7300_setPin+0x26>
 8003dee:	4b07      	ldr	r3, [pc, #28]	; (8003e0c <MAX7300_setPin+0x2c>)
 8003df0:	4a07      	ldr	r2, [pc, #28]	; (8003e10 <MAX7300_setPin+0x30>)
 8003df2:	5c1b      	ldrb	r3, [r3, r0]
 8003df4:	7013      	strb	r3, [r2, #0]
 8003df6:	230a      	movs	r3, #10
 8003df8:	7051      	strb	r1, [r2, #1]
 8003dfa:	4806      	ldr	r0, [pc, #24]	; (8003e14 <MAX7300_setPin+0x34>)
 8003dfc:	9300      	str	r3, [sp, #0]
 8003dfe:	2180      	movs	r1, #128	; 0x80
 8003e00:	2302      	movs	r3, #2
 8003e02:	f7fe f9d3 	bl	80021ac <HAL_I2C_Master_Transmit>
 8003e06:	b003      	add	sp, #12
 8003e08:	f85d fb04 	ldr.w	pc, [sp], #4
 8003e0c:	20000618 	.word	0x20000618
 8003e10:	20000638 	.word	0x20000638
 8003e14:	200000b8 	.word	0x200000b8

08003e18 <TLV2553_enableCS>:
 8003e18:	2200      	movs	r2, #0
 8003e1a:	f44f 7180 	mov.w	r1, #256	; 0x100
 8003e1e:	f04f 4090 	mov.w	r0, #1207959552	; 0x48000000
 8003e22:	f7fe b83f 	b.w	8001ea4 <HAL_GPIO_WritePin>

08003e26 <TLV2553_disableCS>:
 8003e26:	2201      	movs	r2, #1
 8003e28:	f44f 7180 	mov.w	r1, #256	; 0x100
 8003e2c:	f04f 4090 	mov.w	r0, #1207959552	; 0x48000000
 8003e30:	f7fe b838 	b.w	8001ea4 <HAL_GPIO_WritePin>

08003e34 <TLV2553_measureChannel>:
 8003e34:	b513      	push	{r0, r1, r4, lr}
 8003e36:	4c13      	ldr	r4, [pc, #76]	; (8003e84 <TLV2553_measureChannel+0x50>)
 8003e38:	0100      	lsls	r0, r0, #4
 8003e3a:	2300      	movs	r3, #0
 8003e3c:	f040 000c 	orr.w	r0, r0, #12
 8003e40:	f8ad 3004 	strh.w	r3, [sp, #4]
 8003e44:	f88d 0003 	strb.w	r0, [sp, #3]
 8003e48:	f7ff ffe6 	bl	8003e18 <TLV2553_enableCS>
 8003e4c:	f10d 0103 	add.w	r1, sp, #3
 8003e50:	230a      	movs	r3, #10
 8003e52:	2201      	movs	r2, #1
 8003e54:	4620      	mov	r0, r4
 8003e56:	f7ff fa3f 	bl	80032d8 <HAL_SPI_Transmit>
 8003e5a:	f7ff ffe4 	bl	8003e26 <TLV2553_disableCS>
 8003e5e:	2005      	movs	r0, #5
 8003e60:	f7fc ff4a 	bl	8000cf8 <HAL_Delay>
 8003e64:	f7ff ffd8 	bl	8003e18 <TLV2553_enableCS>
 8003e68:	230a      	movs	r3, #10
 8003e6a:	2202      	movs	r2, #2
 8003e6c:	a901      	add	r1, sp, #4
 8003e6e:	4620      	mov	r0, r4
 8003e70:	f7ff fc27 	bl	80036c2 <HAL_SPI_Receive>
 8003e74:	f8bd 0004 	ldrh.w	r0, [sp, #4]
 8003e78:	ba40      	rev16	r0, r0
 8003e7a:	f3c0 100b 	ubfx	r0, r0, #4, #12
 8003e7e:	b002      	add	sp, #8
 8003e80:	bd10      	pop	{r4, pc}
 8003e82:	bf00      	nop
 8003e84:	20000564 	.word	0x20000564

08003e88 <__libc_init_array>:
 8003e88:	b570      	push	{r4, r5, r6, lr}
 8003e8a:	4d0d      	ldr	r5, [pc, #52]	; (8003ec0 <__libc_init_array+0x38>)
 8003e8c:	4c0d      	ldr	r4, [pc, #52]	; (8003ec4 <__libc_init_array+0x3c>)
 8003e8e:	1b64      	subs	r4, r4, r5
 8003e90:	10a4      	asrs	r4, r4, #2
 8003e92:	2600      	movs	r6, #0
 8003e94:	42a6      	cmp	r6, r4
 8003e96:	d109      	bne.n	8003eac <__libc_init_array+0x24>
 8003e98:	4d0b      	ldr	r5, [pc, #44]	; (8003ec8 <__libc_init_array+0x40>)
 8003e9a:	4c0c      	ldr	r4, [pc, #48]	; (8003ecc <__libc_init_array+0x44>)
 8003e9c:	f000 f820 	bl	8003ee0 <_init>
 8003ea0:	1b64      	subs	r4, r4, r5
 8003ea2:	10a4      	asrs	r4, r4, #2
 8003ea4:	2600      	movs	r6, #0
 8003ea6:	42a6      	cmp	r6, r4
 8003ea8:	d105      	bne.n	8003eb6 <__libc_init_array+0x2e>
 8003eaa:	bd70      	pop	{r4, r5, r6, pc}
 8003eac:	f855 3b04 	ldr.w	r3, [r5], #4
 8003eb0:	4798      	blx	r3
 8003eb2:	3601      	adds	r6, #1
 8003eb4:	e7ee      	b.n	8003e94 <__libc_init_array+0xc>
 8003eb6:	f855 3b04 	ldr.w	r3, [r5], #4
 8003eba:	4798      	blx	r3
 8003ebc:	3601      	adds	r6, #1
 8003ebe:	e7f2      	b.n	8003ea6 <__libc_init_array+0x1e>
 8003ec0:	08003f94 	.word	0x08003f94
 8003ec4:	08003f94 	.word	0x08003f94
 8003ec8:	08003f94 	.word	0x08003f94
 8003ecc:	08003f98 	.word	0x08003f98

08003ed0 <memset>:
 8003ed0:	4402      	add	r2, r0
 8003ed2:	4603      	mov	r3, r0
 8003ed4:	4293      	cmp	r3, r2
 8003ed6:	d100      	bne.n	8003eda <memset+0xa>
 8003ed8:	4770      	bx	lr
 8003eda:	f803 1b01 	strb.w	r1, [r3], #1
 8003ede:	e7f9      	b.n	8003ed4 <memset+0x4>

08003ee0 <_init>:
 8003ee0:	b5f8      	push	{r3, r4, r5, r6, r7, lr}
 8003ee2:	bf00      	nop
 8003ee4:	bcf8      	pop	{r3, r4, r5, r6, r7}
 8003ee6:	bc08      	pop	{r3}
 8003ee8:	469e      	mov	lr, r3
 8003eea:	4770      	bx	lr

08003eec <_fini>:
 8003eec:	b5f8      	push	{r3, r4, r5, r6, r7, lr}
 8003eee:	bf00      	nop
 8003ef0:	bcf8      	pop	{r3, r4, r5, r6, r7}
 8003ef2:	bc08      	pop	{r3}
 8003ef4:	469e      	mov	lr, r3
 8003ef6:	4770      	bx	lr
