
Payload PCB.elf:     file format elf32-littlearm

Sections:
Idx Name          Size      VMA       LMA       File off  Algn
  0 .isr_vector   00000194  08000000  08000000  00010000  2**0
                  CONTENTS, ALLOC, LOAD, READONLY, DATA
  1 .text         00003d48  08000194  08000194  00010194  2**2
                  CONTENTS, ALLOC, LOAD, READONLY, CODE
  2 .rodata       00000040  08003edc  08003edc  00013edc  2**2
                  CONTENTS, ALLOC, LOAD, READONLY, DATA
  3 .ARM.extab    00000000  08003f1c  08003f1c  0002000c  2**0
                  CONTENTS
  4 .ARM          00000000  08003f1c  08003f1c  0002000c  2**0
                  CONTENTS
  5 .preinit_array 00000000  08003f1c  08003f1c  0002000c  2**0
                  CONTENTS, ALLOC, LOAD, DATA
  6 .init_array   00000004  08003f1c  08003f1c  00013f1c  2**2
                  CONTENTS, ALLOC, LOAD, DATA
  7 .fini_array   00000004  08003f20  08003f20  00013f20  2**2
                  CONTENTS, ALLOC, LOAD, DATA
  8 .data         0000000c  20000000  08003f24  00020000  2**2
                  CONTENTS, ALLOC, LOAD, DATA
  9 .bss          00000208  2000000c  08003f30  0002000c  2**2
                  ALLOC
 10 ._user_heap_stack 00000604  20000214  08003f30  00020214  2**0
                  ALLOC
 11 .ARM.attributes 00000030  00000000  00000000  0002000c  2**0
                  CONTENTS, READONLY
 12 .debug_info   00010154  00000000  00000000  0002003c  2**0
                  CONTENTS, READONLY, DEBUGGING, OCTETS
 13 .debug_abbrev 00002879  00000000  00000000  00030190  2**0
                  CONTENTS, READONLY, DEBUGGING, OCTETS
 14 .debug_aranges 00000f68  00000000  00000000  00032a10  2**3
                  CONTENTS, READONLY, DEBUGGING, OCTETS
 15 .debug_ranges 00000e10  00000000  00000000  00033978  2**3
                  CONTENTS, READONLY, DEBUGGING, OCTETS
 16 .debug_macro  00024643  00000000  00000000  00034788  2**0
                  CONTENTS, READONLY, DEBUGGING, OCTETS
 17 .debug_line   0001386a  00000000  00000000  00058dcb  2**0
                  CONTENTS, READONLY, DEBUGGING, OCTETS
 18 .debug_str    000df9b8  00000000  00000000  0006c635  2**0
                  CONTENTS, READONLY, DEBUGGING, OCTETS
 19 .comment      00000050  00000000  00000000  0014bfed  2**0
                  CONTENTS, READONLY
 20 .debug_frame  00003efc  00000000  00000000  0014c040  2**2
                  CONTENTS, READONLY, DEBUGGING, OCTETS

Disassembly of section .text:

08000194 <__do_global_dtors_aux>:
 8000194:	b510      	push	{r4, lr}
 8000196:	4c05      	ldr	r4, [pc, #20]	; (80001ac <__do_global_dtors_aux+0x18>)
 8000198:	7823      	ldrb	r3, [r4, #0]
 800019a:	b933      	cbnz	r3, 80001aa <__do_global_dtors_aux+0x16>
 800019c:	4b04      	ldr	r3, [pc, #16]	; (80001b0 <__do_global_dtors_aux+0x1c>)
 800019e:	b113      	cbz	r3, 80001a6 <__do_global_dtors_aux+0x12>
 80001a0:	4804      	ldr	r0, [pc, #16]	; (80001b4 <__do_global_dtors_aux+0x20>)
 80001a2:	f3af 8000 	nop.w
 80001a6:	2301      	movs	r3, #1
 80001a8:	7023      	strb	r3, [r4, #0]
 80001aa:	bd10      	pop	{r4, pc}
 80001ac:	2000000c 	.word	0x2000000c
 80001b0:	00000000 	.word	0x00000000
 80001b4:	08003ec4 	.word	0x08003ec4

080001b8 <frame_dummy>:
 80001b8:	b508      	push	{r3, lr}
 80001ba:	4b03      	ldr	r3, [pc, #12]	; (80001c8 <frame_dummy+0x10>)
 80001bc:	b11b      	cbz	r3, 80001c6 <frame_dummy+0xe>
 80001be:	4903      	ldr	r1, [pc, #12]	; (80001cc <frame_dummy+0x14>)
 80001c0:	4803      	ldr	r0, [pc, #12]	; (80001d0 <frame_dummy+0x18>)
 80001c2:	f3af 8000 	nop.w
 80001c6:	bd08      	pop	{r3, pc}
 80001c8:	00000000 	.word	0x00000000
 80001cc:	20000010 	.word	0x20000010
 80001d0:	08003ec4 	.word	0x08003ec4

080001d4 <MX_ADC1_Init>:

ADC_HandleTypeDef hadc1;

/* ADC1 init function */
void MX_ADC1_Init(void)
{
 80001d4:	b580      	push	{r7, lr}
 80001d6:	b086      	sub	sp, #24
 80001d8:	af00      	add	r7, sp, #0

  /* USER CODE BEGIN ADC1_Init 0 */

  /* USER CODE END ADC1_Init 0 */

  ADC_ChannelConfTypeDef sConfig = {0};
 80001da:	463b      	mov	r3, r7
 80001dc:	2200      	movs	r2, #0
 80001de:	601a      	str	r2, [r3, #0]
 80001e0:	605a      	str	r2, [r3, #4]
 80001e2:	609a      	str	r2, [r3, #8]
 80001e4:	60da      	str	r2, [r3, #12]
 80001e6:	611a      	str	r2, [r3, #16]
 80001e8:	615a      	str	r2, [r3, #20]

  /* USER CODE END ADC1_Init 1 */

  /** Common config
  */
  hadc1.Instance = ADC1;
 80001ea:	4b29      	ldr	r3, [pc, #164]	; (8000290 <MX_ADC1_Init+0xbc>)
 80001ec:	4a29      	ldr	r2, [pc, #164]	; (8000294 <MX_ADC1_Init+0xc0>)
 80001ee:	601a      	str	r2, [r3, #0]
  hadc1.Init.ClockPrescaler = ADC_CLOCK_ASYNC_DIV1;
 80001f0:	4b27      	ldr	r3, [pc, #156]	; (8000290 <MX_ADC1_Init+0xbc>)
 80001f2:	2200      	movs	r2, #0
 80001f4:	605a      	str	r2, [r3, #4]
  hadc1.Init.Resolution = ADC_RESOLUTION_12B;
 80001f6:	4b26      	ldr	r3, [pc, #152]	; (8000290 <MX_ADC1_Init+0xbc>)
 80001f8:	2200      	movs	r2, #0
 80001fa:	609a      	str	r2, [r3, #8]
  hadc1.Init.DataAlign = ADC_DATAALIGN_RIGHT;
 80001fc:	4b24      	ldr	r3, [pc, #144]	; (8000290 <MX_ADC1_Init+0xbc>)
 80001fe:	2200      	movs	r2, #0
 8000200:	60da      	str	r2, [r3, #12]
  hadc1.Init.ScanConvMode = ADC_SCAN_DISABLE;
 8000202:	4b23      	ldr	r3, [pc, #140]	; (8000290 <MX_ADC1_Init+0xbc>)
 8000204:	2200      	movs	r2, #0
 8000206:	611a      	str	r2, [r3, #16]
  hadc1.Init.EOCSelection = ADC_EOC_SINGLE_CONV;
 8000208:	4b21      	ldr	r3, [pc, #132]	; (8000290 <MX_ADC1_Init+0xbc>)
 800020a:	2204      	movs	r2, #4
 800020c:	615a      	str	r2, [r3, #20]
  hadc1.Init.LowPowerAutoWait = DISABLE;
 800020e:	4b20      	ldr	r3, [pc, #128]	; (8000290 <MX_ADC1_Init+0xbc>)
 8000210:	2200      	movs	r2, #0
 8000212:	761a      	strb	r2, [r3, #24]
  hadc1.Init.ContinuousConvMode = DISABLE;
 8000214:	4b1e      	ldr	r3, [pc, #120]	; (8000290 <MX_ADC1_Init+0xbc>)
 8000216:	2200      	movs	r2, #0
 8000218:	765a      	strb	r2, [r3, #25]
  hadc1.Init.NbrOfConversion = 1;
 800021a:	4b1d      	ldr	r3, [pc, #116]	; (8000290 <MX_ADC1_Init+0xbc>)
 800021c:	2201      	movs	r2, #1
 800021e:	61da      	str	r2, [r3, #28]
  hadc1.Init.DiscontinuousConvMode = DISABLE;
 8000220:	4b1b      	ldr	r3, [pc, #108]	; (8000290 <MX_ADC1_Init+0xbc>)
 8000222:	2200      	movs	r2, #0
 8000224:	f883 2020 	strb.w	r2, [r3, #32]
  hadc1.Init.ExternalTrigConv = ADC_SOFTWARE_START;
 8000228:	4b19      	ldr	r3, [pc, #100]	; (8000290 <MX_ADC1_Init+0xbc>)
 800022a:	2200      	movs	r2, #0
 800022c:	629a      	str	r2, [r3, #40]	; 0x28
  hadc1.Init.ExternalTrigConvEdge = ADC_EXTERNALTRIGCONVEDGE_NONE;
 800022e:	4b18      	ldr	r3, [pc, #96]	; (8000290 <MX_ADC1_Init+0xbc>)
 8000230:	2200      	movs	r2, #0
 8000232:	62da      	str	r2, [r3, #44]	; 0x2c
  hadc1.Init.DMAContinuousRequests = DISABLE;
 8000234:	4b16      	ldr	r3, [pc, #88]	; (8000290 <MX_ADC1_Init+0xbc>)
 8000236:	2200      	movs	r2, #0
 8000238:	f883 2030 	strb.w	r2, [r3, #48]	; 0x30
  hadc1.Init.Overrun = ADC_OVR_DATA_PRESERVED;
 800023c:	4b14      	ldr	r3, [pc, #80]	; (8000290 <MX_ADC1_Init+0xbc>)
 800023e:	2200      	movs	r2, #0
 8000240:	635a      	str	r2, [r3, #52]	; 0x34
  hadc1.Init.OversamplingMode = DISABLE;
 8000242:	4b13      	ldr	r3, [pc, #76]	; (8000290 <MX_ADC1_Init+0xbc>)
 8000244:	2200      	movs	r2, #0
 8000246:	f883 2038 	strb.w	r2, [r3, #56]	; 0x38
  if (HAL_ADC_Init(&hadc1) != HAL_OK)
 800024a:	4811      	ldr	r0, [pc, #68]	; (8000290 <MX_ADC1_Init+0xbc>)
 800024c:	f000 fe14 	bl	8000e78 <HAL_ADC_Init>
 8000250:	4603      	mov	r3, r0
 8000252:	2b00      	cmp	r3, #0
 8000254:	d001      	beq.n	800025a <MX_ADC1_Init+0x86>
  {
    Error_Handler();
 8000256:	f000 fac5 	bl	80007e4 <Error_Handler>
  }

  /** Configure Regular Channel
  */
  sConfig.Channel = ADC_CHANNEL_1;
 800025a:	4b0f      	ldr	r3, [pc, #60]	; (8000298 <MX_ADC1_Init+0xc4>)
 800025c:	603b      	str	r3, [r7, #0]
  sConfig.Rank = ADC_REGULAR_RANK_1;
 800025e:	2306      	movs	r3, #6
 8000260:	607b      	str	r3, [r7, #4]
  sConfig.SamplingTime = ADC_SAMPLETIME_2CYCLES_5;
 8000262:	2300      	movs	r3, #0
 8000264:	60bb      	str	r3, [r7, #8]
  sConfig.SingleDiff = ADC_SINGLE_ENDED;
 8000266:	237f      	movs	r3, #127	; 0x7f
 8000268:	60fb      	str	r3, [r7, #12]
  sConfig.OffsetNumber = ADC_OFFSET_NONE;
 800026a:	2304      	movs	r3, #4
 800026c:	613b      	str	r3, [r7, #16]
  sConfig.Offset = 0;
 800026e:	2300      	movs	r3, #0
 8000270:	617b      	str	r3, [r7, #20]
  if (HAL_ADC_ConfigChannel(&hadc1, &sConfig) != HAL_OK)
 8000272:	463b      	mov	r3, r7
 8000274:	4619      	mov	r1, r3
 8000276:	4806      	ldr	r0, [pc, #24]	; (8000290 <MX_ADC1_Init+0xbc>)
 8000278:	f000 ff4a 	bl	8001110 <HAL_ADC_ConfigChannel>
 800027c:	4603      	mov	r3, r0
 800027e:	2b00      	cmp	r3, #0
 8000280:	d001      	beq.n	8000286 <MX_ADC1_Init+0xb2>
  {
    Error_Handler();
 8000282:	f000 faaf 	bl	80007e4 <Error_Handler>
  }
  /* USER CODE BEGIN ADC1_Init 2 */

  /* USER CODE END ADC1_Init 2 */

}
 8000286:	bf00      	nop
 8000288:	3718      	adds	r7, #24
 800028a:	46bd      	mov	sp, r7
 800028c:	bd80      	pop	{r7, pc}
 800028e:	bf00      	nop
 8000290:	20000028 	.word	0x20000028
 8000294:	50040000 	.word	0x50040000
 8000298:	04300002 	.word	0x04300002

0800029c <HAL_ADC_MspInit>:

void HAL_ADC_MspInit(ADC_HandleTypeDef* adcHandle)
{
 800029c:	b580      	push	{r7, lr}
 800029e:	b0a4      	sub	sp, #144	; 0x90
 80002a0:	af00      	add	r7, sp, #0
 80002a2:	6078      	str	r0, [r7, #4]

  GPIO_InitTypeDef GPIO_InitStruct = {0};
 80002a4:	f107 037c 	add.w	r3, r7, #124	; 0x7c
 80002a8:	2200      	movs	r2, #0
 80002aa:	601a      	str	r2, [r3, #0]
 80002ac:	605a      	str	r2, [r3, #4]
 80002ae:	609a      	str	r2, [r3, #8]
 80002b0:	60da      	str	r2, [r3, #12]
 80002b2:	611a      	str	r2, [r3, #16]
  RCC_PeriphCLKInitTypeDef PeriphClkInit = {0};
 80002b4:	f107 0314 	add.w	r3, r7, #20
 80002b8:	2268      	movs	r2, #104	; 0x68
 80002ba:	2100      	movs	r1, #0
 80002bc:	4618      	mov	r0, r3
 80002be:	f003 fdf9 	bl	8003eb4 <memset>
  if(adcHandle->Instance==ADC1)
 80002c2:	687b      	ldr	r3, [r7, #4]
 80002c4:	681b      	ldr	r3, [r3, #0]
 80002c6:	4a33      	ldr	r2, [pc, #204]	; (8000394 <HAL_ADC_MspInit+0xf8>)
 80002c8:	4293      	cmp	r3, r2
 80002ca:	d15f      	bne.n	800038c <HAL_ADC_MspInit+0xf0>

  /* USER CODE END ADC1_MspInit 0 */

  /** Initializes the peripherals clock
  */
    PeriphClkInit.PeriphClockSelection = RCC_PERIPHCLK_ADC;
 80002cc:	f44f 4380 	mov.w	r3, #16384	; 0x4000
 80002d0:	617b      	str	r3, [r7, #20]
    PeriphClkInit.AdcClockSelection = RCC_ADCCLKSOURCE_PLLSAI1;
 80002d2:	f04f 5380 	mov.w	r3, #268435456	; 0x10000000
 80002d6:	673b      	str	r3, [r7, #112]	; 0x70
    PeriphClkInit.PLLSAI1.PLLSAI1Source = RCC_PLLSOURCE_MSI;
 80002d8:	2301      	movs	r3, #1
 80002da:	61bb      	str	r3, [r7, #24]
    PeriphClkInit.PLLSAI1.PLLSAI1M = 1;
 80002dc:	2301      	movs	r3, #1
 80002de:	61fb      	str	r3, [r7, #28]
    PeriphClkInit.PLLSAI1.PLLSAI1N = 16;
 80002e0:	2310      	movs	r3, #16
 80002e2:	623b      	str	r3, [r7, #32]
    PeriphClkInit.PLLSAI1.PLLSAI1P = RCC_PLLP_DIV7;
 80002e4:	2307      	movs	r3, #7
 80002e6:	627b      	str	r3, [r7, #36]	; 0x24
    PeriphClkInit.PLLSAI1.PLLSAI1Q = RCC_PLLQ_DIV2;
 80002e8:	2302      	movs	r3, #2
 80002ea:	62bb      	str	r3, [r7, #40]	; 0x28
    PeriphClkInit.PLLSAI1.PLLSAI1R = RCC_PLLR_DIV2;
 80002ec:	2302      	movs	r3, #2
 80002ee:	62fb      	str	r3, [r7, #44]	; 0x2c
    PeriphClkInit.PLLSAI1.PLLSAI1ClockOut = RCC_PLLSAI1_ADC1CLK;
 80002f0:	f04f 7380 	mov.w	r3, #16777216	; 0x1000000
 80002f4:	633b      	str	r3, [r7, #48]	; 0x30
    if (HAL_RCCEx_PeriphCLKConfig(&PeriphClkInit) != HAL_OK)
 80002f6:	f107 0314 	add.w	r3, r7, #20
 80002fa:	4618      	mov	r0, r3
 80002fc:	f003 f8f6 	bl	80034ec <HAL_RCCEx_PeriphCLKConfig>
 8000300:	4603      	mov	r3, r0
 8000302:	2b00      	cmp	r3, #0
 8000304:	d001      	beq.n	800030a <HAL_ADC_MspInit+0x6e>
    {
      Error_Handler();
 8000306:	f000 fa6d 	bl	80007e4 <Error_Handler>
    }

    /* ADC1 clock enable */
    __HAL_RCC_ADC_CLK_ENABLE();
 800030a:	4b23      	ldr	r3, [pc, #140]	; (8000398 <HAL_ADC_MspInit+0xfc>)
 800030c:	6cdb      	ldr	r3, [r3, #76]	; 0x4c
 800030e:	4a22      	ldr	r2, [pc, #136]	; (8000398 <HAL_ADC_MspInit+0xfc>)
 8000310:	f443 5300 	orr.w	r3, r3, #8192	; 0x2000
 8000314:	64d3      	str	r3, [r2, #76]	; 0x4c
 8000316:	4b20      	ldr	r3, [pc, #128]	; (8000398 <HAL_ADC_MspInit+0xfc>)
 8000318:	6cdb      	ldr	r3, [r3, #76]	; 0x4c
 800031a:	f403 5300 	and.w	r3, r3, #8192	; 0x2000
 800031e:	613b      	str	r3, [r7, #16]
 8000320:	693b      	ldr	r3, [r7, #16]

    __HAL_RCC_GPIOC_CLK_ENABLE();
 8000322:	4b1d      	ldr	r3, [pc, #116]	; (8000398 <HAL_ADC_MspInit+0xfc>)
 8000324:	6cdb      	ldr	r3, [r3, #76]	; 0x4c
 8000326:	4a1c      	ldr	r2, [pc, #112]	; (8000398 <HAL_ADC_MspInit+0xfc>)
 8000328:	f043 0304 	orr.w	r3, r3, #4
 800032c:	64d3      	str	r3, [r2, #76]	; 0x4c
 800032e:	4b1a      	ldr	r3, [pc, #104]	; (8000398 <HAL_ADC_MspInit+0xfc>)
 8000330:	6cdb      	ldr	r3, [r3, #76]	; 0x4c
 8000332:	f003 0304 	and.w	r3, r3, #4
 8000336:	60fb      	str	r3, [r7, #12]
 8000338:	68fb      	ldr	r3, [r7, #12]
    __HAL_RCC_GPIOA_CLK_ENABLE();
 800033a:	4b17      	ldr	r3, [pc, #92]	; (8000398 <HAL_ADC_MspInit+0xfc>)
 800033c:	6cdb      	ldr	r3, [r3, #76]	; 0x4c
 800033e:	4a16      	ldr	r2, [pc, #88]	; (8000398 <HAL_ADC_MspInit+0xfc>)
 8000340:	f043 0301 	orr.w	r3, r3, #1
 8000344:	64d3      	str	r3, [r2, #76]	; 0x4c
 8000346:	4b14      	ldr	r3, [pc, #80]	; (8000398 <HAL_ADC_MspInit+0xfc>)
 8000348:	6cdb      	ldr	r3, [r3, #76]	; 0x4c
 800034a:	f003 0301 	and.w	r3, r3, #1
 800034e:	60bb      	str	r3, [r7, #8]
 8000350:	68bb      	ldr	r3, [r7, #8]
    PA2     ------> ADC1_IN7
    PA3     ------> ADC1_IN8
    PA4     ------> ADC1_IN9
    PA5     ------> ADC1_IN10
    */
    GPIO_InitStruct.Pin = GPIO_PIN_0|GPIO_PIN_1|GPIO_PIN_2|GPIO_PIN_3;
 8000352:	230f      	movs	r3, #15
 8000354:	67fb      	str	r3, [r7, #124]	; 0x7c
    GPIO_InitStruct.Mode = GPIO_MODE_ANALOG_ADC_CONTROL;
 8000356:	230b      	movs	r3, #11
 8000358:	f8c7 3080 	str.w	r3, [r7, #128]	; 0x80
    GPIO_InitStruct.Pull = GPIO_NOPULL;
 800035c:	2300      	movs	r3, #0
 800035e:	f8c7 3084 	str.w	r3, [r7, #132]	; 0x84
    HAL_GPIO_Init(GPIOC, &GPIO_InitStruct);
 8000362:	f107 037c 	add.w	r3, r7, #124	; 0x7c
 8000366:	4619      	mov	r1, r3
 8000368:	480c      	ldr	r0, [pc, #48]	; (800039c <HAL_ADC_MspInit+0x100>)
 800036a:	f001 fcaf 	bl	8001ccc <HAL_GPIO_Init>

    GPIO_InitStruct.Pin = GPIO_PIN_0|GPIO_PIN_1|GPIO_PIN_2|GPIO_PIN_3
 800036e:	233f      	movs	r3, #63	; 0x3f
 8000370:	67fb      	str	r3, [r7, #124]	; 0x7c
                          |GPIO_PIN_4|GPIO_PIN_5;
    GPIO_InitStruct.Mode = GPIO_MODE_ANALOG_ADC_CONTROL;
 8000372:	230b      	movs	r3, #11
 8000374:	f8c7 3080 	str.w	r3, [r7, #128]	; 0x80
    GPIO_InitStruct.Pull = GPIO_NOPULL;
 8000378:	2300      	movs	r3, #0
 800037a:	f8c7 3084 	str.w	r3, [r7, #132]	; 0x84
    HAL_GPIO_Init(GPIOA, &GPIO_InitStruct);
 800037e:	f107 037c 	add.w	r3, r7, #124	; 0x7c
 8000382:	4619      	mov	r1, r3
 8000384:	f04f 4090 	mov.w	r0, #1207959552	; 0x48000000
 8000388:	f001 fca0 	bl	8001ccc <HAL_GPIO_Init>

  /* USER CODE BEGIN ADC1_MspInit 1 */

  /* USER CODE END ADC1_MspInit 1 */
  }
}
 800038c:	bf00      	nop
 800038e:	3790      	adds	r7, #144	; 0x90
 8000390:	46bd      	mov	sp, r7
 8000392:	bd80      	pop	{r7, pc}
 8000394:	50040000 	.word	0x50040000
 8000398:	40021000 	.word	0x40021000
 800039c:	48000800 	.word	0x48000800

080003a0 <MX_CAN1_Init>:

CAN_HandleTypeDef hcan1;

/* CAN1 init function */
void MX_CAN1_Init(void)
{
 80003a0:	b580      	push	{r7, lr}
 80003a2:	af00      	add	r7, sp, #0
  /* USER CODE END CAN1_Init 0 */

  /* USER CODE BEGIN CAN1_Init 1 */

  /* USER CODE END CAN1_Init 1 */
  hcan1.Instance = CAN1;
 80003a4:	4b16      	ldr	r3, [pc, #88]	; (8000400 <MX_CAN1_Init+0x60>)
 80003a6:	4a17      	ldr	r2, [pc, #92]	; (8000404 <MX_CAN1_Init+0x64>)
 80003a8:	601a      	str	r2, [r3, #0]
  hcan1.Init.Prescaler = 16;
 80003aa:	4b15      	ldr	r3, [pc, #84]	; (8000400 <MX_CAN1_Init+0x60>)
 80003ac:	2210      	movs	r2, #16
 80003ae:	605a      	str	r2, [r3, #4]
  hcan1.Init.Mode = CAN_MODE_NORMAL;
 80003b0:	4b13      	ldr	r3, [pc, #76]	; (8000400 <MX_CAN1_Init+0x60>)
 80003b2:	2200      	movs	r2, #0
 80003b4:	609a      	str	r2, [r3, #8]
  hcan1.Init.SyncJumpWidth = CAN_SJW_1TQ;
 80003b6:	4b12      	ldr	r3, [pc, #72]	; (8000400 <MX_CAN1_Init+0x60>)
 80003b8:	2200      	movs	r2, #0
 80003ba:	60da      	str	r2, [r3, #12]
  hcan1.Init.TimeSeg1 = CAN_BS1_1TQ;
 80003bc:	4b10      	ldr	r3, [pc, #64]	; (8000400 <MX_CAN1_Init+0x60>)
 80003be:	2200      	movs	r2, #0
 80003c0:	611a      	str	r2, [r3, #16]
  hcan1.Init.TimeSeg2 = CAN_BS2_1TQ;
 80003c2:	4b0f      	ldr	r3, [pc, #60]	; (8000400 <MX_CAN1_Init+0x60>)
 80003c4:	2200      	movs	r2, #0
 80003c6:	615a      	str	r2, [r3, #20]
  hcan1.Init.TimeTriggeredMode = DISABLE;
 80003c8:	4b0d      	ldr	r3, [pc, #52]	; (8000400 <MX_CAN1_Init+0x60>)
 80003ca:	2200      	movs	r2, #0
 80003cc:	761a      	strb	r2, [r3, #24]
  hcan1.Init.AutoBusOff = DISABLE;
 80003ce:	4b0c      	ldr	r3, [pc, #48]	; (8000400 <MX_CAN1_Init+0x60>)
 80003d0:	2200      	movs	r2, #0
 80003d2:	765a      	strb	r2, [r3, #25]
  hcan1.Init.AutoWakeUp = DISABLE;
 80003d4:	4b0a      	ldr	r3, [pc, #40]	; (8000400 <MX_CAN1_Init+0x60>)
 80003d6:	2200      	movs	r2, #0
 80003d8:	769a      	strb	r2, [r3, #26]
  hcan1.Init.AutoRetransmission = DISABLE;
 80003da:	4b09      	ldr	r3, [pc, #36]	; (8000400 <MX_CAN1_Init+0x60>)
 80003dc:	2200      	movs	r2, #0
 80003de:	76da      	strb	r2, [r3, #27]
  hcan1.Init.ReceiveFifoLocked = DISABLE;
 80003e0:	4b07      	ldr	r3, [pc, #28]	; (8000400 <MX_CAN1_Init+0x60>)
 80003e2:	2200      	movs	r2, #0
 80003e4:	771a      	strb	r2, [r3, #28]
  hcan1.Init.TransmitFifoPriority = DISABLE;
 80003e6:	4b06      	ldr	r3, [pc, #24]	; (8000400 <MX_CAN1_Init+0x60>)
 80003e8:	2200      	movs	r2, #0
 80003ea:	775a      	strb	r2, [r3, #29]
  if (HAL_CAN_Init(&hcan1) != HAL_OK)
 80003ec:	4804      	ldr	r0, [pc, #16]	; (8000400 <MX_CAN1_Init+0x60>)
 80003ee:	f001 fa8b 	bl	8001908 <HAL_CAN_Init>
 80003f2:	4603      	mov	r3, r0
 80003f4:	2b00      	cmp	r3, #0
 80003f6:	d001      	beq.n	80003fc <MX_CAN1_Init+0x5c>
  {
    Error_Handler();
 80003f8:	f000 f9f4 	bl	80007e4 <Error_Handler>
  }
  /* USER CODE BEGIN CAN1_Init 2 */

  /* USER CODE END CAN1_Init 2 */

}
 80003fc:	bf00      	nop
 80003fe:	bd80      	pop	{r7, pc}
 8000400:	20000090 	.word	0x20000090
 8000404:	40006400 	.word	0x40006400

08000408 <HAL_CAN_MspInit>:

void HAL_CAN_MspInit(CAN_HandleTypeDef* canHandle)
{
 8000408:	b580      	push	{r7, lr}
 800040a:	b08a      	sub	sp, #40	; 0x28
 800040c:	af00      	add	r7, sp, #0
 800040e:	6078      	str	r0, [r7, #4]

  GPIO_InitTypeDef GPIO_InitStruct = {0};
 8000410:	f107 0314 	add.w	r3, r7, #20
 8000414:	2200      	movs	r2, #0
 8000416:	601a      	str	r2, [r3, #0]
 8000418:	605a      	str	r2, [r3, #4]
 800041a:	609a      	str	r2, [r3, #8]
 800041c:	60da      	str	r2, [r3, #12]
 800041e:	611a      	str	r2, [r3, #16]
  if(canHandle->Instance==CAN1)
 8000420:	687b      	ldr	r3, [r7, #4]
 8000422:	681b      	ldr	r3, [r3, #0]
 8000424:	4a17      	ldr	r2, [pc, #92]	; (8000484 <HAL_CAN_MspInit+0x7c>)
 8000426:	4293      	cmp	r3, r2
 8000428:	d128      	bne.n	800047c <HAL_CAN_MspInit+0x74>
  {
  /* USER CODE BEGIN CAN1_MspInit 0 */

  /* USER CODE END CAN1_MspInit 0 */
    /* CAN1 clock enable */
    __HAL_RCC_CAN1_CLK_ENABLE();
 800042a:	4b17      	ldr	r3, [pc, #92]	; (8000488 <HAL_CAN_MspInit+0x80>)
 800042c:	6d9b      	ldr	r3, [r3, #88]	; 0x58
 800042e:	4a16      	ldr	r2, [pc, #88]	; (8000488 <HAL_CAN_MspInit+0x80>)
 8000430:	f043 7300 	orr.w	r3, r3, #33554432	; 0x2000000
 8000434:	6593      	str	r3, [r2, #88]	; 0x58
 8000436:	4b14      	ldr	r3, [pc, #80]	; (8000488 <HAL_CAN_MspInit+0x80>)
 8000438:	6d9b      	ldr	r3, [r3, #88]	; 0x58
 800043a:	f003 7300 	and.w	r3, r3, #33554432	; 0x2000000
 800043e:	613b      	str	r3, [r7, #16]
 8000440:	693b      	ldr	r3, [r7, #16]

    __HAL_RCC_GPIOB_CLK_ENABLE();
 8000442:	4b11      	ldr	r3, [pc, #68]	; (8000488 <HAL_CAN_MspInit+0x80>)
 8000444:	6cdb      	ldr	r3, [r3, #76]	; 0x4c
 8000446:	4a10      	ldr	r2, [pc, #64]	; (8000488 <HAL_CAN_MspInit+0x80>)
 8000448:	f043 0302 	orr.w	r3, r3, #2
 800044c:	64d3      	str	r3, [r2, #76]	; 0x4c
 800044e:	4b0e      	ldr	r3, [pc, #56]	; (8000488 <HAL_CAN_MspInit+0x80>)
 8000450:	6cdb      	ldr	r3, [r3, #76]	; 0x4c
 8000452:	f003 0302 	and.w	r3, r3, #2
 8000456:	60fb      	str	r3, [r7, #12]
 8000458:	68fb      	ldr	r3, [r7, #12]
    /**CAN1 GPIO Configuration
    PB12     ------> CAN1_RX
    PB13     ------> CAN1_TX
    */
    GPIO_InitStruct.Pin = GPIO_PIN_12|GPIO_PIN_13;
 800045a:	f44f 5340 	mov.w	r3, #12288	; 0x3000
 800045e:	617b      	str	r3, [r7, #20]
    GPIO_InitStruct.Mode = GPIO_MODE_AF_PP;
 8000460:	2302      	movs	r3, #2
 8000462:	61bb      	str	r3, [r7, #24]
    GPIO_InitStruct.Pull = GPIO_NOPULL;
 8000464:	2300      	movs	r3, #0
 8000466:	61fb      	str	r3, [r7, #28]
    GPIO_InitStruct.Speed = GPIO_SPEED_FREQ_VERY_HIGH;
 8000468:	2303      	movs	r3, #3
 800046a:	623b      	str	r3, [r7, #32]
    GPIO_InitStruct.Alternate = GPIO_AF10_CAN1;
 800046c:	230a      	movs	r3, #10
 800046e:	627b      	str	r3, [r7, #36]	; 0x24
    HAL_GPIO_Init(GPIOB, &GPIO_InitStruct);
 8000470:	f107 0314 	add.w	r3, r7, #20
 8000474:	4619      	mov	r1, r3
 8000476:	4805      	ldr	r0, [pc, #20]	; (800048c <HAL_CAN_MspInit+0x84>)
 8000478:	f001 fc28 	bl	8001ccc <HAL_GPIO_Init>

  /* USER CODE BEGIN CAN1_MspInit 1 */

  /* USER CODE END CAN1_MspInit 1 */
  }
}
 800047c:	bf00      	nop
 800047e:	3728      	adds	r7, #40	; 0x28
 8000480:	46bd      	mov	sp, r7
 8000482:	bd80      	pop	{r7, pc}
 8000484:	40006400 	.word	0x40006400
 8000488:	40021000 	.word	0x40021000
 800048c:	48000400 	.word	0x48000400

08000490 <MX_GPIO_Init>:
        * Output
        * EVENT_OUT
        * EXTI
*/
void MX_GPIO_Init(void)
{
 8000490:	b580      	push	{r7, lr}
 8000492:	b088      	sub	sp, #32
 8000494:	af00      	add	r7, sp, #0

  GPIO_InitTypeDef GPIO_InitStruct = {0};
 8000496:	f107 030c 	add.w	r3, r7, #12
 800049a:	2200      	movs	r2, #0
 800049c:	601a      	str	r2, [r3, #0]
 800049e:	605a      	str	r2, [r3, #4]
 80004a0:	609a      	str	r2, [r3, #8]
 80004a2:	60da      	str	r2, [r3, #12]
 80004a4:	611a      	str	r2, [r3, #16]

  /* GPIO Ports Clock Enable */
  __HAL_RCC_GPIOC_CLK_ENABLE();
 80004a6:	4b34      	ldr	r3, [pc, #208]	; (8000578 <MX_GPIO_Init+0xe8>)
 80004a8:	6cdb      	ldr	r3, [r3, #76]	; 0x4c
 80004aa:	4a33      	ldr	r2, [pc, #204]	; (8000578 <MX_GPIO_Init+0xe8>)
 80004ac:	f043 0304 	orr.w	r3, r3, #4
 80004b0:	64d3      	str	r3, [r2, #76]	; 0x4c
 80004b2:	4b31      	ldr	r3, [pc, #196]	; (8000578 <MX_GPIO_Init+0xe8>)
 80004b4:	6cdb      	ldr	r3, [r3, #76]	; 0x4c
 80004b6:	f003 0304 	and.w	r3, r3, #4
 80004ba:	60bb      	str	r3, [r7, #8]
 80004bc:	68bb      	ldr	r3, [r7, #8]
  __HAL_RCC_GPIOA_CLK_ENABLE();
 80004be:	4b2e      	ldr	r3, [pc, #184]	; (8000578 <MX_GPIO_Init+0xe8>)
 80004c0:	6cdb      	ldr	r3, [r3, #76]	; 0x4c
 80004c2:	4a2d      	ldr	r2, [pc, #180]	; (8000578 <MX_GPIO_Init+0xe8>)
 80004c4:	f043 0301 	orr.w	r3, r3, #1
 80004c8:	64d3      	str	r3, [r2, #76]	; 0x4c
 80004ca:	4b2b      	ldr	r3, [pc, #172]	; (8000578 <MX_GPIO_Init+0xe8>)
 80004cc:	6cdb      	ldr	r3, [r3, #76]	; 0x4c
 80004ce:	f003 0301 	and.w	r3, r3, #1
 80004d2:	607b      	str	r3, [r7, #4]
 80004d4:	687b      	ldr	r3, [r7, #4]
  __HAL_RCC_GPIOB_CLK_ENABLE();
 80004d6:	4b28      	ldr	r3, [pc, #160]	; (8000578 <MX_GPIO_Init+0xe8>)
 80004d8:	6cdb      	ldr	r3, [r3, #76]	; 0x4c
 80004da:	4a27      	ldr	r2, [pc, #156]	; (8000578 <MX_GPIO_Init+0xe8>)
 80004dc:	f043 0302 	orr.w	r3, r3, #2
 80004e0:	64d3      	str	r3, [r2, #76]	; 0x4c
 80004e2:	4b25      	ldr	r3, [pc, #148]	; (8000578 <MX_GPIO_Init+0xe8>)
 80004e4:	6cdb      	ldr	r3, [r3, #76]	; 0x4c
 80004e6:	f003 0302 	and.w	r3, r3, #2
 80004ea:	603b      	str	r3, [r7, #0]
 80004ec:	683b      	ldr	r3, [r7, #0]

  /*Configure GPIO pin Output Level */
  HAL_GPIO_WritePin(GPIOB, GPIO_PIN_0|GPIO_PIN_1|GPIO_PIN_2|GPIO_PIN_10
 80004ee:	2200      	movs	r2, #0
 80004f0:	f240 71f7 	movw	r1, #2039	; 0x7f7
 80004f4:	4821      	ldr	r0, [pc, #132]	; (800057c <MX_GPIO_Init+0xec>)
 80004f6:	f001 fd63 	bl	8001fc0 <HAL_GPIO_WritePin>
                          |GPIO_PIN_4|GPIO_PIN_5|GPIO_PIN_6|GPIO_PIN_7
                          |GPIO_PIN_8|GPIO_PIN_9, GPIO_PIN_RESET);

  /*Configure GPIO pin Output Level */
  HAL_GPIO_WritePin(GPIOC, GPIO_PIN_8|GPIO_PIN_9, GPIO_PIN_RESET);
 80004fa:	2200      	movs	r2, #0
 80004fc:	f44f 7140 	mov.w	r1, #768	; 0x300
 8000500:	481f      	ldr	r0, [pc, #124]	; (8000580 <MX_GPIO_Init+0xf0>)
 8000502:	f001 fd5d 	bl	8001fc0 <HAL_GPIO_WritePin>

  /*Configure GPIO pin Output Level */
  HAL_GPIO_WritePin(GPIOA, GPIO_PIN_8, GPIO_PIN_RESET);
 8000506:	2200      	movs	r2, #0
 8000508:	f44f 7180 	mov.w	r1, #256	; 0x100
 800050c:	f04f 4090 	mov.w	r0, #1207959552	; 0x48000000
 8000510:	f001 fd56 	bl	8001fc0 <HAL_GPIO_WritePin>

  /*Configure GPIO pins : PB0 PB1 PB2 PB10
                           PB4 PB5 PB6 PB7
                           PB8 PB9 */
  GPIO_InitStruct.Pin = GPIO_PIN_0|GPIO_PIN_1|GPIO_PIN_2|GPIO_PIN_10
 8000514:	f240 73f7 	movw	r3, #2039	; 0x7f7
 8000518:	60fb      	str	r3, [r7, #12]
                          |GPIO_PIN_4|GPIO_PIN_5|GPIO_PIN_6|GPIO_PIN_7
                          |GPIO_PIN_8|GPIO_PIN_9;
  GPIO_InitStruct.Mode = GPIO_MODE_OUTPUT_PP;
 800051a:	2301      	movs	r3, #1
 800051c:	613b      	str	r3, [r7, #16]
  GPIO_InitStruct.Pull = GPIO_NOPULL;
 800051e:	2300      	movs	r3, #0
 8000520:	617b      	str	r3, [r7, #20]
  GPIO_InitStruct.Speed = GPIO_SPEED_FREQ_LOW;
 8000522:	2300      	movs	r3, #0
 8000524:	61bb      	str	r3, [r7, #24]
  HAL_GPIO_Init(GPIOB, &GPIO_InitStruct);
 8000526:	f107 030c 	add.w	r3, r7, #12
 800052a:	4619      	mov	r1, r3
 800052c:	4813      	ldr	r0, [pc, #76]	; (800057c <MX_GPIO_Init+0xec>)
 800052e:	f001 fbcd 	bl	8001ccc <HAL_GPIO_Init>

  /*Configure GPIO pins : PC8 PC9 */
  GPIO_InitStruct.Pin = GPIO_PIN_8|GPIO_PIN_9;
 8000532:	f44f 7340 	mov.w	r3, #768	; 0x300
 8000536:	60fb      	str	r3, [r7, #12]
  GPIO_InitStruct.Mode = GPIO_MODE_OUTPUT_PP;
 8000538:	2301      	movs	r3, #1
 800053a:	613b      	str	r3, [r7, #16]
  GPIO_InitStruct.Pull = GPIO_NOPULL;
 800053c:	2300      	movs	r3, #0
 800053e:	617b      	str	r3, [r7, #20]
  GPIO_InitStruct.Speed = GPIO_SPEED_FREQ_LOW;
 8000540:	2300      	movs	r3, #0
 8000542:	61bb      	str	r3, [r7, #24]
  HAL_GPIO_Init(GPIOC, &GPIO_InitStruct);
 8000544:	f107 030c 	add.w	r3, r7, #12
 8000548:	4619      	mov	r1, r3
 800054a:	480d      	ldr	r0, [pc, #52]	; (8000580 <MX_GPIO_Init+0xf0>)
 800054c:	f001 fbbe 	bl	8001ccc <HAL_GPIO_Init>

  /*Configure GPIO pin : PA8 */
  GPIO_InitStruct.Pin = GPIO_PIN_8;
 8000550:	f44f 7380 	mov.w	r3, #256	; 0x100
 8000554:	60fb      	str	r3, [r7, #12]
  GPIO_InitStruct.Mode = GPIO_MODE_OUTPUT_PP;
 8000556:	2301      	movs	r3, #1
 8000558:	613b      	str	r3, [r7, #16]
  GPIO_InitStruct.Pull = GPIO_NOPULL;
 800055a:	2300      	movs	r3, #0
 800055c:	617b      	str	r3, [r7, #20]
  GPIO_InitStruct.Speed = GPIO_SPEED_FREQ_LOW;
 800055e:	2300      	movs	r3, #0
 8000560:	61bb      	str	r3, [r7, #24]
  HAL_GPIO_Init(GPIOA, &GPIO_InitStruct);
 8000562:	f107 030c 	add.w	r3, r7, #12
 8000566:	4619      	mov	r1, r3
 8000568:	f04f 4090 	mov.w	r0, #1207959552	; 0x48000000
 800056c:	f001 fbae 	bl	8001ccc <HAL_GPIO_Init>

}
 8000570:	bf00      	nop
 8000572:	3720      	adds	r7, #32
 8000574:	46bd      	mov	sp, r7
 8000576:	bd80      	pop	{r7, pc}
 8000578:	40021000 	.word	0x40021000
 800057c:	48000400 	.word	0x48000400
 8000580:	48000800 	.word	0x48000800

08000584 <MX_I2C1_Init>:

I2C_HandleTypeDef hi2c1;

/* I2C1 init function */
void MX_I2C1_Init(void)
{
 8000584:	b580      	push	{r7, lr}
 8000586:	af00      	add	r7, sp, #0
  /* USER CODE END I2C1_Init 0 */

  /* USER CODE BEGIN I2C1_Init 1 */

  /* USER CODE END I2C1_Init 1 */
  hi2c1.Instance = I2C1;
 8000588:	4b1b      	ldr	r3, [pc, #108]	; (80005f8 <MX_I2C1_Init+0x74>)
 800058a:	4a1c      	ldr	r2, [pc, #112]	; (80005fc <MX_I2C1_Init+0x78>)
 800058c:	601a      	str	r2, [r3, #0]
  hi2c1.Init.Timing = 0x00000E14;
 800058e:	4b1a      	ldr	r3, [pc, #104]	; (80005f8 <MX_I2C1_Init+0x74>)
 8000590:	f640 6214 	movw	r2, #3604	; 0xe14
 8000594:	605a      	str	r2, [r3, #4]
  hi2c1.Init.OwnAddress1 = 0;
 8000596:	4b18      	ldr	r3, [pc, #96]	; (80005f8 <MX_I2C1_Init+0x74>)
 8000598:	2200      	movs	r2, #0
 800059a:	609a      	str	r2, [r3, #8]
  hi2c1.Init.AddressingMode = I2C_ADDRESSINGMODE_7BIT;
 800059c:	4b16      	ldr	r3, [pc, #88]	; (80005f8 <MX_I2C1_Init+0x74>)
 800059e:	2201      	movs	r2, #1
 80005a0:	60da      	str	r2, [r3, #12]
  hi2c1.Init.DualAddressMode = I2C_DUALADDRESS_DISABLE;
 80005a2:	4b15      	ldr	r3, [pc, #84]	; (80005f8 <MX_I2C1_Init+0x74>)
 80005a4:	2200      	movs	r2, #0
 80005a6:	611a      	str	r2, [r3, #16]
  hi2c1.Init.OwnAddress2 = 0;
 80005a8:	4b13      	ldr	r3, [pc, #76]	; (80005f8 <MX_I2C1_Init+0x74>)
 80005aa:	2200      	movs	r2, #0
 80005ac:	615a      	str	r2, [r3, #20]
  hi2c1.Init.OwnAddress2Masks = I2C_OA2_NOMASK;
 80005ae:	4b12      	ldr	r3, [pc, #72]	; (80005f8 <MX_I2C1_Init+0x74>)
 80005b0:	2200      	movs	r2, #0
 80005b2:	619a      	str	r2, [r3, #24]
  hi2c1.Init.GeneralCallMode = I2C_GENERALCALL_DISABLE;
 80005b4:	4b10      	ldr	r3, [pc, #64]	; (80005f8 <MX_I2C1_Init+0x74>)
 80005b6:	2200      	movs	r2, #0
 80005b8:	61da      	str	r2, [r3, #28]
  hi2c1.Init.NoStretchMode = I2C_NOSTRETCH_DISABLE;
 80005ba:	4b0f      	ldr	r3, [pc, #60]	; (80005f8 <MX_I2C1_Init+0x74>)
 80005bc:	2200      	movs	r2, #0
 80005be:	621a      	str	r2, [r3, #32]
  if (HAL_I2C_Init(&hi2c1) != HAL_OK)
 80005c0:	480d      	ldr	r0, [pc, #52]	; (80005f8 <MX_I2C1_Init+0x74>)
 80005c2:	f001 fd15 	bl	8001ff0 <HAL_I2C_Init>
 80005c6:	4603      	mov	r3, r0
 80005c8:	2b00      	cmp	r3, #0
 80005ca:	d001      	beq.n	80005d0 <MX_I2C1_Init+0x4c>
  {
    Error_Handler();
 80005cc:	f000 f90a 	bl	80007e4 <Error_Handler>
  }

  /** Configure Analogue filter
  */
  if (HAL_I2CEx_ConfigAnalogFilter(&hi2c1, I2C_ANALOGFILTER_ENABLE) != HAL_OK)
 80005d0:	2100      	movs	r1, #0
 80005d2:	4809      	ldr	r0, [pc, #36]	; (80005f8 <MX_I2C1_Init+0x74>)
 80005d4:	f002 f88e 	bl	80026f4 <HAL_I2CEx_ConfigAnalogFilter>
 80005d8:	4603      	mov	r3, r0
 80005da:	2b00      	cmp	r3, #0
 80005dc:	d001      	beq.n	80005e2 <MX_I2C1_Init+0x5e>
  {
    Error_Handler();
 80005de:	f000 f901 	bl	80007e4 <Error_Handler>
  }

  /** Configure Digital filter
  */
  if (HAL_I2CEx_ConfigDigitalFilter(&hi2c1, 0) != HAL_OK)
 80005e2:	2100      	movs	r1, #0
 80005e4:	4804      	ldr	r0, [pc, #16]	; (80005f8 <MX_I2C1_Init+0x74>)
 80005e6:	f002 f8d0 	bl	800278a <HAL_I2CEx_ConfigDigitalFilter>
 80005ea:	4603      	mov	r3, r0
 80005ec:	2b00      	cmp	r3, #0
 80005ee:	d001      	beq.n	80005f4 <MX_I2C1_Init+0x70>
  {
    Error_Handler();
 80005f0:	f000 f8f8 	bl	80007e4 <Error_Handler>
  }
  /* USER CODE BEGIN I2C1_Init 2 */

  /* USER CODE END I2C1_Init 2 */

}
 80005f4:	bf00      	nop
 80005f6:	bd80      	pop	{r7, pc}
 80005f8:	200000b8 	.word	0x200000b8
 80005fc:	40005400 	.word	0x40005400

08000600 <HAL_I2C_MspInit>:

void HAL_I2C_MspInit(I2C_HandleTypeDef* i2cHandle)
{
 8000600:	b580      	push	{r7, lr}
 8000602:	b0a4      	sub	sp, #144	; 0x90
 8000604:	af00      	add	r7, sp, #0
 8000606:	6078      	str	r0, [r7, #4]

  GPIO_InitTypeDef GPIO_InitStruct = {0};
 8000608:	f107 037c 	add.w	r3, r7, #124	; 0x7c
 800060c:	2200      	movs	r2, #0
 800060e:	601a      	str	r2, [r3, #0]
 8000610:	605a      	str	r2, [r3, #4]
 8000612:	609a      	str	r2, [r3, #8]
 8000614:	60da      	str	r2, [r3, #12]
 8000616:	611a      	str	r2, [r3, #16]
  RCC_PeriphCLKInitTypeDef PeriphClkInit = {0};
 8000618:	f107 0314 	add.w	r3, r7, #20
 800061c:	2268      	movs	r2, #104	; 0x68
 800061e:	2100      	movs	r1, #0
 8000620:	4618      	mov	r0, r3
 8000622:	f003 fc47 	bl	8003eb4 <memset>
  if(i2cHandle->Instance==I2C1)
 8000626:	687b      	ldr	r3, [r7, #4]
 8000628:	681b      	ldr	r3, [r3, #0]
 800062a:	4a21      	ldr	r2, [pc, #132]	; (80006b0 <HAL_I2C_MspInit+0xb0>)
 800062c:	4293      	cmp	r3, r2
 800062e:	d13b      	bne.n	80006a8 <HAL_I2C_MspInit+0xa8>

  /* USER CODE END I2C1_MspInit 0 */

  /** Initializes the peripherals clock
  */
    PeriphClkInit.PeriphClockSelection = RCC_PERIPHCLK_I2C1;
 8000630:	2340      	movs	r3, #64	; 0x40
 8000632:	617b      	str	r3, [r7, #20]
    PeriphClkInit.I2c1ClockSelection = RCC_I2C1CLKSOURCE_PCLK1;
 8000634:	2300      	movs	r3, #0
 8000636:	64bb      	str	r3, [r7, #72]	; 0x48
    if (HAL_RCCEx_PeriphCLKConfig(&PeriphClkInit) != HAL_OK)
 8000638:	f107 0314 	add.w	r3, r7, #20
 800063c:	4618      	mov	r0, r3
 800063e:	f002 ff55 	bl	80034ec <HAL_RCCEx_PeriphCLKConfig>
 8000642:	4603      	mov	r3, r0
 8000644:	2b00      	cmp	r3, #0
 8000646:	d001      	beq.n	800064c <HAL_I2C_MspInit+0x4c>
    {
      Error_Handler();
 8000648:	f000 f8cc 	bl	80007e4 <Error_Handler>
    }

    __HAL_RCC_GPIOA_CLK_ENABLE();
 800064c:	4b19      	ldr	r3, [pc, #100]	; (80006b4 <HAL_I2C_MspInit+0xb4>)
 800064e:	6cdb      	ldr	r3, [r3, #76]	; 0x4c
 8000650:	4a18      	ldr	r2, [pc, #96]	; (80006b4 <HAL_I2C_MspInit+0xb4>)
 8000652:	f043 0301 	orr.w	r3, r3, #1
 8000656:	64d3      	str	r3, [r2, #76]	; 0x4c
 8000658:	4b16      	ldr	r3, [pc, #88]	; (80006b4 <HAL_I2C_MspInit+0xb4>)
 800065a:	6cdb      	ldr	r3, [r3, #76]	; 0x4c
 800065c:	f003 0301 	and.w	r3, r3, #1
 8000660:	613b      	str	r3, [r7, #16]
 8000662:	693b      	ldr	r3, [r7, #16]
    /**I2C1 GPIO Configuration
    PA9     ------> I2C1_SCL
    PA10     ------> I2C1_SDA
    */
    GPIO_InitStruct.Pin = GPIO_PIN_9|GPIO_PIN_10;
 8000664:	f44f 63c0 	mov.w	r3, #1536	; 0x600
 8000668:	67fb      	str	r3, [r7, #124]	; 0x7c
    GPIO_InitStruct.Mode = GPIO_MODE_AF_OD;
 800066a:	2312      	movs	r3, #18
 800066c:	f8c7 3080 	str.w	r3, [r7, #128]	; 0x80
    GPIO_InitStruct.Pull = GPIO_NOPULL;
 8000670:	2300      	movs	r3, #0
 8000672:	f8c7 3084 	str.w	r3, [r7, #132]	; 0x84
    GPIO_InitStruct.Speed = GPIO_SPEED_FREQ_VERY_HIGH;
 8000676:	2303      	movs	r3, #3
 8000678:	f8c7 3088 	str.w	r3, [r7, #136]	; 0x88
    GPIO_InitStruct.Alternate = GPIO_AF4_I2C1;
 800067c:	2304      	movs	r3, #4
 800067e:	f8c7 308c 	str.w	r3, [r7, #140]	; 0x8c
    HAL_GPIO_Init(GPIOA, &GPIO_InitStruct);
 8000682:	f107 037c 	add.w	r3, r7, #124	; 0x7c
 8000686:	4619      	mov	r1, r3
 8000688:	f04f 4090 	mov.w	r0, #1207959552	; 0x48000000
 800068c:	f001 fb1e 	bl	8001ccc <HAL_GPIO_Init>

    /* I2C1 clock enable */
    __HAL_RCC_I2C1_CLK_ENABLE();
 8000690:	4b08      	ldr	r3, [pc, #32]	; (80006b4 <HAL_I2C_MspInit+0xb4>)
 8000692:	6d9b      	ldr	r3, [r3, #88]	; 0x58
 8000694:	4a07      	ldr	r2, [pc, #28]	; (80006b4 <HAL_I2C_MspInit+0xb4>)
 8000696:	f443 1300 	orr.w	r3, r3, #2097152	; 0x200000
 800069a:	6593      	str	r3, [r2, #88]	; 0x58
 800069c:	4b05      	ldr	r3, [pc, #20]	; (80006b4 <HAL_I2C_MspInit+0xb4>)
 800069e:	6d9b      	ldr	r3, [r3, #88]	; 0x58
 80006a0:	f403 1300 	and.w	r3, r3, #2097152	; 0x200000
 80006a4:	60fb      	str	r3, [r7, #12]
 80006a6:	68fb      	ldr	r3, [r7, #12]
  /* USER CODE BEGIN I2C1_MspInit 1 */

  /* USER CODE END I2C1_MspInit 1 */
  }
}
 80006a8:	bf00      	nop
 80006aa:	3790      	adds	r7, #144	; 0x90
 80006ac:	46bd      	mov	sp, r7
 80006ae:	bd80      	pop	{r7, pc}
 80006b0:	40005400 	.word	0x40005400
 80006b4:	40021000 	.word	0x40021000

080006b8 <main>:
/**
  * @brief  The application entry point.
  * @retval int
  */
int main(void)
{
 80006b8:	b580      	push	{r7, lr}
 80006ba:	b0a0      	sub	sp, #128	; 0x80
 80006bc:	af00      	add	r7, sp, #0
  /* USER CODE END 1 */

  /* MCU Configuration--------------------------------------------------------*/

  /* Reset of all peripherals, Initializes the Flash interface and the Systick. */
  HAL_Init();
 80006be:	f000 f9a2 	bl	8000a06 <HAL_Init>
  /* USER CODE BEGIN Init */

  /* USER CODE END Init */

  /* Configure the system clock */
  SystemClock_Config();
 80006c2:	f000 f849 	bl	8000758 <SystemClock_Config>
  /* USER CODE BEGIN SysInit */

  /* USER CODE END SysInit */

  /* Initialize all configured peripherals */
  MX_GPIO_Init();
 80006c6:	f7ff fee3 	bl	8000490 <MX_GPIO_Init>
  MX_ADC1_Init();
 80006ca:	f7ff fd83 	bl	80001d4 <MX_ADC1_Init>
  MX_CAN1_Init();
 80006ce:	f7ff fe67 	bl	80003a0 <MX_CAN1_Init>
  MX_I2C1_Init();
 80006d2:	f7ff ff57 	bl	8000584 <MX_I2C1_Init>
  MX_SPI3_Init();
 80006d6:	f000 f88b 	bl	80007f0 <MX_SPI3_Init>
  /* USER CODE BEGIN 2 */

  MAX7300_Init();
 80006da:	f003 fb09 	bl	8003cf0 <MAX7300_Init>
  /* Infinite loop */
  /* USER CODE BEGIN WHILE */
  while (1)
  {
    /* USER CODE END WHILE */
	  MAX7300_setPin(28, HIGH);
 80006de:	2101      	movs	r1, #1
 80006e0:	201c      	movs	r0, #28
 80006e2:	f003 fb81 	bl	8003de8 <MAX7300_setPin>
	  MAX7300_setPin(30, HIGH);
 80006e6:	2101      	movs	r1, #1
 80006e8:	201e      	movs	r0, #30
 80006ea:	f003 fb7d 	bl	8003de8 <MAX7300_setPin>
	  MAX7300_setPin(12, HIGH);
 80006ee:	2101      	movs	r1, #1
 80006f0:	200c      	movs	r0, #12
 80006f2:	f003 fb79 	bl	8003de8 <MAX7300_setPin>
	  MAX7300_setPin(16, HIGH);
 80006f6:	2101      	movs	r1, #1
 80006f8:	2010      	movs	r0, #16
 80006fa:	f003 fb75 	bl	8003de8 <MAX7300_setPin>
	  MAX7300_setPin(17, HIGH);
 80006fe:	2101      	movs	r1, #1
 8000700:	2011      	movs	r0, #17
 8000702:	f003 fb71 	bl	8003de8 <MAX7300_setPin>
	  MAX7300_setPin(21, HIGH);
 8000706:	2101      	movs	r1, #1
 8000708:	2015      	movs	r0, #21
 800070a:	f003 fb6d 	bl	8003de8 <MAX7300_setPin>
	  HAL_Delay(30000);
 800070e:	f247 5030 	movw	r0, #30000	; 0x7530
 8000712:	f000 f9ed 	bl	8000af0 <HAL_Delay>
	  MAX7300_setPin(28, LOW);
 8000716:	2100      	movs	r1, #0
 8000718:	201c      	movs	r0, #28
 800071a:	f003 fb65 	bl	8003de8 <MAX7300_setPin>
	  MAX7300_setPin(30, LOW);
 800071e:	2100      	movs	r1, #0
 8000720:	201e      	movs	r0, #30
 8000722:	f003 fb61 	bl	8003de8 <MAX7300_setPin>
	  HAL_Delay(20000);
 8000726:	f644 6020 	movw	r0, #20000	; 0x4e20
 800072a:	f000 f9e1 	bl	8000af0 <HAL_Delay>
	  MAX7300_setPin(12, LOW);
 800072e:	2100      	movs	r1, #0
 8000730:	200c      	movs	r0, #12
 8000732:	f003 fb59 	bl	8003de8 <MAX7300_setPin>
	  MAX7300_setPin(16, LOW);
 8000736:	2100      	movs	r1, #0
 8000738:	2010      	movs	r0, #16
 800073a:	f003 fb55 	bl	8003de8 <MAX7300_setPin>
	  MAX7300_setPin(17, LOW);
 800073e:	2100      	movs	r1, #0
 8000740:	2011      	movs	r0, #17
 8000742:	f003 fb51 	bl	8003de8 <MAX7300_setPin>
	  MAX7300_setPin(21, LOW);
 8000746:	2100      	movs	r1, #0
 8000748:	2015      	movs	r0, #21
 800074a:	f003 fb4d 	bl	8003de8 <MAX7300_setPin>
	  HAL_Delay(10000);
 800074e:	f242 7010 	movw	r0, #10000	; 0x2710
 8000752:	f000 f9cd 	bl	8000af0 <HAL_Delay>
	  MAX7300_setPin(28, HIGH);
 8000756:	e7c2      	b.n	80006de <main+0x26>

08000758 <SystemClock_Config>:
/**
  * @brief System Clock Configuration
  * @retval None
  */
void SystemClock_Config(void)
{
 8000758:	b580      	push	{r7, lr}
 800075a:	b096      	sub	sp, #88	; 0x58
 800075c:	af00      	add	r7, sp, #0
  RCC_OscInitTypeDef RCC_OscInitStruct = {0};
 800075e:	f107 0314 	add.w	r3, r7, #20
 8000762:	2244      	movs	r2, #68	; 0x44
 8000764:	2100      	movs	r1, #0
 8000766:	4618      	mov	r0, r3
 8000768:	f003 fba4 	bl	8003eb4 <memset>
  RCC_ClkInitTypeDef RCC_ClkInitStruct = {0};
 800076c:	463b      	mov	r3, r7
 800076e:	2200      	movs	r2, #0
 8000770:	601a      	str	r2, [r3, #0]
 8000772:	605a      	str	r2, [r3, #4]
 8000774:	609a      	str	r2, [r3, #8]
 8000776:	60da      	str	r2, [r3, #12]
 8000778:	611a      	str	r2, [r3, #16]

  /** Configure the main internal regulator output voltage
  */
  if (HAL_PWREx_ControlVoltageScaling(PWR_REGULATOR_VOLTAGE_SCALE1) != HAL_OK)
 800077a:	f44f 7000 	mov.w	r0, #512	; 0x200
 800077e:	f002 f85f 	bl	8002840 <HAL_PWREx_ControlVoltageScaling>
 8000782:	4603      	mov	r3, r0
 8000784:	2b00      	cmp	r3, #0
 8000786:	d001      	beq.n	800078c <SystemClock_Config+0x34>
  {
    Error_Handler();
 8000788:	f000 f82c 	bl	80007e4 <Error_Handler>
  }

  /** Initializes the RCC Oscillators according to the specified parameters
  * in the RCC_OscInitTypeDef structure.
  */
  RCC_OscInitStruct.OscillatorType = RCC_OSCILLATORTYPE_MSI;
 800078c:	2310      	movs	r3, #16
 800078e:	617b      	str	r3, [r7, #20]
  RCC_OscInitStruct.MSIState = RCC_MSI_ON;
 8000790:	2301      	movs	r3, #1
 8000792:	62fb      	str	r3, [r7, #44]	; 0x2c
  RCC_OscInitStruct.MSICalibrationValue = 0;
 8000794:	2300      	movs	r3, #0
 8000796:	633b      	str	r3, [r7, #48]	; 0x30
  RCC_OscInitStruct.MSIClockRange = RCC_MSIRANGE_6;
 8000798:	2360      	movs	r3, #96	; 0x60
 800079a:	637b      	str	r3, [r7, #52]	; 0x34
  RCC_OscInitStruct.PLL.PLLState = RCC_PLL_NONE;
 800079c:	2300      	movs	r3, #0
 800079e:	63fb      	str	r3, [r7, #60]	; 0x3c
  if (HAL_RCC_OscConfig(&RCC_OscInitStruct) != HAL_OK)
 80007a0:	f107 0314 	add.w	r3, r7, #20
 80007a4:	4618      	mov	r0, r3
 80007a6:	f002 f8a1 	bl	80028ec <HAL_RCC_OscConfig>
 80007aa:	4603      	mov	r3, r0
 80007ac:	2b00      	cmp	r3, #0
 80007ae:	d001      	beq.n	80007b4 <SystemClock_Config+0x5c>
  {
    Error_Handler();
 80007b0:	f000 f818 	bl	80007e4 <Error_Handler>
  }

  /** Initializes the CPU, AHB and APB buses clocks
  */
  RCC_ClkInitStruct.ClockType = RCC_CLOCKTYPE_HCLK|RCC_CLOCKTYPE_SYSCLK
 80007b4:	230f      	movs	r3, #15
 80007b6:	603b      	str	r3, [r7, #0]
                              |RCC_CLOCKTYPE_PCLK1|RCC_CLOCKTYPE_PCLK2;
  RCC_ClkInitStruct.SYSCLKSource = RCC_SYSCLKSOURCE_MSI;
 80007b8:	2300      	movs	r3, #0
 80007ba:	607b      	str	r3, [r7, #4]
  RCC_ClkInitStruct.AHBCLKDivider = RCC_SYSCLK_DIV1;
 80007bc:	2300      	movs	r3, #0
 80007be:	60bb      	str	r3, [r7, #8]
  RCC_ClkInitStruct.APB1CLKDivider = RCC_HCLK_DIV1;
 80007c0:	2300      	movs	r3, #0
 80007c2:	60fb      	str	r3, [r7, #12]
  RCC_ClkInitStruct.APB2CLKDivider = RCC_HCLK_DIV1;
 80007c4:	2300      	movs	r3, #0
 80007c6:	613b      	str	r3, [r7, #16]

  if (HAL_RCC_ClockConfig(&RCC_ClkInitStruct, FLASH_LATENCY_0) != HAL_OK)
 80007c8:	463b      	mov	r3, r7
 80007ca:	2100      	movs	r1, #0
 80007cc:	4618      	mov	r0, r3
 80007ce:	f002 fca1 	bl	8003114 <HAL_RCC_ClockConfig>
 80007d2:	4603      	mov	r3, r0
 80007d4:	2b00      	cmp	r3, #0
 80007d6:	d001      	beq.n	80007dc <SystemClock_Config+0x84>
  {
    Error_Handler();
 80007d8:	f000 f804 	bl	80007e4 <Error_Handler>
  }
}
 80007dc:	bf00      	nop
 80007de:	3758      	adds	r7, #88	; 0x58
 80007e0:	46bd      	mov	sp, r7
 80007e2:	bd80      	pop	{r7, pc}

080007e4 <Error_Handler>:
/**
  * @brief  This function is executed in case of error occurrence.
  * @retval None
  */
void Error_Handler(void)
{
 80007e4:	b480      	push	{r7}
 80007e6:	af00      	add	r7, sp, #0
  \details Disables IRQ interrupts by setting the I-bit in the CPSR.
           Can only be executed in Privileged modes.
 */
__STATIC_FORCEINLINE void __disable_irq(void)
{
  __ASM volatile ("cpsid i" : : : "memory");
 80007e8:	b672      	cpsid	i
}
 80007ea:	bf00      	nop
  /* USER CODE BEGIN Error_Handler_Debug */
  /* User can add his own implementation to report the HAL error return state */
  __disable_irq();
  while (1)
 80007ec:	e7fe      	b.n	80007ec <Error_Handler+0x8>
	...

080007f0 <MX_SPI3_Init>:

SPI_HandleTypeDef hspi3;

/* SPI3 init function */
void MX_SPI3_Init(void)
{
 80007f0:	b580      	push	{r7, lr}
 80007f2:	af00      	add	r7, sp, #0
  /* USER CODE END SPI3_Init 0 */

  /* USER CODE BEGIN SPI3_Init 1 */

  /* USER CODE END SPI3_Init 1 */
  hspi3.Instance = SPI3;
 80007f4:	4b1b      	ldr	r3, [pc, #108]	; (8000864 <MX_SPI3_Init+0x74>)
 80007f6:	4a1c      	ldr	r2, [pc, #112]	; (8000868 <MX_SPI3_Init+0x78>)
 80007f8:	601a      	str	r2, [r3, #0]
  hspi3.Init.Mode = SPI_MODE_MASTER;
 80007fa:	4b1a      	ldr	r3, [pc, #104]	; (8000864 <MX_SPI3_Init+0x74>)
 80007fc:	f44f 7282 	mov.w	r2, #260	; 0x104
 8000800:	605a      	str	r2, [r3, #4]
  hspi3.Init.Direction = SPI_DIRECTION_2LINES;
 8000802:	4b18      	ldr	r3, [pc, #96]	; (8000864 <MX_SPI3_Init+0x74>)
 8000804:	2200      	movs	r2, #0
 8000806:	609a      	str	r2, [r3, #8]
  hspi3.Init.DataSize = SPI_DATASIZE_16BIT;
 8000808:	4b16      	ldr	r3, [pc, #88]	; (8000864 <MX_SPI3_Init+0x74>)
 800080a:	f44f 6270 	mov.w	r2, #3840	; 0xf00
 800080e:	60da      	str	r2, [r3, #12]
  hspi3.Init.CLKPolarity = SPI_POLARITY_LOW;
 8000810:	4b14      	ldr	r3, [pc, #80]	; (8000864 <MX_SPI3_Init+0x74>)
 8000812:	2200      	movs	r2, #0
 8000814:	611a      	str	r2, [r3, #16]
  hspi3.Init.CLKPhase = SPI_PHASE_1EDGE;
 8000816:	4b13      	ldr	r3, [pc, #76]	; (8000864 <MX_SPI3_Init+0x74>)
 8000818:	2200      	movs	r2, #0
 800081a:	615a      	str	r2, [r3, #20]
  hspi3.Init.NSS = SPI_NSS_SOFT;
 800081c:	4b11      	ldr	r3, [pc, #68]	; (8000864 <MX_SPI3_Init+0x74>)
 800081e:	f44f 7200 	mov.w	r2, #512	; 0x200
 8000822:	619a      	str	r2, [r3, #24]
  hspi3.Init.BaudRatePrescaler = SPI_BAUDRATEPRESCALER_2;
 8000824:	4b0f      	ldr	r3, [pc, #60]	; (8000864 <MX_SPI3_Init+0x74>)
 8000826:	2200      	movs	r2, #0
 8000828:	61da      	str	r2, [r3, #28]
  hspi3.Init.FirstBit = SPI_FIRSTBIT_MSB;
 800082a:	4b0e      	ldr	r3, [pc, #56]	; (8000864 <MX_SPI3_Init+0x74>)
 800082c:	2200      	movs	r2, #0
 800082e:	621a      	str	r2, [r3, #32]
  hspi3.Init.TIMode = SPI_TIMODE_DISABLE;
 8000830:	4b0c      	ldr	r3, [pc, #48]	; (8000864 <MX_SPI3_Init+0x74>)
 8000832:	2200      	movs	r2, #0
 8000834:	625a      	str	r2, [r3, #36]	; 0x24
  hspi3.Init.CRCCalculation = SPI_CRCCALCULATION_DISABLE;
 8000836:	4b0b      	ldr	r3, [pc, #44]	; (8000864 <MX_SPI3_Init+0x74>)
 8000838:	2200      	movs	r2, #0
 800083a:	629a      	str	r2, [r3, #40]	; 0x28
  hspi3.Init.CRCPolynomial = 7;
 800083c:	4b09      	ldr	r3, [pc, #36]	; (8000864 <MX_SPI3_Init+0x74>)
 800083e:	2207      	movs	r2, #7
 8000840:	62da      	str	r2, [r3, #44]	; 0x2c
  hspi3.Init.CRCLength = SPI_CRC_LENGTH_DATASIZE;
 8000842:	4b08      	ldr	r3, [pc, #32]	; (8000864 <MX_SPI3_Init+0x74>)
 8000844:	2200      	movs	r2, #0
 8000846:	631a      	str	r2, [r3, #48]	; 0x30
  hspi3.Init.NSSPMode = SPI_NSS_PULSE_ENABLE;
 8000848:	4b06      	ldr	r3, [pc, #24]	; (8000864 <MX_SPI3_Init+0x74>)
 800084a:	2208      	movs	r2, #8
 800084c:	635a      	str	r2, [r3, #52]	; 0x34
  if (HAL_SPI_Init(&hspi3) != HAL_OK)
 800084e:	4805      	ldr	r0, [pc, #20]	; (8000864 <MX_SPI3_Init+0x74>)
 8000850:	f003 f9aa 	bl	8003ba8 <HAL_SPI_Init>
 8000854:	4603      	mov	r3, r0
 8000856:	2b00      	cmp	r3, #0
 8000858:	d001      	beq.n	800085e <MX_SPI3_Init+0x6e>
  {
    Error_Handler();
 800085a:	f7ff ffc3 	bl	80007e4 <Error_Handler>
  }
  /* USER CODE BEGIN SPI3_Init 2 */

  /* USER CODE END SPI3_Init 2 */

}
 800085e:	bf00      	nop
 8000860:	bd80      	pop	{r7, pc}
 8000862:	bf00      	nop
 8000864:	2000010c 	.word	0x2000010c
 8000868:	40003c00 	.word	0x40003c00

0800086c <HAL_SPI_MspInit>:

void HAL_SPI_MspInit(SPI_HandleTypeDef* spiHandle)
{
 800086c:	b580      	push	{r7, lr}
 800086e:	b08a      	sub	sp, #40	; 0x28
 8000870:	af00      	add	r7, sp, #0
 8000872:	6078      	str	r0, [r7, #4]

  GPIO_InitTypeDef GPIO_InitStruct = {0};
 8000874:	f107 0314 	add.w	r3, r7, #20
 8000878:	2200      	movs	r2, #0
 800087a:	601a      	str	r2, [r3, #0]
 800087c:	605a      	str	r2, [r3, #4]
 800087e:	609a      	str	r2, [r3, #8]
 8000880:	60da      	str	r2, [r3, #12]
 8000882:	611a      	str	r2, [r3, #16]
  if(spiHandle->Instance==SPI3)
 8000884:	687b      	ldr	r3, [r7, #4]
 8000886:	681b      	ldr	r3, [r3, #0]
 8000888:	4a17      	ldr	r2, [pc, #92]	; (80008e8 <HAL_SPI_MspInit+0x7c>)
 800088a:	4293      	cmp	r3, r2
 800088c:	d128      	bne.n	80008e0 <HAL_SPI_MspInit+0x74>
  {
  /* USER CODE BEGIN SPI3_MspInit 0 */

  /* USER CODE END SPI3_MspInit 0 */
    /* SPI3 clock enable */
    __HAL_RCC_SPI3_CLK_ENABLE();
 800088e:	4b17      	ldr	r3, [pc, #92]	; (80008ec <HAL_SPI_MspInit+0x80>)
 8000890:	6d9b      	ldr	r3, [r3, #88]	; 0x58
 8000892:	4a16      	ldr	r2, [pc, #88]	; (80008ec <HAL_SPI_MspInit+0x80>)
 8000894:	f443 4300 	orr.w	r3, r3, #32768	; 0x8000
 8000898:	6593      	str	r3, [r2, #88]	; 0x58
 800089a:	4b14      	ldr	r3, [pc, #80]	; (80008ec <HAL_SPI_MspInit+0x80>)
 800089c:	6d9b      	ldr	r3, [r3, #88]	; 0x58
 800089e:	f403 4300 	and.w	r3, r3, #32768	; 0x8000
 80008a2:	613b      	str	r3, [r7, #16]
 80008a4:	693b      	ldr	r3, [r7, #16]

    __HAL_RCC_GPIOC_CLK_ENABLE();
 80008a6:	4b11      	ldr	r3, [pc, #68]	; (80008ec <HAL_SPI_MspInit+0x80>)
 80008a8:	6cdb      	ldr	r3, [r3, #76]	; 0x4c
 80008aa:	4a10      	ldr	r2, [pc, #64]	; (80008ec <HAL_SPI_MspInit+0x80>)
 80008ac:	f043 0304 	orr.w	r3, r3, #4
 80008b0:	64d3      	str	r3, [r2, #76]	; 0x4c
 80008b2:	4b0e      	ldr	r3, [pc, #56]	; (80008ec <HAL_SPI_MspInit+0x80>)
 80008b4:	6cdb      	ldr	r3, [r3, #76]	; 0x4c
 80008b6:	f003 0304 	and.w	r3, r3, #4
 80008ba:	60fb      	str	r3, [r7, #12]
 80008bc:	68fb      	ldr	r3, [r7, #12]
    /**SPI3 GPIO Configuration
    PC10     ------> SPI3_SCK
    PC11     ------> SPI3_MISO
    PC12     ------> SPI3_MOSI
    */
    GPIO_InitStruct.Pin = GPIO_PIN_10|GPIO_PIN_11|GPIO_PIN_12;
 80008be:	f44f 53e0 	mov.w	r3, #7168	; 0x1c00
 80008c2:	617b      	str	r3, [r7, #20]
    GPIO_InitStruct.Mode = GPIO_MODE_AF_PP;
 80008c4:	2302      	movs	r3, #2
 80008c6:	61bb      	str	r3, [r7, #24]
    GPIO_InitStruct.Pull = GPIO_NOPULL;
 80008c8:	2300      	movs	r3, #0
 80008ca:	61fb      	str	r3, [r7, #28]
    GPIO_InitStruct.Speed = GPIO_SPEED_FREQ_VERY_HIGH;
 80008cc:	2303      	movs	r3, #3
 80008ce:	623b      	str	r3, [r7, #32]
    GPIO_InitStruct.Alternate = GPIO_AF6_SPI3;
 80008d0:	2306      	movs	r3, #6
 80008d2:	627b      	str	r3, [r7, #36]	; 0x24
    HAL_GPIO_Init(GPIOC, &GPIO_InitStruct);
 80008d4:	f107 0314 	add.w	r3, r7, #20
 80008d8:	4619      	mov	r1, r3
 80008da:	4805      	ldr	r0, [pc, #20]	; (80008f0 <HAL_SPI_MspInit+0x84>)
 80008dc:	f001 f9f6 	bl	8001ccc <HAL_GPIO_Init>

  /* USER CODE BEGIN SPI3_MspInit 1 */

  /* USER CODE END SPI3_MspInit 1 */
  }
}
 80008e0:	bf00      	nop
 80008e2:	3728      	adds	r7, #40	; 0x28
 80008e4:	46bd      	mov	sp, r7
 80008e6:	bd80      	pop	{r7, pc}
 80008e8:	40003c00 	.word	0x40003c00
 80008ec:	40021000 	.word	0x40021000
 80008f0:	48000800 	.word	0x48000800

080008f4 <HAL_MspInit>:
/* USER CODE END 0 */
/**
  * Initializes the Global MSP.
  */
void HAL_MspInit(void)
{
 80008f4:	b480      	push	{r7}
 80008f6:	b083      	sub	sp, #12
 80008f8:	af00      	add	r7, sp, #0
  /* USER CODE BEGIN MspInit 0 */

  /* USER CODE END MspInit 0 */

  __HAL_RCC_SYSCFG_CLK_ENABLE();
 80008fa:	4b0f      	ldr	r3, [pc, #60]	; (8000938 <HAL_MspInit+0x44>)
 80008fc:	6e1b      	ldr	r3, [r3, #96]	; 0x60
 80008fe:	4a0e      	ldr	r2, [pc, #56]	; (8000938 <HAL_MspInit+0x44>)
 8000900:	f043 0301 	orr.w	r3, r3, #1
 8000904:	6613      	str	r3, [r2, #96]	; 0x60
 8000906:	4b0c      	ldr	r3, [pc, #48]	; (8000938 <HAL_MspInit+0x44>)
 8000908:	6e1b      	ldr	r3, [r3, #96]	; 0x60
 800090a:	f003 0301 	and.w	r3, r3, #1
 800090e:	607b      	str	r3, [r7, #4]
 8000910:	687b      	ldr	r3, [r7, #4]
  __HAL_RCC_PWR_CLK_ENABLE();
 8000912:	4b09      	ldr	r3, [pc, #36]	; (8000938 <HAL_MspInit+0x44>)
 8000914:	6d9b      	ldr	r3, [r3, #88]	; 0x58
 8000916:	4a08      	ldr	r2, [pc, #32]	; (8000938 <HAL_MspInit+0x44>)
 8000918:	f043 5380 	orr.w	r3, r3, #268435456	; 0x10000000
 800091c:	6593      	str	r3, [r2, #88]	; 0x58
 800091e:	4b06      	ldr	r3, [pc, #24]	; (8000938 <HAL_MspInit+0x44>)
 8000920:	6d9b      	ldr	r3, [r3, #88]	; 0x58
 8000922:	f003 5380 	and.w	r3, r3, #268435456	; 0x10000000
 8000926:	603b      	str	r3, [r7, #0]
 8000928:	683b      	ldr	r3, [r7, #0]
  /* System interrupt init*/

  /* USER CODE BEGIN MspInit 1 */

  /* USER CODE END MspInit 1 */
}
 800092a:	bf00      	nop
 800092c:	370c      	adds	r7, #12
 800092e:	46bd      	mov	sp, r7
 8000930:	f85d 7b04 	ldr.w	r7, [sp], #4
 8000934:	4770      	bx	lr
 8000936:	bf00      	nop
 8000938:	40021000 	.word	0x40021000

0800093c <NMI_Handler>:
/******************************************************************************/
/**
  * @brief This function handles Non maskable interrupt.
  */
void NMI_Handler(void)
{
 800093c:	b480      	push	{r7}
 800093e:	af00      	add	r7, sp, #0
  /* USER CODE BEGIN NonMaskableInt_IRQn 0 */

  /* USER CODE END NonMaskableInt_IRQn 0 */
  /* USER CODE BEGIN NonMaskableInt_IRQn 1 */
  while (1)
 8000940:	e7fe      	b.n	8000940 <NMI_Handler+0x4>

08000942 <HardFault_Handler>:

/**
  * @brief This function handles Hard fault interrupt.
  */
void HardFault_Handler(void)
{
 8000942:	b480      	push	{r7}
 8000944:	af00      	add	r7, sp, #0
  /* USER CODE BEGIN HardFault_IRQn 0 */

  /* USER CODE END HardFault_IRQn 0 */
  while (1)
 8000946:	e7fe      	b.n	8000946 <HardFault_Handler+0x4>

08000948 <MemManage_Handler>:

/**
  * @brief This function handles Memory management fault.
  */
void MemManage_Handler(void)
{
 8000948:	b480      	push	{r7}
 800094a:	af00      	add	r7, sp, #0
  /* USER CODE BEGIN MemoryManagement_IRQn 0 */

  /* USER CODE END MemoryManagement_IRQn 0 */
  while (1)
 800094c:	e7fe      	b.n	800094c <MemManage_Handler+0x4>

0800094e <BusFault_Handler>:

/**
  * @brief This function handles Prefetch fault, memory access fault.
  */
void BusFault_Handler(void)
{
 800094e:	b480      	push	{r7}
 8000950:	af00      	add	r7, sp, #0
  /* USER CODE BEGIN BusFault_IRQn 0 */

  /* USER CODE END BusFault_IRQn 0 */
  while (1)
 8000952:	e7fe      	b.n	8000952 <BusFault_Handler+0x4>

08000954 <UsageFault_Handler>:

/**
  * @brief This function handles Undefined instruction or illegal state.
  */
void UsageFault_Handler(void)
{
 8000954:	b480      	push	{r7}
 8000956:	af00      	add	r7, sp, #0
  /* USER CODE BEGIN UsageFault_IRQn 0 */

  /* USER CODE END UsageFault_IRQn 0 */
  while (1)
 8000958:	e7fe      	b.n	8000958 <UsageFault_Handler+0x4>

0800095a <SVC_Handler>:

/**
  * @brief This function handles System service call via SWI instruction.
  */
void SVC_Handler(void)
{
 800095a:	b480      	push	{r7}
 800095c:	af00      	add	r7, sp, #0

  /* USER CODE END SVCall_IRQn 0 */
  /* USER CODE BEGIN SVCall_IRQn 1 */

  /* USER CODE END SVCall_IRQn 1 */
}
 800095e:	bf00      	nop
 8000960:	46bd      	mov	sp, r7
 8000962:	f85d 7b04 	ldr.w	r7, [sp], #4
 8000966:	4770      	bx	lr

08000968 <DebugMon_Handler>:

/**
  * @brief This function handles Debug monitor.
  */
void DebugMon_Handler(void)
{
 8000968:	b480      	push	{r7}
 800096a:	af00      	add	r7, sp, #0

  /* USER CODE END DebugMonitor_IRQn 0 */
  /* USER CODE BEGIN DebugMonitor_IRQn 1 */

  /* USER CODE END DebugMonitor_IRQn 1 */
}
 800096c:	bf00      	nop
 800096e:	46bd      	mov	sp, r7
 8000970:	f85d 7b04 	ldr.w	r7, [sp], #4
 8000974:	4770      	bx	lr

08000976 <PendSV_Handler>:

/**
  * @brief This function handles Pendable request for system service.
  */
void PendSV_Handler(void)
{
 8000976:	b480      	push	{r7}
 8000978:	af00      	add	r7, sp, #0

  /* USER CODE END PendSV_IRQn 0 */
  /* USER CODE BEGIN PendSV_IRQn 1 */

  /* USER CODE END PendSV_IRQn 1 */
}
 800097a:	bf00      	nop
 800097c:	46bd      	mov	sp, r7
 800097e:	f85d 7b04 	ldr.w	r7, [sp], #4
 8000982:	4770      	bx	lr

08000984 <SysTick_Handler>:

/**
  * @brief This function handles System tick timer.
  */
void SysTick_Handler(void)
{
 8000984:	b580      	push	{r7, lr}
 8000986:	af00      	add	r7, sp, #0
  /* USER CODE BEGIN SysTick_IRQn 0 */

  /* USER CODE END SysTick_IRQn 0 */
  HAL_IncTick();
 8000988:	f000 f892 	bl	8000ab0 <HAL_IncTick>
  /* USER CODE BEGIN SysTick_IRQn 1 */

  /* USER CODE END SysTick_IRQn 1 */
}
 800098c:	bf00      	nop
 800098e:	bd80      	pop	{r7, pc}

08000990 <SystemInit>:
  * @brief  Setup the microcontroller system.
  * @retval None
  */

void SystemInit(void)
{
 8000990:	b480      	push	{r7}
 8000992:	af00      	add	r7, sp, #0
  SCB->VTOR = VECT_TAB_BASE_ADDRESS | VECT_TAB_OFFSET;
#endif

  /* FPU settings ------------------------------------------------------------*/
#if (__FPU_PRESENT == 1) && (__FPU_USED == 1)
  SCB->CPACR |= ((3UL << 20U)|(3UL << 22U));  /* set CP10 and CP11 Full Access */
 8000994:	4b06      	ldr	r3, [pc, #24]	; (80009b0 <SystemInit+0x20>)
 8000996:	f8d3 3088 	ldr.w	r3, [r3, #136]	; 0x88
 800099a:	4a05      	ldr	r2, [pc, #20]	; (80009b0 <SystemInit+0x20>)
 800099c:	f443 0370 	orr.w	r3, r3, #15728640	; 0xf00000
 80009a0:	f8c2 3088 	str.w	r3, [r2, #136]	; 0x88
#endif
}
 80009a4:	bf00      	nop
 80009a6:	46bd      	mov	sp, r7
 80009a8:	f85d 7b04 	ldr.w	r7, [sp], #4
 80009ac:	4770      	bx	lr
 80009ae:	bf00      	nop
 80009b0:	e000ed00 	.word	0xe000ed00

080009b4 <Reset_Handler>:

    .section	.text.Reset_Handler
	.weak	Reset_Handler
	.type	Reset_Handler, %function
Reset_Handler:
  ldr   sp, =_estack    /* Set stack pointer */
 80009b4:	f8df d034 	ldr.w	sp, [pc, #52]	; 80009ec <LoopForever+0x2>

/* Call the clock system initialization function.*/
    bl  SystemInit
 80009b8:	f7ff ffea 	bl	8000990 <SystemInit>

/* Copy the data segment initializers from flash to SRAM */
  ldr r0, =_sdata
 80009bc:	480c      	ldr	r0, [pc, #48]	; (80009f0 <LoopForever+0x6>)
  ldr r1, =_edata
 80009be:	490d      	ldr	r1, [pc, #52]	; (80009f4 <LoopForever+0xa>)
  ldr r2, =_sidata
 80009c0:	4a0d      	ldr	r2, [pc, #52]	; (80009f8 <LoopForever+0xe>)
  movs r3, #0
 80009c2:	2300      	movs	r3, #0
  b LoopCopyDataInit
 80009c4:	e002      	b.n	80009cc <LoopCopyDataInit>

080009c6 <CopyDataInit>:

CopyDataInit:
  ldr r4, [r2, r3]
 80009c6:	58d4      	ldr	r4, [r2, r3]
  str r4, [r0, r3]
 80009c8:	50c4      	str	r4, [r0, r3]
  adds r3, r3, #4
 80009ca:	3304      	adds	r3, #4

080009cc <LoopCopyDataInit>:

LoopCopyDataInit:
  adds r4, r0, r3
 80009cc:	18c4      	adds	r4, r0, r3
  cmp r4, r1
 80009ce:	428c      	cmp	r4, r1
  bcc CopyDataInit
 80009d0:	d3f9      	bcc.n	80009c6 <CopyDataInit>
  
/* Zero fill the bss segment. */
  ldr r2, =_sbss
 80009d2:	4a0a      	ldr	r2, [pc, #40]	; (80009fc <LoopForever+0x12>)
  ldr r4, =_ebss
 80009d4:	4c0a      	ldr	r4, [pc, #40]	; (8000a00 <LoopForever+0x16>)
  movs r3, #0
 80009d6:	2300      	movs	r3, #0
  b LoopFillZerobss
 80009d8:	e001      	b.n	80009de <LoopFillZerobss>

080009da <FillZerobss>:

FillZerobss:
  str  r3, [r2]
 80009da:	6013      	str	r3, [r2, #0]
  adds r2, r2, #4
 80009dc:	3204      	adds	r2, #4

080009de <LoopFillZerobss>:

LoopFillZerobss:
  cmp r2, r4
 80009de:	42a2      	cmp	r2, r4
  bcc FillZerobss
 80009e0:	d3fb      	bcc.n	80009da <FillZerobss>

/* Call static constructors */
    bl __libc_init_array
 80009e2:	f003 fa43 	bl	8003e6c <__libc_init_array>
/* Call the application's entry point.*/
	bl	main
 80009e6:	f7ff fe67 	bl	80006b8 <main>

080009ea <LoopForever>:

LoopForever:
    b LoopForever
 80009ea:	e7fe      	b.n	80009ea <LoopForever>
  ldr   sp, =_estack    /* Set stack pointer */
 80009ec:	20028000 	.word	0x20028000
  ldr r0, =_sdata
 80009f0:	20000000 	.word	0x20000000
  ldr r1, =_edata
 80009f4:	2000000c 	.word	0x2000000c
  ldr r2, =_sidata
 80009f8:	08003f24 	.word	0x08003f24
  ldr r2, =_sbss
 80009fc:	2000000c 	.word	0x2000000c
  ldr r4, =_ebss
 8000a00:	20000214 	.word	0x20000214

08000a04 <ADC1_IRQHandler>:
 * @retval : None
*/
    .section	.text.Default_Handler,"ax",%progbits
Default_Handler:
Infinite_Loop:
	b	Infinite_Loop
 8000a04:	e7fe      	b.n	8000a04 <ADC1_IRQHandler>

08000a06 <HAL_Init>:
  *         each 1ms in the SysTick_Handler() interrupt handler.
  *
  * @retval HAL status
  */
HAL_StatusTypeDef HAL_Init(void)
{
 8000a06:	b580      	push	{r7, lr}
 8000a08:	b082      	sub	sp, #8
 8000a0a:	af00      	add	r7, sp, #0
  HAL_StatusTypeDef  status = HAL_OK;
 8000a0c:	2300      	movs	r3, #0
 8000a0e:	71fb      	strb	r3, [r7, #7]
#if (PREFETCH_ENABLE != 0)
  __HAL_FLASH_PREFETCH_BUFFER_ENABLE();
#endif /* PREFETCH_ENABLE */

  /* Set Interrupt Group Priority */
  HAL_NVIC_SetPriorityGrouping(NVIC_PRIORITYGROUP_4);
 8000a10:	2003      	movs	r0, #3
 8000a12:	f001 f927 	bl	8001c64 <HAL_NVIC_SetPriorityGrouping>

  /* Use SysTick as time base source and configure 1ms tick (default clock after Reset is MSI) */
  if (HAL_InitTick(TICK_INT_PRIORITY) != HAL_OK)
 8000a16:	200f      	movs	r0, #15
 8000a18:	f000 f80e 	bl	8000a38 <HAL_InitTick>
 8000a1c:	4603      	mov	r3, r0
 8000a1e:	2b00      	cmp	r3, #0
 8000a20:	d002      	beq.n	8000a28 <HAL_Init+0x22>
  {
    status = HAL_ERROR;
 8000a22:	2301      	movs	r3, #1
 8000a24:	71fb      	strb	r3, [r7, #7]
 8000a26:	e001      	b.n	8000a2c <HAL_Init+0x26>
  }
  else
  {
    /* Init the low level hardware */
    HAL_MspInit();
 8000a28:	f7ff ff64 	bl	80008f4 <HAL_MspInit>
  }

  /* Return function status */
  return status;
 8000a2c:	79fb      	ldrb	r3, [r7, #7]
}
 8000a2e:	4618      	mov	r0, r3
 8000a30:	3708      	adds	r7, #8
 8000a32:	46bd      	mov	sp, r7
 8000a34:	bd80      	pop	{r7, pc}
	...

08000a38 <HAL_InitTick>:
  *       implementation  in user file.
  * @param TickPriority  Tick interrupt priority.
  * @retval HAL status
  */
__weak HAL_StatusTypeDef HAL_InitTick(uint32_t TickPriority)
{
 8000a38:	b580      	push	{r7, lr}
 8000a3a:	b084      	sub	sp, #16
 8000a3c:	af00      	add	r7, sp, #0
 8000a3e:	6078      	str	r0, [r7, #4]
  HAL_StatusTypeDef  status = HAL_OK;
 8000a40:	2300      	movs	r3, #0
 8000a42:	73fb      	strb	r3, [r7, #15]

  /* Check uwTickFreq for MisraC 2012 (even if uwTickFreq is a enum type that doesn't take the value zero)*/
  if ((uint32_t)uwTickFreq != 0U)
 8000a44:	4b17      	ldr	r3, [pc, #92]	; (8000aa4 <HAL_InitTick+0x6c>)
 8000a46:	781b      	ldrb	r3, [r3, #0]
 8000a48:	2b00      	cmp	r3, #0
 8000a4a:	d023      	beq.n	8000a94 <HAL_InitTick+0x5c>
  {
    /*Configure the SysTick to have interrupt in 1ms time basis*/
    if (HAL_SYSTICK_Config(SystemCoreClock / (1000U / (uint32_t)uwTickFreq)) == 0U)
 8000a4c:	4b16      	ldr	r3, [pc, #88]	; (8000aa8 <HAL_InitTick+0x70>)
 8000a4e:	681a      	ldr	r2, [r3, #0]
 8000a50:	4b14      	ldr	r3, [pc, #80]	; (8000aa4 <HAL_InitTick+0x6c>)
 8000a52:	781b      	ldrb	r3, [r3, #0]
 8000a54:	4619      	mov	r1, r3
 8000a56:	f44f 737a 	mov.w	r3, #1000	; 0x3e8
 8000a5a:	fbb3 f3f1 	udiv	r3, r3, r1
 8000a5e:	fbb2 f3f3 	udiv	r3, r2, r3
 8000a62:	4618      	mov	r0, r3
 8000a64:	f001 f925 	bl	8001cb2 <HAL_SYSTICK_Config>
 8000a68:	4603      	mov	r3, r0
 8000a6a:	2b00      	cmp	r3, #0
 8000a6c:	d10f      	bne.n	8000a8e <HAL_InitTick+0x56>
    {
      /* Configure the SysTick IRQ priority */
      if (TickPriority < (1UL << __NVIC_PRIO_BITS))
 8000a6e:	687b      	ldr	r3, [r7, #4]
 8000a70:	2b0f      	cmp	r3, #15
 8000a72:	d809      	bhi.n	8000a88 <HAL_InitTick+0x50>
      {
        HAL_NVIC_SetPriority(SysTick_IRQn, TickPriority, 0U);
 8000a74:	2200      	movs	r2, #0
 8000a76:	6879      	ldr	r1, [r7, #4]
 8000a78:	f04f 30ff 	mov.w	r0, #4294967295
 8000a7c:	f001 f8fd 	bl	8001c7a <HAL_NVIC_SetPriority>
        uwTickPrio = TickPriority;
 8000a80:	4a0a      	ldr	r2, [pc, #40]	; (8000aac <HAL_InitTick+0x74>)
 8000a82:	687b      	ldr	r3, [r7, #4]
 8000a84:	6013      	str	r3, [r2, #0]
 8000a86:	e007      	b.n	8000a98 <HAL_InitTick+0x60>
      }
      else
      {
        status = HAL_ERROR;
 8000a88:	2301      	movs	r3, #1
 8000a8a:	73fb      	strb	r3, [r7, #15]
 8000a8c:	e004      	b.n	8000a98 <HAL_InitTick+0x60>
      }
    }
    else
    {
      status = HAL_ERROR;
 8000a8e:	2301      	movs	r3, #1
 8000a90:	73fb      	strb	r3, [r7, #15]
 8000a92:	e001      	b.n	8000a98 <HAL_InitTick+0x60>
    }
  }
  else
  {
    status = HAL_ERROR;
 8000a94:	2301      	movs	r3, #1
 8000a96:	73fb      	strb	r3, [r7, #15]
  }

  /* Return function status */
  return status;
 8000a98:	7bfb      	ldrb	r3, [r7, #15]
}
 8000a9a:	4618      	mov	r0, r3
 8000a9c:	3710      	adds	r7, #16
 8000a9e:	46bd      	mov	sp, r7
 8000aa0:	bd80      	pop	{r7, pc}
 8000aa2:	bf00      	nop
 8000aa4:	20000008 	.word	0x20000008
 8000aa8:	20000000 	.word	0x20000000
 8000aac:	20000004 	.word	0x20000004

08000ab0 <HAL_IncTick>:
 * @note This function is declared as __weak to be overwritten in case of other
  *      implementations in user file.
  * @retval None
  */
__weak void HAL_IncTick(void)
{
 8000ab0:	b480      	push	{r7}
 8000ab2:	af00      	add	r7, sp, #0
  uwTick += (uint32_t)uwTickFreq;
 8000ab4:	4b06      	ldr	r3, [pc, #24]	; (8000ad0 <HAL_IncTick+0x20>)
 8000ab6:	781b      	ldrb	r3, [r3, #0]
 8000ab8:	461a      	mov	r2, r3
 8000aba:	4b06      	ldr	r3, [pc, #24]	; (8000ad4 <HAL_IncTick+0x24>)
 8000abc:	681b      	ldr	r3, [r3, #0]
 8000abe:	4413      	add	r3, r2
 8000ac0:	4a04      	ldr	r2, [pc, #16]	; (8000ad4 <HAL_IncTick+0x24>)
 8000ac2:	6013      	str	r3, [r2, #0]
}
 8000ac4:	bf00      	nop
 8000ac6:	46bd      	mov	sp, r7
 8000ac8:	f85d 7b04 	ldr.w	r7, [sp], #4
 8000acc:	4770      	bx	lr
 8000ace:	bf00      	nop
 8000ad0:	20000008 	.word	0x20000008
 8000ad4:	20000170 	.word	0x20000170

08000ad8 <HAL_GetTick>:
  * @note This function is declared as __weak to be overwritten in case of other
  *       implementations in user file.
  * @retval tick value
  */
__weak uint32_t HAL_GetTick(void)
{
 8000ad8:	b480      	push	{r7}
 8000ada:	af00      	add	r7, sp, #0
  return uwTick;
 8000adc:	4b03      	ldr	r3, [pc, #12]	; (8000aec <HAL_GetTick+0x14>)
 8000ade:	681b      	ldr	r3, [r3, #0]
}
 8000ae0:	4618      	mov	r0, r3
 8000ae2:	46bd      	mov	sp, r7
 8000ae4:	f85d 7b04 	ldr.w	r7, [sp], #4
 8000ae8:	4770      	bx	lr
 8000aea:	bf00      	nop
 8000aec:	20000170 	.word	0x20000170

08000af0 <HAL_Delay>:
  *       implementations in user file.
  * @param Delay  specifies the delay time length, in milliseconds.
  * @retval None
  */
__weak void HAL_Delay(uint32_t Delay)
{
 8000af0:	b580      	push	{r7, lr}
 8000af2:	b084      	sub	sp, #16
 8000af4:	af00      	add	r7, sp, #0
 8000af6:	6078      	str	r0, [r7, #4]
  uint32_t tickstart = HAL_GetTick();
 8000af8:	f7ff ffee 	bl	8000ad8 <HAL_GetTick>
 8000afc:	60b8      	str	r0, [r7, #8]
  uint32_t wait = Delay;
 8000afe:	687b      	ldr	r3, [r7, #4]
 8000b00:	60fb      	str	r3, [r7, #12]

  /* Add a period to guaranty minimum wait */
  if (wait < HAL_MAX_DELAY)
 8000b02:	68fb      	ldr	r3, [r7, #12]
 8000b04:	f1b3 3fff 	cmp.w	r3, #4294967295
 8000b08:	d005      	beq.n	8000b16 <HAL_Delay+0x26>
  {
    wait += (uint32_t)uwTickFreq;
 8000b0a:	4b0a      	ldr	r3, [pc, #40]	; (8000b34 <HAL_Delay+0x44>)
 8000b0c:	781b      	ldrb	r3, [r3, #0]
 8000b0e:	461a      	mov	r2, r3
 8000b10:	68fb      	ldr	r3, [r7, #12]
 8000b12:	4413      	add	r3, r2
 8000b14:	60fb      	str	r3, [r7, #12]
  }

  while ((HAL_GetTick() - tickstart) < wait)
 8000b16:	bf00      	nop
 8000b18:	f7ff ffde 	bl	8000ad8 <HAL_GetTick>
 8000b1c:	4602      	mov	r2, r0
 8000b1e:	68bb      	ldr	r3, [r7, #8]
 8000b20:	1ad3      	subs	r3, r2, r3
 8000b22:	68fa      	ldr	r2, [r7, #12]
 8000b24:	429a      	cmp	r2, r3
 8000b26:	d8f7      	bhi.n	8000b18 <HAL_Delay+0x28>
  {
  }
}
 8000b28:	bf00      	nop
 8000b2a:	bf00      	nop
 8000b2c:	3710      	adds	r7, #16
 8000b2e:	46bd      	mov	sp, r7
 8000b30:	bd80      	pop	{r7, pc}
 8000b32:	bf00      	nop
 8000b34:	20000008 	.word	0x20000008

08000b38 <LL_ADC_SetCommonClock>:
  *         @arg @ref LL_ADC_CLOCK_ASYNC_DIV128
  *         @arg @ref LL_ADC_CLOCK_ASYNC_DIV256
  * @retval None
  */
__STATIC_INLINE void LL_ADC_SetCommonClock(ADC_Common_TypeDef *ADCxy_COMMON, uint32_t CommonClock)
{
 8000b38:	b480      	push	{r7}
 8000b3a:	b083      	sub	sp, #12
 8000b3c:	af00      	add	r7, sp, #0
 8000b3e:	6078      	str	r0, [r7, #4]
 8000b40:	6039      	str	r1, [r7, #0]
  MODIFY_REG(ADCxy_COMMON->CCR, ADC_CCR_CKMODE | ADC_CCR_PRESC, CommonClock);
 8000b42:	687b      	ldr	r3, [r7, #4]
 8000b44:	689b      	ldr	r3, [r3, #8]
 8000b46:	f423 127c 	bic.w	r2, r3, #4128768	; 0x3f0000
 8000b4a:	683b      	ldr	r3, [r7, #0]
 8000b4c:	431a      	orrs	r2, r3
 8000b4e:	687b      	ldr	r3, [r7, #4]
 8000b50:	609a      	str	r2, [r3, #8]
}
 8000b52:	bf00      	nop
 8000b54:	370c      	adds	r7, #12
 8000b56:	46bd      	mov	sp, r7
 8000b58:	f85d 7b04 	ldr.w	r7, [sp], #4
 8000b5c:	4770      	bx	lr

08000b5e <LL_ADC_SetCommonPathInternalCh>:
  *         @arg @ref LL_ADC_PATH_INTERNAL_TEMPSENSOR
  *         @arg @ref LL_ADC_PATH_INTERNAL_VBAT
  * @retval None
  */
__STATIC_INLINE void LL_ADC_SetCommonPathInternalCh(ADC_Common_TypeDef *ADCxy_COMMON, uint32_t PathInternal)
{
 8000b5e:	b480      	push	{r7}
 8000b60:	b083      	sub	sp, #12
 8000b62:	af00      	add	r7, sp, #0
 8000b64:	6078      	str	r0, [r7, #4]
 8000b66:	6039      	str	r1, [r7, #0]
  MODIFY_REG(ADCxy_COMMON->CCR, ADC_CCR_VREFEN | ADC_CCR_TSEN | ADC_CCR_VBATEN, PathInternal);
 8000b68:	687b      	ldr	r3, [r7, #4]
 8000b6a:	689b      	ldr	r3, [r3, #8]
 8000b6c:	f023 72e0 	bic.w	r2, r3, #29360128	; 0x1c00000
 8000b70:	683b      	ldr	r3, [r7, #0]
 8000b72:	431a      	orrs	r2, r3
 8000b74:	687b      	ldr	r3, [r7, #4]
 8000b76:	609a      	str	r2, [r3, #8]
}
 8000b78:	bf00      	nop
 8000b7a:	370c      	adds	r7, #12
 8000b7c:	46bd      	mov	sp, r7
 8000b7e:	f85d 7b04 	ldr.w	r7, [sp], #4
 8000b82:	4770      	bx	lr

08000b84 <LL_ADC_GetCommonPathInternalCh>:
  *         @arg @ref LL_ADC_PATH_INTERNAL_VREFINT
  *         @arg @ref LL_ADC_PATH_INTERNAL_TEMPSENSOR
  *         @arg @ref LL_ADC_PATH_INTERNAL_VBAT
  */
__STATIC_INLINE uint32_t LL_ADC_GetCommonPathInternalCh(ADC_Common_TypeDef *ADCxy_COMMON)
{
 8000b84:	b480      	push	{r7}
 8000b86:	b083      	sub	sp, #12
 8000b88:	af00      	add	r7, sp, #0
 8000b8a:	6078      	str	r0, [r7, #4]
  return (uint32_t)(READ_BIT(ADCxy_COMMON->CCR, ADC_CCR_VREFEN | ADC_CCR_TSEN | ADC_CCR_VBATEN));
 8000b8c:	687b      	ldr	r3, [r7, #4]
 8000b8e:	689b      	ldr	r3, [r3, #8]
 8000b90:	f003 73e0 	and.w	r3, r3, #29360128	; 0x1c00000
}
 8000b94:	4618      	mov	r0, r3
 8000b96:	370c      	adds	r7, #12
 8000b98:	46bd      	mov	sp, r7
 8000b9a:	f85d 7b04 	ldr.w	r7, [sp], #4
 8000b9e:	4770      	bx	lr

08000ba0 <LL_ADC_SetOffset>:
  *             Other channels are slow channels (0.238 us for 12-bit resolution (ADC conversion rate up to 4.21 Ms/s)).
  * @param  OffsetLevel Value between Min_Data=0x000 and Max_Data=0xFFF
  * @retval None
  */
__STATIC_INLINE void LL_ADC_SetOffset(ADC_TypeDef *ADCx, uint32_t Offsety, uint32_t Channel, uint32_t OffsetLevel)
{
 8000ba0:	b480      	push	{r7}
 8000ba2:	b087      	sub	sp, #28
 8000ba4:	af00      	add	r7, sp, #0
 8000ba6:	60f8      	str	r0, [r7, #12]
 8000ba8:	60b9      	str	r1, [r7, #8]
 8000baa:	607a      	str	r2, [r7, #4]
 8000bac:	603b      	str	r3, [r7, #0]
  __IO uint32_t *preg = __ADC_PTR_REG_OFFSET(ADCx->OFR1, Offsety);
 8000bae:	68fb      	ldr	r3, [r7, #12]
 8000bb0:	3360      	adds	r3, #96	; 0x60
 8000bb2:	461a      	mov	r2, r3
 8000bb4:	68bb      	ldr	r3, [r7, #8]
 8000bb6:	009b      	lsls	r3, r3, #2
 8000bb8:	4413      	add	r3, r2
 8000bba:	617b      	str	r3, [r7, #20]

  MODIFY_REG(*preg,
 8000bbc:	697b      	ldr	r3, [r7, #20]
 8000bbe:	681a      	ldr	r2, [r3, #0]
 8000bc0:	4b08      	ldr	r3, [pc, #32]	; (8000be4 <LL_ADC_SetOffset+0x44>)
 8000bc2:	4013      	ands	r3, r2
 8000bc4:	687a      	ldr	r2, [r7, #4]
 8000bc6:	f002 41f8 	and.w	r1, r2, #2080374784	; 0x7c000000
 8000bca:	683a      	ldr	r2, [r7, #0]
 8000bcc:	430a      	orrs	r2, r1
 8000bce:	4313      	orrs	r3, r2
 8000bd0:	f043 4200 	orr.w	r2, r3, #2147483648	; 0x80000000
 8000bd4:	697b      	ldr	r3, [r7, #20]
 8000bd6:	601a      	str	r2, [r3, #0]
             ADC_OFR1_OFFSET1_EN | ADC_OFR1_OFFSET1_CH | ADC_OFR1_OFFSET1,
             ADC_OFR1_OFFSET1_EN | (Channel & ADC_CHANNEL_ID_NUMBER_MASK) | OffsetLevel);
}
 8000bd8:	bf00      	nop
 8000bda:	371c      	adds	r7, #28
 8000bdc:	46bd      	mov	sp, r7
 8000bde:	f85d 7b04 	ldr.w	r7, [sp], #4
 8000be2:	4770      	bx	lr
 8000be4:	03fff000 	.word	0x03fff000

08000be8 <LL_ADC_GetOffsetChannel>:
  *         (1, 2, 3, 4) For ADC channel read back from ADC register,
  *                      comparison with internal channel parameter to be done
  *                      using helper macro @ref __LL_ADC_CHANNEL_INTERNAL_TO_EXTERNAL().
  */
__STATIC_INLINE uint32_t LL_ADC_GetOffsetChannel(ADC_TypeDef *ADCx, uint32_t Offsety)
{
 8000be8:	b480      	push	{r7}
 8000bea:	b085      	sub	sp, #20
 8000bec:	af00      	add	r7, sp, #0
 8000bee:	6078      	str	r0, [r7, #4]
 8000bf0:	6039      	str	r1, [r7, #0]
  const __IO uint32_t *preg = __ADC_PTR_REG_OFFSET(ADCx->OFR1, Offsety);
 8000bf2:	687b      	ldr	r3, [r7, #4]
 8000bf4:	3360      	adds	r3, #96	; 0x60
 8000bf6:	461a      	mov	r2, r3
 8000bf8:	683b      	ldr	r3, [r7, #0]
 8000bfa:	009b      	lsls	r3, r3, #2
 8000bfc:	4413      	add	r3, r2
 8000bfe:	60fb      	str	r3, [r7, #12]

  return (uint32_t) READ_BIT(*preg, ADC_OFR1_OFFSET1_CH);
 8000c00:	68fb      	ldr	r3, [r7, #12]
 8000c02:	681b      	ldr	r3, [r3, #0]
 8000c04:	f003 43f8 	and.w	r3, r3, #2080374784	; 0x7c000000
}
 8000c08:	4618      	mov	r0, r3
 8000c0a:	3714      	adds	r7, #20
 8000c0c:	46bd      	mov	sp, r7
 8000c0e:	f85d 7b04 	ldr.w	r7, [sp], #4
 8000c12:	4770      	bx	lr

08000c14 <LL_ADC_SetOffsetState>:
  *         @arg @ref LL_ADC_OFFSET_DISABLE
  *         @arg @ref LL_ADC_OFFSET_ENABLE
  * @retval None
  */
__STATIC_INLINE void LL_ADC_SetOffsetState(ADC_TypeDef *ADCx, uint32_t Offsety, uint32_t OffsetState)
{
 8000c14:	b480      	push	{r7}
 8000c16:	b087      	sub	sp, #28
 8000c18:	af00      	add	r7, sp, #0
 8000c1a:	60f8      	str	r0, [r7, #12]
 8000c1c:	60b9      	str	r1, [r7, #8]
 8000c1e:	607a      	str	r2, [r7, #4]
  __IO uint32_t *preg = __ADC_PTR_REG_OFFSET(ADCx->OFR1, Offsety);
 8000c20:	68fb      	ldr	r3, [r7, #12]
 8000c22:	3360      	adds	r3, #96	; 0x60
 8000c24:	461a      	mov	r2, r3
 8000c26:	68bb      	ldr	r3, [r7, #8]
 8000c28:	009b      	lsls	r3, r3, #2
 8000c2a:	4413      	add	r3, r2
 8000c2c:	617b      	str	r3, [r7, #20]

  MODIFY_REG(*preg,
 8000c2e:	697b      	ldr	r3, [r7, #20]
 8000c30:	681b      	ldr	r3, [r3, #0]
 8000c32:	f023 4200 	bic.w	r2, r3, #2147483648	; 0x80000000
 8000c36:	687b      	ldr	r3, [r7, #4]
 8000c38:	431a      	orrs	r2, r3
 8000c3a:	697b      	ldr	r3, [r7, #20]
 8000c3c:	601a      	str	r2, [r3, #0]
             ADC_OFR1_OFFSET1_EN,
             OffsetState);
}
 8000c3e:	bf00      	nop
 8000c40:	371c      	adds	r7, #28
 8000c42:	46bd      	mov	sp, r7
 8000c44:	f85d 7b04 	ldr.w	r7, [sp], #4
 8000c48:	4770      	bx	lr

08000c4a <LL_ADC_SetSamplingTimeCommonConfig>:
  *         @arg @ref LL_ADC_SAMPLINGTIME_COMMON_DEFAULT
  *         @arg @ref LL_ADC_SAMPLINGTIME_COMMON_3C5_REPL_2C5
  * @retval None
  */
__STATIC_INLINE void LL_ADC_SetSamplingTimeCommonConfig(ADC_TypeDef *ADCx, uint32_t SamplingTimeCommonConfig)
{
 8000c4a:	b480      	push	{r7}
 8000c4c:	b083      	sub	sp, #12
 8000c4e:	af00      	add	r7, sp, #0
 8000c50:	6078      	str	r0, [r7, #4]
 8000c52:	6039      	str	r1, [r7, #0]
  MODIFY_REG(ADCx->SMPR1, ADC_SMPR1_SMPPLUS, SamplingTimeCommonConfig);
 8000c54:	687b      	ldr	r3, [r7, #4]
 8000c56:	695b      	ldr	r3, [r3, #20]
 8000c58:	f023 4200 	bic.w	r2, r3, #2147483648	; 0x80000000
 8000c5c:	683b      	ldr	r3, [r7, #0]
 8000c5e:	431a      	orrs	r2, r3
 8000c60:	687b      	ldr	r3, [r7, #4]
 8000c62:	615a      	str	r2, [r3, #20]
}
 8000c64:	bf00      	nop
 8000c66:	370c      	adds	r7, #12
 8000c68:	46bd      	mov	sp, r7
 8000c6a:	f85d 7b04 	ldr.w	r7, [sp], #4
 8000c6e:	4770      	bx	lr

08000c70 <LL_ADC_REG_SetSequencerRanks>:
  *         (7) On STM32L4, fast channel (0.188 us for 12-bit resolution (ADC conversion rate up to 5.33 Ms/s)).
  *             Other channels are slow channels (0.238 us for 12-bit resolution (ADC conversion rate up to 4.21 Ms/s)).
  * @retval None
  */
__STATIC_INLINE void LL_ADC_REG_SetSequencerRanks(ADC_TypeDef *ADCx, uint32_t Rank, uint32_t Channel)
{
 8000c70:	b480      	push	{r7}
 8000c72:	b087      	sub	sp, #28
 8000c74:	af00      	add	r7, sp, #0
 8000c76:	60f8      	str	r0, [r7, #12]
 8000c78:	60b9      	str	r1, [r7, #8]
 8000c7a:	607a      	str	r2, [r7, #4]
  /* Set bits with content of parameter "Channel" with bits position          */
  /* in register and register position depending on parameter "Rank".         */
  /* Parameters "Rank" and "Channel" are used with masks because containing   */
  /* other bits reserved for other purpose.                                   */
  __IO uint32_t *preg = __ADC_PTR_REG_OFFSET(ADCx->SQR1, ((Rank & ADC_REG_SQRX_REGOFFSET_MASK) >> ADC_SQRX_REGOFFSET_POS));
 8000c7c:	68fb      	ldr	r3, [r7, #12]
 8000c7e:	3330      	adds	r3, #48	; 0x30
 8000c80:	461a      	mov	r2, r3
 8000c82:	68bb      	ldr	r3, [r7, #8]
 8000c84:	0a1b      	lsrs	r3, r3, #8
 8000c86:	009b      	lsls	r3, r3, #2
 8000c88:	f003 030c 	and.w	r3, r3, #12
 8000c8c:	4413      	add	r3, r2
 8000c8e:	617b      	str	r3, [r7, #20]

  MODIFY_REG(*preg,
 8000c90:	697b      	ldr	r3, [r7, #20]
 8000c92:	681a      	ldr	r2, [r3, #0]
 8000c94:	68bb      	ldr	r3, [r7, #8]
 8000c96:	f003 031f 	and.w	r3, r3, #31
 8000c9a:	211f      	movs	r1, #31
 8000c9c:	fa01 f303 	lsl.w	r3, r1, r3
 8000ca0:	43db      	mvns	r3, r3
 8000ca2:	401a      	ands	r2, r3
 8000ca4:	687b      	ldr	r3, [r7, #4]
 8000ca6:	0e9b      	lsrs	r3, r3, #26
 8000ca8:	f003 011f 	and.w	r1, r3, #31
 8000cac:	68bb      	ldr	r3, [r7, #8]
 8000cae:	f003 031f 	and.w	r3, r3, #31
 8000cb2:	fa01 f303 	lsl.w	r3, r1, r3
 8000cb6:	431a      	orrs	r2, r3
 8000cb8:	697b      	ldr	r3, [r7, #20]
 8000cba:	601a      	str	r2, [r3, #0]
             ADC_CHANNEL_ID_NUMBER_MASK_POSBIT0 << (Rank & ADC_REG_RANK_ID_SQRX_MASK),
             ((Channel & ADC_CHANNEL_ID_NUMBER_MASK) >> ADC_CHANNEL_ID_NUMBER_BITOFFSET_POS) << (Rank & ADC_REG_RANK_ID_SQRX_MASK));
}
 8000cbc:	bf00      	nop
 8000cbe:	371c      	adds	r7, #28
 8000cc0:	46bd      	mov	sp, r7
 8000cc2:	f85d 7b04 	ldr.w	r7, [sp], #4
 8000cc6:	4770      	bx	lr

08000cc8 <LL_ADC_SetChannelSamplingTime>:
  *             can be replaced by 3.5 ADC clock cycles.
  *             Refer to function @ref LL_ADC_SetSamplingTimeCommonConfig().
  * @retval None
  */
__STATIC_INLINE void LL_ADC_SetChannelSamplingTime(ADC_TypeDef *ADCx, uint32_t Channel, uint32_t SamplingTime)
{
 8000cc8:	b480      	push	{r7}
 8000cca:	b087      	sub	sp, #28
 8000ccc:	af00      	add	r7, sp, #0
 8000cce:	60f8      	str	r0, [r7, #12]
 8000cd0:	60b9      	str	r1, [r7, #8]
 8000cd2:	607a      	str	r2, [r7, #4]
  /* Set bits with content of parameter "SamplingTime" with bits position     */
  /* in register and register position depending on parameter "Channel".      */
  /* Parameter "Channel" is used with masks because containing                */
  /* other bits reserved for other purpose.                                   */
  __IO uint32_t *preg = __ADC_PTR_REG_OFFSET(ADCx->SMPR1, ((Channel & ADC_CHANNEL_SMPRX_REGOFFSET_MASK) >> ADC_SMPRX_REGOFFSET_POS));
 8000cd4:	68fb      	ldr	r3, [r7, #12]
 8000cd6:	3314      	adds	r3, #20
 8000cd8:	461a      	mov	r2, r3
 8000cda:	68bb      	ldr	r3, [r7, #8]
 8000cdc:	0e5b      	lsrs	r3, r3, #25
 8000cde:	009b      	lsls	r3, r3, #2
 8000ce0:	f003 0304 	and.w	r3, r3, #4
 8000ce4:	4413      	add	r3, r2
 8000ce6:	617b      	str	r3, [r7, #20]

  MODIFY_REG(*preg,
 8000ce8:	697b      	ldr	r3, [r7, #20]
 8000cea:	681a      	ldr	r2, [r3, #0]
 8000cec:	68bb      	ldr	r3, [r7, #8]
 8000cee:	0d1b      	lsrs	r3, r3, #20
 8000cf0:	f003 031f 	and.w	r3, r3, #31
 8000cf4:	2107      	movs	r1, #7
 8000cf6:	fa01 f303 	lsl.w	r3, r1, r3
 8000cfa:	43db      	mvns	r3, r3
 8000cfc:	401a      	ands	r2, r3
 8000cfe:	68bb      	ldr	r3, [r7, #8]
 8000d00:	0d1b      	lsrs	r3, r3, #20
 8000d02:	f003 031f 	and.w	r3, r3, #31
 8000d06:	6879      	ldr	r1, [r7, #4]
 8000d08:	fa01 f303 	lsl.w	r3, r1, r3
 8000d0c:	431a      	orrs	r2, r3
 8000d0e:	697b      	ldr	r3, [r7, #20]
 8000d10:	601a      	str	r2, [r3, #0]
             ADC_SMPR1_SMP0 << ((Channel & ADC_CHANNEL_SMPx_BITOFFSET_MASK) >> ADC_CHANNEL_SMPx_BITOFFSET_POS),
             SamplingTime   << ((Channel & ADC_CHANNEL_SMPx_BITOFFSET_MASK) >> ADC_CHANNEL_SMPx_BITOFFSET_POS));
}
 8000d12:	bf00      	nop
 8000d14:	371c      	adds	r7, #28
 8000d16:	46bd      	mov	sp, r7
 8000d18:	f85d 7b04 	ldr.w	r7, [sp], #4
 8000d1c:	4770      	bx	lr
	...

08000d20 <LL_ADC_SetChannelSingleDiff>:
  *         @arg @ref LL_ADC_SINGLE_ENDED
  *         @arg @ref LL_ADC_DIFFERENTIAL_ENDED
  * @retval None
  */
__STATIC_INLINE void LL_ADC_SetChannelSingleDiff(ADC_TypeDef *ADCx, uint32_t Channel, uint32_t SingleDiff)
{
 8000d20:	b480      	push	{r7}
 8000d22:	b085      	sub	sp, #20
 8000d24:	af00      	add	r7, sp, #0
 8000d26:	60f8      	str	r0, [r7, #12]
 8000d28:	60b9      	str	r1, [r7, #8]
 8000d2a:	607a      	str	r2, [r7, #4]
  /* Bits of channels in single or differential mode are set only for         */
  /* differential mode (for single mode, mask of bits allowed to be set is    */
  /* shifted out of range of bits of channels in single or differential mode. */
  MODIFY_REG(ADCx->DIFSEL,
 8000d2c:	68fb      	ldr	r3, [r7, #12]
 8000d2e:	f8d3 20b0 	ldr.w	r2, [r3, #176]	; 0xb0
 8000d32:	68bb      	ldr	r3, [r7, #8]
 8000d34:	f3c3 0312 	ubfx	r3, r3, #0, #19
 8000d38:	43db      	mvns	r3, r3
 8000d3a:	401a      	ands	r2, r3
 8000d3c:	687b      	ldr	r3, [r7, #4]
 8000d3e:	f003 0318 	and.w	r3, r3, #24
 8000d42:	4908      	ldr	r1, [pc, #32]	; (8000d64 <LL_ADC_SetChannelSingleDiff+0x44>)
 8000d44:	40d9      	lsrs	r1, r3
 8000d46:	68bb      	ldr	r3, [r7, #8]
 8000d48:	400b      	ands	r3, r1
 8000d4a:	f3c3 0312 	ubfx	r3, r3, #0, #19
 8000d4e:	431a      	orrs	r2, r3
 8000d50:	68fb      	ldr	r3, [r7, #12]
 8000d52:	f8c3 20b0 	str.w	r2, [r3, #176]	; 0xb0
             Channel & ADC_SINGLEDIFF_CHANNEL_MASK,
             (Channel & ADC_SINGLEDIFF_CHANNEL_MASK) & (ADC_DIFSEL_DIFSEL >> (SingleDiff & ADC_SINGLEDIFF_CHANNEL_SHIFT_MASK)));
}
 8000d56:	bf00      	nop
 8000d58:	3714      	adds	r7, #20
 8000d5a:	46bd      	mov	sp, r7
 8000d5c:	f85d 7b04 	ldr.w	r7, [sp], #4
 8000d60:	4770      	bx	lr
 8000d62:	bf00      	nop
 8000d64:	0007ffff 	.word	0x0007ffff

08000d68 <LL_ADC_DisableDeepPowerDown>:
  * @rmtoll CR       DEEPPWD        LL_ADC_DisableDeepPowerDown
  * @param  ADCx ADC instance
  * @retval None
  */
__STATIC_INLINE void LL_ADC_DisableDeepPowerDown(ADC_TypeDef *ADCx)
{
 8000d68:	b480      	push	{r7}
 8000d6a:	b083      	sub	sp, #12
 8000d6c:	af00      	add	r7, sp, #0
 8000d6e:	6078      	str	r0, [r7, #4]
  /* Note: Write register with some additional bits forced to state reset     */
  /*       instead of modifying only the selected bit for this function,      */
  /*       to not interfere with bits with HW property "rs".                  */
  CLEAR_BIT(ADCx->CR, (ADC_CR_DEEPPWD | ADC_CR_BITS_PROPERTY_RS));
 8000d70:	687b      	ldr	r3, [r7, #4]
 8000d72:	689b      	ldr	r3, [r3, #8]
 8000d74:	f023 4320 	bic.w	r3, r3, #2684354560	; 0xa0000000
 8000d78:	f023 033f 	bic.w	r3, r3, #63	; 0x3f
 8000d7c:	687a      	ldr	r2, [r7, #4]
 8000d7e:	6093      	str	r3, [r2, #8]
}
 8000d80:	bf00      	nop
 8000d82:	370c      	adds	r7, #12
 8000d84:	46bd      	mov	sp, r7
 8000d86:	f85d 7b04 	ldr.w	r7, [sp], #4
 8000d8a:	4770      	bx	lr

08000d8c <LL_ADC_IsDeepPowerDownEnabled>:
  * @rmtoll CR       DEEPPWD        LL_ADC_IsDeepPowerDownEnabled
  * @param  ADCx ADC instance
  * @retval 0: deep power down is disabled, 1: deep power down is enabled.
  */
__STATIC_INLINE uint32_t LL_ADC_IsDeepPowerDownEnabled(ADC_TypeDef *ADCx)
{
 8000d8c:	b480      	push	{r7}
 8000d8e:	b083      	sub	sp, #12
 8000d90:	af00      	add	r7, sp, #0
 8000d92:	6078      	str	r0, [r7, #4]
  return ((READ_BIT(ADCx->CR, ADC_CR_DEEPPWD) == (ADC_CR_DEEPPWD)) ? 1UL : 0UL);
 8000d94:	687b      	ldr	r3, [r7, #4]
 8000d96:	689b      	ldr	r3, [r3, #8]
 8000d98:	f003 5300 	and.w	r3, r3, #536870912	; 0x20000000
 8000d9c:	f1b3 5f00 	cmp.w	r3, #536870912	; 0x20000000
 8000da0:	d101      	bne.n	8000da6 <LL_ADC_IsDeepPowerDownEnabled+0x1a>
 8000da2:	2301      	movs	r3, #1
 8000da4:	e000      	b.n	8000da8 <LL_ADC_IsDeepPowerDownEnabled+0x1c>
 8000da6:	2300      	movs	r3, #0
}
 8000da8:	4618      	mov	r0, r3
 8000daa:	370c      	adds	r7, #12
 8000dac:	46bd      	mov	sp, r7
 8000dae:	f85d 7b04 	ldr.w	r7, [sp], #4
 8000db2:	4770      	bx	lr

08000db4 <LL_ADC_EnableInternalRegulator>:
  * @rmtoll CR       ADVREGEN       LL_ADC_EnableInternalRegulator
  * @param  ADCx ADC instance
  * @retval None
  */
__STATIC_INLINE void LL_ADC_EnableInternalRegulator(ADC_TypeDef *ADCx)
{
 8000db4:	b480      	push	{r7}
 8000db6:	b083      	sub	sp, #12
 8000db8:	af00      	add	r7, sp, #0
 8000dba:	6078      	str	r0, [r7, #4]
  /* Note: Write register with some additional bits forced to state reset     */
  /*       instead of modifying only the selected bit for this function,      */
  /*       to not interfere with bits with HW property "rs".                  */
  MODIFY_REG(ADCx->CR,
 8000dbc:	687b      	ldr	r3, [r7, #4]
 8000dbe:	689b      	ldr	r3, [r3, #8]
 8000dc0:	f023 4310 	bic.w	r3, r3, #2415919104	; 0x90000000
 8000dc4:	f023 033f 	bic.w	r3, r3, #63	; 0x3f
 8000dc8:	f043 5280 	orr.w	r2, r3, #268435456	; 0x10000000
 8000dcc:	687b      	ldr	r3, [r7, #4]
 8000dce:	609a      	str	r2, [r3, #8]
             ADC_CR_BITS_PROPERTY_RS,
             ADC_CR_ADVREGEN);
}
 8000dd0:	bf00      	nop
 8000dd2:	370c      	adds	r7, #12
 8000dd4:	46bd      	mov	sp, r7
 8000dd6:	f85d 7b04 	ldr.w	r7, [sp], #4
 8000dda:	4770      	bx	lr

08000ddc <LL_ADC_IsInternalRegulatorEnabled>:
  * @rmtoll CR       ADVREGEN       LL_ADC_IsInternalRegulatorEnabled
  * @param  ADCx ADC instance
  * @retval 0: internal regulator is disabled, 1: internal regulator is enabled.
  */
__STATIC_INLINE uint32_t LL_ADC_IsInternalRegulatorEnabled(ADC_TypeDef *ADCx)
{
 8000ddc:	b480      	push	{r7}
 8000dde:	b083      	sub	sp, #12
 8000de0:	af00      	add	r7, sp, #0
 8000de2:	6078      	str	r0, [r7, #4]
  return ((READ_BIT(ADCx->CR, ADC_CR_ADVREGEN) == (ADC_CR_ADVREGEN)) ? 1UL : 0UL);
 8000de4:	687b      	ldr	r3, [r7, #4]
 8000de6:	689b      	ldr	r3, [r3, #8]
 8000de8:	f003 5380 	and.w	r3, r3, #268435456	; 0x10000000
 8000dec:	f1b3 5f80 	cmp.w	r3, #268435456	; 0x10000000
 8000df0:	d101      	bne.n	8000df6 <LL_ADC_IsInternalRegulatorEnabled+0x1a>
 8000df2:	2301      	movs	r3, #1
 8000df4:	e000      	b.n	8000df8 <LL_ADC_IsInternalRegulatorEnabled+0x1c>
 8000df6:	2300      	movs	r3, #0
}
 8000df8:	4618      	mov	r0, r3
 8000dfa:	370c      	adds	r7, #12
 8000dfc:	46bd      	mov	sp, r7
 8000dfe:	f85d 7b04 	ldr.w	r7, [sp], #4
 8000e02:	4770      	bx	lr

08000e04 <LL_ADC_IsEnabled>:
  * @rmtoll CR       ADEN           LL_ADC_IsEnabled
  * @param  ADCx ADC instance
  * @retval 0: ADC is disabled, 1: ADC is enabled.
  */
__STATIC_INLINE uint32_t LL_ADC_IsEnabled(ADC_TypeDef *ADCx)
{
 8000e04:	b480      	push	{r7}
 8000e06:	b083      	sub	sp, #12
 8000e08:	af00      	add	r7, sp, #0
 8000e0a:	6078      	str	r0, [r7, #4]
  return ((READ_BIT(ADCx->CR, ADC_CR_ADEN) == (ADC_CR_ADEN)) ? 1UL : 0UL);
 8000e0c:	687b      	ldr	r3, [r7, #4]
 8000e0e:	689b      	ldr	r3, [r3, #8]
 8000e10:	f003 0301 	and.w	r3, r3, #1
 8000e14:	2b01      	cmp	r3, #1
 8000e16:	d101      	bne.n	8000e1c <LL_ADC_IsEnabled+0x18>
 8000e18:	2301      	movs	r3, #1
 8000e1a:	e000      	b.n	8000e1e <LL_ADC_IsEnabled+0x1a>
 8000e1c:	2300      	movs	r3, #0
}
 8000e1e:	4618      	mov	r0, r3
 8000e20:	370c      	adds	r7, #12
 8000e22:	46bd      	mov	sp, r7
 8000e24:	f85d 7b04 	ldr.w	r7, [sp], #4
 8000e28:	4770      	bx	lr

08000e2a <LL_ADC_REG_IsConversionOngoing>:
  * @rmtoll CR       ADSTART        LL_ADC_REG_IsConversionOngoing
  * @param  ADCx ADC instance
  * @retval 0: no conversion is on going on ADC group regular.
  */
__STATIC_INLINE uint32_t LL_ADC_REG_IsConversionOngoing(ADC_TypeDef *ADCx)
{
 8000e2a:	b480      	push	{r7}
 8000e2c:	b083      	sub	sp, #12
 8000e2e:	af00      	add	r7, sp, #0
 8000e30:	6078      	str	r0, [r7, #4]
  return ((READ_BIT(ADCx->CR, ADC_CR_ADSTART) == (ADC_CR_ADSTART)) ? 1UL : 0UL);
 8000e32:	687b      	ldr	r3, [r7, #4]
 8000e34:	689b      	ldr	r3, [r3, #8]
 8000e36:	f003 0304 	and.w	r3, r3, #4
 8000e3a:	2b04      	cmp	r3, #4
 8000e3c:	d101      	bne.n	8000e42 <LL_ADC_REG_IsConversionOngoing+0x18>
 8000e3e:	2301      	movs	r3, #1
 8000e40:	e000      	b.n	8000e44 <LL_ADC_REG_IsConversionOngoing+0x1a>
 8000e42:	2300      	movs	r3, #0
}
 8000e44:	4618      	mov	r0, r3
 8000e46:	370c      	adds	r7, #12
 8000e48:	46bd      	mov	sp, r7
 8000e4a:	f85d 7b04 	ldr.w	r7, [sp], #4
 8000e4e:	4770      	bx	lr

08000e50 <LL_ADC_INJ_IsConversionOngoing>:
  * @rmtoll CR       JADSTART       LL_ADC_INJ_IsConversionOngoing
  * @param  ADCx ADC instance
  * @retval 0: no conversion is on going on ADC group injected.
  */
__STATIC_INLINE uint32_t LL_ADC_INJ_IsConversionOngoing(ADC_TypeDef *ADCx)
{
 8000e50:	b480      	push	{r7}
 8000e52:	b083      	sub	sp, #12
 8000e54:	af00      	add	r7, sp, #0
 8000e56:	6078      	str	r0, [r7, #4]
  return ((READ_BIT(ADCx->CR, ADC_CR_JADSTART) == (ADC_CR_JADSTART)) ? 1UL : 0UL);
 8000e58:	687b      	ldr	r3, [r7, #4]
 8000e5a:	689b      	ldr	r3, [r3, #8]
 8000e5c:	f003 0308 	and.w	r3, r3, #8
 8000e60:	2b08      	cmp	r3, #8
 8000e62:	d101      	bne.n	8000e68 <LL_ADC_INJ_IsConversionOngoing+0x18>
 8000e64:	2301      	movs	r3, #1
 8000e66:	e000      	b.n	8000e6a <LL_ADC_INJ_IsConversionOngoing+0x1a>
 8000e68:	2300      	movs	r3, #0
}
 8000e6a:	4618      	mov	r0, r3
 8000e6c:	370c      	adds	r7, #12
 8000e6e:	46bd      	mov	sp, r7
 8000e70:	f85d 7b04 	ldr.w	r7, [sp], #4
 8000e74:	4770      	bx	lr
	...

08000e78 <HAL_ADC_Init>:
  *         without  disabling the other ADCs.
  * @param hadc ADC handle
  * @retval HAL status
  */
HAL_StatusTypeDef HAL_ADC_Init(ADC_HandleTypeDef *hadc)
{
 8000e78:	b580      	push	{r7, lr}
 8000e7a:	b088      	sub	sp, #32
 8000e7c:	af00      	add	r7, sp, #0
 8000e7e:	6078      	str	r0, [r7, #4]
  HAL_StatusTypeDef tmp_hal_status = HAL_OK;
 8000e80:	2300      	movs	r3, #0
 8000e82:	77fb      	strb	r3, [r7, #31]
  uint32_t tmpCFGR;
  uint32_t tmp_adc_reg_is_conversion_on_going;
  __IO uint32_t wait_loop_index = 0UL;
 8000e84:	2300      	movs	r3, #0
 8000e86:	60bb      	str	r3, [r7, #8]
  uint32_t tmp_adc_is_conversion_on_going_regular;
  uint32_t tmp_adc_is_conversion_on_going_injected;

  /* Check ADC handle */
  if (hadc == NULL)
 8000e88:	687b      	ldr	r3, [r7, #4]
 8000e8a:	2b00      	cmp	r3, #0
 8000e8c:	d101      	bne.n	8000e92 <HAL_ADC_Init+0x1a>
  {
    return HAL_ERROR;
 8000e8e:	2301      	movs	r3, #1
 8000e90:	e12f      	b.n	80010f2 <HAL_ADC_Init+0x27a>
  assert_param(IS_ADC_EOC_SELECTION(hadc->Init.EOCSelection));
  assert_param(IS_ADC_OVERRUN(hadc->Init.Overrun));
  assert_param(IS_FUNCTIONAL_STATE(hadc->Init.LowPowerAutoWait));
  assert_param(IS_FUNCTIONAL_STATE(hadc->Init.OversamplingMode));

  if (hadc->Init.ScanConvMode != ADC_SCAN_DISABLE)
 8000e92:	687b      	ldr	r3, [r7, #4]
 8000e94:	691b      	ldr	r3, [r3, #16]
 8000e96:	2b00      	cmp	r3, #0
  /* DISCEN and CONT bits cannot be set at the same time */
  assert_param(!((hadc->Init.DiscontinuousConvMode == ENABLE) && (hadc->Init.ContinuousConvMode == ENABLE)));

  /* Actions performed only if ADC is coming from state reset:                */
  /* - Initialization of ADC MSP                                              */
  if (hadc->State == HAL_ADC_STATE_RESET)
 8000e98:	687b      	ldr	r3, [r7, #4]
 8000e9a:	6d9b      	ldr	r3, [r3, #88]	; 0x58
 8000e9c:	2b00      	cmp	r3, #0
 8000e9e:	d109      	bne.n	8000eb4 <HAL_ADC_Init+0x3c>

    /* Init the low level hardware */
    hadc->MspInitCallback(hadc);
#else
    /* Init the low level hardware */
    HAL_ADC_MspInit(hadc);
 8000ea0:	6878      	ldr	r0, [r7, #4]
 8000ea2:	f7ff f9fb 	bl	800029c <HAL_ADC_MspInit>
#endif /* USE_HAL_ADC_REGISTER_CALLBACKS */

    /* Set ADC error code to none */
    ADC_CLEAR_ERRORCODE(hadc);
 8000ea6:	687b      	ldr	r3, [r7, #4]
 8000ea8:	2200      	movs	r2, #0
 8000eaa:	65da      	str	r2, [r3, #92]	; 0x5c

    /* Initialize Lock */
    hadc->Lock = HAL_UNLOCKED;
 8000eac:	687b      	ldr	r3, [r7, #4]
 8000eae:	2200      	movs	r2, #0
 8000eb0:	f883 2054 	strb.w	r2, [r3, #84]	; 0x54
  }

  /* - Exit from deep-power-down mode and ADC voltage regulator enable        */
  if (LL_ADC_IsDeepPowerDownEnabled(hadc->Instance) != 0UL)
 8000eb4:	687b      	ldr	r3, [r7, #4]
 8000eb6:	681b      	ldr	r3, [r3, #0]
 8000eb8:	4618      	mov	r0, r3
 8000eba:	f7ff ff67 	bl	8000d8c <LL_ADC_IsDeepPowerDownEnabled>
 8000ebe:	4603      	mov	r3, r0
 8000ec0:	2b00      	cmp	r3, #0
 8000ec2:	d004      	beq.n	8000ece <HAL_ADC_Init+0x56>
  {
    /* Disable ADC deep power down mode */
    LL_ADC_DisableDeepPowerDown(hadc->Instance);
 8000ec4:	687b      	ldr	r3, [r7, #4]
 8000ec6:	681b      	ldr	r3, [r3, #0]
 8000ec8:	4618      	mov	r0, r3
 8000eca:	f7ff ff4d 	bl	8000d68 <LL_ADC_DisableDeepPowerDown>
    /* System was in deep power down mode, calibration must
     be relaunched or a previously saved calibration factor
     re-applied once the ADC voltage regulator is enabled */
  }

  if (LL_ADC_IsInternalRegulatorEnabled(hadc->Instance) == 0UL)
 8000ece:	687b      	ldr	r3, [r7, #4]
 8000ed0:	681b      	ldr	r3, [r3, #0]
 8000ed2:	4618      	mov	r0, r3
 8000ed4:	f7ff ff82 	bl	8000ddc <LL_ADC_IsInternalRegulatorEnabled>
 8000ed8:	4603      	mov	r3, r0
 8000eda:	2b00      	cmp	r3, #0
 8000edc:	d115      	bne.n	8000f0a <HAL_ADC_Init+0x92>
  {
    /* Enable ADC internal voltage regulator */
    LL_ADC_EnableInternalRegulator(hadc->Instance);
 8000ede:	687b      	ldr	r3, [r7, #4]
 8000ee0:	681b      	ldr	r3, [r3, #0]
 8000ee2:	4618      	mov	r0, r3
 8000ee4:	f7ff ff66 	bl	8000db4 <LL_ADC_EnableInternalRegulator>

    /* Note: Variable divided by 2 to compensate partially              */
    /*       CPU processing cycles, scaling in us split to not          */
    /*       exceed 32 bits register capacity and handle low frequency. */
    wait_loop_index = ((LL_ADC_DELAY_INTERNAL_REGUL_STAB_US / 10UL) * ((SystemCoreClock / (100000UL * 2UL)) + 1UL));
 8000ee8:	4b84      	ldr	r3, [pc, #528]	; (80010fc <HAL_ADC_Init+0x284>)
 8000eea:	681b      	ldr	r3, [r3, #0]
 8000eec:	099b      	lsrs	r3, r3, #6
 8000eee:	4a84      	ldr	r2, [pc, #528]	; (8001100 <HAL_ADC_Init+0x288>)
 8000ef0:	fba2 2303 	umull	r2, r3, r2, r3
 8000ef4:	099b      	lsrs	r3, r3, #6
 8000ef6:	3301      	adds	r3, #1
 8000ef8:	005b      	lsls	r3, r3, #1
 8000efa:	60bb      	str	r3, [r7, #8]
    while (wait_loop_index != 0UL)
 8000efc:	e002      	b.n	8000f04 <HAL_ADC_Init+0x8c>
    {
      wait_loop_index--;
 8000efe:	68bb      	ldr	r3, [r7, #8]
 8000f00:	3b01      	subs	r3, #1
 8000f02:	60bb      	str	r3, [r7, #8]
    while (wait_loop_index != 0UL)
 8000f04:	68bb      	ldr	r3, [r7, #8]
 8000f06:	2b00      	cmp	r3, #0
 8000f08:	d1f9      	bne.n	8000efe <HAL_ADC_Init+0x86>
  }

  /* Verification that ADC voltage regulator is correctly enabled, whether    */
  /* or not ADC is coming from state reset (if any potential problem of       */
  /* clocking, voltage regulator would not be enabled).                       */
  if (LL_ADC_IsInternalRegulatorEnabled(hadc->Instance) == 0UL)
 8000f0a:	687b      	ldr	r3, [r7, #4]
 8000f0c:	681b      	ldr	r3, [r3, #0]
 8000f0e:	4618      	mov	r0, r3
 8000f10:	f7ff ff64 	bl	8000ddc <LL_ADC_IsInternalRegulatorEnabled>
 8000f14:	4603      	mov	r3, r0
 8000f16:	2b00      	cmp	r3, #0
 8000f18:	d10d      	bne.n	8000f36 <HAL_ADC_Init+0xbe>
  {
    /* Update ADC state machine to error */
    SET_BIT(hadc->State, HAL_ADC_STATE_ERROR_INTERNAL);
 8000f1a:	687b      	ldr	r3, [r7, #4]
 8000f1c:	6d9b      	ldr	r3, [r3, #88]	; 0x58
 8000f1e:	f043 0210 	orr.w	r2, r3, #16
 8000f22:	687b      	ldr	r3, [r7, #4]
 8000f24:	659a      	str	r2, [r3, #88]	; 0x58

    /* Set ADC error code to ADC peripheral internal error */
    SET_BIT(hadc->ErrorCode, HAL_ADC_ERROR_INTERNAL);
 8000f26:	687b      	ldr	r3, [r7, #4]
 8000f28:	6ddb      	ldr	r3, [r3, #92]	; 0x5c
 8000f2a:	f043 0201 	orr.w	r2, r3, #1
 8000f2e:	687b      	ldr	r3, [r7, #4]
 8000f30:	65da      	str	r2, [r3, #92]	; 0x5c

    tmp_hal_status = HAL_ERROR;
 8000f32:	2301      	movs	r3, #1
 8000f34:	77fb      	strb	r3, [r7, #31]

  /* Configuration of ADC parameters if previous preliminary actions are      */
  /* correctly completed and if there is no conversion on going on regular    */
  /* group (ADC may already be enabled at this point if HAL_ADC_Init() is     */
  /* called to update a parameter on the fly).                                */
  tmp_adc_reg_is_conversion_on_going = LL_ADC_REG_IsConversionOngoing(hadc->Instance);
 8000f36:	687b      	ldr	r3, [r7, #4]
 8000f38:	681b      	ldr	r3, [r3, #0]
 8000f3a:	4618      	mov	r0, r3
 8000f3c:	f7ff ff75 	bl	8000e2a <LL_ADC_REG_IsConversionOngoing>
 8000f40:	6178      	str	r0, [r7, #20]

  if (((hadc->State & HAL_ADC_STATE_ERROR_INTERNAL) == 0UL)
 8000f42:	687b      	ldr	r3, [r7, #4]
 8000f44:	6d9b      	ldr	r3, [r3, #88]	; 0x58
 8000f46:	f003 0310 	and.w	r3, r3, #16
 8000f4a:	2b00      	cmp	r3, #0
 8000f4c:	f040 80c8 	bne.w	80010e0 <HAL_ADC_Init+0x268>
      && (tmp_adc_reg_is_conversion_on_going == 0UL)
 8000f50:	697b      	ldr	r3, [r7, #20]
 8000f52:	2b00      	cmp	r3, #0
 8000f54:	f040 80c4 	bne.w	80010e0 <HAL_ADC_Init+0x268>
     )
  {
    /* Set ADC state */
    ADC_STATE_CLR_SET(hadc->State,
 8000f58:	687b      	ldr	r3, [r7, #4]
 8000f5a:	6d9b      	ldr	r3, [r3, #88]	; 0x58
 8000f5c:	f423 7381 	bic.w	r3, r3, #258	; 0x102
 8000f60:	f043 0202 	orr.w	r2, r3, #2
 8000f64:	687b      	ldr	r3, [r7, #4]
 8000f66:	659a      	str	r2, [r3, #88]	; 0x58
    /* Configuration of common ADC parameters                                 */

    /* Parameters update conditioned to ADC state:                            */
    /* Parameters that can be updated only when ADC is disabled:              */
    /*  - clock configuration                                                 */
    if (LL_ADC_IsEnabled(hadc->Instance) == 0UL)
 8000f68:	687b      	ldr	r3, [r7, #4]
 8000f6a:	681b      	ldr	r3, [r3, #0]
 8000f6c:	4618      	mov	r0, r3
 8000f6e:	f7ff ff49 	bl	8000e04 <LL_ADC_IsEnabled>
 8000f72:	4603      	mov	r3, r0
 8000f74:	2b00      	cmp	r3, #0
 8000f76:	d10b      	bne.n	8000f90 <HAL_ADC_Init+0x118>
    {
      if (__LL_ADC_IS_ENABLED_ALL_COMMON_INSTANCE(__LL_ADC_COMMON_INSTANCE(hadc->Instance)) == 0UL)
 8000f78:	4862      	ldr	r0, [pc, #392]	; (8001104 <HAL_ADC_Init+0x28c>)
 8000f7a:	f7ff ff43 	bl	8000e04 <LL_ADC_IsEnabled>
 8000f7e:	4603      	mov	r3, r0
 8000f80:	2b00      	cmp	r3, #0
 8000f82:	d105      	bne.n	8000f90 <HAL_ADC_Init+0x118>
        /*     parameters: MDMA, DMACFG, DELAY, DUAL (set by API                */
        /*     HAL_ADCEx_MultiModeConfigChannel() )                             */
        /*   - internal measurement paths: Vbat, temperature sensor, Vref       */
        /*     (set into HAL_ADC_ConfigChannel() or                             */
        /*     HAL_ADCEx_InjectedConfigChannel() )                              */
        LL_ADC_SetCommonClock(__LL_ADC_COMMON_INSTANCE(hadc->Instance), hadc->Init.ClockPrescaler);
 8000f84:	687b      	ldr	r3, [r7, #4]
 8000f86:	685b      	ldr	r3, [r3, #4]
 8000f88:	4619      	mov	r1, r3
 8000f8a:	485f      	ldr	r0, [pc, #380]	; (8001108 <HAL_ADC_Init+0x290>)
 8000f8c:	f7ff fdd4 	bl	8000b38 <LL_ADC_SetCommonClock>
    /*  - external trigger polarity                Init.ExternalTrigConvEdge  */
    /*  - continuous conversion mode               Init.ContinuousConvMode    */
    /*  - overrun                                  Init.Overrun               */
    /*  - discontinuous mode                       Init.DiscontinuousConvMode */
    /*  - discontinuous mode channel count         Init.NbrOfDiscConversion   */
    tmpCFGR  = (ADC_CFGR_CONTINUOUS((uint32_t)hadc->Init.ContinuousConvMode)           |
 8000f90:	687b      	ldr	r3, [r7, #4]
 8000f92:	7e5b      	ldrb	r3, [r3, #25]
 8000f94:	035a      	lsls	r2, r3, #13
                hadc->Init.Overrun                                                     |
 8000f96:	687b      	ldr	r3, [r7, #4]
 8000f98:	6b5b      	ldr	r3, [r3, #52]	; 0x34
    tmpCFGR  = (ADC_CFGR_CONTINUOUS((uint32_t)hadc->Init.ContinuousConvMode)           |
 8000f9a:	431a      	orrs	r2, r3
                hadc->Init.DataAlign                                                   |
 8000f9c:	687b      	ldr	r3, [r7, #4]
 8000f9e:	68db      	ldr	r3, [r3, #12]
                hadc->Init.Overrun                                                     |
 8000fa0:	431a      	orrs	r2, r3
                hadc->Init.Resolution                                                  |
 8000fa2:	687b      	ldr	r3, [r7, #4]
 8000fa4:	689b      	ldr	r3, [r3, #8]
                hadc->Init.DataAlign                                                   |
 8000fa6:	431a      	orrs	r2, r3
                ADC_CFGR_REG_DISCONTINUOUS((uint32_t)hadc->Init.DiscontinuousConvMode));
 8000fa8:	687b      	ldr	r3, [r7, #4]
 8000faa:	f893 3020 	ldrb.w	r3, [r3, #32]
 8000fae:	041b      	lsls	r3, r3, #16
    tmpCFGR  = (ADC_CFGR_CONTINUOUS((uint32_t)hadc->Init.ContinuousConvMode)           |
 8000fb0:	4313      	orrs	r3, r2
 8000fb2:	61bb      	str	r3, [r7, #24]

    if (hadc->Init.DiscontinuousConvMode == ENABLE)
 8000fb4:	687b      	ldr	r3, [r7, #4]
 8000fb6:	f893 3020 	ldrb.w	r3, [r3, #32]
 8000fba:	2b01      	cmp	r3, #1
 8000fbc:	d106      	bne.n	8000fcc <HAL_ADC_Init+0x154>
    {
      tmpCFGR |= ADC_CFGR_DISCONTINUOUS_NUM(hadc->Init.NbrOfDiscConversion);
 8000fbe:	687b      	ldr	r3, [r7, #4]
 8000fc0:	6a5b      	ldr	r3, [r3, #36]	; 0x24
 8000fc2:	3b01      	subs	r3, #1
 8000fc4:	045b      	lsls	r3, r3, #17
 8000fc6:	69ba      	ldr	r2, [r7, #24]
 8000fc8:	4313      	orrs	r3, r2
 8000fca:	61bb      	str	r3, [r7, #24]
    /* Enable external trigger if trigger selection is different of software  */
    /* start.                                                                 */
    /* Note: This configuration keeps the hardware feature of parameter       */
    /*       ExternalTrigConvEdge "trigger edge none" equivalent to           */
    /*       software start.                                                  */
    if (hadc->Init.ExternalTrigConv != ADC_SOFTWARE_START)
 8000fcc:	687b      	ldr	r3, [r7, #4]
 8000fce:	6a9b      	ldr	r3, [r3, #40]	; 0x28
 8000fd0:	2b00      	cmp	r3, #0
 8000fd2:	d009      	beq.n	8000fe8 <HAL_ADC_Init+0x170>
    {
      tmpCFGR |= ((hadc->Init.ExternalTrigConv & ADC_CFGR_EXTSEL)
 8000fd4:	687b      	ldr	r3, [r7, #4]
 8000fd6:	6a9b      	ldr	r3, [r3, #40]	; 0x28
 8000fd8:	f403 7270 	and.w	r2, r3, #960	; 0x3c0
                  | hadc->Init.ExternalTrigConvEdge
 8000fdc:	687b      	ldr	r3, [r7, #4]
 8000fde:	6adb      	ldr	r3, [r3, #44]	; 0x2c
 8000fe0:	4313      	orrs	r3, r2
      tmpCFGR |= ((hadc->Init.ExternalTrigConv & ADC_CFGR_EXTSEL)
 8000fe2:	69ba      	ldr	r2, [r7, #24]
 8000fe4:	4313      	orrs	r3, r2
 8000fe6:	61bb      	str	r3, [r7, #24]
                 );
    }

    /* Update Configuration Register CFGR */
    MODIFY_REG(hadc->Instance->CFGR, ADC_CFGR_FIELDS_1, tmpCFGR);
 8000fe8:	687b      	ldr	r3, [r7, #4]
 8000fea:	681b      	ldr	r3, [r3, #0]
 8000fec:	68da      	ldr	r2, [r3, #12]
 8000fee:	4b47      	ldr	r3, [pc, #284]	; (800110c <HAL_ADC_Init+0x294>)
 8000ff0:	4013      	ands	r3, r2
 8000ff2:	687a      	ldr	r2, [r7, #4]
 8000ff4:	6812      	ldr	r2, [r2, #0]
 8000ff6:	69b9      	ldr	r1, [r7, #24]
 8000ff8:	430b      	orrs	r3, r1
 8000ffa:	60d3      	str	r3, [r2, #12]
    /* Parameters that can be updated when ADC is disabled or enabled without */
    /* conversion on going on regular and injected groups:                    */
    /*  - DMA continuous request          Init.DMAContinuousRequests          */
    /*  - LowPowerAutoWait feature        Init.LowPowerAutoWait               */
    /*  - Oversampling parameters         Init.Oversampling                   */
    tmp_adc_is_conversion_on_going_regular = LL_ADC_REG_IsConversionOngoing(hadc->Instance);
 8000ffc:	687b      	ldr	r3, [r7, #4]
 8000ffe:	681b      	ldr	r3, [r3, #0]
 8001000:	4618      	mov	r0, r3
 8001002:	f7ff ff12 	bl	8000e2a <LL_ADC_REG_IsConversionOngoing>
 8001006:	6138      	str	r0, [r7, #16]
    tmp_adc_is_conversion_on_going_injected = LL_ADC_INJ_IsConversionOngoing(hadc->Instance);
 8001008:	687b      	ldr	r3, [r7, #4]
 800100a:	681b      	ldr	r3, [r3, #0]
 800100c:	4618      	mov	r0, r3
 800100e:	f7ff ff1f 	bl	8000e50 <LL_ADC_INJ_IsConversionOngoing>
 8001012:	60f8      	str	r0, [r7, #12]
    if ((tmp_adc_is_conversion_on_going_regular == 0UL)
 8001014:	693b      	ldr	r3, [r7, #16]
 8001016:	2b00      	cmp	r3, #0
 8001018:	d140      	bne.n	800109c <HAL_ADC_Init+0x224>
        && (tmp_adc_is_conversion_on_going_injected == 0UL)
 800101a:	68fb      	ldr	r3, [r7, #12]
 800101c:	2b00      	cmp	r3, #0
 800101e:	d13d      	bne.n	800109c <HAL_ADC_Init+0x224>
       )
    {
      tmpCFGR = (ADC_CFGR_DFSDM(hadc)                                            |
 8001020:	687b      	ldr	r3, [r7, #4]
 8001022:	6cda      	ldr	r2, [r3, #76]	; 0x4c
                 ADC_CFGR_AUTOWAIT((uint32_t)hadc->Init.LowPowerAutoWait)        |
 8001024:	687b      	ldr	r3, [r7, #4]
 8001026:	7e1b      	ldrb	r3, [r3, #24]
 8001028:	039b      	lsls	r3, r3, #14
      tmpCFGR = (ADC_CFGR_DFSDM(hadc)                                            |
 800102a:	431a      	orrs	r2, r3
                 ADC_CFGR_DMACONTREQ((uint32_t)hadc->Init.DMAContinuousRequests));
 800102c:	687b      	ldr	r3, [r7, #4]
 800102e:	f893 3030 	ldrb.w	r3, [r3, #48]	; 0x30
 8001032:	005b      	lsls	r3, r3, #1
      tmpCFGR = (ADC_CFGR_DFSDM(hadc)                                            |
 8001034:	4313      	orrs	r3, r2
 8001036:	61bb      	str	r3, [r7, #24]

      MODIFY_REG(hadc->Instance->CFGR, ADC_CFGR_FIELDS_2, tmpCFGR);
 8001038:	687b      	ldr	r3, [r7, #4]
 800103a:	681b      	ldr	r3, [r3, #0]
 800103c:	68db      	ldr	r3, [r3, #12]
 800103e:	f423 4380 	bic.w	r3, r3, #16384	; 0x4000
 8001042:	f023 0306 	bic.w	r3, r3, #6
 8001046:	687a      	ldr	r2, [r7, #4]
 8001048:	6812      	ldr	r2, [r2, #0]
 800104a:	69b9      	ldr	r1, [r7, #24]
 800104c:	430b      	orrs	r3, r1
 800104e:	60d3      	str	r3, [r2, #12]

      if (hadc->Init.OversamplingMode == ENABLE)
 8001050:	687b      	ldr	r3, [r7, #4]
 8001052:	f893 3038 	ldrb.w	r3, [r3, #56]	; 0x38
 8001056:	2b01      	cmp	r3, #1
 8001058:	d118      	bne.n	800108c <HAL_ADC_Init+0x214>
        /* Configuration of Oversampler:                                      */
        /*  - Oversampling Ratio                                              */
        /*  - Right bit shift                                                 */
        /*  - Triggered mode                                                  */
        /*  - Oversampling mode (continued/resumed)                           */
        MODIFY_REG(hadc->Instance->CFGR2,
 800105a:	687b      	ldr	r3, [r7, #4]
 800105c:	681b      	ldr	r3, [r3, #0]
 800105e:	691b      	ldr	r3, [r3, #16]
 8001060:	f423 63ff 	bic.w	r3, r3, #2040	; 0x7f8
 8001064:	f023 0304 	bic.w	r3, r3, #4
 8001068:	687a      	ldr	r2, [r7, #4]
 800106a:	6bd1      	ldr	r1, [r2, #60]	; 0x3c
 800106c:	687a      	ldr	r2, [r7, #4]
 800106e:	6c12      	ldr	r2, [r2, #64]	; 0x40
 8001070:	4311      	orrs	r1, r2
 8001072:	687a      	ldr	r2, [r7, #4]
 8001074:	6c52      	ldr	r2, [r2, #68]	; 0x44
 8001076:	4311      	orrs	r1, r2
 8001078:	687a      	ldr	r2, [r7, #4]
 800107a:	6c92      	ldr	r2, [r2, #72]	; 0x48
 800107c:	430a      	orrs	r2, r1
 800107e:	431a      	orrs	r2, r3
 8001080:	687b      	ldr	r3, [r7, #4]
 8001082:	681b      	ldr	r3, [r3, #0]
 8001084:	f042 0201 	orr.w	r2, r2, #1
 8001088:	611a      	str	r2, [r3, #16]
 800108a:	e007      	b.n	800109c <HAL_ADC_Init+0x224>
                  );
      }
      else
      {
        /* Disable ADC oversampling scope on ADC group regular */
        CLEAR_BIT(hadc->Instance->CFGR2, ADC_CFGR2_ROVSE);
 800108c:	687b      	ldr	r3, [r7, #4]
 800108e:	681b      	ldr	r3, [r3, #0]
 8001090:	691a      	ldr	r2, [r3, #16]
 8001092:	687b      	ldr	r3, [r7, #4]
 8001094:	681b      	ldr	r3, [r3, #0]
 8001096:	f022 0201 	bic.w	r2, r2, #1
 800109a:	611a      	str	r2, [r3, #16]
    /*   Note: Scan mode is not present by hardware on this device, but       */
    /*   emulated by software for alignment over all STM32 devices.           */
    /* - if scan mode is enabled, regular channels sequence length is set to  */
    /*   parameter "NbrOfConversion".                                         */

    if (hadc->Init.ScanConvMode == ADC_SCAN_ENABLE)
 800109c:	687b      	ldr	r3, [r7, #4]
 800109e:	691b      	ldr	r3, [r3, #16]
 80010a0:	2b01      	cmp	r3, #1
 80010a2:	d10c      	bne.n	80010be <HAL_ADC_Init+0x246>
    {
      /* Set number of ranks in regular group sequencer */
      MODIFY_REG(hadc->Instance->SQR1, ADC_SQR1_L, (hadc->Init.NbrOfConversion - (uint8_t)1));
 80010a4:	687b      	ldr	r3, [r7, #4]
 80010a6:	681b      	ldr	r3, [r3, #0]
 80010a8:	6b1b      	ldr	r3, [r3, #48]	; 0x30
 80010aa:	f023 010f 	bic.w	r1, r3, #15
 80010ae:	687b      	ldr	r3, [r7, #4]
 80010b0:	69db      	ldr	r3, [r3, #28]
 80010b2:	1e5a      	subs	r2, r3, #1
 80010b4:	687b      	ldr	r3, [r7, #4]
 80010b6:	681b      	ldr	r3, [r3, #0]
 80010b8:	430a      	orrs	r2, r1
 80010ba:	631a      	str	r2, [r3, #48]	; 0x30
 80010bc:	e007      	b.n	80010ce <HAL_ADC_Init+0x256>
    }
    else
    {
      CLEAR_BIT(hadc->Instance->SQR1, ADC_SQR1_L);
 80010be:	687b      	ldr	r3, [r7, #4]
 80010c0:	681b      	ldr	r3, [r3, #0]
 80010c2:	6b1a      	ldr	r2, [r3, #48]	; 0x30
 80010c4:	687b      	ldr	r3, [r7, #4]
 80010c6:	681b      	ldr	r3, [r3, #0]
 80010c8:	f022 020f 	bic.w	r2, r2, #15
 80010cc:	631a      	str	r2, [r3, #48]	; 0x30
    }

    /* Initialize the ADC state */
    /* Clear HAL_ADC_STATE_BUSY_INTERNAL bit, set HAL_ADC_STATE_READY bit */
    ADC_STATE_CLR_SET(hadc->State, HAL_ADC_STATE_BUSY_INTERNAL, HAL_ADC_STATE_READY);
 80010ce:	687b      	ldr	r3, [r7, #4]
 80010d0:	6d9b      	ldr	r3, [r3, #88]	; 0x58
 80010d2:	f023 0303 	bic.w	r3, r3, #3
 80010d6:	f043 0201 	orr.w	r2, r3, #1
 80010da:	687b      	ldr	r3, [r7, #4]
 80010dc:	659a      	str	r2, [r3, #88]	; 0x58
 80010de:	e007      	b.n	80010f0 <HAL_ADC_Init+0x278>
  }
  else
  {
    /* Update ADC state machine to error */
    SET_BIT(hadc->State, HAL_ADC_STATE_ERROR_INTERNAL);
 80010e0:	687b      	ldr	r3, [r7, #4]
 80010e2:	6d9b      	ldr	r3, [r3, #88]	; 0x58
 80010e4:	f043 0210 	orr.w	r2, r3, #16
 80010e8:	687b      	ldr	r3, [r7, #4]
 80010ea:	659a      	str	r2, [r3, #88]	; 0x58

    tmp_hal_status = HAL_ERROR;
 80010ec:	2301      	movs	r3, #1
 80010ee:	77fb      	strb	r3, [r7, #31]
  }

  /* Return function status */
  return tmp_hal_status;
 80010f0:	7ffb      	ldrb	r3, [r7, #31]
}
 80010f2:	4618      	mov	r0, r3
 80010f4:	3720      	adds	r7, #32
 80010f6:	46bd      	mov	sp, r7
 80010f8:	bd80      	pop	{r7, pc}
 80010fa:	bf00      	nop
 80010fc:	20000000 	.word	0x20000000
 8001100:	053e2d63 	.word	0x053e2d63
 8001104:	50040000 	.word	0x50040000
 8001108:	50040300 	.word	0x50040300
 800110c:	fff0c007 	.word	0xfff0c007

08001110 <HAL_ADC_ConfigChannel>:
  * @param hadc ADC handle
  * @param sConfig Structure of ADC channel assigned to ADC group regular.
  * @retval HAL status
  */
HAL_StatusTypeDef HAL_ADC_ConfigChannel(ADC_HandleTypeDef *hadc, ADC_ChannelConfTypeDef *sConfig)
{
 8001110:	b580      	push	{r7, lr}
 8001112:	b0b6      	sub	sp, #216	; 0xd8
 8001114:	af00      	add	r7, sp, #0
 8001116:	6078      	str	r0, [r7, #4]
 8001118:	6039      	str	r1, [r7, #0]
  HAL_StatusTypeDef tmp_hal_status = HAL_OK;
 800111a:	2300      	movs	r3, #0
 800111c:	f887 30d7 	strb.w	r3, [r7, #215]	; 0xd7
  uint32_t tmpOffsetShifted;
  uint32_t tmp_config_internal_channel;
  __IO uint32_t wait_loop_index = 0UL;
 8001120:	2300      	movs	r3, #0
 8001122:	60fb      	str	r3, [r7, #12]
  {
    assert_param(IS_ADC_DIFF_CHANNEL(hadc, sConfig->Channel));
  }

  /* Process locked */
  __HAL_LOCK(hadc);
 8001124:	687b      	ldr	r3, [r7, #4]
 8001126:	f893 3054 	ldrb.w	r3, [r3, #84]	; 0x54
 800112a:	2b01      	cmp	r3, #1
 800112c:	d101      	bne.n	8001132 <HAL_ADC_ConfigChannel+0x22>
 800112e:	2302      	movs	r3, #2
 8001130:	e3d5      	b.n	80018de <HAL_ADC_ConfigChannel+0x7ce>
 8001132:	687b      	ldr	r3, [r7, #4]
 8001134:	2201      	movs	r2, #1
 8001136:	f883 2054 	strb.w	r2, [r3, #84]	; 0x54
  /* Parameters update conditioned to ADC state:                              */
  /* Parameters that can be updated when ADC is disabled or enabled without   */
  /* conversion on going on regular group:                                    */
  /*  - Channel number                                                        */
  /*  - Channel rank                                                          */
  if (LL_ADC_REG_IsConversionOngoing(hadc->Instance) == 0UL)
 800113a:	687b      	ldr	r3, [r7, #4]
 800113c:	681b      	ldr	r3, [r3, #0]
 800113e:	4618      	mov	r0, r3
 8001140:	f7ff fe73 	bl	8000e2a <LL_ADC_REG_IsConversionOngoing>
 8001144:	4603      	mov	r3, r0
 8001146:	2b00      	cmp	r3, #0
 8001148:	f040 83ba 	bne.w	80018c0 <HAL_ADC_ConfigChannel+0x7b0>
    /* Correspondence for compatibility with legacy definition of             */
    /* sequencer ranks in direct number format. This correspondence can       */
    /* be done only on ranks 1 to 5 due to literal values.                    */
    /* Note: Sequencer ranks in direct number format are no more used         */
    /*       and are detected by activating USE_FULL_ASSERT feature.          */
    if (sConfig->Rank <= 5U)
 800114c:	683b      	ldr	r3, [r7, #0]
 800114e:	685b      	ldr	r3, [r3, #4]
 8001150:	2b05      	cmp	r3, #5
 8001152:	d824      	bhi.n	800119e <HAL_ADC_ConfigChannel+0x8e>
    {
      switch (sConfig->Rank)
 8001154:	683b      	ldr	r3, [r7, #0]
 8001156:	685b      	ldr	r3, [r3, #4]
 8001158:	3b02      	subs	r3, #2
 800115a:	2b03      	cmp	r3, #3
 800115c:	d81b      	bhi.n	8001196 <HAL_ADC_ConfigChannel+0x86>
 800115e:	a201      	add	r2, pc, #4	; (adr r2, 8001164 <HAL_ADC_ConfigChannel+0x54>)
 8001160:	f852 f023 	ldr.w	pc, [r2, r3, lsl #2]
 8001164:	08001175 	.word	0x08001175
 8001168:	0800117d 	.word	0x0800117d
 800116c:	08001185 	.word	0x08001185
 8001170:	0800118d 	.word	0x0800118d
      {
        case 2U:
          sConfig->Rank = ADC_REGULAR_RANK_2;
 8001174:	683b      	ldr	r3, [r7, #0]
 8001176:	220c      	movs	r2, #12
 8001178:	605a      	str	r2, [r3, #4]
          break;
 800117a:	e011      	b.n	80011a0 <HAL_ADC_ConfigChannel+0x90>
        case 3U:
          sConfig->Rank = ADC_REGULAR_RANK_3;
 800117c:	683b      	ldr	r3, [r7, #0]
 800117e:	2212      	movs	r2, #18
 8001180:	605a      	str	r2, [r3, #4]
          break;
 8001182:	e00d      	b.n	80011a0 <HAL_ADC_ConfigChannel+0x90>
        case 4U:
          sConfig->Rank = ADC_REGULAR_RANK_4;
 8001184:	683b      	ldr	r3, [r7, #0]
 8001186:	2218      	movs	r2, #24
 8001188:	605a      	str	r2, [r3, #4]
          break;
 800118a:	e009      	b.n	80011a0 <HAL_ADC_ConfigChannel+0x90>
        case 5U:
          sConfig->Rank = ADC_REGULAR_RANK_5;
 800118c:	683b      	ldr	r3, [r7, #0]
 800118e:	f44f 7280 	mov.w	r2, #256	; 0x100
 8001192:	605a      	str	r2, [r3, #4]
          break;
 8001194:	e004      	b.n	80011a0 <HAL_ADC_ConfigChannel+0x90>
        /* case 1U */
        default:
          sConfig->Rank = ADC_REGULAR_RANK_1;
 8001196:	683b      	ldr	r3, [r7, #0]
 8001198:	2206      	movs	r2, #6
 800119a:	605a      	str	r2, [r3, #4]
          break;
 800119c:	e000      	b.n	80011a0 <HAL_ADC_ConfigChannel+0x90>
      }
    }
 800119e:	bf00      	nop
#endif

    /* Set ADC group regular sequence: channel on the selected scan sequence rank */
    LL_ADC_REG_SetSequencerRanks(hadc->Instance, sConfig->Rank, sConfig->Channel);
 80011a0:	687b      	ldr	r3, [r7, #4]
 80011a2:	6818      	ldr	r0, [r3, #0]
 80011a4:	683b      	ldr	r3, [r7, #0]
 80011a6:	6859      	ldr	r1, [r3, #4]
 80011a8:	683b      	ldr	r3, [r7, #0]
 80011aa:	681b      	ldr	r3, [r3, #0]
 80011ac:	461a      	mov	r2, r3
 80011ae:	f7ff fd5f 	bl	8000c70 <LL_ADC_REG_SetSequencerRanks>
    /* Parameters update conditioned to ADC state:                              */
    /* Parameters that can be updated when ADC is disabled or enabled without   */
    /* conversion on going on regular group:                                    */
    /*  - Channel sampling time                                                 */
    /*  - Channel offset                                                        */
    tmp_adc_is_conversion_on_going_regular = LL_ADC_REG_IsConversionOngoing(hadc->Instance);
 80011b2:	687b      	ldr	r3, [r7, #4]
 80011b4:	681b      	ldr	r3, [r3, #0]
 80011b6:	4618      	mov	r0, r3
 80011b8:	f7ff fe37 	bl	8000e2a <LL_ADC_REG_IsConversionOngoing>
 80011bc:	f8c7 00d0 	str.w	r0, [r7, #208]	; 0xd0
    tmp_adc_is_conversion_on_going_injected = LL_ADC_INJ_IsConversionOngoing(hadc->Instance);
 80011c0:	687b      	ldr	r3, [r7, #4]
 80011c2:	681b      	ldr	r3, [r3, #0]
 80011c4:	4618      	mov	r0, r3
 80011c6:	f7ff fe43 	bl	8000e50 <LL_ADC_INJ_IsConversionOngoing>
 80011ca:	f8c7 00cc 	str.w	r0, [r7, #204]	; 0xcc
    if ((tmp_adc_is_conversion_on_going_regular == 0UL)
 80011ce:	f8d7 30d0 	ldr.w	r3, [r7, #208]	; 0xd0
 80011d2:	2b00      	cmp	r3, #0
 80011d4:	f040 81c1 	bne.w	800155a <HAL_ADC_ConfigChannel+0x44a>
        && (tmp_adc_is_conversion_on_going_injected == 0UL)
 80011d8:	f8d7 30cc 	ldr.w	r3, [r7, #204]	; 0xcc
 80011dc:	2b00      	cmp	r3, #0
 80011de:	f040 81bc 	bne.w	800155a <HAL_ADC_ConfigChannel+0x44a>
       )
    {
#if defined(ADC_SMPR1_SMPPLUS)
      /* Manage specific case of sampling time 3.5 cycles replacing 2.5 cyles */
      if (sConfig->SamplingTime == ADC_SAMPLETIME_3CYCLES_5)
 80011e2:	683b      	ldr	r3, [r7, #0]
 80011e4:	689b      	ldr	r3, [r3, #8]
 80011e6:	f1b3 4f00 	cmp.w	r3, #2147483648	; 0x80000000
 80011ea:	d10f      	bne.n	800120c <HAL_ADC_ConfigChannel+0xfc>
      {
        /* Set sampling time of the selected ADC channel */
        LL_ADC_SetChannelSamplingTime(hadc->Instance, sConfig->Channel, LL_ADC_SAMPLINGTIME_2CYCLES_5);
 80011ec:	687b      	ldr	r3, [r7, #4]
 80011ee:	6818      	ldr	r0, [r3, #0]
 80011f0:	683b      	ldr	r3, [r7, #0]
 80011f2:	681b      	ldr	r3, [r3, #0]
 80011f4:	2200      	movs	r2, #0
 80011f6:	4619      	mov	r1, r3
 80011f8:	f7ff fd66 	bl	8000cc8 <LL_ADC_SetChannelSamplingTime>

        /* Set ADC sampling time common configuration */
        LL_ADC_SetSamplingTimeCommonConfig(hadc->Instance, LL_ADC_SAMPLINGTIME_COMMON_3C5_REPL_2C5);
 80011fc:	687b      	ldr	r3, [r7, #4]
 80011fe:	681b      	ldr	r3, [r3, #0]
 8001200:	f04f 4100 	mov.w	r1, #2147483648	; 0x80000000
 8001204:	4618      	mov	r0, r3
 8001206:	f7ff fd20 	bl	8000c4a <LL_ADC_SetSamplingTimeCommonConfig>
 800120a:	e00e      	b.n	800122a <HAL_ADC_ConfigChannel+0x11a>
      }
      else
      {
        /* Set sampling time of the selected ADC channel */
        LL_ADC_SetChannelSamplingTime(hadc->Instance, sConfig->Channel, sConfig->SamplingTime);
 800120c:	687b      	ldr	r3, [r7, #4]
 800120e:	6818      	ldr	r0, [r3, #0]
 8001210:	683b      	ldr	r3, [r7, #0]
 8001212:	6819      	ldr	r1, [r3, #0]
 8001214:	683b      	ldr	r3, [r7, #0]
 8001216:	689b      	ldr	r3, [r3, #8]
 8001218:	461a      	mov	r2, r3
 800121a:	f7ff fd55 	bl	8000cc8 <LL_ADC_SetChannelSamplingTime>

        /* Set ADC sampling time common configuration */
        LL_ADC_SetSamplingTimeCommonConfig(hadc->Instance, LL_ADC_SAMPLINGTIME_COMMON_DEFAULT);
 800121e:	687b      	ldr	r3, [r7, #4]
 8001220:	681b      	ldr	r3, [r3, #0]
 8001222:	2100      	movs	r1, #0
 8001224:	4618      	mov	r0, r3
 8001226:	f7ff fd10 	bl	8000c4a <LL_ADC_SetSamplingTimeCommonConfig>

      /* Configure the offset: offset enable/disable, channel, offset value */

      /* Shift the offset with respect to the selected ADC resolution. */
      /* Offset has to be left-aligned on bit 11, the LSB (right bits) are set to 0 */
      tmpOffsetShifted = ADC_OFFSET_SHIFT_RESOLUTION(hadc, (uint32_t)sConfig->Offset);
 800122a:	683b      	ldr	r3, [r7, #0]
 800122c:	695a      	ldr	r2, [r3, #20]
 800122e:	687b      	ldr	r3, [r7, #4]
 8001230:	681b      	ldr	r3, [r3, #0]
 8001232:	68db      	ldr	r3, [r3, #12]
 8001234:	08db      	lsrs	r3, r3, #3
 8001236:	f003 0303 	and.w	r3, r3, #3
 800123a:	005b      	lsls	r3, r3, #1
 800123c:	fa02 f303 	lsl.w	r3, r2, r3
 8001240:	f8c7 30c8 	str.w	r3, [r7, #200]	; 0xc8

      if (sConfig->OffsetNumber != ADC_OFFSET_NONE)
 8001244:	683b      	ldr	r3, [r7, #0]
 8001246:	691b      	ldr	r3, [r3, #16]
 8001248:	2b04      	cmp	r3, #4
 800124a:	d00a      	beq.n	8001262 <HAL_ADC_ConfigChannel+0x152>
      {
        /* Set ADC selected offset number */
        LL_ADC_SetOffset(hadc->Instance, sConfig->OffsetNumber, sConfig->Channel, tmpOffsetShifted);
 800124c:	687b      	ldr	r3, [r7, #4]
 800124e:	6818      	ldr	r0, [r3, #0]
 8001250:	683b      	ldr	r3, [r7, #0]
 8001252:	6919      	ldr	r1, [r3, #16]
 8001254:	683b      	ldr	r3, [r7, #0]
 8001256:	681a      	ldr	r2, [r3, #0]
 8001258:	f8d7 30c8 	ldr.w	r3, [r7, #200]	; 0xc8
 800125c:	f7ff fca0 	bl	8000ba0 <LL_ADC_SetOffset>
 8001260:	e17b      	b.n	800155a <HAL_ADC_ConfigChannel+0x44a>
      }
      else
      {
        /* Scan each offset register to check if the selected channel is targeted. */
        /* If this is the case, the corresponding offset number is disabled.       */
        if (__LL_ADC_CHANNEL_TO_DECIMAL_NB(LL_ADC_GetOffsetChannel(hadc->Instance, LL_ADC_OFFSET_1))
 8001262:	687b      	ldr	r3, [r7, #4]
 8001264:	681b      	ldr	r3, [r3, #0]
 8001266:	2100      	movs	r1, #0
 8001268:	4618      	mov	r0, r3
 800126a:	f7ff fcbd 	bl	8000be8 <LL_ADC_GetOffsetChannel>
 800126e:	4603      	mov	r3, r0
 8001270:	f3c3 0312 	ubfx	r3, r3, #0, #19
 8001274:	2b00      	cmp	r3, #0
 8001276:	d10a      	bne.n	800128e <HAL_ADC_ConfigChannel+0x17e>
 8001278:	687b      	ldr	r3, [r7, #4]
 800127a:	681b      	ldr	r3, [r3, #0]
 800127c:	2100      	movs	r1, #0
 800127e:	4618      	mov	r0, r3
 8001280:	f7ff fcb2 	bl	8000be8 <LL_ADC_GetOffsetChannel>
 8001284:	4603      	mov	r3, r0
 8001286:	0e9b      	lsrs	r3, r3, #26
 8001288:	f003 021f 	and.w	r2, r3, #31
 800128c:	e01e      	b.n	80012cc <HAL_ADC_ConfigChannel+0x1bc>
 800128e:	687b      	ldr	r3, [r7, #4]
 8001290:	681b      	ldr	r3, [r3, #0]
 8001292:	2100      	movs	r1, #0
 8001294:	4618      	mov	r0, r3
 8001296:	f7ff fca7 	bl	8000be8 <LL_ADC_GetOffsetChannel>
 800129a:	4603      	mov	r3, r0
 800129c:	f8c7 30bc 	str.w	r3, [r7, #188]	; 0xbc
  uint32_t result;

#if ((defined (__ARM_ARCH_7M__      ) && (__ARM_ARCH_7M__      == 1)) || \
     (defined (__ARM_ARCH_7EM__     ) && (__ARM_ARCH_7EM__     == 1)) || \
     (defined (__ARM_ARCH_8M_MAIN__ ) && (__ARM_ARCH_8M_MAIN__ == 1))    )
   __ASM volatile ("rbit %0, %1" : "=r" (result) : "r" (value) );
 80012a0:	f8d7 30bc 	ldr.w	r3, [r7, #188]	; 0xbc
 80012a4:	fa93 f3a3 	rbit	r3, r3
 80012a8:	f8c7 30b8 	str.w	r3, [r7, #184]	; 0xb8
    result |= value & 1U;
    s--;
  }
  result <<= s;                        /* shift when v's highest bits are zero */
#endif
  return result;
 80012ac:	f8d7 30b8 	ldr.w	r3, [r7, #184]	; 0xb8
 80012b0:	f8c7 30c0 	str.w	r3, [r7, #192]	; 0xc0
     optimisations using the logic "value was passed to __builtin_clz, so it
     is non-zero".
     ARM GCC 7.3 and possibly earlier will optimise this test away, leaving a
     single CLZ instruction.
   */
  if (value == 0U)
 80012b4:	f8d7 30c0 	ldr.w	r3, [r7, #192]	; 0xc0
 80012b8:	2b00      	cmp	r3, #0
 80012ba:	d101      	bne.n	80012c0 <HAL_ADC_ConfigChannel+0x1b0>
  {
    return 32U;
 80012bc:	2320      	movs	r3, #32
 80012be:	e004      	b.n	80012ca <HAL_ADC_ConfigChannel+0x1ba>
  }
  return __builtin_clz(value);
 80012c0:	f8d7 30c0 	ldr.w	r3, [r7, #192]	; 0xc0
 80012c4:	fab3 f383 	clz	r3, r3
 80012c8:	b2db      	uxtb	r3, r3
 80012ca:	461a      	mov	r2, r3
            == __LL_ADC_CHANNEL_TO_DECIMAL_NB(sConfig->Channel))
 80012cc:	683b      	ldr	r3, [r7, #0]
 80012ce:	681b      	ldr	r3, [r3, #0]
 80012d0:	f3c3 0312 	ubfx	r3, r3, #0, #19
 80012d4:	2b00      	cmp	r3, #0
 80012d6:	d105      	bne.n	80012e4 <HAL_ADC_ConfigChannel+0x1d4>
 80012d8:	683b      	ldr	r3, [r7, #0]
 80012da:	681b      	ldr	r3, [r3, #0]
 80012dc:	0e9b      	lsrs	r3, r3, #26
 80012de:	f003 031f 	and.w	r3, r3, #31
 80012e2:	e018      	b.n	8001316 <HAL_ADC_ConfigChannel+0x206>
 80012e4:	683b      	ldr	r3, [r7, #0]
 80012e6:	681b      	ldr	r3, [r3, #0]
 80012e8:	f8c7 30b0 	str.w	r3, [r7, #176]	; 0xb0
   __ASM volatile ("rbit %0, %1" : "=r" (result) : "r" (value) );
 80012ec:	f8d7 30b0 	ldr.w	r3, [r7, #176]	; 0xb0
 80012f0:	fa93 f3a3 	rbit	r3, r3
 80012f4:	f8c7 30ac 	str.w	r3, [r7, #172]	; 0xac
  return result;
 80012f8:	f8d7 30ac 	ldr.w	r3, [r7, #172]	; 0xac
 80012fc:	f8c7 30b4 	str.w	r3, [r7, #180]	; 0xb4
  if (value == 0U)
 8001300:	f8d7 30b4 	ldr.w	r3, [r7, #180]	; 0xb4
 8001304:	2b00      	cmp	r3, #0
 8001306:	d101      	bne.n	800130c <HAL_ADC_ConfigChannel+0x1fc>
    return 32U;
 8001308:	2320      	movs	r3, #32
 800130a:	e004      	b.n	8001316 <HAL_ADC_ConfigChannel+0x206>
  return __builtin_clz(value);
 800130c:	f8d7 30b4 	ldr.w	r3, [r7, #180]	; 0xb4
 8001310:	fab3 f383 	clz	r3, r3
 8001314:	b2db      	uxtb	r3, r3
        if (__LL_ADC_CHANNEL_TO_DECIMAL_NB(LL_ADC_GetOffsetChannel(hadc->Instance, LL_ADC_OFFSET_1))
 8001316:	429a      	cmp	r2, r3
 8001318:	d106      	bne.n	8001328 <HAL_ADC_ConfigChannel+0x218>
        {
          LL_ADC_SetOffsetState(hadc->Instance, LL_ADC_OFFSET_1, LL_ADC_OFFSET_DISABLE);
 800131a:	687b      	ldr	r3, [r7, #4]
 800131c:	681b      	ldr	r3, [r3, #0]
 800131e:	2200      	movs	r2, #0
 8001320:	2100      	movs	r1, #0
 8001322:	4618      	mov	r0, r3
 8001324:	f7ff fc76 	bl	8000c14 <LL_ADC_SetOffsetState>
        }
        if (__LL_ADC_CHANNEL_TO_DECIMAL_NB(LL_ADC_GetOffsetChannel(hadc->Instance, LL_ADC_OFFSET_2))
 8001328:	687b      	ldr	r3, [r7, #4]
 800132a:	681b      	ldr	r3, [r3, #0]
 800132c:	2101      	movs	r1, #1
 800132e:	4618      	mov	r0, r3
 8001330:	f7ff fc5a 	bl	8000be8 <LL_ADC_GetOffsetChannel>
 8001334:	4603      	mov	r3, r0
 8001336:	f3c3 0312 	ubfx	r3, r3, #0, #19
 800133a:	2b00      	cmp	r3, #0
 800133c:	d10a      	bne.n	8001354 <HAL_ADC_ConfigChannel+0x244>
 800133e:	687b      	ldr	r3, [r7, #4]
 8001340:	681b      	ldr	r3, [r3, #0]
 8001342:	2101      	movs	r1, #1
 8001344:	4618      	mov	r0, r3
 8001346:	f7ff fc4f 	bl	8000be8 <LL_ADC_GetOffsetChannel>
 800134a:	4603      	mov	r3, r0
 800134c:	0e9b      	lsrs	r3, r3, #26
 800134e:	f003 021f 	and.w	r2, r3, #31
 8001352:	e01e      	b.n	8001392 <HAL_ADC_ConfigChannel+0x282>
 8001354:	687b      	ldr	r3, [r7, #4]
 8001356:	681b      	ldr	r3, [r3, #0]
 8001358:	2101      	movs	r1, #1
 800135a:	4618      	mov	r0, r3
 800135c:	f7ff fc44 	bl	8000be8 <LL_ADC_GetOffsetChannel>
 8001360:	4603      	mov	r3, r0
 8001362:	f8c7 30a4 	str.w	r3, [r7, #164]	; 0xa4
   __ASM volatile ("rbit %0, %1" : "=r" (result) : "r" (value) );
 8001366:	f8d7 30a4 	ldr.w	r3, [r7, #164]	; 0xa4
 800136a:	fa93 f3a3 	rbit	r3, r3
 800136e:	f8c7 30a0 	str.w	r3, [r7, #160]	; 0xa0
  return result;
 8001372:	f8d7 30a0 	ldr.w	r3, [r7, #160]	; 0xa0
 8001376:	f8c7 30a8 	str.w	r3, [r7, #168]	; 0xa8
  if (value == 0U)
 800137a:	f8d7 30a8 	ldr.w	r3, [r7, #168]	; 0xa8
 800137e:	2b00      	cmp	r3, #0
 8001380:	d101      	bne.n	8001386 <HAL_ADC_ConfigChannel+0x276>
    return 32U;
 8001382:	2320      	movs	r3, #32
 8001384:	e004      	b.n	8001390 <HAL_ADC_ConfigChannel+0x280>
  return __builtin_clz(value);
 8001386:	f8d7 30a8 	ldr.w	r3, [r7, #168]	; 0xa8
 800138a:	fab3 f383 	clz	r3, r3
 800138e:	b2db      	uxtb	r3, r3
 8001390:	461a      	mov	r2, r3
            == __LL_ADC_CHANNEL_TO_DECIMAL_NB(sConfig->Channel))
 8001392:	683b      	ldr	r3, [r7, #0]
 8001394:	681b      	ldr	r3, [r3, #0]
 8001396:	f3c3 0312 	ubfx	r3, r3, #0, #19
 800139a:	2b00      	cmp	r3, #0
 800139c:	d105      	bne.n	80013aa <HAL_ADC_ConfigChannel+0x29a>
 800139e:	683b      	ldr	r3, [r7, #0]
 80013a0:	681b      	ldr	r3, [r3, #0]
 80013a2:	0e9b      	lsrs	r3, r3, #26
 80013a4:	f003 031f 	and.w	r3, r3, #31
 80013a8:	e018      	b.n	80013dc <HAL_ADC_ConfigChannel+0x2cc>
 80013aa:	683b      	ldr	r3, [r7, #0]
 80013ac:	681b      	ldr	r3, [r3, #0]
 80013ae:	f8c7 3098 	str.w	r3, [r7, #152]	; 0x98
   __ASM volatile ("rbit %0, %1" : "=r" (result) : "r" (value) );
 80013b2:	f8d7 3098 	ldr.w	r3, [r7, #152]	; 0x98
 80013b6:	fa93 f3a3 	rbit	r3, r3
 80013ba:	f8c7 3094 	str.w	r3, [r7, #148]	; 0x94
  return result;
 80013be:	f8d7 3094 	ldr.w	r3, [r7, #148]	; 0x94
 80013c2:	f8c7 309c 	str.w	r3, [r7, #156]	; 0x9c
  if (value == 0U)
 80013c6:	f8d7 309c 	ldr.w	r3, [r7, #156]	; 0x9c
 80013ca:	2b00      	cmp	r3, #0
 80013cc:	d101      	bne.n	80013d2 <HAL_ADC_ConfigChannel+0x2c2>
    return 32U;
 80013ce:	2320      	movs	r3, #32
 80013d0:	e004      	b.n	80013dc <HAL_ADC_ConfigChannel+0x2cc>
  return __builtin_clz(value);
 80013d2:	f8d7 309c 	ldr.w	r3, [r7, #156]	; 0x9c
 80013d6:	fab3 f383 	clz	r3, r3
 80013da:	b2db      	uxtb	r3, r3
        if (__LL_ADC_CHANNEL_TO_DECIMAL_NB(LL_ADC_GetOffsetChannel(hadc->Instance, LL_ADC_OFFSET_2))
 80013dc:	429a      	cmp	r2, r3
 80013de:	d106      	bne.n	80013ee <HAL_ADC_ConfigChannel+0x2de>
        {
          LL_ADC_SetOffsetState(hadc->Instance, LL_ADC_OFFSET_2, LL_ADC_OFFSET_DISABLE);
 80013e0:	687b      	ldr	r3, [r7, #4]
 80013e2:	681b      	ldr	r3, [r3, #0]
 80013e4:	2200      	movs	r2, #0
 80013e6:	2101      	movs	r1, #1
 80013e8:	4618      	mov	r0, r3
 80013ea:	f7ff fc13 	bl	8000c14 <LL_ADC_SetOffsetState>
        }
        if (__LL_ADC_CHANNEL_TO_DECIMAL_NB(LL_ADC_GetOffsetChannel(hadc->Instance, LL_ADC_OFFSET_3))
 80013ee:	687b      	ldr	r3, [r7, #4]
 80013f0:	681b      	ldr	r3, [r3, #0]
 80013f2:	2102      	movs	r1, #2
 80013f4:	4618      	mov	r0, r3
 80013f6:	f7ff fbf7 	bl	8000be8 <LL_ADC_GetOffsetChannel>
 80013fa:	4603      	mov	r3, r0
 80013fc:	f3c3 0312 	ubfx	r3, r3, #0, #19
 8001400:	2b00      	cmp	r3, #0
 8001402:	d10a      	bne.n	800141a <HAL_ADC_ConfigChannel+0x30a>
 8001404:	687b      	ldr	r3, [r7, #4]
 8001406:	681b      	ldr	r3, [r3, #0]
 8001408:	2102      	movs	r1, #2
 800140a:	4618      	mov	r0, r3
 800140c:	f7ff fbec 	bl	8000be8 <LL_ADC_GetOffsetChannel>
 8001410:	4603      	mov	r3, r0
 8001412:	0e9b      	lsrs	r3, r3, #26
 8001414:	f003 021f 	and.w	r2, r3, #31
 8001418:	e01e      	b.n	8001458 <HAL_ADC_ConfigChannel+0x348>
 800141a:	687b      	ldr	r3, [r7, #4]
 800141c:	681b      	ldr	r3, [r3, #0]
 800141e:	2102      	movs	r1, #2
 8001420:	4618      	mov	r0, r3
 8001422:	f7ff fbe1 	bl	8000be8 <LL_ADC_GetOffsetChannel>
 8001426:	4603      	mov	r3, r0
 8001428:	f8c7 308c 	str.w	r3, [r7, #140]	; 0x8c
   __ASM volatile ("rbit %0, %1" : "=r" (result) : "r" (value) );
 800142c:	f8d7 308c 	ldr.w	r3, [r7, #140]	; 0x8c
 8001430:	fa93 f3a3 	rbit	r3, r3
 8001434:	f8c7 3088 	str.w	r3, [r7, #136]	; 0x88
  return result;
 8001438:	f8d7 3088 	ldr.w	r3, [r7, #136]	; 0x88
 800143c:	f8c7 3090 	str.w	r3, [r7, #144]	; 0x90
  if (value == 0U)
 8001440:	f8d7 3090 	ldr.w	r3, [r7, #144]	; 0x90
 8001444:	2b00      	cmp	r3, #0
 8001446:	d101      	bne.n	800144c <HAL_ADC_ConfigChannel+0x33c>
    return 32U;
 8001448:	2320      	movs	r3, #32
 800144a:	e004      	b.n	8001456 <HAL_ADC_ConfigChannel+0x346>
  return __builtin_clz(value);
 800144c:	f8d7 3090 	ldr.w	r3, [r7, #144]	; 0x90
 8001450:	fab3 f383 	clz	r3, r3
 8001454:	b2db      	uxtb	r3, r3
 8001456:	461a      	mov	r2, r3
            == __LL_ADC_CHANNEL_TO_DECIMAL_NB(sConfig->Channel))
 8001458:	683b      	ldr	r3, [r7, #0]
 800145a:	681b      	ldr	r3, [r3, #0]
 800145c:	f3c3 0312 	ubfx	r3, r3, #0, #19
 8001460:	2b00      	cmp	r3, #0
 8001462:	d105      	bne.n	8001470 <HAL_ADC_ConfigChannel+0x360>
 8001464:	683b      	ldr	r3, [r7, #0]
 8001466:	681b      	ldr	r3, [r3, #0]
 8001468:	0e9b      	lsrs	r3, r3, #26
 800146a:	f003 031f 	and.w	r3, r3, #31
 800146e:	e016      	b.n	800149e <HAL_ADC_ConfigChannel+0x38e>
 8001470:	683b      	ldr	r3, [r7, #0]
 8001472:	681b      	ldr	r3, [r3, #0]
 8001474:	f8c7 3080 	str.w	r3, [r7, #128]	; 0x80
   __ASM volatile ("rbit %0, %1" : "=r" (result) : "r" (value) );
 8001478:	f8d7 3080 	ldr.w	r3, [r7, #128]	; 0x80
 800147c:	fa93 f3a3 	rbit	r3, r3
 8001480:	67fb      	str	r3, [r7, #124]	; 0x7c
  return result;
 8001482:	6ffb      	ldr	r3, [r7, #124]	; 0x7c
 8001484:	f8c7 3084 	str.w	r3, [r7, #132]	; 0x84
  if (value == 0U)
 8001488:	f8d7 3084 	ldr.w	r3, [r7, #132]	; 0x84
 800148c:	2b00      	cmp	r3, #0
 800148e:	d101      	bne.n	8001494 <HAL_ADC_ConfigChannel+0x384>
    return 32U;
 8001490:	2320      	movs	r3, #32
 8001492:	e004      	b.n	800149e <HAL_ADC_ConfigChannel+0x38e>
  return __builtin_clz(value);
 8001494:	f8d7 3084 	ldr.w	r3, [r7, #132]	; 0x84
 8001498:	fab3 f383 	clz	r3, r3
 800149c:	b2db      	uxtb	r3, r3
        if (__LL_ADC_CHANNEL_TO_DECIMAL_NB(LL_ADC_GetOffsetChannel(hadc->Instance, LL_ADC_OFFSET_3))
 800149e:	429a      	cmp	r2, r3
 80014a0:	d106      	bne.n	80014b0 <HAL_ADC_ConfigChannel+0x3a0>
        {
          LL_ADC_SetOffsetState(hadc->Instance, LL_ADC_OFFSET_3, LL_ADC_OFFSET_DISABLE);
 80014a2:	687b      	ldr	r3, [r7, #4]
 80014a4:	681b      	ldr	r3, [r3, #0]
 80014a6:	2200      	movs	r2, #0
 80014a8:	2102      	movs	r1, #2
 80014aa:	4618      	mov	r0, r3
 80014ac:	f7ff fbb2 	bl	8000c14 <LL_ADC_SetOffsetState>
        }
        if (__LL_ADC_CHANNEL_TO_DECIMAL_NB(LL_ADC_GetOffsetChannel(hadc->Instance, LL_ADC_OFFSET_4))
 80014b0:	687b      	ldr	r3, [r7, #4]
 80014b2:	681b      	ldr	r3, [r3, #0]
 80014b4:	2103      	movs	r1, #3
 80014b6:	4618      	mov	r0, r3
 80014b8:	f7ff fb96 	bl	8000be8 <LL_ADC_GetOffsetChannel>
 80014bc:	4603      	mov	r3, r0
 80014be:	f3c3 0312 	ubfx	r3, r3, #0, #19
 80014c2:	2b00      	cmp	r3, #0
 80014c4:	d10a      	bne.n	80014dc <HAL_ADC_ConfigChannel+0x3cc>
 80014c6:	687b      	ldr	r3, [r7, #4]
 80014c8:	681b      	ldr	r3, [r3, #0]
 80014ca:	2103      	movs	r1, #3
 80014cc:	4618      	mov	r0, r3
 80014ce:	f7ff fb8b 	bl	8000be8 <LL_ADC_GetOffsetChannel>
 80014d2:	4603      	mov	r3, r0
 80014d4:	0e9b      	lsrs	r3, r3, #26
 80014d6:	f003 021f 	and.w	r2, r3, #31
 80014da:	e017      	b.n	800150c <HAL_ADC_ConfigChannel+0x3fc>
 80014dc:	687b      	ldr	r3, [r7, #4]
 80014de:	681b      	ldr	r3, [r3, #0]
 80014e0:	2103      	movs	r1, #3
 80014e2:	4618      	mov	r0, r3
 80014e4:	f7ff fb80 	bl	8000be8 <LL_ADC_GetOffsetChannel>
 80014e8:	4603      	mov	r3, r0
 80014ea:	677b      	str	r3, [r7, #116]	; 0x74
   __ASM volatile ("rbit %0, %1" : "=r" (result) : "r" (value) );
 80014ec:	6f7b      	ldr	r3, [r7, #116]	; 0x74
 80014ee:	fa93 f3a3 	rbit	r3, r3
 80014f2:	673b      	str	r3, [r7, #112]	; 0x70
  return result;
 80014f4:	6f3b      	ldr	r3, [r7, #112]	; 0x70
 80014f6:	67bb      	str	r3, [r7, #120]	; 0x78
  if (value == 0U)
 80014f8:	6fbb      	ldr	r3, [r7, #120]	; 0x78
 80014fa:	2b00      	cmp	r3, #0
 80014fc:	d101      	bne.n	8001502 <HAL_ADC_ConfigChannel+0x3f2>
    return 32U;
 80014fe:	2320      	movs	r3, #32
 8001500:	e003      	b.n	800150a <HAL_ADC_ConfigChannel+0x3fa>
  return __builtin_clz(value);
 8001502:	6fbb      	ldr	r3, [r7, #120]	; 0x78
 8001504:	fab3 f383 	clz	r3, r3
 8001508:	b2db      	uxtb	r3, r3
 800150a:	461a      	mov	r2, r3
            == __LL_ADC_CHANNEL_TO_DECIMAL_NB(sConfig->Channel))
 800150c:	683b      	ldr	r3, [r7, #0]
 800150e:	681b      	ldr	r3, [r3, #0]
 8001510:	f3c3 0312 	ubfx	r3, r3, #0, #19
 8001514:	2b00      	cmp	r3, #0
 8001516:	d105      	bne.n	8001524 <HAL_ADC_ConfigChannel+0x414>
 8001518:	683b      	ldr	r3, [r7, #0]
 800151a:	681b      	ldr	r3, [r3, #0]
 800151c:	0e9b      	lsrs	r3, r3, #26
 800151e:	f003 031f 	and.w	r3, r3, #31
 8001522:	e011      	b.n	8001548 <HAL_ADC_ConfigChannel+0x438>
 8001524:	683b      	ldr	r3, [r7, #0]
 8001526:	681b      	ldr	r3, [r3, #0]
 8001528:	66bb      	str	r3, [r7, #104]	; 0x68
   __ASM volatile ("rbit %0, %1" : "=r" (result) : "r" (value) );
 800152a:	6ebb      	ldr	r3, [r7, #104]	; 0x68
 800152c:	fa93 f3a3 	rbit	r3, r3
 8001530:	667b      	str	r3, [r7, #100]	; 0x64
  return result;
 8001532:	6e7b      	ldr	r3, [r7, #100]	; 0x64
 8001534:	66fb      	str	r3, [r7, #108]	; 0x6c
  if (value == 0U)
 8001536:	6efb      	ldr	r3, [r7, #108]	; 0x6c
 8001538:	2b00      	cmp	r3, #0
 800153a:	d101      	bne.n	8001540 <HAL_ADC_ConfigChannel+0x430>
    return 32U;
 800153c:	2320      	movs	r3, #32
 800153e:	e003      	b.n	8001548 <HAL_ADC_ConfigChannel+0x438>
  return __builtin_clz(value);
 8001540:	6efb      	ldr	r3, [r7, #108]	; 0x6c
 8001542:	fab3 f383 	clz	r3, r3
 8001546:	b2db      	uxtb	r3, r3
        if (__LL_ADC_CHANNEL_TO_DECIMAL_NB(LL_ADC_GetOffsetChannel(hadc->Instance, LL_ADC_OFFSET_4))
 8001548:	429a      	cmp	r2, r3
 800154a:	d106      	bne.n	800155a <HAL_ADC_ConfigChannel+0x44a>
        {
          LL_ADC_SetOffsetState(hadc->Instance, LL_ADC_OFFSET_4, LL_ADC_OFFSET_DISABLE);
 800154c:	687b      	ldr	r3, [r7, #4]
 800154e:	681b      	ldr	r3, [r3, #0]
 8001550:	2200      	movs	r2, #0
 8001552:	2103      	movs	r1, #3
 8001554:	4618      	mov	r0, r3
 8001556:	f7ff fb5d 	bl	8000c14 <LL_ADC_SetOffsetState>
    }

    /* Parameters update conditioned to ADC state:                              */
    /* Parameters that can be updated only when ADC is disabled:                */
    /*  - Single or differential mode                                           */
    if (LL_ADC_IsEnabled(hadc->Instance) == 0UL)
 800155a:	687b      	ldr	r3, [r7, #4]
 800155c:	681b      	ldr	r3, [r3, #0]
 800155e:	4618      	mov	r0, r3
 8001560:	f7ff fc50 	bl	8000e04 <LL_ADC_IsEnabled>
 8001564:	4603      	mov	r3, r0
 8001566:	2b00      	cmp	r3, #0
 8001568:	f040 8140 	bne.w	80017ec <HAL_ADC_ConfigChannel+0x6dc>
    {
      /* Set mode single-ended or differential input of the selected ADC channel */
      LL_ADC_SetChannelSingleDiff(hadc->Instance, sConfig->Channel, sConfig->SingleDiff);
 800156c:	687b      	ldr	r3, [r7, #4]
 800156e:	6818      	ldr	r0, [r3, #0]
 8001570:	683b      	ldr	r3, [r7, #0]
 8001572:	6819      	ldr	r1, [r3, #0]
 8001574:	683b      	ldr	r3, [r7, #0]
 8001576:	68db      	ldr	r3, [r3, #12]
 8001578:	461a      	mov	r2, r3
 800157a:	f7ff fbd1 	bl	8000d20 <LL_ADC_SetChannelSingleDiff>

      /* Configuration of differential mode */
      if (sConfig->SingleDiff == ADC_DIFFERENTIAL_ENDED)
 800157e:	683b      	ldr	r3, [r7, #0]
 8001580:	68db      	ldr	r3, [r3, #12]
 8001582:	4a8f      	ldr	r2, [pc, #572]	; (80017c0 <HAL_ADC_ConfigChannel+0x6b0>)
 8001584:	4293      	cmp	r3, r2
 8001586:	f040 8131 	bne.w	80017ec <HAL_ADC_ConfigChannel+0x6dc>
      {
        /* Set sampling time of the selected ADC channel */
        /* Note: ADC channel number masked with value "0x1F" to ensure shift value within 32 bits range */
        LL_ADC_SetChannelSamplingTime(hadc->Instance,
 800158a:	687b      	ldr	r3, [r7, #4]
 800158c:	6818      	ldr	r0, [r3, #0]
                                      (uint32_t)(__LL_ADC_DECIMAL_NB_TO_CHANNEL((__LL_ADC_CHANNEL_TO_DECIMAL_NB((uint32_t)sConfig->Channel) + 1UL) & 0x1FUL)),
 800158e:	683b      	ldr	r3, [r7, #0]
 8001590:	681b      	ldr	r3, [r3, #0]
 8001592:	f3c3 0312 	ubfx	r3, r3, #0, #19
 8001596:	2b00      	cmp	r3, #0
 8001598:	d10b      	bne.n	80015b2 <HAL_ADC_ConfigChannel+0x4a2>
 800159a:	683b      	ldr	r3, [r7, #0]
 800159c:	681b      	ldr	r3, [r3, #0]
 800159e:	0e9b      	lsrs	r3, r3, #26
 80015a0:	3301      	adds	r3, #1
 80015a2:	f003 031f 	and.w	r3, r3, #31
 80015a6:	2b09      	cmp	r3, #9
 80015a8:	bf94      	ite	ls
 80015aa:	2301      	movls	r3, #1
 80015ac:	2300      	movhi	r3, #0
 80015ae:	b2db      	uxtb	r3, r3
 80015b0:	e019      	b.n	80015e6 <HAL_ADC_ConfigChannel+0x4d6>
 80015b2:	683b      	ldr	r3, [r7, #0]
 80015b4:	681b      	ldr	r3, [r3, #0]
 80015b6:	65fb      	str	r3, [r7, #92]	; 0x5c
   __ASM volatile ("rbit %0, %1" : "=r" (result) : "r" (value) );
 80015b8:	6dfb      	ldr	r3, [r7, #92]	; 0x5c
 80015ba:	fa93 f3a3 	rbit	r3, r3
 80015be:	65bb      	str	r3, [r7, #88]	; 0x58
  return result;
 80015c0:	6dbb      	ldr	r3, [r7, #88]	; 0x58
 80015c2:	663b      	str	r3, [r7, #96]	; 0x60
  if (value == 0U)
 80015c4:	6e3b      	ldr	r3, [r7, #96]	; 0x60
 80015c6:	2b00      	cmp	r3, #0
 80015c8:	d101      	bne.n	80015ce <HAL_ADC_ConfigChannel+0x4be>
    return 32U;
 80015ca:	2320      	movs	r3, #32
 80015cc:	e003      	b.n	80015d6 <HAL_ADC_ConfigChannel+0x4c6>
  return __builtin_clz(value);
 80015ce:	6e3b      	ldr	r3, [r7, #96]	; 0x60
 80015d0:	fab3 f383 	clz	r3, r3
 80015d4:	b2db      	uxtb	r3, r3
 80015d6:	3301      	adds	r3, #1
 80015d8:	f003 031f 	and.w	r3, r3, #31
 80015dc:	2b09      	cmp	r3, #9
 80015de:	bf94      	ite	ls
 80015e0:	2301      	movls	r3, #1
 80015e2:	2300      	movhi	r3, #0
 80015e4:	b2db      	uxtb	r3, r3
        LL_ADC_SetChannelSamplingTime(hadc->Instance,
 80015e6:	2b00      	cmp	r3, #0
 80015e8:	d079      	beq.n	80016de <HAL_ADC_ConfigChannel+0x5ce>
                                      (uint32_t)(__LL_ADC_DECIMAL_NB_TO_CHANNEL((__LL_ADC_CHANNEL_TO_DECIMAL_NB((uint32_t)sConfig->Channel) + 1UL) & 0x1FUL)),
 80015ea:	683b      	ldr	r3, [r7, #0]
 80015ec:	681b      	ldr	r3, [r3, #0]
 80015ee:	f3c3 0312 	ubfx	r3, r3, #0, #19
 80015f2:	2b00      	cmp	r3, #0
 80015f4:	d107      	bne.n	8001606 <HAL_ADC_ConfigChannel+0x4f6>
 80015f6:	683b      	ldr	r3, [r7, #0]
 80015f8:	681b      	ldr	r3, [r3, #0]
 80015fa:	0e9b      	lsrs	r3, r3, #26
 80015fc:	3301      	adds	r3, #1
 80015fe:	069b      	lsls	r3, r3, #26
 8001600:	f003 42f8 	and.w	r2, r3, #2080374784	; 0x7c000000
 8001604:	e015      	b.n	8001632 <HAL_ADC_ConfigChannel+0x522>
 8001606:	683b      	ldr	r3, [r7, #0]
 8001608:	681b      	ldr	r3, [r3, #0]
 800160a:	653b      	str	r3, [r7, #80]	; 0x50
   __ASM volatile ("rbit %0, %1" : "=r" (result) : "r" (value) );
 800160c:	6d3b      	ldr	r3, [r7, #80]	; 0x50
 800160e:	fa93 f3a3 	rbit	r3, r3
 8001612:	64fb      	str	r3, [r7, #76]	; 0x4c
  return result;
 8001614:	6cfb      	ldr	r3, [r7, #76]	; 0x4c
 8001616:	657b      	str	r3, [r7, #84]	; 0x54
  if (value == 0U)
 8001618:	6d7b      	ldr	r3, [r7, #84]	; 0x54
 800161a:	2b00      	cmp	r3, #0
 800161c:	d101      	bne.n	8001622 <HAL_ADC_ConfigChannel+0x512>
    return 32U;
 800161e:	2320      	movs	r3, #32
 8001620:	e003      	b.n	800162a <HAL_ADC_ConfigChannel+0x51a>
  return __builtin_clz(value);
 8001622:	6d7b      	ldr	r3, [r7, #84]	; 0x54
 8001624:	fab3 f383 	clz	r3, r3
 8001628:	b2db      	uxtb	r3, r3
 800162a:	3301      	adds	r3, #1
 800162c:	069b      	lsls	r3, r3, #26
 800162e:	f003 42f8 	and.w	r2, r3, #2080374784	; 0x7c000000
 8001632:	683b      	ldr	r3, [r7, #0]
 8001634:	681b      	ldr	r3, [r3, #0]
 8001636:	f3c3 0312 	ubfx	r3, r3, #0, #19
 800163a:	2b00      	cmp	r3, #0
 800163c:	d109      	bne.n	8001652 <HAL_ADC_ConfigChannel+0x542>
 800163e:	683b      	ldr	r3, [r7, #0]
 8001640:	681b      	ldr	r3, [r3, #0]
 8001642:	0e9b      	lsrs	r3, r3, #26
 8001644:	3301      	adds	r3, #1
 8001646:	f003 031f 	and.w	r3, r3, #31
 800164a:	2101      	movs	r1, #1
 800164c:	fa01 f303 	lsl.w	r3, r1, r3
 8001650:	e017      	b.n	8001682 <HAL_ADC_ConfigChannel+0x572>
 8001652:	683b      	ldr	r3, [r7, #0]
 8001654:	681b      	ldr	r3, [r3, #0]
 8001656:	647b      	str	r3, [r7, #68]	; 0x44
   __ASM volatile ("rbit %0, %1" : "=r" (result) : "r" (value) );
 8001658:	6c7b      	ldr	r3, [r7, #68]	; 0x44
 800165a:	fa93 f3a3 	rbit	r3, r3
 800165e:	643b      	str	r3, [r7, #64]	; 0x40
  return result;
 8001660:	6c3b      	ldr	r3, [r7, #64]	; 0x40
 8001662:	64bb      	str	r3, [r7, #72]	; 0x48
  if (value == 0U)
 8001664:	6cbb      	ldr	r3, [r7, #72]	; 0x48
 8001666:	2b00      	cmp	r3, #0
 8001668:	d101      	bne.n	800166e <HAL_ADC_ConfigChannel+0x55e>
    return 32U;
 800166a:	2320      	movs	r3, #32
 800166c:	e003      	b.n	8001676 <HAL_ADC_ConfigChannel+0x566>
  return __builtin_clz(value);
 800166e:	6cbb      	ldr	r3, [r7, #72]	; 0x48
 8001670:	fab3 f383 	clz	r3, r3
 8001674:	b2db      	uxtb	r3, r3
 8001676:	3301      	adds	r3, #1
 8001678:	f003 031f 	and.w	r3, r3, #31
 800167c:	2101      	movs	r1, #1
 800167e:	fa01 f303 	lsl.w	r3, r1, r3
 8001682:	ea42 0103 	orr.w	r1, r2, r3
 8001686:	683b      	ldr	r3, [r7, #0]
 8001688:	681b      	ldr	r3, [r3, #0]
 800168a:	f3c3 0312 	ubfx	r3, r3, #0, #19
 800168e:	2b00      	cmp	r3, #0
 8001690:	d10a      	bne.n	80016a8 <HAL_ADC_ConfigChannel+0x598>
 8001692:	683b      	ldr	r3, [r7, #0]
 8001694:	681b      	ldr	r3, [r3, #0]
 8001696:	0e9b      	lsrs	r3, r3, #26
 8001698:	3301      	adds	r3, #1
 800169a:	f003 021f 	and.w	r2, r3, #31
 800169e:	4613      	mov	r3, r2
 80016a0:	005b      	lsls	r3, r3, #1
 80016a2:	4413      	add	r3, r2
 80016a4:	051b      	lsls	r3, r3, #20
 80016a6:	e018      	b.n	80016da <HAL_ADC_ConfigChannel+0x5ca>
 80016a8:	683b      	ldr	r3, [r7, #0]
 80016aa:	681b      	ldr	r3, [r3, #0]
 80016ac:	63bb      	str	r3, [r7, #56]	; 0x38
   __ASM volatile ("rbit %0, %1" : "=r" (result) : "r" (value) );
 80016ae:	6bbb      	ldr	r3, [r7, #56]	; 0x38
 80016b0:	fa93 f3a3 	rbit	r3, r3
 80016b4:	637b      	str	r3, [r7, #52]	; 0x34
  return result;
 80016b6:	6b7b      	ldr	r3, [r7, #52]	; 0x34
 80016b8:	63fb      	str	r3, [r7, #60]	; 0x3c
  if (value == 0U)
 80016ba:	6bfb      	ldr	r3, [r7, #60]	; 0x3c
 80016bc:	2b00      	cmp	r3, #0
 80016be:	d101      	bne.n	80016c4 <HAL_ADC_ConfigChannel+0x5b4>
    return 32U;
 80016c0:	2320      	movs	r3, #32
 80016c2:	e003      	b.n	80016cc <HAL_ADC_ConfigChannel+0x5bc>
  return __builtin_clz(value);
 80016c4:	6bfb      	ldr	r3, [r7, #60]	; 0x3c
 80016c6:	fab3 f383 	clz	r3, r3
 80016ca:	b2db      	uxtb	r3, r3
 80016cc:	3301      	adds	r3, #1
 80016ce:	f003 021f 	and.w	r2, r3, #31
 80016d2:	4613      	mov	r3, r2
 80016d4:	005b      	lsls	r3, r3, #1
 80016d6:	4413      	add	r3, r2
 80016d8:	051b      	lsls	r3, r3, #20
        LL_ADC_SetChannelSamplingTime(hadc->Instance,
 80016da:	430b      	orrs	r3, r1
 80016dc:	e081      	b.n	80017e2 <HAL_ADC_ConfigChannel+0x6d2>
                                      (uint32_t)(__LL_ADC_DECIMAL_NB_TO_CHANNEL((__LL_ADC_CHANNEL_TO_DECIMAL_NB((uint32_t)sConfig->Channel) + 1UL) & 0x1FUL)),
 80016de:	683b      	ldr	r3, [r7, #0]
 80016e0:	681b      	ldr	r3, [r3, #0]
 80016e2:	f3c3 0312 	ubfx	r3, r3, #0, #19
 80016e6:	2b00      	cmp	r3, #0
 80016e8:	d107      	bne.n	80016fa <HAL_ADC_ConfigChannel+0x5ea>
 80016ea:	683b      	ldr	r3, [r7, #0]
 80016ec:	681b      	ldr	r3, [r3, #0]
 80016ee:	0e9b      	lsrs	r3, r3, #26
 80016f0:	3301      	adds	r3, #1
 80016f2:	069b      	lsls	r3, r3, #26
 80016f4:	f003 42f8 	and.w	r2, r3, #2080374784	; 0x7c000000
 80016f8:	e015      	b.n	8001726 <HAL_ADC_ConfigChannel+0x616>
 80016fa:	683b      	ldr	r3, [r7, #0]
 80016fc:	681b      	ldr	r3, [r3, #0]
 80016fe:	62fb      	str	r3, [r7, #44]	; 0x2c
   __ASM volatile ("rbit %0, %1" : "=r" (result) : "r" (value) );
 8001700:	6afb      	ldr	r3, [r7, #44]	; 0x2c
 8001702:	fa93 f3a3 	rbit	r3, r3
 8001706:	62bb      	str	r3, [r7, #40]	; 0x28
  return result;
 8001708:	6abb      	ldr	r3, [r7, #40]	; 0x28
 800170a:	633b      	str	r3, [r7, #48]	; 0x30
  if (value == 0U)
 800170c:	6b3b      	ldr	r3, [r7, #48]	; 0x30
 800170e:	2b00      	cmp	r3, #0
 8001710:	d101      	bne.n	8001716 <HAL_ADC_ConfigChannel+0x606>
    return 32U;
 8001712:	2320      	movs	r3, #32
 8001714:	e003      	b.n	800171e <HAL_ADC_ConfigChannel+0x60e>
  return __builtin_clz(value);
 8001716:	6b3b      	ldr	r3, [r7, #48]	; 0x30
 8001718:	fab3 f383 	clz	r3, r3
 800171c:	b2db      	uxtb	r3, r3
 800171e:	3301      	adds	r3, #1
 8001720:	069b      	lsls	r3, r3, #26
 8001722:	f003 42f8 	and.w	r2, r3, #2080374784	; 0x7c000000
 8001726:	683b      	ldr	r3, [r7, #0]
 8001728:	681b      	ldr	r3, [r3, #0]
 800172a:	f3c3 0312 	ubfx	r3, r3, #0, #19
 800172e:	2b00      	cmp	r3, #0
 8001730:	d109      	bne.n	8001746 <HAL_ADC_ConfigChannel+0x636>
 8001732:	683b      	ldr	r3, [r7, #0]
 8001734:	681b      	ldr	r3, [r3, #0]
 8001736:	0e9b      	lsrs	r3, r3, #26
 8001738:	3301      	adds	r3, #1
 800173a:	f003 031f 	and.w	r3, r3, #31
 800173e:	2101      	movs	r1, #1
 8001740:	fa01 f303 	lsl.w	r3, r1, r3
 8001744:	e017      	b.n	8001776 <HAL_ADC_ConfigChannel+0x666>
 8001746:	683b      	ldr	r3, [r7, #0]
 8001748:	681b      	ldr	r3, [r3, #0]
 800174a:	623b      	str	r3, [r7, #32]
   __ASM volatile ("rbit %0, %1" : "=r" (result) : "r" (value) );
 800174c:	6a3b      	ldr	r3, [r7, #32]
 800174e:	fa93 f3a3 	rbit	r3, r3
 8001752:	61fb      	str	r3, [r7, #28]
  return result;
 8001754:	69fb      	ldr	r3, [r7, #28]
 8001756:	627b      	str	r3, [r7, #36]	; 0x24
  if (value == 0U)
 8001758:	6a7b      	ldr	r3, [r7, #36]	; 0x24
 800175a:	2b00      	cmp	r3, #0
 800175c:	d101      	bne.n	8001762 <HAL_ADC_ConfigChannel+0x652>
    return 32U;
 800175e:	2320      	movs	r3, #32
 8001760:	e003      	b.n	800176a <HAL_ADC_ConfigChannel+0x65a>
  return __builtin_clz(value);
 8001762:	6a7b      	ldr	r3, [r7, #36]	; 0x24
 8001764:	fab3 f383 	clz	r3, r3
 8001768:	b2db      	uxtb	r3, r3
 800176a:	3301      	adds	r3, #1
 800176c:	f003 031f 	and.w	r3, r3, #31
 8001770:	2101      	movs	r1, #1
 8001772:	fa01 f303 	lsl.w	r3, r1, r3
 8001776:	ea42 0103 	orr.w	r1, r2, r3
 800177a:	683b      	ldr	r3, [r7, #0]
 800177c:	681b      	ldr	r3, [r3, #0]
 800177e:	f3c3 0312 	ubfx	r3, r3, #0, #19
 8001782:	2b00      	cmp	r3, #0
 8001784:	d10d      	bne.n	80017a2 <HAL_ADC_ConfigChannel+0x692>
 8001786:	683b      	ldr	r3, [r7, #0]
 8001788:	681b      	ldr	r3, [r3, #0]
 800178a:	0e9b      	lsrs	r3, r3, #26
 800178c:	3301      	adds	r3, #1
 800178e:	f003 021f 	and.w	r2, r3, #31
 8001792:	4613      	mov	r3, r2
 8001794:	005b      	lsls	r3, r3, #1
 8001796:	4413      	add	r3, r2
 8001798:	3b1e      	subs	r3, #30
 800179a:	051b      	lsls	r3, r3, #20
 800179c:	f043 7300 	orr.w	r3, r3, #33554432	; 0x2000000
 80017a0:	e01e      	b.n	80017e0 <HAL_ADC_ConfigChannel+0x6d0>
 80017a2:	683b      	ldr	r3, [r7, #0]
 80017a4:	681b      	ldr	r3, [r3, #0]
 80017a6:	617b      	str	r3, [r7, #20]
   __ASM volatile ("rbit %0, %1" : "=r" (result) : "r" (value) );
 80017a8:	697b      	ldr	r3, [r7, #20]
 80017aa:	fa93 f3a3 	rbit	r3, r3
 80017ae:	613b      	str	r3, [r7, #16]
  return result;
 80017b0:	693b      	ldr	r3, [r7, #16]
 80017b2:	61bb      	str	r3, [r7, #24]
  if (value == 0U)
 80017b4:	69bb      	ldr	r3, [r7, #24]
 80017b6:	2b00      	cmp	r3, #0
 80017b8:	d104      	bne.n	80017c4 <HAL_ADC_ConfigChannel+0x6b4>
    return 32U;
 80017ba:	2320      	movs	r3, #32
 80017bc:	e006      	b.n	80017cc <HAL_ADC_ConfigChannel+0x6bc>
 80017be:	bf00      	nop
 80017c0:	407f0000 	.word	0x407f0000
  return __builtin_clz(value);
 80017c4:	69bb      	ldr	r3, [r7, #24]
 80017c6:	fab3 f383 	clz	r3, r3
 80017ca:	b2db      	uxtb	r3, r3
 80017cc:	3301      	adds	r3, #1
 80017ce:	f003 021f 	and.w	r2, r3, #31
 80017d2:	4613      	mov	r3, r2
 80017d4:	005b      	lsls	r3, r3, #1
 80017d6:	4413      	add	r3, r2
 80017d8:	3b1e      	subs	r3, #30
 80017da:	051b      	lsls	r3, r3, #20
 80017dc:	f043 7300 	orr.w	r3, r3, #33554432	; 0x2000000
        LL_ADC_SetChannelSamplingTime(hadc->Instance,
 80017e0:	430b      	orrs	r3, r1
 80017e2:	683a      	ldr	r2, [r7, #0]
 80017e4:	6892      	ldr	r2, [r2, #8]
 80017e6:	4619      	mov	r1, r3
 80017e8:	f7ff fa6e 	bl	8000cc8 <LL_ADC_SetChannelSamplingTime>
    /* If internal channel selected, enable dedicated internal buffers and    */
    /* paths.                                                                 */
    /* Note: these internal measurement paths can be disabled using           */
    /* HAL_ADC_DeInit().                                                      */

    if (__LL_ADC_IS_CHANNEL_INTERNAL(sConfig->Channel))
 80017ec:	683b      	ldr	r3, [r7, #0]
 80017ee:	681a      	ldr	r2, [r3, #0]
 80017f0:	4b3d      	ldr	r3, [pc, #244]	; (80018e8 <HAL_ADC_ConfigChannel+0x7d8>)
 80017f2:	4013      	ands	r3, r2
 80017f4:	2b00      	cmp	r3, #0
 80017f6:	d06c      	beq.n	80018d2 <HAL_ADC_ConfigChannel+0x7c2>
    {
      tmp_config_internal_channel = LL_ADC_GetCommonPathInternalCh(__LL_ADC_COMMON_INSTANCE(hadc->Instance));
 80017f8:	483c      	ldr	r0, [pc, #240]	; (80018ec <HAL_ADC_ConfigChannel+0x7dc>)
 80017fa:	f7ff f9c3 	bl	8000b84 <LL_ADC_GetCommonPathInternalCh>
 80017fe:	f8c7 00c4 	str.w	r0, [r7, #196]	; 0xc4

      /* If the requested internal measurement path has already been enabled, */
      /* bypass the configuration processing.                                 */
      if ((sConfig->Channel == ADC_CHANNEL_TEMPSENSOR)
 8001802:	683b      	ldr	r3, [r7, #0]
 8001804:	681b      	ldr	r3, [r3, #0]
 8001806:	4a3a      	ldr	r2, [pc, #232]	; (80018f0 <HAL_ADC_ConfigChannel+0x7e0>)
 8001808:	4293      	cmp	r3, r2
 800180a:	d127      	bne.n	800185c <HAL_ADC_ConfigChannel+0x74c>
          && ((tmp_config_internal_channel & LL_ADC_PATH_INTERNAL_TEMPSENSOR) == 0UL))
 800180c:	f8d7 30c4 	ldr.w	r3, [r7, #196]	; 0xc4
 8001810:	f403 0300 	and.w	r3, r3, #8388608	; 0x800000
 8001814:	2b00      	cmp	r3, #0
 8001816:	d121      	bne.n	800185c <HAL_ADC_ConfigChannel+0x74c>
      {
        if (ADC_TEMPERATURE_SENSOR_INSTANCE(hadc))
 8001818:	687b      	ldr	r3, [r7, #4]
 800181a:	681b      	ldr	r3, [r3, #0]
 800181c:	4a35      	ldr	r2, [pc, #212]	; (80018f4 <HAL_ADC_ConfigChannel+0x7e4>)
 800181e:	4293      	cmp	r3, r2
 8001820:	d157      	bne.n	80018d2 <HAL_ADC_ConfigChannel+0x7c2>
        {
          LL_ADC_SetCommonPathInternalCh(__LL_ADC_COMMON_INSTANCE(hadc->Instance),
 8001822:	f8d7 30c4 	ldr.w	r3, [r7, #196]	; 0xc4
 8001826:	f443 0300 	orr.w	r3, r3, #8388608	; 0x800000
 800182a:	4619      	mov	r1, r3
 800182c:	482f      	ldr	r0, [pc, #188]	; (80018ec <HAL_ADC_ConfigChannel+0x7dc>)
 800182e:	f7ff f996 	bl	8000b5e <LL_ADC_SetCommonPathInternalCh>
          /* Delay for temperature sensor stabilization time */
          /* Wait loop initialization and execution */
          /* Note: Variable divided by 2 to compensate partially              */
          /*       CPU processing cycles, scaling in us split to not          */
          /*       exceed 32 bits register capacity and handle low frequency. */
          wait_loop_index = ((LL_ADC_DELAY_TEMPSENSOR_STAB_US / 10UL) * ((SystemCoreClock / (100000UL * 2UL)) + 1UL));
 8001832:	4b31      	ldr	r3, [pc, #196]	; (80018f8 <HAL_ADC_ConfigChannel+0x7e8>)
 8001834:	681b      	ldr	r3, [r3, #0]
 8001836:	099b      	lsrs	r3, r3, #6
 8001838:	4a30      	ldr	r2, [pc, #192]	; (80018fc <HAL_ADC_ConfigChannel+0x7ec>)
 800183a:	fba2 2303 	umull	r2, r3, r2, r3
 800183e:	099b      	lsrs	r3, r3, #6
 8001840:	1c5a      	adds	r2, r3, #1
 8001842:	4613      	mov	r3, r2
 8001844:	005b      	lsls	r3, r3, #1
 8001846:	4413      	add	r3, r2
 8001848:	009b      	lsls	r3, r3, #2
 800184a:	60fb      	str	r3, [r7, #12]
          while (wait_loop_index != 0UL)
 800184c:	e002      	b.n	8001854 <HAL_ADC_ConfigChannel+0x744>
          {
            wait_loop_index--;
 800184e:	68fb      	ldr	r3, [r7, #12]
 8001850:	3b01      	subs	r3, #1
 8001852:	60fb      	str	r3, [r7, #12]
          while (wait_loop_index != 0UL)
 8001854:	68fb      	ldr	r3, [r7, #12]
 8001856:	2b00      	cmp	r3, #0
 8001858:	d1f9      	bne.n	800184e <HAL_ADC_ConfigChannel+0x73e>
        if (ADC_TEMPERATURE_SENSOR_INSTANCE(hadc))
 800185a:	e03a      	b.n	80018d2 <HAL_ADC_ConfigChannel+0x7c2>
          }
        }
      }
      else if ((sConfig->Channel == ADC_CHANNEL_VBAT) && ((tmp_config_internal_channel & LL_ADC_PATH_INTERNAL_VBAT) == 0UL))
 800185c:	683b      	ldr	r3, [r7, #0]
 800185e:	681b      	ldr	r3, [r3, #0]
 8001860:	4a27      	ldr	r2, [pc, #156]	; (8001900 <HAL_ADC_ConfigChannel+0x7f0>)
 8001862:	4293      	cmp	r3, r2
 8001864:	d113      	bne.n	800188e <HAL_ADC_ConfigChannel+0x77e>
 8001866:	f8d7 30c4 	ldr.w	r3, [r7, #196]	; 0xc4
 800186a:	f003 7380 	and.w	r3, r3, #16777216	; 0x1000000
 800186e:	2b00      	cmp	r3, #0
 8001870:	d10d      	bne.n	800188e <HAL_ADC_ConfigChannel+0x77e>
      {
        if (ADC_BATTERY_VOLTAGE_INSTANCE(hadc))
 8001872:	687b      	ldr	r3, [r7, #4]
 8001874:	681b      	ldr	r3, [r3, #0]
 8001876:	4a1f      	ldr	r2, [pc, #124]	; (80018f4 <HAL_ADC_ConfigChannel+0x7e4>)
 8001878:	4293      	cmp	r3, r2
 800187a:	d12a      	bne.n	80018d2 <HAL_ADC_ConfigChannel+0x7c2>
        {
          LL_ADC_SetCommonPathInternalCh(__LL_ADC_COMMON_INSTANCE(hadc->Instance),
 800187c:	f8d7 30c4 	ldr.w	r3, [r7, #196]	; 0xc4
 8001880:	f043 7380 	orr.w	r3, r3, #16777216	; 0x1000000
 8001884:	4619      	mov	r1, r3
 8001886:	4819      	ldr	r0, [pc, #100]	; (80018ec <HAL_ADC_ConfigChannel+0x7dc>)
 8001888:	f7ff f969 	bl	8000b5e <LL_ADC_SetCommonPathInternalCh>
        if (ADC_BATTERY_VOLTAGE_INSTANCE(hadc))
 800188c:	e021      	b.n	80018d2 <HAL_ADC_ConfigChannel+0x7c2>
                                         LL_ADC_PATH_INTERNAL_VBAT | tmp_config_internal_channel);
        }
      }
      else if ((sConfig->Channel == ADC_CHANNEL_VREFINT)
 800188e:	683b      	ldr	r3, [r7, #0]
 8001890:	681b      	ldr	r3, [r3, #0]
 8001892:	4a1c      	ldr	r2, [pc, #112]	; (8001904 <HAL_ADC_ConfigChannel+0x7f4>)
 8001894:	4293      	cmp	r3, r2
 8001896:	d11c      	bne.n	80018d2 <HAL_ADC_ConfigChannel+0x7c2>
               && ((tmp_config_internal_channel & LL_ADC_PATH_INTERNAL_VREFINT) == 0UL))
 8001898:	f8d7 30c4 	ldr.w	r3, [r7, #196]	; 0xc4
 800189c:	f403 0380 	and.w	r3, r3, #4194304	; 0x400000
 80018a0:	2b00      	cmp	r3, #0
 80018a2:	d116      	bne.n	80018d2 <HAL_ADC_ConfigChannel+0x7c2>
      {
        if (ADC_VREFINT_INSTANCE(hadc))
 80018a4:	687b      	ldr	r3, [r7, #4]
 80018a6:	681b      	ldr	r3, [r3, #0]
 80018a8:	4a12      	ldr	r2, [pc, #72]	; (80018f4 <HAL_ADC_ConfigChannel+0x7e4>)
 80018aa:	4293      	cmp	r3, r2
 80018ac:	d111      	bne.n	80018d2 <HAL_ADC_ConfigChannel+0x7c2>
        {
          LL_ADC_SetCommonPathInternalCh(__LL_ADC_COMMON_INSTANCE(hadc->Instance),
 80018ae:	f8d7 30c4 	ldr.w	r3, [r7, #196]	; 0xc4
 80018b2:	f443 0380 	orr.w	r3, r3, #4194304	; 0x400000
 80018b6:	4619      	mov	r1, r3
 80018b8:	480c      	ldr	r0, [pc, #48]	; (80018ec <HAL_ADC_ConfigChannel+0x7dc>)
 80018ba:	f7ff f950 	bl	8000b5e <LL_ADC_SetCommonPathInternalCh>
 80018be:	e008      	b.n	80018d2 <HAL_ADC_ConfigChannel+0x7c2>
  /* channel could be done on neither of the channel configuration structure  */
  /* parameters.                                                              */
  else
  {
    /* Update ADC state machine to error */
    SET_BIT(hadc->State, HAL_ADC_STATE_ERROR_CONFIG);
 80018c0:	687b      	ldr	r3, [r7, #4]
 80018c2:	6d9b      	ldr	r3, [r3, #88]	; 0x58
 80018c4:	f043 0220 	orr.w	r2, r3, #32
 80018c8:	687b      	ldr	r3, [r7, #4]
 80018ca:	659a      	str	r2, [r3, #88]	; 0x58

    tmp_hal_status = HAL_ERROR;
 80018cc:	2301      	movs	r3, #1
 80018ce:	f887 30d7 	strb.w	r3, [r7, #215]	; 0xd7
  }

  /* Process unlocked */
  __HAL_UNLOCK(hadc);
 80018d2:	687b      	ldr	r3, [r7, #4]
 80018d4:	2200      	movs	r2, #0
 80018d6:	f883 2054 	strb.w	r2, [r3, #84]	; 0x54

  /* Return function status */
  return tmp_hal_status;
 80018da:	f897 30d7 	ldrb.w	r3, [r7, #215]	; 0xd7
}
 80018de:	4618      	mov	r0, r3
 80018e0:	37d8      	adds	r7, #216	; 0xd8
 80018e2:	46bd      	mov	sp, r7
 80018e4:	bd80      	pop	{r7, pc}
 80018e6:	bf00      	nop
 80018e8:	80080000 	.word	0x80080000
 80018ec:	50040300 	.word	0x50040300
 80018f0:	c7520000 	.word	0xc7520000
 80018f4:	50040000 	.word	0x50040000
 80018f8:	20000000 	.word	0x20000000
 80018fc:	053e2d63 	.word	0x053e2d63
 8001900:	cb840000 	.word	0xcb840000
 8001904:	80000001 	.word	0x80000001

08001908 <HAL_CAN_Init>:
  * @param  hcan pointer to a CAN_HandleTypeDef structure that contains
  *         the configuration information for the specified CAN.
  * @retval HAL status
  */
HAL_StatusTypeDef HAL_CAN_Init(CAN_HandleTypeDef *hcan)
{
 8001908:	b580      	push	{r7, lr}
 800190a:	b084      	sub	sp, #16
 800190c:	af00      	add	r7, sp, #0
 800190e:	6078      	str	r0, [r7, #4]
  uint32_t tickstart;

  /* Check CAN handle */
  if (hcan == NULL)
 8001910:	687b      	ldr	r3, [r7, #4]
 8001912:	2b00      	cmp	r3, #0
 8001914:	d101      	bne.n	800191a <HAL_CAN_Init+0x12>
  {
    return HAL_ERROR;
 8001916:	2301      	movs	r3, #1
 8001918:	e0ed      	b.n	8001af6 <HAL_CAN_Init+0x1ee>
    /* Init the low level hardware: CLOCK, NVIC */
    hcan->MspInitCallback(hcan);
  }

#else
  if (hcan->State == HAL_CAN_STATE_RESET)
 800191a:	687b      	ldr	r3, [r7, #4]
 800191c:	f893 3020 	ldrb.w	r3, [r3, #32]
 8001920:	b2db      	uxtb	r3, r3
 8001922:	2b00      	cmp	r3, #0
 8001924:	d102      	bne.n	800192c <HAL_CAN_Init+0x24>
  {
    /* Init the low level hardware: CLOCK, NVIC */
    HAL_CAN_MspInit(hcan);
 8001926:	6878      	ldr	r0, [r7, #4]
 8001928:	f7fe fd6e 	bl	8000408 <HAL_CAN_MspInit>
  }
#endif /* (USE_HAL_CAN_REGISTER_CALLBACKS) */

  /* Request initialisation */
  SET_BIT(hcan->Instance->MCR, CAN_MCR_INRQ);
 800192c:	687b      	ldr	r3, [r7, #4]
 800192e:	681b      	ldr	r3, [r3, #0]
 8001930:	681a      	ldr	r2, [r3, #0]
 8001932:	687b      	ldr	r3, [r7, #4]
 8001934:	681b      	ldr	r3, [r3, #0]
 8001936:	f042 0201 	orr.w	r2, r2, #1
 800193a:	601a      	str	r2, [r3, #0]

  /* Get tick */
  tickstart = HAL_GetTick();
 800193c:	f7ff f8cc 	bl	8000ad8 <HAL_GetTick>
 8001940:	60f8      	str	r0, [r7, #12]

  /* Wait initialisation acknowledge */
  while ((hcan->Instance->MSR & CAN_MSR_INAK) == 0U)
 8001942:	e012      	b.n	800196a <HAL_CAN_Init+0x62>
  {
    if ((HAL_GetTick() - tickstart) > CAN_TIMEOUT_VALUE)
 8001944:	f7ff f8c8 	bl	8000ad8 <HAL_GetTick>
 8001948:	4602      	mov	r2, r0
 800194a:	68fb      	ldr	r3, [r7, #12]
 800194c:	1ad3      	subs	r3, r2, r3
 800194e:	2b0a      	cmp	r3, #10
 8001950:	d90b      	bls.n	800196a <HAL_CAN_Init+0x62>
    {
      /* Update error code */
      hcan->ErrorCode |= HAL_CAN_ERROR_TIMEOUT;
 8001952:	687b      	ldr	r3, [r7, #4]
 8001954:	6a5b      	ldr	r3, [r3, #36]	; 0x24
 8001956:	f443 3200 	orr.w	r2, r3, #131072	; 0x20000
 800195a:	687b      	ldr	r3, [r7, #4]
 800195c:	625a      	str	r2, [r3, #36]	; 0x24

      /* Change CAN state */
      hcan->State = HAL_CAN_STATE_ERROR;
 800195e:	687b      	ldr	r3, [r7, #4]
 8001960:	2205      	movs	r2, #5
 8001962:	f883 2020 	strb.w	r2, [r3, #32]

      return HAL_ERROR;
 8001966:	2301      	movs	r3, #1
 8001968:	e0c5      	b.n	8001af6 <HAL_CAN_Init+0x1ee>
  while ((hcan->Instance->MSR & CAN_MSR_INAK) == 0U)
 800196a:	687b      	ldr	r3, [r7, #4]
 800196c:	681b      	ldr	r3, [r3, #0]
 800196e:	685b      	ldr	r3, [r3, #4]
 8001970:	f003 0301 	and.w	r3, r3, #1
 8001974:	2b00      	cmp	r3, #0
 8001976:	d0e5      	beq.n	8001944 <HAL_CAN_Init+0x3c>
    }
  }

  /* Exit from sleep mode */
  CLEAR_BIT(hcan->Instance->MCR, CAN_MCR_SLEEP);
 8001978:	687b      	ldr	r3, [r7, #4]
 800197a:	681b      	ldr	r3, [r3, #0]
 800197c:	681a      	ldr	r2, [r3, #0]
 800197e:	687b      	ldr	r3, [r7, #4]
 8001980:	681b      	ldr	r3, [r3, #0]
 8001982:	f022 0202 	bic.w	r2, r2, #2
 8001986:	601a      	str	r2, [r3, #0]

  /* Get tick */
  tickstart = HAL_GetTick();
 8001988:	f7ff f8a6 	bl	8000ad8 <HAL_GetTick>
 800198c:	60f8      	str	r0, [r7, #12]

  /* Check Sleep mode leave acknowledge */
  while ((hcan->Instance->MSR & CAN_MSR_SLAK) != 0U)
 800198e:	e012      	b.n	80019b6 <HAL_CAN_Init+0xae>
  {
    if ((HAL_GetTick() - tickstart) > CAN_TIMEOUT_VALUE)
 8001990:	f7ff f8a2 	bl	8000ad8 <HAL_GetTick>
 8001994:	4602      	mov	r2, r0
 8001996:	68fb      	ldr	r3, [r7, #12]
 8001998:	1ad3      	subs	r3, r2, r3
 800199a:	2b0a      	cmp	r3, #10
 800199c:	d90b      	bls.n	80019b6 <HAL_CAN_Init+0xae>
    {
      /* Update error code */
      hcan->ErrorCode |= HAL_CAN_ERROR_TIMEOUT;
 800199e:	687b      	ldr	r3, [r7, #4]
 80019a0:	6a5b      	ldr	r3, [r3, #36]	; 0x24
 80019a2:	f443 3200 	orr.w	r2, r3, #131072	; 0x20000
 80019a6:	687b      	ldr	r3, [r7, #4]
 80019a8:	625a      	str	r2, [r3, #36]	; 0x24

      /* Change CAN state */
      hcan->State = HAL_CAN_STATE_ERROR;
 80019aa:	687b      	ldr	r3, [r7, #4]
 80019ac:	2205      	movs	r2, #5
 80019ae:	f883 2020 	strb.w	r2, [r3, #32]

      return HAL_ERROR;
 80019b2:	2301      	movs	r3, #1
 80019b4:	e09f      	b.n	8001af6 <HAL_CAN_Init+0x1ee>
  while ((hcan->Instance->MSR & CAN_MSR_SLAK) != 0U)
 80019b6:	687b      	ldr	r3, [r7, #4]
 80019b8:	681b      	ldr	r3, [r3, #0]
 80019ba:	685b      	ldr	r3, [r3, #4]
 80019bc:	f003 0302 	and.w	r3, r3, #2
 80019c0:	2b00      	cmp	r3, #0
 80019c2:	d1e5      	bne.n	8001990 <HAL_CAN_Init+0x88>
    }
  }

  /* Set the time triggered communication mode */
  if (hcan->Init.TimeTriggeredMode == ENABLE)
 80019c4:	687b      	ldr	r3, [r7, #4]
 80019c6:	7e1b      	ldrb	r3, [r3, #24]
 80019c8:	2b01      	cmp	r3, #1
 80019ca:	d108      	bne.n	80019de <HAL_CAN_Init+0xd6>
  {
    SET_BIT(hcan->Instance->MCR, CAN_MCR_TTCM);
 80019cc:	687b      	ldr	r3, [r7, #4]
 80019ce:	681b      	ldr	r3, [r3, #0]
 80019d0:	681a      	ldr	r2, [r3, #0]
 80019d2:	687b      	ldr	r3, [r7, #4]
 80019d4:	681b      	ldr	r3, [r3, #0]
 80019d6:	f042 0280 	orr.w	r2, r2, #128	; 0x80
 80019da:	601a      	str	r2, [r3, #0]
 80019dc:	e007      	b.n	80019ee <HAL_CAN_Init+0xe6>
  }
  else
  {
    CLEAR_BIT(hcan->Instance->MCR, CAN_MCR_TTCM);
 80019de:	687b      	ldr	r3, [r7, #4]
 80019e0:	681b      	ldr	r3, [r3, #0]
 80019e2:	681a      	ldr	r2, [r3, #0]
 80019e4:	687b      	ldr	r3, [r7, #4]
 80019e6:	681b      	ldr	r3, [r3, #0]
 80019e8:	f022 0280 	bic.w	r2, r2, #128	; 0x80
 80019ec:	601a      	str	r2, [r3, #0]
  }

  /* Set the automatic bus-off management */
  if (hcan->Init.AutoBusOff == ENABLE)
 80019ee:	687b      	ldr	r3, [r7, #4]
 80019f0:	7e5b      	ldrb	r3, [r3, #25]
 80019f2:	2b01      	cmp	r3, #1
 80019f4:	d108      	bne.n	8001a08 <HAL_CAN_Init+0x100>
  {
    SET_BIT(hcan->Instance->MCR, CAN_MCR_ABOM);
 80019f6:	687b      	ldr	r3, [r7, #4]
 80019f8:	681b      	ldr	r3, [r3, #0]
 80019fa:	681a      	ldr	r2, [r3, #0]
 80019fc:	687b      	ldr	r3, [r7, #4]
 80019fe:	681b      	ldr	r3, [r3, #0]
 8001a00:	f042 0240 	orr.w	r2, r2, #64	; 0x40
 8001a04:	601a      	str	r2, [r3, #0]
 8001a06:	e007      	b.n	8001a18 <HAL_CAN_Init+0x110>
  }
  else
  {
    CLEAR_BIT(hcan->Instance->MCR, CAN_MCR_ABOM);
 8001a08:	687b      	ldr	r3, [r7, #4]
 8001a0a:	681b      	ldr	r3, [r3, #0]
 8001a0c:	681a      	ldr	r2, [r3, #0]
 8001a0e:	687b      	ldr	r3, [r7, #4]
 8001a10:	681b      	ldr	r3, [r3, #0]
 8001a12:	f022 0240 	bic.w	r2, r2, #64	; 0x40
 8001a16:	601a      	str	r2, [r3, #0]
  }

  /* Set the automatic wake-up mode */
  if (hcan->Init.AutoWakeUp == ENABLE)
 8001a18:	687b      	ldr	r3, [r7, #4]
 8001a1a:	7e9b      	ldrb	r3, [r3, #26]
 8001a1c:	2b01      	cmp	r3, #1
 8001a1e:	d108      	bne.n	8001a32 <HAL_CAN_Init+0x12a>
  {
    SET_BIT(hcan->Instance->MCR, CAN_MCR_AWUM);
 8001a20:	687b      	ldr	r3, [r7, #4]
 8001a22:	681b      	ldr	r3, [r3, #0]
 8001a24:	681a      	ldr	r2, [r3, #0]
 8001a26:	687b      	ldr	r3, [r7, #4]
 8001a28:	681b      	ldr	r3, [r3, #0]
 8001a2a:	f042 0220 	orr.w	r2, r2, #32
 8001a2e:	601a      	str	r2, [r3, #0]
 8001a30:	e007      	b.n	8001a42 <HAL_CAN_Init+0x13a>
  }
  else
  {
    CLEAR_BIT(hcan->Instance->MCR, CAN_MCR_AWUM);
 8001a32:	687b      	ldr	r3, [r7, #4]
 8001a34:	681b      	ldr	r3, [r3, #0]
 8001a36:	681a      	ldr	r2, [r3, #0]
 8001a38:	687b      	ldr	r3, [r7, #4]
 8001a3a:	681b      	ldr	r3, [r3, #0]
 8001a3c:	f022 0220 	bic.w	r2, r2, #32
 8001a40:	601a      	str	r2, [r3, #0]
  }

  /* Set the automatic retransmission */
  if (hcan->Init.AutoRetransmission == ENABLE)
 8001a42:	687b      	ldr	r3, [r7, #4]
 8001a44:	7edb      	ldrb	r3, [r3, #27]
 8001a46:	2b01      	cmp	r3, #1
 8001a48:	d108      	bne.n	8001a5c <HAL_CAN_Init+0x154>
  {
    CLEAR_BIT(hcan->Instance->MCR, CAN_MCR_NART);
 8001a4a:	687b      	ldr	r3, [r7, #4]
 8001a4c:	681b      	ldr	r3, [r3, #0]
 8001a4e:	681a      	ldr	r2, [r3, #0]
 8001a50:	687b      	ldr	r3, [r7, #4]
 8001a52:	681b      	ldr	r3, [r3, #0]
 8001a54:	f022 0210 	bic.w	r2, r2, #16
 8001a58:	601a      	str	r2, [r3, #0]
 8001a5a:	e007      	b.n	8001a6c <HAL_CAN_Init+0x164>
  }
  else
  {
    SET_BIT(hcan->Instance->MCR, CAN_MCR_NART);
 8001a5c:	687b      	ldr	r3, [r7, #4]
 8001a5e:	681b      	ldr	r3, [r3, #0]
 8001a60:	681a      	ldr	r2, [r3, #0]
 8001a62:	687b      	ldr	r3, [r7, #4]
 8001a64:	681b      	ldr	r3, [r3, #0]
 8001a66:	f042 0210 	orr.w	r2, r2, #16
 8001a6a:	601a      	str	r2, [r3, #0]
  }

  /* Set the receive FIFO locked mode */
  if (hcan->Init.ReceiveFifoLocked == ENABLE)
 8001a6c:	687b      	ldr	r3, [r7, #4]
 8001a6e:	7f1b      	ldrb	r3, [r3, #28]
 8001a70:	2b01      	cmp	r3, #1
 8001a72:	d108      	bne.n	8001a86 <HAL_CAN_Init+0x17e>
  {
    SET_BIT(hcan->Instance->MCR, CAN_MCR_RFLM);
 8001a74:	687b      	ldr	r3, [r7, #4]
 8001a76:	681b      	ldr	r3, [r3, #0]
 8001a78:	681a      	ldr	r2, [r3, #0]
 8001a7a:	687b      	ldr	r3, [r7, #4]
 8001a7c:	681b      	ldr	r3, [r3, #0]
 8001a7e:	f042 0208 	orr.w	r2, r2, #8
 8001a82:	601a      	str	r2, [r3, #0]
 8001a84:	e007      	b.n	8001a96 <HAL_CAN_Init+0x18e>
  }
  else
  {
    CLEAR_BIT(hcan->Instance->MCR, CAN_MCR_RFLM);
 8001a86:	687b      	ldr	r3, [r7, #4]
 8001a88:	681b      	ldr	r3, [r3, #0]
 8001a8a:	681a      	ldr	r2, [r3, #0]
 8001a8c:	687b      	ldr	r3, [r7, #4]
 8001a8e:	681b      	ldr	r3, [r3, #0]
 8001a90:	f022 0208 	bic.w	r2, r2, #8
 8001a94:	601a      	str	r2, [r3, #0]
  }

  /* Set the transmit FIFO priority */
  if (hcan->Init.TransmitFifoPriority == ENABLE)
 8001a96:	687b      	ldr	r3, [r7, #4]
 8001a98:	7f5b      	ldrb	r3, [r3, #29]
 8001a9a:	2b01      	cmp	r3, #1
 8001a9c:	d108      	bne.n	8001ab0 <HAL_CAN_Init+0x1a8>
  {
    SET_BIT(hcan->Instance->MCR, CAN_MCR_TXFP);
 8001a9e:	687b      	ldr	r3, [r7, #4]
 8001aa0:	681b      	ldr	r3, [r3, #0]
 8001aa2:	681a      	ldr	r2, [r3, #0]
 8001aa4:	687b      	ldr	r3, [r7, #4]
 8001aa6:	681b      	ldr	r3, [r3, #0]
 8001aa8:	f042 0204 	orr.w	r2, r2, #4
 8001aac:	601a      	str	r2, [r3, #0]
 8001aae:	e007      	b.n	8001ac0 <HAL_CAN_Init+0x1b8>
  }
  else
  {
    CLEAR_BIT(hcan->Instance->MCR, CAN_MCR_TXFP);
 8001ab0:	687b      	ldr	r3, [r7, #4]
 8001ab2:	681b      	ldr	r3, [r3, #0]
 8001ab4:	681a      	ldr	r2, [r3, #0]
 8001ab6:	687b      	ldr	r3, [r7, #4]
 8001ab8:	681b      	ldr	r3, [r3, #0]
 8001aba:	f022 0204 	bic.w	r2, r2, #4
 8001abe:	601a      	str	r2, [r3, #0]
  }

  /* Set the bit timing register */
  WRITE_REG(hcan->Instance->BTR, (uint32_t)(hcan->Init.Mode           |
 8001ac0:	687b      	ldr	r3, [r7, #4]
 8001ac2:	689a      	ldr	r2, [r3, #8]
 8001ac4:	687b      	ldr	r3, [r7, #4]
 8001ac6:	68db      	ldr	r3, [r3, #12]
 8001ac8:	431a      	orrs	r2, r3
 8001aca:	687b      	ldr	r3, [r7, #4]
 8001acc:	691b      	ldr	r3, [r3, #16]
 8001ace:	431a      	orrs	r2, r3
 8001ad0:	687b      	ldr	r3, [r7, #4]
 8001ad2:	695b      	ldr	r3, [r3, #20]
 8001ad4:	ea42 0103 	orr.w	r1, r2, r3
 8001ad8:	687b      	ldr	r3, [r7, #4]
 8001ada:	685b      	ldr	r3, [r3, #4]
 8001adc:	1e5a      	subs	r2, r3, #1
 8001ade:	687b      	ldr	r3, [r7, #4]
 8001ae0:	681b      	ldr	r3, [r3, #0]
 8001ae2:	430a      	orrs	r2, r1
 8001ae4:	61da      	str	r2, [r3, #28]
                                            hcan->Init.TimeSeg1       |
                                            hcan->Init.TimeSeg2       |
                                            (hcan->Init.Prescaler - 1U)));

  /* Initialize the error code */
  hcan->ErrorCode = HAL_CAN_ERROR_NONE;
 8001ae6:	687b      	ldr	r3, [r7, #4]
 8001ae8:	2200      	movs	r2, #0
 8001aea:	625a      	str	r2, [r3, #36]	; 0x24

  /* Initialize the CAN state */
  hcan->State = HAL_CAN_STATE_READY;
 8001aec:	687b      	ldr	r3, [r7, #4]
 8001aee:	2201      	movs	r2, #1
 8001af0:	f883 2020 	strb.w	r2, [r3, #32]

  /* Return function status */
  return HAL_OK;
 8001af4:	2300      	movs	r3, #0
}
 8001af6:	4618      	mov	r0, r3
 8001af8:	3710      	adds	r7, #16
 8001afa:	46bd      	mov	sp, r7
 8001afc:	bd80      	pop	{r7, pc}
	...

08001b00 <__NVIC_SetPriorityGrouping>:
           In case of a conflict between priority grouping and available
           priority bits (__NVIC_PRIO_BITS), the smallest possible priority group is set.
  \param [in]      PriorityGroup  Priority grouping field.
 */
__STATIC_INLINE void __NVIC_SetPriorityGrouping(uint32_t PriorityGroup)
{
 8001b00:	b480      	push	{r7}
 8001b02:	b085      	sub	sp, #20
 8001b04:	af00      	add	r7, sp, #0
 8001b06:	6078      	str	r0, [r7, #4]
  uint32_t reg_value;
  uint32_t PriorityGroupTmp = (PriorityGroup & (uint32_t)0x07UL);             /* only values 0..7 are used          */
 8001b08:	687b      	ldr	r3, [r7, #4]
 8001b0a:	f003 0307 	and.w	r3, r3, #7
 8001b0e:	60fb      	str	r3, [r7, #12]

  reg_value  =  SCB->AIRCR;                                                   /* read old register configuration    */
 8001b10:	4b0c      	ldr	r3, [pc, #48]	; (8001b44 <__NVIC_SetPriorityGrouping+0x44>)
 8001b12:	68db      	ldr	r3, [r3, #12]
 8001b14:	60bb      	str	r3, [r7, #8]
  reg_value &= ~((uint32_t)(SCB_AIRCR_VECTKEY_Msk | SCB_AIRCR_PRIGROUP_Msk)); /* clear bits to change               */
 8001b16:	68ba      	ldr	r2, [r7, #8]
 8001b18:	f64f 03ff 	movw	r3, #63743	; 0xf8ff
 8001b1c:	4013      	ands	r3, r2
 8001b1e:	60bb      	str	r3, [r7, #8]
  reg_value  =  (reg_value                                   |
                ((uint32_t)0x5FAUL << SCB_AIRCR_VECTKEY_Pos) |
                (PriorityGroupTmp << SCB_AIRCR_PRIGROUP_Pos)  );              /* Insert write key and priority group */
 8001b20:	68fb      	ldr	r3, [r7, #12]
 8001b22:	021a      	lsls	r2, r3, #8
                ((uint32_t)0x5FAUL << SCB_AIRCR_VECTKEY_Pos) |
 8001b24:	68bb      	ldr	r3, [r7, #8]
 8001b26:	4313      	orrs	r3, r2
  reg_value  =  (reg_value                                   |
 8001b28:	f043 63bf 	orr.w	r3, r3, #100139008	; 0x5f80000
 8001b2c:	f443 3300 	orr.w	r3, r3, #131072	; 0x20000
 8001b30:	60bb      	str	r3, [r7, #8]
  SCB->AIRCR =  reg_value;
 8001b32:	4a04      	ldr	r2, [pc, #16]	; (8001b44 <__NVIC_SetPriorityGrouping+0x44>)
 8001b34:	68bb      	ldr	r3, [r7, #8]
 8001b36:	60d3      	str	r3, [r2, #12]
}
 8001b38:	bf00      	nop
 8001b3a:	3714      	adds	r7, #20
 8001b3c:	46bd      	mov	sp, r7
 8001b3e:	f85d 7b04 	ldr.w	r7, [sp], #4
 8001b42:	4770      	bx	lr
 8001b44:	e000ed00 	.word	0xe000ed00

08001b48 <__NVIC_GetPriorityGrouping>:
  \brief   Get Priority Grouping
  \details Reads the priority grouping field from the NVIC Interrupt Controller.
  \return                Priority grouping field (SCB->AIRCR [10:8] PRIGROUP field).
 */
__STATIC_INLINE uint32_t __NVIC_GetPriorityGrouping(void)
{
 8001b48:	b480      	push	{r7}
 8001b4a:	af00      	add	r7, sp, #0
  return ((uint32_t)((SCB->AIRCR & SCB_AIRCR_PRIGROUP_Msk) >> SCB_AIRCR_PRIGROUP_Pos));
 8001b4c:	4b04      	ldr	r3, [pc, #16]	; (8001b60 <__NVIC_GetPriorityGrouping+0x18>)
 8001b4e:	68db      	ldr	r3, [r3, #12]
 8001b50:	0a1b      	lsrs	r3, r3, #8
 8001b52:	f003 0307 	and.w	r3, r3, #7
}
 8001b56:	4618      	mov	r0, r3
 8001b58:	46bd      	mov	sp, r7
 8001b5a:	f85d 7b04 	ldr.w	r7, [sp], #4
 8001b5e:	4770      	bx	lr
 8001b60:	e000ed00 	.word	0xe000ed00

08001b64 <__NVIC_SetPriority>:
  \param [in]      IRQn  Interrupt number.
  \param [in]  priority  Priority to set.
  \note    The priority cannot be set for every processor exception.
 */
__STATIC_INLINE void __NVIC_SetPriority(IRQn_Type IRQn, uint32_t priority)
{
 8001b64:	b480      	push	{r7}
 8001b66:	b083      	sub	sp, #12
 8001b68:	af00      	add	r7, sp, #0
 8001b6a:	4603      	mov	r3, r0
 8001b6c:	6039      	str	r1, [r7, #0]
 8001b6e:	71fb      	strb	r3, [r7, #7]
  if ((int32_t)(IRQn) >= 0)
 8001b70:	f997 3007 	ldrsb.w	r3, [r7, #7]
 8001b74:	2b00      	cmp	r3, #0
 8001b76:	db0a      	blt.n	8001b8e <__NVIC_SetPriority+0x2a>
  {
    NVIC->IP[((uint32_t)IRQn)]               = (uint8_t)((priority << (8U - __NVIC_PRIO_BITS)) & (uint32_t)0xFFUL);
 8001b78:	683b      	ldr	r3, [r7, #0]
 8001b7a:	b2da      	uxtb	r2, r3
 8001b7c:	490c      	ldr	r1, [pc, #48]	; (8001bb0 <__NVIC_SetPriority+0x4c>)
 8001b7e:	f997 3007 	ldrsb.w	r3, [r7, #7]
 8001b82:	0112      	lsls	r2, r2, #4
 8001b84:	b2d2      	uxtb	r2, r2
 8001b86:	440b      	add	r3, r1
 8001b88:	f883 2300 	strb.w	r2, [r3, #768]	; 0x300
  }
  else
  {
    SCB->SHP[(((uint32_t)IRQn) & 0xFUL)-4UL] = (uint8_t)((priority << (8U - __NVIC_PRIO_BITS)) & (uint32_t)0xFFUL);
  }
}
 8001b8c:	e00a      	b.n	8001ba4 <__NVIC_SetPriority+0x40>
    SCB->SHP[(((uint32_t)IRQn) & 0xFUL)-4UL] = (uint8_t)((priority << (8U - __NVIC_PRIO_BITS)) & (uint32_t)0xFFUL);
 8001b8e:	683b      	ldr	r3, [r7, #0]
 8001b90:	b2da      	uxtb	r2, r3
 8001b92:	4908      	ldr	r1, [pc, #32]	; (8001bb4 <__NVIC_SetPriority+0x50>)
 8001b94:	79fb      	ldrb	r3, [r7, #7]
 8001b96:	f003 030f 	and.w	r3, r3, #15
 8001b9a:	3b04      	subs	r3, #4
 8001b9c:	0112      	lsls	r2, r2, #4
 8001b9e:	b2d2      	uxtb	r2, r2
 8001ba0:	440b      	add	r3, r1
 8001ba2:	761a      	strb	r2, [r3, #24]
}
 8001ba4:	bf00      	nop
 8001ba6:	370c      	adds	r7, #12
 8001ba8:	46bd      	mov	sp, r7
 8001baa:	f85d 7b04 	ldr.w	r7, [sp], #4
 8001bae:	4770      	bx	lr
 8001bb0:	e000e100 	.word	0xe000e100
 8001bb4:	e000ed00 	.word	0xe000ed00

08001bb8 <NVIC_EncodePriority>:
  \param [in]   PreemptPriority  Preemptive priority value (starting from 0).
  \param [in]       SubPriority  Subpriority value (starting from 0).
  \return                        Encoded priority. Value can be used in the function \ref NVIC_SetPriority().
 */
__STATIC_INLINE uint32_t NVIC_EncodePriority (uint32_t PriorityGroup, uint32_t PreemptPriority, uint32_t SubPriority)
{
 8001bb8:	b480      	push	{r7}
 8001bba:	b089      	sub	sp, #36	; 0x24
 8001bbc:	af00      	add	r7, sp, #0
 8001bbe:	60f8      	str	r0, [r7, #12]
 8001bc0:	60b9      	str	r1, [r7, #8]
 8001bc2:	607a      	str	r2, [r7, #4]
  uint32_t PriorityGroupTmp = (PriorityGroup & (uint32_t)0x07UL);   /* only values 0..7 are used          */
 8001bc4:	68fb      	ldr	r3, [r7, #12]
 8001bc6:	f003 0307 	and.w	r3, r3, #7
 8001bca:	61fb      	str	r3, [r7, #28]
  uint32_t PreemptPriorityBits;
  uint32_t SubPriorityBits;

  PreemptPriorityBits = ((7UL - PriorityGroupTmp) > (uint32_t)(__NVIC_PRIO_BITS)) ? (uint32_t)(__NVIC_PRIO_BITS) : (uint32_t)(7UL - PriorityGroupTmp);
 8001bcc:	69fb      	ldr	r3, [r7, #28]
 8001bce:	f1c3 0307 	rsb	r3, r3, #7
 8001bd2:	2b04      	cmp	r3, #4
 8001bd4:	bf28      	it	cs
 8001bd6:	2304      	movcs	r3, #4
 8001bd8:	61bb      	str	r3, [r7, #24]
  SubPriorityBits     = ((PriorityGroupTmp + (uint32_t)(__NVIC_PRIO_BITS)) < (uint32_t)7UL) ? (uint32_t)0UL : (uint32_t)((PriorityGroupTmp - 7UL) + (uint32_t)(__NVIC_PRIO_BITS));
 8001bda:	69fb      	ldr	r3, [r7, #28]
 8001bdc:	3304      	adds	r3, #4
 8001bde:	2b06      	cmp	r3, #6
 8001be0:	d902      	bls.n	8001be8 <NVIC_EncodePriority+0x30>
 8001be2:	69fb      	ldr	r3, [r7, #28]
 8001be4:	3b03      	subs	r3, #3
 8001be6:	e000      	b.n	8001bea <NVIC_EncodePriority+0x32>
 8001be8:	2300      	movs	r3, #0
 8001bea:	617b      	str	r3, [r7, #20]

  return (
           ((PreemptPriority & (uint32_t)((1UL << (PreemptPriorityBits)) - 1UL)) << SubPriorityBits) |
 8001bec:	f04f 32ff 	mov.w	r2, #4294967295
 8001bf0:	69bb      	ldr	r3, [r7, #24]
 8001bf2:	fa02 f303 	lsl.w	r3, r2, r3
 8001bf6:	43da      	mvns	r2, r3
 8001bf8:	68bb      	ldr	r3, [r7, #8]
 8001bfa:	401a      	ands	r2, r3
 8001bfc:	697b      	ldr	r3, [r7, #20]
 8001bfe:	409a      	lsls	r2, r3
           ((SubPriority     & (uint32_t)((1UL << (SubPriorityBits    )) - 1UL)))
 8001c00:	f04f 31ff 	mov.w	r1, #4294967295
 8001c04:	697b      	ldr	r3, [r7, #20]
 8001c06:	fa01 f303 	lsl.w	r3, r1, r3
 8001c0a:	43d9      	mvns	r1, r3
 8001c0c:	687b      	ldr	r3, [r7, #4]
 8001c0e:	400b      	ands	r3, r1
           ((PreemptPriority & (uint32_t)((1UL << (PreemptPriorityBits)) - 1UL)) << SubPriorityBits) |
 8001c10:	4313      	orrs	r3, r2
         );
}
 8001c12:	4618      	mov	r0, r3
 8001c14:	3724      	adds	r7, #36	; 0x24
 8001c16:	46bd      	mov	sp, r7
 8001c18:	f85d 7b04 	ldr.w	r7, [sp], #4
 8001c1c:	4770      	bx	lr
	...

08001c20 <SysTick_Config>:
  \note    When the variable <b>__Vendor_SysTickConfig</b> is set to 1, then the
           function <b>SysTick_Config</b> is not included. In this case, the file <b><i>device</i>.h</b>
           must contain a vendor-specific implementation of this function.
 */
__STATIC_INLINE uint32_t SysTick_Config(uint32_t ticks)
{
 8001c20:	b580      	push	{r7, lr}
 8001c22:	b082      	sub	sp, #8
 8001c24:	af00      	add	r7, sp, #0
 8001c26:	6078      	str	r0, [r7, #4]
  if ((ticks - 1UL) > SysTick_LOAD_RELOAD_Msk)
 8001c28:	687b      	ldr	r3, [r7, #4]
 8001c2a:	3b01      	subs	r3, #1
 8001c2c:	f1b3 7f80 	cmp.w	r3, #16777216	; 0x1000000
 8001c30:	d301      	bcc.n	8001c36 <SysTick_Config+0x16>
  {
    return (1UL);                                                   /* Reload value impossible */
 8001c32:	2301      	movs	r3, #1
 8001c34:	e00f      	b.n	8001c56 <SysTick_Config+0x36>
  }

  SysTick->LOAD  = (uint32_t)(ticks - 1UL);                         /* set reload register */
 8001c36:	4a0a      	ldr	r2, [pc, #40]	; (8001c60 <SysTick_Config+0x40>)
 8001c38:	687b      	ldr	r3, [r7, #4]
 8001c3a:	3b01      	subs	r3, #1
 8001c3c:	6053      	str	r3, [r2, #4]
  NVIC_SetPriority (SysTick_IRQn, (1UL << __NVIC_PRIO_BITS) - 1UL); /* set Priority for Systick Interrupt */
 8001c3e:	210f      	movs	r1, #15
 8001c40:	f04f 30ff 	mov.w	r0, #4294967295
 8001c44:	f7ff ff8e 	bl	8001b64 <__NVIC_SetPriority>
  SysTick->VAL   = 0UL;                                             /* Load the SysTick Counter Value */
 8001c48:	4b05      	ldr	r3, [pc, #20]	; (8001c60 <SysTick_Config+0x40>)
 8001c4a:	2200      	movs	r2, #0
 8001c4c:	609a      	str	r2, [r3, #8]
  SysTick->CTRL  = SysTick_CTRL_CLKSOURCE_Msk |
 8001c4e:	4b04      	ldr	r3, [pc, #16]	; (8001c60 <SysTick_Config+0x40>)
 8001c50:	2207      	movs	r2, #7
 8001c52:	601a      	str	r2, [r3, #0]
                   SysTick_CTRL_TICKINT_Msk   |
                   SysTick_CTRL_ENABLE_Msk;                         /* Enable SysTick IRQ and SysTick Timer */
  return (0UL);                                                     /* Function successful */
 8001c54:	2300      	movs	r3, #0
}
 8001c56:	4618      	mov	r0, r3
 8001c58:	3708      	adds	r7, #8
 8001c5a:	46bd      	mov	sp, r7
 8001c5c:	bd80      	pop	{r7, pc}
 8001c5e:	bf00      	nop
 8001c60:	e000e010 	.word	0xe000e010

08001c64 <HAL_NVIC_SetPriorityGrouping>:
  * @note   When the NVIC_PriorityGroup_0 is selected, IRQ pre-emption is no more possible.
  *         The pending IRQ priority will be managed only by the subpriority.
  * @retval None
  */
void HAL_NVIC_SetPriorityGrouping(uint32_t PriorityGroup)
{
 8001c64:	b580      	push	{r7, lr}
 8001c66:	b082      	sub	sp, #8
 8001c68:	af00      	add	r7, sp, #0
 8001c6a:	6078      	str	r0, [r7, #4]
  /* Check the parameters */
  assert_param(IS_NVIC_PRIORITY_GROUP(PriorityGroup));

  /* Set the PRIGROUP[10:8] bits according to the PriorityGroup parameter value */
  NVIC_SetPriorityGrouping(PriorityGroup);
 8001c6c:	6878      	ldr	r0, [r7, #4]
 8001c6e:	f7ff ff47 	bl	8001b00 <__NVIC_SetPriorityGrouping>
}
 8001c72:	bf00      	nop
 8001c74:	3708      	adds	r7, #8
 8001c76:	46bd      	mov	sp, r7
 8001c78:	bd80      	pop	{r7, pc}

08001c7a <HAL_NVIC_SetPriority>:
  *         This parameter can be a value between 0 and 15
  *         A lower priority value indicates a higher priority.
  * @retval None
  */
void HAL_NVIC_SetPriority(IRQn_Type IRQn, uint32_t PreemptPriority, uint32_t SubPriority)
{
 8001c7a:	b580      	push	{r7, lr}
 8001c7c:	b086      	sub	sp, #24
 8001c7e:	af00      	add	r7, sp, #0
 8001c80:	4603      	mov	r3, r0
 8001c82:	60b9      	str	r1, [r7, #8]
 8001c84:	607a      	str	r2, [r7, #4]
 8001c86:	73fb      	strb	r3, [r7, #15]
  uint32_t prioritygroup = 0x00;
 8001c88:	2300      	movs	r3, #0
 8001c8a:	617b      	str	r3, [r7, #20]

  /* Check the parameters */
  assert_param(IS_NVIC_SUB_PRIORITY(SubPriority));
  assert_param(IS_NVIC_PREEMPTION_PRIORITY(PreemptPriority));

  prioritygroup = NVIC_GetPriorityGrouping();
 8001c8c:	f7ff ff5c 	bl	8001b48 <__NVIC_GetPriorityGrouping>
 8001c90:	6178      	str	r0, [r7, #20]

  NVIC_SetPriority(IRQn, NVIC_EncodePriority(prioritygroup, PreemptPriority, SubPriority));
 8001c92:	687a      	ldr	r2, [r7, #4]
 8001c94:	68b9      	ldr	r1, [r7, #8]
 8001c96:	6978      	ldr	r0, [r7, #20]
 8001c98:	f7ff ff8e 	bl	8001bb8 <NVIC_EncodePriority>
 8001c9c:	4602      	mov	r2, r0
 8001c9e:	f997 300f 	ldrsb.w	r3, [r7, #15]
 8001ca2:	4611      	mov	r1, r2
 8001ca4:	4618      	mov	r0, r3
 8001ca6:	f7ff ff5d 	bl	8001b64 <__NVIC_SetPriority>
}
 8001caa:	bf00      	nop
 8001cac:	3718      	adds	r7, #24
 8001cae:	46bd      	mov	sp, r7
 8001cb0:	bd80      	pop	{r7, pc}

08001cb2 <HAL_SYSTICK_Config>:
  * @param  TicksNumb: Specifies the ticks Number of ticks between two interrupts.
  * @retval status:  - 0  Function succeeded.
  *                  - 1  Function failed.
  */
uint32_t HAL_SYSTICK_Config(uint32_t TicksNumb)
{
 8001cb2:	b580      	push	{r7, lr}
 8001cb4:	b082      	sub	sp, #8
 8001cb6:	af00      	add	r7, sp, #0
 8001cb8:	6078      	str	r0, [r7, #4]
   return SysTick_Config(TicksNumb);
 8001cba:	6878      	ldr	r0, [r7, #4]
 8001cbc:	f7ff ffb0 	bl	8001c20 <SysTick_Config>
 8001cc0:	4603      	mov	r3, r0
}
 8001cc2:	4618      	mov	r0, r3
 8001cc4:	3708      	adds	r7, #8
 8001cc6:	46bd      	mov	sp, r7
 8001cc8:	bd80      	pop	{r7, pc}
	...

08001ccc <HAL_GPIO_Init>:
  * @param  GPIO_Init pointer to a GPIO_InitTypeDef structure that contains
  *         the configuration information for the specified GPIO peripheral.
  * @retval None
  */
void HAL_GPIO_Init(GPIO_TypeDef  *GPIOx, GPIO_InitTypeDef *GPIO_Init)
{
 8001ccc:	b480      	push	{r7}
 8001cce:	b087      	sub	sp, #28
 8001cd0:	af00      	add	r7, sp, #0
 8001cd2:	6078      	str	r0, [r7, #4]
 8001cd4:	6039      	str	r1, [r7, #0]
  uint32_t position = 0x00u;
 8001cd6:	2300      	movs	r3, #0
 8001cd8:	617b      	str	r3, [r7, #20]
  assert_param(IS_GPIO_ALL_INSTANCE(GPIOx));
  assert_param(IS_GPIO_PIN(GPIO_Init->Pin));
  assert_param(IS_GPIO_MODE(GPIO_Init->Mode));

  /* Configure the port pins */
  while (((GPIO_Init->Pin) >> position) != 0x00u)
 8001cda:	e154      	b.n	8001f86 <HAL_GPIO_Init+0x2ba>
  {
    /* Get current io position */
    iocurrent = (GPIO_Init->Pin) & (1uL << position);
 8001cdc:	683b      	ldr	r3, [r7, #0]
 8001cde:	681a      	ldr	r2, [r3, #0]
 8001ce0:	2101      	movs	r1, #1
 8001ce2:	697b      	ldr	r3, [r7, #20]
 8001ce4:	fa01 f303 	lsl.w	r3, r1, r3
 8001ce8:	4013      	ands	r3, r2
 8001cea:	60fb      	str	r3, [r7, #12]

    if (iocurrent != 0x00u)
 8001cec:	68fb      	ldr	r3, [r7, #12]
 8001cee:	2b00      	cmp	r3, #0
 8001cf0:	f000 8146 	beq.w	8001f80 <HAL_GPIO_Init+0x2b4>
    {
      /*--------------------- GPIO Mode Configuration ------------------------*/
      /* In case of Output or Alternate function mode selection */
      if (((GPIO_Init->Mode & GPIO_MODE) == MODE_OUTPUT) || ((GPIO_Init->Mode & GPIO_MODE) == MODE_AF))
 8001cf4:	683b      	ldr	r3, [r7, #0]
 8001cf6:	685b      	ldr	r3, [r3, #4]
 8001cf8:	f003 0303 	and.w	r3, r3, #3
 8001cfc:	2b01      	cmp	r3, #1
 8001cfe:	d005      	beq.n	8001d0c <HAL_GPIO_Init+0x40>
 8001d00:	683b      	ldr	r3, [r7, #0]
 8001d02:	685b      	ldr	r3, [r3, #4]
 8001d04:	f003 0303 	and.w	r3, r3, #3
 8001d08:	2b02      	cmp	r3, #2
 8001d0a:	d130      	bne.n	8001d6e <HAL_GPIO_Init+0xa2>
      {
        /* Check the Speed parameter */
        assert_param(IS_GPIO_SPEED(GPIO_Init->Speed));

        /* Configure the IO Speed */
        temp = GPIOx->OSPEEDR;
 8001d0c:	687b      	ldr	r3, [r7, #4]
 8001d0e:	689b      	ldr	r3, [r3, #8]
 8001d10:	613b      	str	r3, [r7, #16]
        temp &= ~(GPIO_OSPEEDR_OSPEED0 << (position * 2u));
 8001d12:	697b      	ldr	r3, [r7, #20]
 8001d14:	005b      	lsls	r3, r3, #1
 8001d16:	2203      	movs	r2, #3
 8001d18:	fa02 f303 	lsl.w	r3, r2, r3
 8001d1c:	43db      	mvns	r3, r3
 8001d1e:	693a      	ldr	r2, [r7, #16]
 8001d20:	4013      	ands	r3, r2
 8001d22:	613b      	str	r3, [r7, #16]
        temp |= (GPIO_Init->Speed << (position * 2u));
 8001d24:	683b      	ldr	r3, [r7, #0]
 8001d26:	68da      	ldr	r2, [r3, #12]
 8001d28:	697b      	ldr	r3, [r7, #20]
 8001d2a:	005b      	lsls	r3, r3, #1
 8001d2c:	fa02 f303 	lsl.w	r3, r2, r3
 8001d30:	693a      	ldr	r2, [r7, #16]
 8001d32:	4313      	orrs	r3, r2
 8001d34:	613b      	str	r3, [r7, #16]
        GPIOx->OSPEEDR = temp;
 8001d36:	687b      	ldr	r3, [r7, #4]
 8001d38:	693a      	ldr	r2, [r7, #16]
 8001d3a:	609a      	str	r2, [r3, #8]

        /* Configure the IO Output Type */
        temp = GPIOx->OTYPER;
 8001d3c:	687b      	ldr	r3, [r7, #4]
 8001d3e:	685b      	ldr	r3, [r3, #4]
 8001d40:	613b      	str	r3, [r7, #16]
        temp &= ~(GPIO_OTYPER_OT0 << position) ;
 8001d42:	2201      	movs	r2, #1
 8001d44:	697b      	ldr	r3, [r7, #20]
 8001d46:	fa02 f303 	lsl.w	r3, r2, r3
 8001d4a:	43db      	mvns	r3, r3
 8001d4c:	693a      	ldr	r2, [r7, #16]
 8001d4e:	4013      	ands	r3, r2
 8001d50:	613b      	str	r3, [r7, #16]
        temp |= (((GPIO_Init->Mode & OUTPUT_TYPE) >> OUTPUT_TYPE_Pos) << position);
 8001d52:	683b      	ldr	r3, [r7, #0]
 8001d54:	685b      	ldr	r3, [r3, #4]
 8001d56:	091b      	lsrs	r3, r3, #4
 8001d58:	f003 0201 	and.w	r2, r3, #1
 8001d5c:	697b      	ldr	r3, [r7, #20]
 8001d5e:	fa02 f303 	lsl.w	r3, r2, r3
 8001d62:	693a      	ldr	r2, [r7, #16]
 8001d64:	4313      	orrs	r3, r2
 8001d66:	613b      	str	r3, [r7, #16]
        GPIOx->OTYPER = temp;
 8001d68:	687b      	ldr	r3, [r7, #4]
 8001d6a:	693a      	ldr	r2, [r7, #16]
 8001d6c:	605a      	str	r2, [r3, #4]
      }

#endif /* STM32L471xx || STM32L475xx || STM32L476xx || STM32L485xx || STM32L486xx */

      /* Activate the Pull-up or Pull down resistor for the current IO */
      if ((GPIO_Init->Mode & GPIO_MODE) != MODE_ANALOG)
 8001d6e:	683b      	ldr	r3, [r7, #0]
 8001d70:	685b      	ldr	r3, [r3, #4]
 8001d72:	f003 0303 	and.w	r3, r3, #3
 8001d76:	2b03      	cmp	r3, #3
 8001d78:	d017      	beq.n	8001daa <HAL_GPIO_Init+0xde>
      {
        /* Check the Pull parameter */
        assert_param(IS_GPIO_PULL(GPIO_Init->Pull));

        temp = GPIOx->PUPDR;
 8001d7a:	687b      	ldr	r3, [r7, #4]
 8001d7c:	68db      	ldr	r3, [r3, #12]
 8001d7e:	613b      	str	r3, [r7, #16]
        temp &= ~(GPIO_PUPDR_PUPD0 << (position * 2U));
 8001d80:	697b      	ldr	r3, [r7, #20]
 8001d82:	005b      	lsls	r3, r3, #1
 8001d84:	2203      	movs	r2, #3
 8001d86:	fa02 f303 	lsl.w	r3, r2, r3
 8001d8a:	43db      	mvns	r3, r3
 8001d8c:	693a      	ldr	r2, [r7, #16]
 8001d8e:	4013      	ands	r3, r2
 8001d90:	613b      	str	r3, [r7, #16]
        temp |= ((GPIO_Init->Pull) << (position * 2U));
 8001d92:	683b      	ldr	r3, [r7, #0]
 8001d94:	689a      	ldr	r2, [r3, #8]
 8001d96:	697b      	ldr	r3, [r7, #20]
 8001d98:	005b      	lsls	r3, r3, #1
 8001d9a:	fa02 f303 	lsl.w	r3, r2, r3
 8001d9e:	693a      	ldr	r2, [r7, #16]
 8001da0:	4313      	orrs	r3, r2
 8001da2:	613b      	str	r3, [r7, #16]
        GPIOx->PUPDR = temp;
 8001da4:	687b      	ldr	r3, [r7, #4]
 8001da6:	693a      	ldr	r2, [r7, #16]
 8001da8:	60da      	str	r2, [r3, #12]
      }

      /* In case of Alternate function mode selection */
      if ((GPIO_Init->Mode & GPIO_MODE) == MODE_AF)
 8001daa:	683b      	ldr	r3, [r7, #0]
 8001dac:	685b      	ldr	r3, [r3, #4]
 8001dae:	f003 0303 	and.w	r3, r3, #3
 8001db2:	2b02      	cmp	r3, #2
 8001db4:	d123      	bne.n	8001dfe <HAL_GPIO_Init+0x132>
        /* Check the Alternate function parameters */
        assert_param(IS_GPIO_AF_INSTANCE(GPIOx));
        assert_param(IS_GPIO_AF(GPIO_Init->Alternate));

        /* Configure Alternate function mapped with the current IO */
        temp = GPIOx->AFR[position >> 3u];
 8001db6:	697b      	ldr	r3, [r7, #20]
 8001db8:	08da      	lsrs	r2, r3, #3
 8001dba:	687b      	ldr	r3, [r7, #4]
 8001dbc:	3208      	adds	r2, #8
 8001dbe:	f853 3022 	ldr.w	r3, [r3, r2, lsl #2]
 8001dc2:	613b      	str	r3, [r7, #16]
        temp &= ~(0xFu << ((position & 0x07u) * 4u));
 8001dc4:	697b      	ldr	r3, [r7, #20]
 8001dc6:	f003 0307 	and.w	r3, r3, #7
 8001dca:	009b      	lsls	r3, r3, #2
 8001dcc:	220f      	movs	r2, #15
 8001dce:	fa02 f303 	lsl.w	r3, r2, r3
 8001dd2:	43db      	mvns	r3, r3
 8001dd4:	693a      	ldr	r2, [r7, #16]
 8001dd6:	4013      	ands	r3, r2
 8001dd8:	613b      	str	r3, [r7, #16]
        temp |= ((GPIO_Init->Alternate) << ((position & 0x07u) * 4u));
 8001dda:	683b      	ldr	r3, [r7, #0]
 8001ddc:	691a      	ldr	r2, [r3, #16]
 8001dde:	697b      	ldr	r3, [r7, #20]
 8001de0:	f003 0307 	and.w	r3, r3, #7
 8001de4:	009b      	lsls	r3, r3, #2
 8001de6:	fa02 f303 	lsl.w	r3, r2, r3
 8001dea:	693a      	ldr	r2, [r7, #16]
 8001dec:	4313      	orrs	r3, r2
 8001dee:	613b      	str	r3, [r7, #16]
        GPIOx->AFR[position >> 3u] = temp;
 8001df0:	697b      	ldr	r3, [r7, #20]
 8001df2:	08da      	lsrs	r2, r3, #3
 8001df4:	687b      	ldr	r3, [r7, #4]
 8001df6:	3208      	adds	r2, #8
 8001df8:	6939      	ldr	r1, [r7, #16]
 8001dfa:	f843 1022 	str.w	r1, [r3, r2, lsl #2]
      }

      /* Configure IO Direction mode (Input, Output, Alternate or Analog) */
      temp = GPIOx->MODER;
 8001dfe:	687b      	ldr	r3, [r7, #4]
 8001e00:	681b      	ldr	r3, [r3, #0]
 8001e02:	613b      	str	r3, [r7, #16]
      temp &= ~(GPIO_MODER_MODE0 << (position * 2u));
 8001e04:	697b      	ldr	r3, [r7, #20]
 8001e06:	005b      	lsls	r3, r3, #1
 8001e08:	2203      	movs	r2, #3
 8001e0a:	fa02 f303 	lsl.w	r3, r2, r3
 8001e0e:	43db      	mvns	r3, r3
 8001e10:	693a      	ldr	r2, [r7, #16]
 8001e12:	4013      	ands	r3, r2
 8001e14:	613b      	str	r3, [r7, #16]
      temp |= ((GPIO_Init->Mode & GPIO_MODE) << (position * 2u));
 8001e16:	683b      	ldr	r3, [r7, #0]
 8001e18:	685b      	ldr	r3, [r3, #4]
 8001e1a:	f003 0203 	and.w	r2, r3, #3
 8001e1e:	697b      	ldr	r3, [r7, #20]
 8001e20:	005b      	lsls	r3, r3, #1
 8001e22:	fa02 f303 	lsl.w	r3, r2, r3
 8001e26:	693a      	ldr	r2, [r7, #16]
 8001e28:	4313      	orrs	r3, r2
 8001e2a:	613b      	str	r3, [r7, #16]
      GPIOx->MODER = temp;
 8001e2c:	687b      	ldr	r3, [r7, #4]
 8001e2e:	693a      	ldr	r2, [r7, #16]
 8001e30:	601a      	str	r2, [r3, #0]

      /*--------------------- EXTI Mode Configuration ------------------------*/
      /* Configure the External Interrupt or event for the current IO */
      if ((GPIO_Init->Mode & EXTI_MODE) != 0x00u)
 8001e32:	683b      	ldr	r3, [r7, #0]
 8001e34:	685b      	ldr	r3, [r3, #4]
 8001e36:	f403 3340 	and.w	r3, r3, #196608	; 0x30000
 8001e3a:	2b00      	cmp	r3, #0
 8001e3c:	f000 80a0 	beq.w	8001f80 <HAL_GPIO_Init+0x2b4>
      {
        /* Enable SYSCFG Clock */
        __HAL_RCC_SYSCFG_CLK_ENABLE();
 8001e40:	4b58      	ldr	r3, [pc, #352]	; (8001fa4 <HAL_GPIO_Init+0x2d8>)
 8001e42:	6e1b      	ldr	r3, [r3, #96]	; 0x60
 8001e44:	4a57      	ldr	r2, [pc, #348]	; (8001fa4 <HAL_GPIO_Init+0x2d8>)
 8001e46:	f043 0301 	orr.w	r3, r3, #1
 8001e4a:	6613      	str	r3, [r2, #96]	; 0x60
 8001e4c:	4b55      	ldr	r3, [pc, #340]	; (8001fa4 <HAL_GPIO_Init+0x2d8>)
 8001e4e:	6e1b      	ldr	r3, [r3, #96]	; 0x60
 8001e50:	f003 0301 	and.w	r3, r3, #1
 8001e54:	60bb      	str	r3, [r7, #8]
 8001e56:	68bb      	ldr	r3, [r7, #8]

        temp = SYSCFG->EXTICR[position >> 2u];
 8001e58:	4a53      	ldr	r2, [pc, #332]	; (8001fa8 <HAL_GPIO_Init+0x2dc>)
 8001e5a:	697b      	ldr	r3, [r7, #20]
 8001e5c:	089b      	lsrs	r3, r3, #2
 8001e5e:	3302      	adds	r3, #2
 8001e60:	f852 3023 	ldr.w	r3, [r2, r3, lsl #2]
 8001e64:	613b      	str	r3, [r7, #16]
        temp &= ~(0x0FuL << (4u * (position & 0x03u)));
 8001e66:	697b      	ldr	r3, [r7, #20]
 8001e68:	f003 0303 	and.w	r3, r3, #3
 8001e6c:	009b      	lsls	r3, r3, #2
 8001e6e:	220f      	movs	r2, #15
 8001e70:	fa02 f303 	lsl.w	r3, r2, r3
 8001e74:	43db      	mvns	r3, r3
 8001e76:	693a      	ldr	r2, [r7, #16]
 8001e78:	4013      	ands	r3, r2
 8001e7a:	613b      	str	r3, [r7, #16]
        temp |= (GPIO_GET_INDEX(GPIOx) << (4u * (position & 0x03u)));
 8001e7c:	687b      	ldr	r3, [r7, #4]
 8001e7e:	f1b3 4f90 	cmp.w	r3, #1207959552	; 0x48000000
 8001e82:	d019      	beq.n	8001eb8 <HAL_GPIO_Init+0x1ec>
 8001e84:	687b      	ldr	r3, [r7, #4]
 8001e86:	4a49      	ldr	r2, [pc, #292]	; (8001fac <HAL_GPIO_Init+0x2e0>)
 8001e88:	4293      	cmp	r3, r2
 8001e8a:	d013      	beq.n	8001eb4 <HAL_GPIO_Init+0x1e8>
 8001e8c:	687b      	ldr	r3, [r7, #4]
 8001e8e:	4a48      	ldr	r2, [pc, #288]	; (8001fb0 <HAL_GPIO_Init+0x2e4>)
 8001e90:	4293      	cmp	r3, r2
 8001e92:	d00d      	beq.n	8001eb0 <HAL_GPIO_Init+0x1e4>
 8001e94:	687b      	ldr	r3, [r7, #4]
 8001e96:	4a47      	ldr	r2, [pc, #284]	; (8001fb4 <HAL_GPIO_Init+0x2e8>)
 8001e98:	4293      	cmp	r3, r2
 8001e9a:	d007      	beq.n	8001eac <HAL_GPIO_Init+0x1e0>
 8001e9c:	687b      	ldr	r3, [r7, #4]
 8001e9e:	4a46      	ldr	r2, [pc, #280]	; (8001fb8 <HAL_GPIO_Init+0x2ec>)
 8001ea0:	4293      	cmp	r3, r2
 8001ea2:	d101      	bne.n	8001ea8 <HAL_GPIO_Init+0x1dc>
 8001ea4:	2304      	movs	r3, #4
 8001ea6:	e008      	b.n	8001eba <HAL_GPIO_Init+0x1ee>
 8001ea8:	2307      	movs	r3, #7
 8001eaa:	e006      	b.n	8001eba <HAL_GPIO_Init+0x1ee>
 8001eac:	2303      	movs	r3, #3
 8001eae:	e004      	b.n	8001eba <HAL_GPIO_Init+0x1ee>
 8001eb0:	2302      	movs	r3, #2
 8001eb2:	e002      	b.n	8001eba <HAL_GPIO_Init+0x1ee>
 8001eb4:	2301      	movs	r3, #1
 8001eb6:	e000      	b.n	8001eba <HAL_GPIO_Init+0x1ee>
 8001eb8:	2300      	movs	r3, #0
 8001eba:	697a      	ldr	r2, [r7, #20]
 8001ebc:	f002 0203 	and.w	r2, r2, #3
 8001ec0:	0092      	lsls	r2, r2, #2
 8001ec2:	4093      	lsls	r3, r2
 8001ec4:	693a      	ldr	r2, [r7, #16]
 8001ec6:	4313      	orrs	r3, r2
 8001ec8:	613b      	str	r3, [r7, #16]
        SYSCFG->EXTICR[position >> 2u] = temp;
 8001eca:	4937      	ldr	r1, [pc, #220]	; (8001fa8 <HAL_GPIO_Init+0x2dc>)
 8001ecc:	697b      	ldr	r3, [r7, #20]
 8001ece:	089b      	lsrs	r3, r3, #2
 8001ed0:	3302      	adds	r3, #2
 8001ed2:	693a      	ldr	r2, [r7, #16]
 8001ed4:	f841 2023 	str.w	r2, [r1, r3, lsl #2]

        /* Clear Rising Falling edge configuration */
        temp = EXTI->RTSR1;
 8001ed8:	4b38      	ldr	r3, [pc, #224]	; (8001fbc <HAL_GPIO_Init+0x2f0>)
 8001eda:	689b      	ldr	r3, [r3, #8]
 8001edc:	613b      	str	r3, [r7, #16]
        temp &= ~(iocurrent);
 8001ede:	68fb      	ldr	r3, [r7, #12]
 8001ee0:	43db      	mvns	r3, r3
 8001ee2:	693a      	ldr	r2, [r7, #16]
 8001ee4:	4013      	ands	r3, r2
 8001ee6:	613b      	str	r3, [r7, #16]
        if ((GPIO_Init->Mode & TRIGGER_RISING) != 0x00u)
 8001ee8:	683b      	ldr	r3, [r7, #0]
 8001eea:	685b      	ldr	r3, [r3, #4]
 8001eec:	f403 1380 	and.w	r3, r3, #1048576	; 0x100000
 8001ef0:	2b00      	cmp	r3, #0
 8001ef2:	d003      	beq.n	8001efc <HAL_GPIO_Init+0x230>
        {
          temp |= iocurrent;
 8001ef4:	693a      	ldr	r2, [r7, #16]
 8001ef6:	68fb      	ldr	r3, [r7, #12]
 8001ef8:	4313      	orrs	r3, r2
 8001efa:	613b      	str	r3, [r7, #16]
        }
        EXTI->RTSR1 = temp;
 8001efc:	4a2f      	ldr	r2, [pc, #188]	; (8001fbc <HAL_GPIO_Init+0x2f0>)
 8001efe:	693b      	ldr	r3, [r7, #16]
 8001f00:	6093      	str	r3, [r2, #8]

        temp = EXTI->FTSR1;
 8001f02:	4b2e      	ldr	r3, [pc, #184]	; (8001fbc <HAL_GPIO_Init+0x2f0>)
 8001f04:	68db      	ldr	r3, [r3, #12]
 8001f06:	613b      	str	r3, [r7, #16]
        temp &= ~(iocurrent);
 8001f08:	68fb      	ldr	r3, [r7, #12]
 8001f0a:	43db      	mvns	r3, r3
 8001f0c:	693a      	ldr	r2, [r7, #16]
 8001f0e:	4013      	ands	r3, r2
 8001f10:	613b      	str	r3, [r7, #16]
        if ((GPIO_Init->Mode & TRIGGER_FALLING) != 0x00u)
 8001f12:	683b      	ldr	r3, [r7, #0]
 8001f14:	685b      	ldr	r3, [r3, #4]
 8001f16:	f403 1300 	and.w	r3, r3, #2097152	; 0x200000
 8001f1a:	2b00      	cmp	r3, #0
 8001f1c:	d003      	beq.n	8001f26 <HAL_GPIO_Init+0x25a>
        {
          temp |= iocurrent;
 8001f1e:	693a      	ldr	r2, [r7, #16]
 8001f20:	68fb      	ldr	r3, [r7, #12]
 8001f22:	4313      	orrs	r3, r2
 8001f24:	613b      	str	r3, [r7, #16]
        }
        EXTI->FTSR1 = temp;
 8001f26:	4a25      	ldr	r2, [pc, #148]	; (8001fbc <HAL_GPIO_Init+0x2f0>)
 8001f28:	693b      	ldr	r3, [r7, #16]
 8001f2a:	60d3      	str	r3, [r2, #12]

        /* Clear EXTI line configuration */
        temp = EXTI->EMR1;
 8001f2c:	4b23      	ldr	r3, [pc, #140]	; (8001fbc <HAL_GPIO_Init+0x2f0>)
 8001f2e:	685b      	ldr	r3, [r3, #4]
 8001f30:	613b      	str	r3, [r7, #16]
        temp &= ~(iocurrent);
 8001f32:	68fb      	ldr	r3, [r7, #12]
 8001f34:	43db      	mvns	r3, r3
 8001f36:	693a      	ldr	r2, [r7, #16]
 8001f38:	4013      	ands	r3, r2
 8001f3a:	613b      	str	r3, [r7, #16]
        if ((GPIO_Init->Mode & EXTI_EVT) != 0x00u)
 8001f3c:	683b      	ldr	r3, [r7, #0]
 8001f3e:	685b      	ldr	r3, [r3, #4]
 8001f40:	f403 3300 	and.w	r3, r3, #131072	; 0x20000
 8001f44:	2b00      	cmp	r3, #0
 8001f46:	d003      	beq.n	8001f50 <HAL_GPIO_Init+0x284>
        {
          temp |= iocurrent;
 8001f48:	693a      	ldr	r2, [r7, #16]
 8001f4a:	68fb      	ldr	r3, [r7, #12]
 8001f4c:	4313      	orrs	r3, r2
 8001f4e:	613b      	str	r3, [r7, #16]
        }
        EXTI->EMR1 = temp;
 8001f50:	4a1a      	ldr	r2, [pc, #104]	; (8001fbc <HAL_GPIO_Init+0x2f0>)
 8001f52:	693b      	ldr	r3, [r7, #16]
 8001f54:	6053      	str	r3, [r2, #4]

        temp = EXTI->IMR1;
 8001f56:	4b19      	ldr	r3, [pc, #100]	; (8001fbc <HAL_GPIO_Init+0x2f0>)
 8001f58:	681b      	ldr	r3, [r3, #0]
 8001f5a:	613b      	str	r3, [r7, #16]
        temp &= ~(iocurrent);
 8001f5c:	68fb      	ldr	r3, [r7, #12]
 8001f5e:	43db      	mvns	r3, r3
 8001f60:	693a      	ldr	r2, [r7, #16]
 8001f62:	4013      	ands	r3, r2
 8001f64:	613b      	str	r3, [r7, #16]
        if ((GPIO_Init->Mode & EXTI_IT) != 0x00u)
 8001f66:	683b      	ldr	r3, [r7, #0]
 8001f68:	685b      	ldr	r3, [r3, #4]
 8001f6a:	f403 3380 	and.w	r3, r3, #65536	; 0x10000
 8001f6e:	2b00      	cmp	r3, #0
 8001f70:	d003      	beq.n	8001f7a <HAL_GPIO_Init+0x2ae>
        {
          temp |= iocurrent;
 8001f72:	693a      	ldr	r2, [r7, #16]
 8001f74:	68fb      	ldr	r3, [r7, #12]
 8001f76:	4313      	orrs	r3, r2
 8001f78:	613b      	str	r3, [r7, #16]
        }
        EXTI->IMR1 = temp;
 8001f7a:	4a10      	ldr	r2, [pc, #64]	; (8001fbc <HAL_GPIO_Init+0x2f0>)
 8001f7c:	693b      	ldr	r3, [r7, #16]
 8001f7e:	6013      	str	r3, [r2, #0]
      }
    }

    position++;
 8001f80:	697b      	ldr	r3, [r7, #20]
 8001f82:	3301      	adds	r3, #1
 8001f84:	617b      	str	r3, [r7, #20]
  while (((GPIO_Init->Pin) >> position) != 0x00u)
 8001f86:	683b      	ldr	r3, [r7, #0]
 8001f88:	681a      	ldr	r2, [r3, #0]
 8001f8a:	697b      	ldr	r3, [r7, #20]
 8001f8c:	fa22 f303 	lsr.w	r3, r2, r3
 8001f90:	2b00      	cmp	r3, #0
 8001f92:	f47f aea3 	bne.w	8001cdc <HAL_GPIO_Init+0x10>
  }
}
 8001f96:	bf00      	nop
 8001f98:	bf00      	nop
 8001f9a:	371c      	adds	r7, #28
 8001f9c:	46bd      	mov	sp, r7
 8001f9e:	f85d 7b04 	ldr.w	r7, [sp], #4
 8001fa2:	4770      	bx	lr
 8001fa4:	40021000 	.word	0x40021000
 8001fa8:	40010000 	.word	0x40010000
 8001fac:	48000400 	.word	0x48000400
 8001fb0:	48000800 	.word	0x48000800
 8001fb4:	48000c00 	.word	0x48000c00
 8001fb8:	48001000 	.word	0x48001000
 8001fbc:	40010400 	.word	0x40010400

08001fc0 <HAL_GPIO_WritePin>:
  *            @arg GPIO_PIN_RESET: to clear the port pin
  *            @arg GPIO_PIN_SET: to set the port pin
  * @retval None
  */
void HAL_GPIO_WritePin(GPIO_TypeDef* GPIOx, uint16_t GPIO_Pin, GPIO_PinState PinState)
{
 8001fc0:	b480      	push	{r7}
 8001fc2:	b083      	sub	sp, #12
 8001fc4:	af00      	add	r7, sp, #0
 8001fc6:	6078      	str	r0, [r7, #4]
 8001fc8:	460b      	mov	r3, r1
 8001fca:	807b      	strh	r3, [r7, #2]
 8001fcc:	4613      	mov	r3, r2
 8001fce:	707b      	strb	r3, [r7, #1]
  /* Check the parameters */
  assert_param(IS_GPIO_PIN(GPIO_Pin));
  assert_param(IS_GPIO_PIN_ACTION(PinState));

  if(PinState != GPIO_PIN_RESET)
 8001fd0:	787b      	ldrb	r3, [r7, #1]
 8001fd2:	2b00      	cmp	r3, #0
 8001fd4:	d003      	beq.n	8001fde <HAL_GPIO_WritePin+0x1e>
  {
    GPIOx->BSRR = (uint32_t)GPIO_Pin;
 8001fd6:	887a      	ldrh	r2, [r7, #2]
 8001fd8:	687b      	ldr	r3, [r7, #4]
 8001fda:	619a      	str	r2, [r3, #24]
  }
  else
  {
    GPIOx->BRR = (uint32_t)GPIO_Pin;
  }
}
 8001fdc:	e002      	b.n	8001fe4 <HAL_GPIO_WritePin+0x24>
    GPIOx->BRR = (uint32_t)GPIO_Pin;
 8001fde:	887a      	ldrh	r2, [r7, #2]
 8001fe0:	687b      	ldr	r3, [r7, #4]
 8001fe2:	629a      	str	r2, [r3, #40]	; 0x28
}
 8001fe4:	bf00      	nop
 8001fe6:	370c      	adds	r7, #12
 8001fe8:	46bd      	mov	sp, r7
 8001fea:	f85d 7b04 	ldr.w	r7, [sp], #4
 8001fee:	4770      	bx	lr

08001ff0 <HAL_I2C_Init>:
  * @param  hi2c Pointer to a I2C_HandleTypeDef structure that contains
  *                the configuration information for the specified I2C.
  * @retval HAL status
  */
HAL_StatusTypeDef HAL_I2C_Init(I2C_HandleTypeDef *hi2c)
{
 8001ff0:	b580      	push	{r7, lr}
 8001ff2:	b082      	sub	sp, #8
 8001ff4:	af00      	add	r7, sp, #0
 8001ff6:	6078      	str	r0, [r7, #4]
  /* Check the I2C handle allocation */
  if (hi2c == NULL)
 8001ff8:	687b      	ldr	r3, [r7, #4]
 8001ffa:	2b00      	cmp	r3, #0
 8001ffc:	d101      	bne.n	8002002 <HAL_I2C_Init+0x12>
  {
    return HAL_ERROR;
 8001ffe:	2301      	movs	r3, #1
 8002000:	e081      	b.n	8002106 <HAL_I2C_Init+0x116>
  assert_param(IS_I2C_OWN_ADDRESS2(hi2c->Init.OwnAddress2));
  assert_param(IS_I2C_OWN_ADDRESS2_MASK(hi2c->Init.OwnAddress2Masks));
  assert_param(IS_I2C_GENERAL_CALL(hi2c->Init.GeneralCallMode));
  assert_param(IS_I2C_NO_STRETCH(hi2c->Init.NoStretchMode));

  if (hi2c->State == HAL_I2C_STATE_RESET)
 8002002:	687b      	ldr	r3, [r7, #4]
 8002004:	f893 3041 	ldrb.w	r3, [r3, #65]	; 0x41
 8002008:	b2db      	uxtb	r3, r3
 800200a:	2b00      	cmp	r3, #0
 800200c:	d106      	bne.n	800201c <HAL_I2C_Init+0x2c>
  {
    /* Allocate lock resource and initialize it */
    hi2c->Lock = HAL_UNLOCKED;
 800200e:	687b      	ldr	r3, [r7, #4]
 8002010:	2200      	movs	r2, #0
 8002012:	f883 2040 	strb.w	r2, [r3, #64]	; 0x40

    /* Init the low level hardware : GPIO, CLOCK, CORTEX...etc */
    hi2c->MspInitCallback(hi2c);
#else
    /* Init the low level hardware : GPIO, CLOCK, CORTEX...etc */
    HAL_I2C_MspInit(hi2c);
 8002016:	6878      	ldr	r0, [r7, #4]
 8002018:	f7fe faf2 	bl	8000600 <HAL_I2C_MspInit>
#endif /* USE_HAL_I2C_REGISTER_CALLBACKS */
  }

  hi2c->State = HAL_I2C_STATE_BUSY;
 800201c:	687b      	ldr	r3, [r7, #4]
 800201e:	2224      	movs	r2, #36	; 0x24
 8002020:	f883 2041 	strb.w	r2, [r3, #65]	; 0x41

  /* Disable the selected I2C peripheral */
  __HAL_I2C_DISABLE(hi2c);
 8002024:	687b      	ldr	r3, [r7, #4]
 8002026:	681b      	ldr	r3, [r3, #0]
 8002028:	681a      	ldr	r2, [r3, #0]
 800202a:	687b      	ldr	r3, [r7, #4]
 800202c:	681b      	ldr	r3, [r3, #0]
 800202e:	f022 0201 	bic.w	r2, r2, #1
 8002032:	601a      	str	r2, [r3, #0]

  /*---------------------------- I2Cx TIMINGR Configuration ------------------*/
  /* Configure I2Cx: Frequency range */
  hi2c->Instance->TIMINGR = hi2c->Init.Timing & TIMING_CLEAR_MASK;
 8002034:	687b      	ldr	r3, [r7, #4]
 8002036:	685a      	ldr	r2, [r3, #4]
 8002038:	687b      	ldr	r3, [r7, #4]
 800203a:	681b      	ldr	r3, [r3, #0]
 800203c:	f022 6270 	bic.w	r2, r2, #251658240	; 0xf000000
 8002040:	611a      	str	r2, [r3, #16]

  /*---------------------------- I2Cx OAR1 Configuration ---------------------*/
  /* Disable Own Address1 before set the Own Address1 configuration */
  hi2c->Instance->OAR1 &= ~I2C_OAR1_OA1EN;
 8002042:	687b      	ldr	r3, [r7, #4]
 8002044:	681b      	ldr	r3, [r3, #0]
 8002046:	689a      	ldr	r2, [r3, #8]
 8002048:	687b      	ldr	r3, [r7, #4]
 800204a:	681b      	ldr	r3, [r3, #0]
 800204c:	f422 4200 	bic.w	r2, r2, #32768	; 0x8000
 8002050:	609a      	str	r2, [r3, #8]

  /* Configure I2Cx: Own Address1 and ack own address1 mode */
  if (hi2c->Init.AddressingMode == I2C_ADDRESSINGMODE_7BIT)
 8002052:	687b      	ldr	r3, [r7, #4]
 8002054:	68db      	ldr	r3, [r3, #12]
 8002056:	2b01      	cmp	r3, #1
 8002058:	d107      	bne.n	800206a <HAL_I2C_Init+0x7a>
  {
    hi2c->Instance->OAR1 = (I2C_OAR1_OA1EN | hi2c->Init.OwnAddress1);
 800205a:	687b      	ldr	r3, [r7, #4]
 800205c:	689a      	ldr	r2, [r3, #8]
 800205e:	687b      	ldr	r3, [r7, #4]
 8002060:	681b      	ldr	r3, [r3, #0]
 8002062:	f442 4200 	orr.w	r2, r2, #32768	; 0x8000
 8002066:	609a      	str	r2, [r3, #8]
 8002068:	e006      	b.n	8002078 <HAL_I2C_Init+0x88>
  }
  else /* I2C_ADDRESSINGMODE_10BIT */
  {
    hi2c->Instance->OAR1 = (I2C_OAR1_OA1EN | I2C_OAR1_OA1MODE | hi2c->Init.OwnAddress1);
 800206a:	687b      	ldr	r3, [r7, #4]
 800206c:	689a      	ldr	r2, [r3, #8]
 800206e:	687b      	ldr	r3, [r7, #4]
 8002070:	681b      	ldr	r3, [r3, #0]
 8002072:	f442 4204 	orr.w	r2, r2, #33792	; 0x8400
 8002076:	609a      	str	r2, [r3, #8]
  }

  /*---------------------------- I2Cx CR2 Configuration ----------------------*/
  /* Configure I2Cx: Addressing Master mode */
  if (hi2c->Init.AddressingMode == I2C_ADDRESSINGMODE_10BIT)
 8002078:	687b      	ldr	r3, [r7, #4]
 800207a:	68db      	ldr	r3, [r3, #12]
 800207c:	2b02      	cmp	r3, #2
 800207e:	d104      	bne.n	800208a <HAL_I2C_Init+0x9a>
  {
    hi2c->Instance->CR2 = (I2C_CR2_ADD10);
 8002080:	687b      	ldr	r3, [r7, #4]
 8002082:	681b      	ldr	r3, [r3, #0]
 8002084:	f44f 6200 	mov.w	r2, #2048	; 0x800
 8002088:	605a      	str	r2, [r3, #4]
  }
  /* Enable the AUTOEND by default, and enable NACK (should be disable only during Slave process */
  hi2c->Instance->CR2 |= (I2C_CR2_AUTOEND | I2C_CR2_NACK);
 800208a:	687b      	ldr	r3, [r7, #4]
 800208c:	681b      	ldr	r3, [r3, #0]
 800208e:	685b      	ldr	r3, [r3, #4]
 8002090:	687a      	ldr	r2, [r7, #4]
 8002092:	6812      	ldr	r2, [r2, #0]
 8002094:	f043 7300 	orr.w	r3, r3, #33554432	; 0x2000000
 8002098:	f443 4300 	orr.w	r3, r3, #32768	; 0x8000
 800209c:	6053      	str	r3, [r2, #4]

  /*---------------------------- I2Cx OAR2 Configuration ---------------------*/
  /* Disable Own Address2 before set the Own Address2 configuration */
  hi2c->Instance->OAR2 &= ~I2C_DUALADDRESS_ENABLE;
 800209e:	687b      	ldr	r3, [r7, #4]
 80020a0:	681b      	ldr	r3, [r3, #0]
 80020a2:	68da      	ldr	r2, [r3, #12]
 80020a4:	687b      	ldr	r3, [r7, #4]
 80020a6:	681b      	ldr	r3, [r3, #0]
 80020a8:	f422 4200 	bic.w	r2, r2, #32768	; 0x8000
 80020ac:	60da      	str	r2, [r3, #12]

  /* Configure I2Cx: Dual mode and Own Address2 */
  hi2c->Instance->OAR2 = (hi2c->Init.DualAddressMode | hi2c->Init.OwnAddress2 | \
 80020ae:	687b      	ldr	r3, [r7, #4]
 80020b0:	691a      	ldr	r2, [r3, #16]
 80020b2:	687b      	ldr	r3, [r7, #4]
 80020b4:	695b      	ldr	r3, [r3, #20]
 80020b6:	ea42 0103 	orr.w	r1, r2, r3
                          (hi2c->Init.OwnAddress2Masks << 8));
 80020ba:	687b      	ldr	r3, [r7, #4]
 80020bc:	699b      	ldr	r3, [r3, #24]
 80020be:	021a      	lsls	r2, r3, #8
  hi2c->Instance->OAR2 = (hi2c->Init.DualAddressMode | hi2c->Init.OwnAddress2 | \
 80020c0:	687b      	ldr	r3, [r7, #4]
 80020c2:	681b      	ldr	r3, [r3, #0]
 80020c4:	430a      	orrs	r2, r1
 80020c6:	60da      	str	r2, [r3, #12]

  /*---------------------------- I2Cx CR1 Configuration ----------------------*/
  /* Configure I2Cx: Generalcall and NoStretch mode */
  hi2c->Instance->CR1 = (hi2c->Init.GeneralCallMode | hi2c->Init.NoStretchMode);
 80020c8:	687b      	ldr	r3, [r7, #4]
 80020ca:	69d9      	ldr	r1, [r3, #28]
 80020cc:	687b      	ldr	r3, [r7, #4]
 80020ce:	6a1a      	ldr	r2, [r3, #32]
 80020d0:	687b      	ldr	r3, [r7, #4]
 80020d2:	681b      	ldr	r3, [r3, #0]
 80020d4:	430a      	orrs	r2, r1
 80020d6:	601a      	str	r2, [r3, #0]

  /* Enable the selected I2C peripheral */
  __HAL_I2C_ENABLE(hi2c);
 80020d8:	687b      	ldr	r3, [r7, #4]
 80020da:	681b      	ldr	r3, [r3, #0]
 80020dc:	681a      	ldr	r2, [r3, #0]
 80020de:	687b      	ldr	r3, [r7, #4]
 80020e0:	681b      	ldr	r3, [r3, #0]
 80020e2:	f042 0201 	orr.w	r2, r2, #1
 80020e6:	601a      	str	r2, [r3, #0]

  hi2c->ErrorCode = HAL_I2C_ERROR_NONE;
 80020e8:	687b      	ldr	r3, [r7, #4]
 80020ea:	2200      	movs	r2, #0
 80020ec:	645a      	str	r2, [r3, #68]	; 0x44
  hi2c->State = HAL_I2C_STATE_READY;
 80020ee:	687b      	ldr	r3, [r7, #4]
 80020f0:	2220      	movs	r2, #32
 80020f2:	f883 2041 	strb.w	r2, [r3, #65]	; 0x41
  hi2c->PreviousState = I2C_STATE_NONE;
 80020f6:	687b      	ldr	r3, [r7, #4]
 80020f8:	2200      	movs	r2, #0
 80020fa:	631a      	str	r2, [r3, #48]	; 0x30
  hi2c->Mode = HAL_I2C_MODE_NONE;
 80020fc:	687b      	ldr	r3, [r7, #4]
 80020fe:	2200      	movs	r2, #0
 8002100:	f883 2042 	strb.w	r2, [r3, #66]	; 0x42

  return HAL_OK;
 8002104:	2300      	movs	r3, #0
}
 8002106:	4618      	mov	r0, r3
 8002108:	3708      	adds	r7, #8
 800210a:	46bd      	mov	sp, r7
 800210c:	bd80      	pop	{r7, pc}
	...

08002110 <HAL_I2C_Master_Transmit>:
  * @param  Timeout Timeout duration
  * @retval HAL status
  */
HAL_StatusTypeDef HAL_I2C_Master_Transmit(I2C_HandleTypeDef *hi2c, uint16_t DevAddress, uint8_t *pData,
                                          uint16_t Size, uint32_t Timeout)
{
 8002110:	b580      	push	{r7, lr}
 8002112:	b088      	sub	sp, #32
 8002114:	af02      	add	r7, sp, #8
 8002116:	60f8      	str	r0, [r7, #12]
 8002118:	607a      	str	r2, [r7, #4]
 800211a:	461a      	mov	r2, r3
 800211c:	460b      	mov	r3, r1
 800211e:	817b      	strh	r3, [r7, #10]
 8002120:	4613      	mov	r3, r2
 8002122:	813b      	strh	r3, [r7, #8]
  uint32_t tickstart;

  if (hi2c->State == HAL_I2C_STATE_READY)
 8002124:	68fb      	ldr	r3, [r7, #12]
 8002126:	f893 3041 	ldrb.w	r3, [r3, #65]	; 0x41
 800212a:	b2db      	uxtb	r3, r3
 800212c:	2b20      	cmp	r3, #32
 800212e:	f040 80da 	bne.w	80022e6 <HAL_I2C_Master_Transmit+0x1d6>
  {
    /* Process Locked */
    __HAL_LOCK(hi2c);
 8002132:	68fb      	ldr	r3, [r7, #12]
 8002134:	f893 3040 	ldrb.w	r3, [r3, #64]	; 0x40
 8002138:	2b01      	cmp	r3, #1
 800213a:	d101      	bne.n	8002140 <HAL_I2C_Master_Transmit+0x30>
 800213c:	2302      	movs	r3, #2
 800213e:	e0d3      	b.n	80022e8 <HAL_I2C_Master_Transmit+0x1d8>
 8002140:	68fb      	ldr	r3, [r7, #12]
 8002142:	2201      	movs	r2, #1
 8002144:	f883 2040 	strb.w	r2, [r3, #64]	; 0x40

    /* Init tickstart for timeout management*/
    tickstart = HAL_GetTick();
 8002148:	f7fe fcc6 	bl	8000ad8 <HAL_GetTick>
 800214c:	6178      	str	r0, [r7, #20]

    if (I2C_WaitOnFlagUntilTimeout(hi2c, I2C_FLAG_BUSY, SET, I2C_TIMEOUT_BUSY, tickstart) != HAL_OK)
 800214e:	697b      	ldr	r3, [r7, #20]
 8002150:	9300      	str	r3, [sp, #0]
 8002152:	2319      	movs	r3, #25
 8002154:	2201      	movs	r2, #1
 8002156:	f44f 4100 	mov.w	r1, #32768	; 0x8000
 800215a:	68f8      	ldr	r0, [r7, #12]
 800215c:	f000 f8f0 	bl	8002340 <I2C_WaitOnFlagUntilTimeout>
 8002160:	4603      	mov	r3, r0
 8002162:	2b00      	cmp	r3, #0
 8002164:	d001      	beq.n	800216a <HAL_I2C_Master_Transmit+0x5a>
    {
      return HAL_ERROR;
 8002166:	2301      	movs	r3, #1
 8002168:	e0be      	b.n	80022e8 <HAL_I2C_Master_Transmit+0x1d8>
    }

    hi2c->State     = HAL_I2C_STATE_BUSY_TX;
 800216a:	68fb      	ldr	r3, [r7, #12]
 800216c:	2221      	movs	r2, #33	; 0x21
 800216e:	f883 2041 	strb.w	r2, [r3, #65]	; 0x41
    hi2c->Mode      = HAL_I2C_MODE_MASTER;
 8002172:	68fb      	ldr	r3, [r7, #12]
 8002174:	2210      	movs	r2, #16
 8002176:	f883 2042 	strb.w	r2, [r3, #66]	; 0x42
    hi2c->ErrorCode = HAL_I2C_ERROR_NONE;
 800217a:	68fb      	ldr	r3, [r7, #12]
 800217c:	2200      	movs	r2, #0
 800217e:	645a      	str	r2, [r3, #68]	; 0x44

    /* Prepare transfer parameters */
    hi2c->pBuffPtr  = pData;
 8002180:	68fb      	ldr	r3, [r7, #12]
 8002182:	687a      	ldr	r2, [r7, #4]
 8002184:	625a      	str	r2, [r3, #36]	; 0x24
    hi2c->XferCount = Size;
 8002186:	68fb      	ldr	r3, [r7, #12]
 8002188:	893a      	ldrh	r2, [r7, #8]
 800218a:	855a      	strh	r2, [r3, #42]	; 0x2a
    hi2c->XferISR   = NULL;
 800218c:	68fb      	ldr	r3, [r7, #12]
 800218e:	2200      	movs	r2, #0
 8002190:	635a      	str	r2, [r3, #52]	; 0x34

    /* Send Slave Address */
    /* Set NBYTES to write and reload if hi2c->XferCount > MAX_NBYTE_SIZE and generate RESTART */
    if (hi2c->XferCount > MAX_NBYTE_SIZE)
 8002192:	68fb      	ldr	r3, [r7, #12]
 8002194:	8d5b      	ldrh	r3, [r3, #42]	; 0x2a
 8002196:	b29b      	uxth	r3, r3
 8002198:	2bff      	cmp	r3, #255	; 0xff
 800219a:	d90e      	bls.n	80021ba <HAL_I2C_Master_Transmit+0xaa>
    {
      hi2c->XferSize = MAX_NBYTE_SIZE;
 800219c:	68fb      	ldr	r3, [r7, #12]
 800219e:	22ff      	movs	r2, #255	; 0xff
 80021a0:	851a      	strh	r2, [r3, #40]	; 0x28
      I2C_TransferConfig(hi2c, DevAddress, (uint8_t)hi2c->XferSize, I2C_RELOAD_MODE,
 80021a2:	68fb      	ldr	r3, [r7, #12]
 80021a4:	8d1b      	ldrh	r3, [r3, #40]	; 0x28
 80021a6:	b2da      	uxtb	r2, r3
 80021a8:	8979      	ldrh	r1, [r7, #10]
 80021aa:	4b51      	ldr	r3, [pc, #324]	; (80022f0 <HAL_I2C_Master_Transmit+0x1e0>)
 80021ac:	9300      	str	r3, [sp, #0]
 80021ae:	f04f 7380 	mov.w	r3, #16777216	; 0x1000000
 80021b2:	68f8      	ldr	r0, [r7, #12]
 80021b4:	f000 fa6c 	bl	8002690 <I2C_TransferConfig>
 80021b8:	e06c      	b.n	8002294 <HAL_I2C_Master_Transmit+0x184>
                         I2C_GENERATE_START_WRITE);
    }
    else
    {
      hi2c->XferSize = hi2c->XferCount;
 80021ba:	68fb      	ldr	r3, [r7, #12]
 80021bc:	8d5b      	ldrh	r3, [r3, #42]	; 0x2a
 80021be:	b29a      	uxth	r2, r3
 80021c0:	68fb      	ldr	r3, [r7, #12]
 80021c2:	851a      	strh	r2, [r3, #40]	; 0x28
      I2C_TransferConfig(hi2c, DevAddress, (uint8_t)hi2c->XferSize, I2C_AUTOEND_MODE,
 80021c4:	68fb      	ldr	r3, [r7, #12]
 80021c6:	8d1b      	ldrh	r3, [r3, #40]	; 0x28
 80021c8:	b2da      	uxtb	r2, r3
 80021ca:	8979      	ldrh	r1, [r7, #10]
 80021cc:	4b48      	ldr	r3, [pc, #288]	; (80022f0 <HAL_I2C_Master_Transmit+0x1e0>)
 80021ce:	9300      	str	r3, [sp, #0]
 80021d0:	f04f 7300 	mov.w	r3, #33554432	; 0x2000000
 80021d4:	68f8      	ldr	r0, [r7, #12]
 80021d6:	f000 fa5b 	bl	8002690 <I2C_TransferConfig>
                         I2C_GENERATE_START_WRITE);
    }

    while (hi2c->XferCount > 0U)
 80021da:	e05b      	b.n	8002294 <HAL_I2C_Master_Transmit+0x184>
    {
      /* Wait until TXIS flag is set */
      if (I2C_WaitOnTXISFlagUntilTimeout(hi2c, Timeout, tickstart) != HAL_OK)
 80021dc:	697a      	ldr	r2, [r7, #20]
 80021de:	6a39      	ldr	r1, [r7, #32]
 80021e0:	68f8      	ldr	r0, [r7, #12]
 80021e2:	f000 f8ed 	bl	80023c0 <I2C_WaitOnTXISFlagUntilTimeout>
 80021e6:	4603      	mov	r3, r0
 80021e8:	2b00      	cmp	r3, #0
 80021ea:	d001      	beq.n	80021f0 <HAL_I2C_Master_Transmit+0xe0>
      {
        return HAL_ERROR;
 80021ec:	2301      	movs	r3, #1
 80021ee:	e07b      	b.n	80022e8 <HAL_I2C_Master_Transmit+0x1d8>
      }
      /* Write data to TXDR */
      hi2c->Instance->TXDR = *hi2c->pBuffPtr;
 80021f0:	68fb      	ldr	r3, [r7, #12]
 80021f2:	6a5b      	ldr	r3, [r3, #36]	; 0x24
 80021f4:	781a      	ldrb	r2, [r3, #0]
 80021f6:	68fb      	ldr	r3, [r7, #12]
 80021f8:	681b      	ldr	r3, [r3, #0]
 80021fa:	629a      	str	r2, [r3, #40]	; 0x28

      /* Increment Buffer pointer */
      hi2c->pBuffPtr++;
 80021fc:	68fb      	ldr	r3, [r7, #12]
 80021fe:	6a5b      	ldr	r3, [r3, #36]	; 0x24
 8002200:	1c5a      	adds	r2, r3, #1
 8002202:	68fb      	ldr	r3, [r7, #12]
 8002204:	625a      	str	r2, [r3, #36]	; 0x24

      hi2c->XferCount--;
 8002206:	68fb      	ldr	r3, [r7, #12]
 8002208:	8d5b      	ldrh	r3, [r3, #42]	; 0x2a
 800220a:	b29b      	uxth	r3, r3
 800220c:	3b01      	subs	r3, #1
 800220e:	b29a      	uxth	r2, r3
 8002210:	68fb      	ldr	r3, [r7, #12]
 8002212:	855a      	strh	r2, [r3, #42]	; 0x2a
      hi2c->XferSize--;
 8002214:	68fb      	ldr	r3, [r7, #12]
 8002216:	8d1b      	ldrh	r3, [r3, #40]	; 0x28
 8002218:	3b01      	subs	r3, #1
 800221a:	b29a      	uxth	r2, r3
 800221c:	68fb      	ldr	r3, [r7, #12]
 800221e:	851a      	strh	r2, [r3, #40]	; 0x28

      if ((hi2c->XferCount != 0U) && (hi2c->XferSize == 0U))
 8002220:	68fb      	ldr	r3, [r7, #12]
 8002222:	8d5b      	ldrh	r3, [r3, #42]	; 0x2a
 8002224:	b29b      	uxth	r3, r3
 8002226:	2b00      	cmp	r3, #0
 8002228:	d034      	beq.n	8002294 <HAL_I2C_Master_Transmit+0x184>
 800222a:	68fb      	ldr	r3, [r7, #12]
 800222c:	8d1b      	ldrh	r3, [r3, #40]	; 0x28
 800222e:	2b00      	cmp	r3, #0
 8002230:	d130      	bne.n	8002294 <HAL_I2C_Master_Transmit+0x184>
      {
        /* Wait until TCR flag is set */
        if (I2C_WaitOnFlagUntilTimeout(hi2c, I2C_FLAG_TCR, RESET, Timeout, tickstart) != HAL_OK)
 8002232:	697b      	ldr	r3, [r7, #20]
 8002234:	9300      	str	r3, [sp, #0]
 8002236:	6a3b      	ldr	r3, [r7, #32]
 8002238:	2200      	movs	r2, #0
 800223a:	2180      	movs	r1, #128	; 0x80
 800223c:	68f8      	ldr	r0, [r7, #12]
 800223e:	f000 f87f 	bl	8002340 <I2C_WaitOnFlagUntilTimeout>
 8002242:	4603      	mov	r3, r0
 8002244:	2b00      	cmp	r3, #0
 8002246:	d001      	beq.n	800224c <HAL_I2C_Master_Transmit+0x13c>
        {
          return HAL_ERROR;
 8002248:	2301      	movs	r3, #1
 800224a:	e04d      	b.n	80022e8 <HAL_I2C_Master_Transmit+0x1d8>
        }

        if (hi2c->XferCount > MAX_NBYTE_SIZE)
 800224c:	68fb      	ldr	r3, [r7, #12]
 800224e:	8d5b      	ldrh	r3, [r3, #42]	; 0x2a
 8002250:	b29b      	uxth	r3, r3
 8002252:	2bff      	cmp	r3, #255	; 0xff
 8002254:	d90e      	bls.n	8002274 <HAL_I2C_Master_Transmit+0x164>
        {
          hi2c->XferSize = MAX_NBYTE_SIZE;
 8002256:	68fb      	ldr	r3, [r7, #12]
 8002258:	22ff      	movs	r2, #255	; 0xff
 800225a:	851a      	strh	r2, [r3, #40]	; 0x28
          I2C_TransferConfig(hi2c, DevAddress, (uint8_t)hi2c->XferSize, I2C_RELOAD_MODE,
 800225c:	68fb      	ldr	r3, [r7, #12]
 800225e:	8d1b      	ldrh	r3, [r3, #40]	; 0x28
 8002260:	b2da      	uxtb	r2, r3
 8002262:	8979      	ldrh	r1, [r7, #10]
 8002264:	2300      	movs	r3, #0
 8002266:	9300      	str	r3, [sp, #0]
 8002268:	f04f 7380 	mov.w	r3, #16777216	; 0x1000000
 800226c:	68f8      	ldr	r0, [r7, #12]
 800226e:	f000 fa0f 	bl	8002690 <I2C_TransferConfig>
 8002272:	e00f      	b.n	8002294 <HAL_I2C_Master_Transmit+0x184>
                             I2C_NO_STARTSTOP);
        }
        else
        {
          hi2c->XferSize = hi2c->XferCount;
 8002274:	68fb      	ldr	r3, [r7, #12]
 8002276:	8d5b      	ldrh	r3, [r3, #42]	; 0x2a
 8002278:	b29a      	uxth	r2, r3
 800227a:	68fb      	ldr	r3, [r7, #12]
 800227c:	851a      	strh	r2, [r3, #40]	; 0x28
          I2C_TransferConfig(hi2c, DevAddress, (uint8_t)hi2c->XferSize, I2C_AUTOEND_MODE,
 800227e:	68fb      	ldr	r3, [r7, #12]
 8002280:	8d1b      	ldrh	r3, [r3, #40]	; 0x28
 8002282:	b2da      	uxtb	r2, r3
 8002284:	8979      	ldrh	r1, [r7, #10]
 8002286:	2300      	movs	r3, #0
 8002288:	9300      	str	r3, [sp, #0]
 800228a:	f04f 7300 	mov.w	r3, #33554432	; 0x2000000
 800228e:	68f8      	ldr	r0, [r7, #12]
 8002290:	f000 f9fe 	bl	8002690 <I2C_TransferConfig>
    while (hi2c->XferCount > 0U)
 8002294:	68fb      	ldr	r3, [r7, #12]
 8002296:	8d5b      	ldrh	r3, [r3, #42]	; 0x2a
 8002298:	b29b      	uxth	r3, r3
 800229a:	2b00      	cmp	r3, #0
 800229c:	d19e      	bne.n	80021dc <HAL_I2C_Master_Transmit+0xcc>
      }
    }

    /* No need to Check TC flag, with AUTOEND mode the stop is automatically generated */
    /* Wait until STOPF flag is set */
    if (I2C_WaitOnSTOPFlagUntilTimeout(hi2c, Timeout, tickstart) != HAL_OK)
 800229e:	697a      	ldr	r2, [r7, #20]
 80022a0:	6a39      	ldr	r1, [r7, #32]
 80022a2:	68f8      	ldr	r0, [r7, #12]
 80022a4:	f000 f8cc 	bl	8002440 <I2C_WaitOnSTOPFlagUntilTimeout>
 80022a8:	4603      	mov	r3, r0
 80022aa:	2b00      	cmp	r3, #0
 80022ac:	d001      	beq.n	80022b2 <HAL_I2C_Master_Transmit+0x1a2>
    {
      return HAL_ERROR;
 80022ae:	2301      	movs	r3, #1
 80022b0:	e01a      	b.n	80022e8 <HAL_I2C_Master_Transmit+0x1d8>
    }

    /* Clear STOP Flag */
    __HAL_I2C_CLEAR_FLAG(hi2c, I2C_FLAG_STOPF);
 80022b2:	68fb      	ldr	r3, [r7, #12]
 80022b4:	681b      	ldr	r3, [r3, #0]
 80022b6:	2220      	movs	r2, #32
 80022b8:	61da      	str	r2, [r3, #28]

    /* Clear Configuration Register 2 */
    I2C_RESET_CR2(hi2c);
 80022ba:	68fb      	ldr	r3, [r7, #12]
 80022bc:	681b      	ldr	r3, [r3, #0]
 80022be:	6859      	ldr	r1, [r3, #4]
 80022c0:	68fb      	ldr	r3, [r7, #12]
 80022c2:	681a      	ldr	r2, [r3, #0]
 80022c4:	4b0b      	ldr	r3, [pc, #44]	; (80022f4 <HAL_I2C_Master_Transmit+0x1e4>)
 80022c6:	400b      	ands	r3, r1
 80022c8:	6053      	str	r3, [r2, #4]

    hi2c->State = HAL_I2C_STATE_READY;
 80022ca:	68fb      	ldr	r3, [r7, #12]
 80022cc:	2220      	movs	r2, #32
 80022ce:	f883 2041 	strb.w	r2, [r3, #65]	; 0x41
    hi2c->Mode  = HAL_I2C_MODE_NONE;
 80022d2:	68fb      	ldr	r3, [r7, #12]
 80022d4:	2200      	movs	r2, #0
 80022d6:	f883 2042 	strb.w	r2, [r3, #66]	; 0x42

    /* Process Unlocked */
    __HAL_UNLOCK(hi2c);
 80022da:	68fb      	ldr	r3, [r7, #12]
 80022dc:	2200      	movs	r2, #0
 80022de:	f883 2040 	strb.w	r2, [r3, #64]	; 0x40

    return HAL_OK;
 80022e2:	2300      	movs	r3, #0
 80022e4:	e000      	b.n	80022e8 <HAL_I2C_Master_Transmit+0x1d8>
  }
  else
  {
    return HAL_BUSY;
 80022e6:	2302      	movs	r3, #2
  }
}
 80022e8:	4618      	mov	r0, r3
 80022ea:	3718      	adds	r7, #24
 80022ec:	46bd      	mov	sp, r7
 80022ee:	bd80      	pop	{r7, pc}
 80022f0:	80002000 	.word	0x80002000
 80022f4:	fe00e800 	.word	0xfe00e800

080022f8 <I2C_Flush_TXDR>:
  * @brief  I2C Tx data register flush process.
  * @param  hi2c I2C handle.
  * @retval None
  */
static void I2C_Flush_TXDR(I2C_HandleTypeDef *hi2c)
{
 80022f8:	b480      	push	{r7}
 80022fa:	b083      	sub	sp, #12
 80022fc:	af00      	add	r7, sp, #0
 80022fe:	6078      	str	r0, [r7, #4]
  /* If a pending TXIS flag is set */
  /* Write a dummy data in TXDR to clear it */
  if (__HAL_I2C_GET_FLAG(hi2c, I2C_FLAG_TXIS) != RESET)
 8002300:	687b      	ldr	r3, [r7, #4]
 8002302:	681b      	ldr	r3, [r3, #0]
 8002304:	699b      	ldr	r3, [r3, #24]
 8002306:	f003 0302 	and.w	r3, r3, #2
 800230a:	2b02      	cmp	r3, #2
 800230c:	d103      	bne.n	8002316 <I2C_Flush_TXDR+0x1e>
  {
    hi2c->Instance->TXDR = 0x00U;
 800230e:	687b      	ldr	r3, [r7, #4]
 8002310:	681b      	ldr	r3, [r3, #0]
 8002312:	2200      	movs	r2, #0
 8002314:	629a      	str	r2, [r3, #40]	; 0x28
  }

  /* Flush TX register if not empty */
  if (__HAL_I2C_GET_FLAG(hi2c, I2C_FLAG_TXE) == RESET)
 8002316:	687b      	ldr	r3, [r7, #4]
 8002318:	681b      	ldr	r3, [r3, #0]
 800231a:	699b      	ldr	r3, [r3, #24]
 800231c:	f003 0301 	and.w	r3, r3, #1
 8002320:	2b01      	cmp	r3, #1
 8002322:	d007      	beq.n	8002334 <I2C_Flush_TXDR+0x3c>
  {
    __HAL_I2C_CLEAR_FLAG(hi2c, I2C_FLAG_TXE);
 8002324:	687b      	ldr	r3, [r7, #4]
 8002326:	681b      	ldr	r3, [r3, #0]
 8002328:	699a      	ldr	r2, [r3, #24]
 800232a:	687b      	ldr	r3, [r7, #4]
 800232c:	681b      	ldr	r3, [r3, #0]
 800232e:	f042 0201 	orr.w	r2, r2, #1
 8002332:	619a      	str	r2, [r3, #24]
  }
}
 8002334:	bf00      	nop
 8002336:	370c      	adds	r7, #12
 8002338:	46bd      	mov	sp, r7
 800233a:	f85d 7b04 	ldr.w	r7, [sp], #4
 800233e:	4770      	bx	lr

08002340 <I2C_WaitOnFlagUntilTimeout>:
  * @param  Tickstart Tick start value
  * @retval HAL status
  */
static HAL_StatusTypeDef I2C_WaitOnFlagUntilTimeout(I2C_HandleTypeDef *hi2c, uint32_t Flag, FlagStatus Status,
                                                    uint32_t Timeout, uint32_t Tickstart)
{
 8002340:	b580      	push	{r7, lr}
 8002342:	b084      	sub	sp, #16
 8002344:	af00      	add	r7, sp, #0
 8002346:	60f8      	str	r0, [r7, #12]
 8002348:	60b9      	str	r1, [r7, #8]
 800234a:	603b      	str	r3, [r7, #0]
 800234c:	4613      	mov	r3, r2
 800234e:	71fb      	strb	r3, [r7, #7]
  while (__HAL_I2C_GET_FLAG(hi2c, Flag) == Status)
 8002350:	e022      	b.n	8002398 <I2C_WaitOnFlagUntilTimeout+0x58>
  {
    /* Check for the Timeout */
    if (Timeout != HAL_MAX_DELAY)
 8002352:	683b      	ldr	r3, [r7, #0]
 8002354:	f1b3 3fff 	cmp.w	r3, #4294967295
 8002358:	d01e      	beq.n	8002398 <I2C_WaitOnFlagUntilTimeout+0x58>
    {
      if (((HAL_GetTick() - Tickstart) > Timeout) || (Timeout == 0U))
 800235a:	f7fe fbbd 	bl	8000ad8 <HAL_GetTick>
 800235e:	4602      	mov	r2, r0
 8002360:	69bb      	ldr	r3, [r7, #24]
 8002362:	1ad3      	subs	r3, r2, r3
 8002364:	683a      	ldr	r2, [r7, #0]
 8002366:	429a      	cmp	r2, r3
 8002368:	d302      	bcc.n	8002370 <I2C_WaitOnFlagUntilTimeout+0x30>
 800236a:	683b      	ldr	r3, [r7, #0]
 800236c:	2b00      	cmp	r3, #0
 800236e:	d113      	bne.n	8002398 <I2C_WaitOnFlagUntilTimeout+0x58>
      {
        hi2c->ErrorCode |= HAL_I2C_ERROR_TIMEOUT;
 8002370:	68fb      	ldr	r3, [r7, #12]
 8002372:	6c5b      	ldr	r3, [r3, #68]	; 0x44
 8002374:	f043 0220 	orr.w	r2, r3, #32
 8002378:	68fb      	ldr	r3, [r7, #12]
 800237a:	645a      	str	r2, [r3, #68]	; 0x44
        hi2c->State = HAL_I2C_STATE_READY;
 800237c:	68fb      	ldr	r3, [r7, #12]
 800237e:	2220      	movs	r2, #32
 8002380:	f883 2041 	strb.w	r2, [r3, #65]	; 0x41
        hi2c->Mode = HAL_I2C_MODE_NONE;
 8002384:	68fb      	ldr	r3, [r7, #12]
 8002386:	2200      	movs	r2, #0
 8002388:	f883 2042 	strb.w	r2, [r3, #66]	; 0x42

        /* Process Unlocked */
        __HAL_UNLOCK(hi2c);
 800238c:	68fb      	ldr	r3, [r7, #12]
 800238e:	2200      	movs	r2, #0
 8002390:	f883 2040 	strb.w	r2, [r3, #64]	; 0x40
        return HAL_ERROR;
 8002394:	2301      	movs	r3, #1
 8002396:	e00f      	b.n	80023b8 <I2C_WaitOnFlagUntilTimeout+0x78>
  while (__HAL_I2C_GET_FLAG(hi2c, Flag) == Status)
 8002398:	68fb      	ldr	r3, [r7, #12]
 800239a:	681b      	ldr	r3, [r3, #0]
 800239c:	699a      	ldr	r2, [r3, #24]
 800239e:	68bb      	ldr	r3, [r7, #8]
 80023a0:	4013      	ands	r3, r2
 80023a2:	68ba      	ldr	r2, [r7, #8]
 80023a4:	429a      	cmp	r2, r3
 80023a6:	bf0c      	ite	eq
 80023a8:	2301      	moveq	r3, #1
 80023aa:	2300      	movne	r3, #0
 80023ac:	b2db      	uxtb	r3, r3
 80023ae:	461a      	mov	r2, r3
 80023b0:	79fb      	ldrb	r3, [r7, #7]
 80023b2:	429a      	cmp	r2, r3
 80023b4:	d0cd      	beq.n	8002352 <I2C_WaitOnFlagUntilTimeout+0x12>
      }
    }
  }
  return HAL_OK;
 80023b6:	2300      	movs	r3, #0
}
 80023b8:	4618      	mov	r0, r3
 80023ba:	3710      	adds	r7, #16
 80023bc:	46bd      	mov	sp, r7
 80023be:	bd80      	pop	{r7, pc}

080023c0 <I2C_WaitOnTXISFlagUntilTimeout>:
  * @param  Tickstart Tick start value
  * @retval HAL status
  */
static HAL_StatusTypeDef I2C_WaitOnTXISFlagUntilTimeout(I2C_HandleTypeDef *hi2c, uint32_t Timeout,
                                                        uint32_t Tickstart)
{
 80023c0:	b580      	push	{r7, lr}
 80023c2:	b084      	sub	sp, #16
 80023c4:	af00      	add	r7, sp, #0
 80023c6:	60f8      	str	r0, [r7, #12]
 80023c8:	60b9      	str	r1, [r7, #8]
 80023ca:	607a      	str	r2, [r7, #4]
  while (__HAL_I2C_GET_FLAG(hi2c, I2C_FLAG_TXIS) == RESET)
 80023cc:	e02c      	b.n	8002428 <I2C_WaitOnTXISFlagUntilTimeout+0x68>
  {
    /* Check if an error is detected */
    if (I2C_IsErrorOccurred(hi2c, Timeout, Tickstart) != HAL_OK)
 80023ce:	687a      	ldr	r2, [r7, #4]
 80023d0:	68b9      	ldr	r1, [r7, #8]
 80023d2:	68f8      	ldr	r0, [r7, #12]
 80023d4:	f000 f870 	bl	80024b8 <I2C_IsErrorOccurred>
 80023d8:	4603      	mov	r3, r0
 80023da:	2b00      	cmp	r3, #0
 80023dc:	d001      	beq.n	80023e2 <I2C_WaitOnTXISFlagUntilTimeout+0x22>
    {
      return HAL_ERROR;
 80023de:	2301      	movs	r3, #1
 80023e0:	e02a      	b.n	8002438 <I2C_WaitOnTXISFlagUntilTimeout+0x78>
    }

    /* Check for the Timeout */
    if (Timeout != HAL_MAX_DELAY)
 80023e2:	68bb      	ldr	r3, [r7, #8]
 80023e4:	f1b3 3fff 	cmp.w	r3, #4294967295
 80023e8:	d01e      	beq.n	8002428 <I2C_WaitOnTXISFlagUntilTimeout+0x68>
    {
      if (((HAL_GetTick() - Tickstart) > Timeout) || (Timeout == 0U))
 80023ea:	f7fe fb75 	bl	8000ad8 <HAL_GetTick>
 80023ee:	4602      	mov	r2, r0
 80023f0:	687b      	ldr	r3, [r7, #4]
 80023f2:	1ad3      	subs	r3, r2, r3
 80023f4:	68ba      	ldr	r2, [r7, #8]
 80023f6:	429a      	cmp	r2, r3
 80023f8:	d302      	bcc.n	8002400 <I2C_WaitOnTXISFlagUntilTimeout+0x40>
 80023fa:	68bb      	ldr	r3, [r7, #8]
 80023fc:	2b00      	cmp	r3, #0
 80023fe:	d113      	bne.n	8002428 <I2C_WaitOnTXISFlagUntilTimeout+0x68>
      {
        hi2c->ErrorCode |= HAL_I2C_ERROR_TIMEOUT;
 8002400:	68fb      	ldr	r3, [r7, #12]
 8002402:	6c5b      	ldr	r3, [r3, #68]	; 0x44
 8002404:	f043 0220 	orr.w	r2, r3, #32
 8002408:	68fb      	ldr	r3, [r7, #12]
 800240a:	645a      	str	r2, [r3, #68]	; 0x44
        hi2c->State = HAL_I2C_STATE_READY;
 800240c:	68fb      	ldr	r3, [r7, #12]
 800240e:	2220      	movs	r2, #32
 8002410:	f883 2041 	strb.w	r2, [r3, #65]	; 0x41
        hi2c->Mode = HAL_I2C_MODE_NONE;
 8002414:	68fb      	ldr	r3, [r7, #12]
 8002416:	2200      	movs	r2, #0
 8002418:	f883 2042 	strb.w	r2, [r3, #66]	; 0x42

        /* Process Unlocked */
        __HAL_UNLOCK(hi2c);
 800241c:	68fb      	ldr	r3, [r7, #12]
 800241e:	2200      	movs	r2, #0
 8002420:	f883 2040 	strb.w	r2, [r3, #64]	; 0x40

        return HAL_ERROR;
 8002424:	2301      	movs	r3, #1
 8002426:	e007      	b.n	8002438 <I2C_WaitOnTXISFlagUntilTimeout+0x78>
  while (__HAL_I2C_GET_FLAG(hi2c, I2C_FLAG_TXIS) == RESET)
 8002428:	68fb      	ldr	r3, [r7, #12]
 800242a:	681b      	ldr	r3, [r3, #0]
 800242c:	699b      	ldr	r3, [r3, #24]
 800242e:	f003 0302 	and.w	r3, r3, #2
 8002432:	2b02      	cmp	r3, #2
 8002434:	d1cb      	bne.n	80023ce <I2C_WaitOnTXISFlagUntilTimeout+0xe>
      }
    }
  }
  return HAL_OK;
 8002436:	2300      	movs	r3, #0
}
 8002438:	4618      	mov	r0, r3
 800243a:	3710      	adds	r7, #16
 800243c:	46bd      	mov	sp, r7
 800243e:	bd80      	pop	{r7, pc}

08002440 <I2C_WaitOnSTOPFlagUntilTimeout>:
  * @param  Tickstart Tick start value
  * @retval HAL status
  */
static HAL_StatusTypeDef I2C_WaitOnSTOPFlagUntilTimeout(I2C_HandleTypeDef *hi2c, uint32_t Timeout,
                                                        uint32_t Tickstart)
{
 8002440:	b580      	push	{r7, lr}
 8002442:	b084      	sub	sp, #16
 8002444:	af00      	add	r7, sp, #0
 8002446:	60f8      	str	r0, [r7, #12]
 8002448:	60b9      	str	r1, [r7, #8]
 800244a:	607a      	str	r2, [r7, #4]
  while (__HAL_I2C_GET_FLAG(hi2c, I2C_FLAG_STOPF) == RESET)
 800244c:	e028      	b.n	80024a0 <I2C_WaitOnSTOPFlagUntilTimeout+0x60>
  {
    /* Check if an error is detected */
    if (I2C_IsErrorOccurred(hi2c, Timeout, Tickstart) != HAL_OK)
 800244e:	687a      	ldr	r2, [r7, #4]
 8002450:	68b9      	ldr	r1, [r7, #8]
 8002452:	68f8      	ldr	r0, [r7, #12]
 8002454:	f000 f830 	bl	80024b8 <I2C_IsErrorOccurred>
 8002458:	4603      	mov	r3, r0
 800245a:	2b00      	cmp	r3, #0
 800245c:	d001      	beq.n	8002462 <I2C_WaitOnSTOPFlagUntilTimeout+0x22>
    {
      return HAL_ERROR;
 800245e:	2301      	movs	r3, #1
 8002460:	e026      	b.n	80024b0 <I2C_WaitOnSTOPFlagUntilTimeout+0x70>
    }

    /* Check for the Timeout */
    if (((HAL_GetTick() - Tickstart) > Timeout) || (Timeout == 0U))
 8002462:	f7fe fb39 	bl	8000ad8 <HAL_GetTick>
 8002466:	4602      	mov	r2, r0
 8002468:	687b      	ldr	r3, [r7, #4]
 800246a:	1ad3      	subs	r3, r2, r3
 800246c:	68ba      	ldr	r2, [r7, #8]
 800246e:	429a      	cmp	r2, r3
 8002470:	d302      	bcc.n	8002478 <I2C_WaitOnSTOPFlagUntilTimeout+0x38>
 8002472:	68bb      	ldr	r3, [r7, #8]
 8002474:	2b00      	cmp	r3, #0
 8002476:	d113      	bne.n	80024a0 <I2C_WaitOnSTOPFlagUntilTimeout+0x60>
    {
      hi2c->ErrorCode |= HAL_I2C_ERROR_TIMEOUT;
 8002478:	68fb      	ldr	r3, [r7, #12]
 800247a:	6c5b      	ldr	r3, [r3, #68]	; 0x44
 800247c:	f043 0220 	orr.w	r2, r3, #32
 8002480:	68fb      	ldr	r3, [r7, #12]
 8002482:	645a      	str	r2, [r3, #68]	; 0x44
      hi2c->State = HAL_I2C_STATE_READY;
 8002484:	68fb      	ldr	r3, [r7, #12]
 8002486:	2220      	movs	r2, #32
 8002488:	f883 2041 	strb.w	r2, [r3, #65]	; 0x41
      hi2c->Mode = HAL_I2C_MODE_NONE;
 800248c:	68fb      	ldr	r3, [r7, #12]
 800248e:	2200      	movs	r2, #0
 8002490:	f883 2042 	strb.w	r2, [r3, #66]	; 0x42

      /* Process Unlocked */
      __HAL_UNLOCK(hi2c);
 8002494:	68fb      	ldr	r3, [r7, #12]
 8002496:	2200      	movs	r2, #0
 8002498:	f883 2040 	strb.w	r2, [r3, #64]	; 0x40

      return HAL_ERROR;
 800249c:	2301      	movs	r3, #1
 800249e:	e007      	b.n	80024b0 <I2C_WaitOnSTOPFlagUntilTimeout+0x70>
  while (__HAL_I2C_GET_FLAG(hi2c, I2C_FLAG_STOPF) == RESET)
 80024a0:	68fb      	ldr	r3, [r7, #12]
 80024a2:	681b      	ldr	r3, [r3, #0]
 80024a4:	699b      	ldr	r3, [r3, #24]
 80024a6:	f003 0320 	and.w	r3, r3, #32
 80024aa:	2b20      	cmp	r3, #32
 80024ac:	d1cf      	bne.n	800244e <I2C_WaitOnSTOPFlagUntilTimeout+0xe>
    }
  }
  return HAL_OK;
 80024ae:	2300      	movs	r3, #0
}
 80024b0:	4618      	mov	r0, r3
 80024b2:	3710      	adds	r7, #16
 80024b4:	46bd      	mov	sp, r7
 80024b6:	bd80      	pop	{r7, pc}

080024b8 <I2C_IsErrorOccurred>:
  * @param  Timeout Timeout duration
  * @param  Tickstart Tick start value
  * @retval HAL status
  */
static HAL_StatusTypeDef I2C_IsErrorOccurred(I2C_HandleTypeDef *hi2c, uint32_t Timeout, uint32_t Tickstart)
{
 80024b8:	b580      	push	{r7, lr}
 80024ba:	b08a      	sub	sp, #40	; 0x28
 80024bc:	af00      	add	r7, sp, #0
 80024be:	60f8      	str	r0, [r7, #12]
 80024c0:	60b9      	str	r1, [r7, #8]
 80024c2:	607a      	str	r2, [r7, #4]
  HAL_StatusTypeDef status = HAL_OK;
 80024c4:	2300      	movs	r3, #0
 80024c6:	f887 3027 	strb.w	r3, [r7, #39]	; 0x27
  uint32_t itflag   = hi2c->Instance->ISR;
 80024ca:	68fb      	ldr	r3, [r7, #12]
 80024cc:	681b      	ldr	r3, [r3, #0]
 80024ce:	699b      	ldr	r3, [r3, #24]
 80024d0:	61bb      	str	r3, [r7, #24]
  uint32_t error_code = 0;
 80024d2:	2300      	movs	r3, #0
 80024d4:	623b      	str	r3, [r7, #32]
  uint32_t tickstart = Tickstart;
 80024d6:	687b      	ldr	r3, [r7, #4]
 80024d8:	61fb      	str	r3, [r7, #28]
  uint32_t tmp1;
  HAL_I2C_ModeTypeDef tmp2;

  if (HAL_IS_BIT_SET(itflag, I2C_FLAG_AF))
 80024da:	69bb      	ldr	r3, [r7, #24]
 80024dc:	f003 0310 	and.w	r3, r3, #16
 80024e0:	2b00      	cmp	r3, #0
 80024e2:	d075      	beq.n	80025d0 <I2C_IsErrorOccurred+0x118>
  {
    /* Clear NACKF Flag */
    __HAL_I2C_CLEAR_FLAG(hi2c, I2C_FLAG_AF);
 80024e4:	68fb      	ldr	r3, [r7, #12]
 80024e6:	681b      	ldr	r3, [r3, #0]
 80024e8:	2210      	movs	r2, #16
 80024ea:	61da      	str	r2, [r3, #28]

    /* Wait until STOP Flag is set or timeout occurred */
    /* AutoEnd should be initiate after AF */
    while ((__HAL_I2C_GET_FLAG(hi2c, I2C_FLAG_STOPF) == RESET) && (status == HAL_OK))
 80024ec:	e056      	b.n	800259c <I2C_IsErrorOccurred+0xe4>
    {
      /* Check for the Timeout */
      if (Timeout != HAL_MAX_DELAY)
 80024ee:	68bb      	ldr	r3, [r7, #8]
 80024f0:	f1b3 3fff 	cmp.w	r3, #4294967295
 80024f4:	d052      	beq.n	800259c <I2C_IsErrorOccurred+0xe4>
      {
        if (((HAL_GetTick() - tickstart) > Timeout) || (Timeout == 0U))
 80024f6:	f7fe faef 	bl	8000ad8 <HAL_GetTick>
 80024fa:	4602      	mov	r2, r0
 80024fc:	69fb      	ldr	r3, [r7, #28]
 80024fe:	1ad3      	subs	r3, r2, r3
 8002500:	68ba      	ldr	r2, [r7, #8]
 8002502:	429a      	cmp	r2, r3
 8002504:	d302      	bcc.n	800250c <I2C_IsErrorOccurred+0x54>
 8002506:	68bb      	ldr	r3, [r7, #8]
 8002508:	2b00      	cmp	r3, #0
 800250a:	d147      	bne.n	800259c <I2C_IsErrorOccurred+0xe4>
        {
          tmp1 = (uint32_t)(hi2c->Instance->CR2 & I2C_CR2_STOP);
 800250c:	68fb      	ldr	r3, [r7, #12]
 800250e:	681b      	ldr	r3, [r3, #0]
 8002510:	685b      	ldr	r3, [r3, #4]
 8002512:	f403 4380 	and.w	r3, r3, #16384	; 0x4000
 8002516:	617b      	str	r3, [r7, #20]
          tmp2 = hi2c->Mode;
 8002518:	68fb      	ldr	r3, [r7, #12]
 800251a:	f893 3042 	ldrb.w	r3, [r3, #66]	; 0x42
 800251e:	74fb      	strb	r3, [r7, #19]

          /* In case of I2C still busy, try to regenerate a STOP manually */
          if ((__HAL_I2C_GET_FLAG(hi2c, I2C_FLAG_BUSY) != RESET) && \
 8002520:	68fb      	ldr	r3, [r7, #12]
 8002522:	681b      	ldr	r3, [r3, #0]
 8002524:	699b      	ldr	r3, [r3, #24]
 8002526:	f403 4300 	and.w	r3, r3, #32768	; 0x8000
 800252a:	f5b3 4f00 	cmp.w	r3, #32768	; 0x8000
 800252e:	d12e      	bne.n	800258e <I2C_IsErrorOccurred+0xd6>
 8002530:	697b      	ldr	r3, [r7, #20]
 8002532:	f5b3 4f80 	cmp.w	r3, #16384	; 0x4000
 8002536:	d02a      	beq.n	800258e <I2C_IsErrorOccurred+0xd6>
              (tmp1 != I2C_CR2_STOP) && \
 8002538:	7cfb      	ldrb	r3, [r7, #19]
 800253a:	2b20      	cmp	r3, #32
 800253c:	d027      	beq.n	800258e <I2C_IsErrorOccurred+0xd6>
              (tmp2 != HAL_I2C_MODE_SLAVE))
          {
            /* Generate Stop */
            hi2c->Instance->CR2 |= I2C_CR2_STOP;
 800253e:	68fb      	ldr	r3, [r7, #12]
 8002540:	681b      	ldr	r3, [r3, #0]
 8002542:	685a      	ldr	r2, [r3, #4]
 8002544:	68fb      	ldr	r3, [r7, #12]
 8002546:	681b      	ldr	r3, [r3, #0]
 8002548:	f442 4280 	orr.w	r2, r2, #16384	; 0x4000
 800254c:	605a      	str	r2, [r3, #4]

            /* Update Tick with new reference */
            tickstart = HAL_GetTick();
 800254e:	f7fe fac3 	bl	8000ad8 <HAL_GetTick>
 8002552:	61f8      	str	r0, [r7, #28]
          }

          while (__HAL_I2C_GET_FLAG(hi2c, I2C_FLAG_STOPF) == RESET)
 8002554:	e01b      	b.n	800258e <I2C_IsErrorOccurred+0xd6>
          {
            /* Check for the Timeout */
            if ((HAL_GetTick() - tickstart) > I2C_TIMEOUT_STOPF)
 8002556:	f7fe fabf 	bl	8000ad8 <HAL_GetTick>
 800255a:	4602      	mov	r2, r0
 800255c:	69fb      	ldr	r3, [r7, #28]
 800255e:	1ad3      	subs	r3, r2, r3
 8002560:	2b19      	cmp	r3, #25
 8002562:	d914      	bls.n	800258e <I2C_IsErrorOccurred+0xd6>
            {
              hi2c->ErrorCode |= HAL_I2C_ERROR_TIMEOUT;
 8002564:	68fb      	ldr	r3, [r7, #12]
 8002566:	6c5b      	ldr	r3, [r3, #68]	; 0x44
 8002568:	f043 0220 	orr.w	r2, r3, #32
 800256c:	68fb      	ldr	r3, [r7, #12]
 800256e:	645a      	str	r2, [r3, #68]	; 0x44
              hi2c->State = HAL_I2C_STATE_READY;
 8002570:	68fb      	ldr	r3, [r7, #12]
 8002572:	2220      	movs	r2, #32
 8002574:	f883 2041 	strb.w	r2, [r3, #65]	; 0x41
              hi2c->Mode = HAL_I2C_MODE_NONE;
 8002578:	68fb      	ldr	r3, [r7, #12]
 800257a:	2200      	movs	r2, #0
 800257c:	f883 2042 	strb.w	r2, [r3, #66]	; 0x42

              /* Process Unlocked */
              __HAL_UNLOCK(hi2c);
 8002580:	68fb      	ldr	r3, [r7, #12]
 8002582:	2200      	movs	r2, #0
 8002584:	f883 2040 	strb.w	r2, [r3, #64]	; 0x40

              status = HAL_ERROR;
 8002588:	2301      	movs	r3, #1
 800258a:	f887 3027 	strb.w	r3, [r7, #39]	; 0x27
          while (__HAL_I2C_GET_FLAG(hi2c, I2C_FLAG_STOPF) == RESET)
 800258e:	68fb      	ldr	r3, [r7, #12]
 8002590:	681b      	ldr	r3, [r3, #0]
 8002592:	699b      	ldr	r3, [r3, #24]
 8002594:	f003 0320 	and.w	r3, r3, #32
 8002598:	2b20      	cmp	r3, #32
 800259a:	d1dc      	bne.n	8002556 <I2C_IsErrorOccurred+0x9e>
    while ((__HAL_I2C_GET_FLAG(hi2c, I2C_FLAG_STOPF) == RESET) && (status == HAL_OK))
 800259c:	68fb      	ldr	r3, [r7, #12]
 800259e:	681b      	ldr	r3, [r3, #0]
 80025a0:	699b      	ldr	r3, [r3, #24]
 80025a2:	f003 0320 	and.w	r3, r3, #32
 80025a6:	2b20      	cmp	r3, #32
 80025a8:	d003      	beq.n	80025b2 <I2C_IsErrorOccurred+0xfa>
 80025aa:	f897 3027 	ldrb.w	r3, [r7, #39]	; 0x27
 80025ae:	2b00      	cmp	r3, #0
 80025b0:	d09d      	beq.n	80024ee <I2C_IsErrorOccurred+0x36>
        }
      }
    }

    /* In case STOP Flag is detected, clear it */
    if (status == HAL_OK)
 80025b2:	f897 3027 	ldrb.w	r3, [r7, #39]	; 0x27
 80025b6:	2b00      	cmp	r3, #0
 80025b8:	d103      	bne.n	80025c2 <I2C_IsErrorOccurred+0x10a>
    {
      /* Clear STOP Flag */
      __HAL_I2C_CLEAR_FLAG(hi2c, I2C_FLAG_STOPF);
 80025ba:	68fb      	ldr	r3, [r7, #12]
 80025bc:	681b      	ldr	r3, [r3, #0]
 80025be:	2220      	movs	r2, #32
 80025c0:	61da      	str	r2, [r3, #28]
    }

    error_code |= HAL_I2C_ERROR_AF;
 80025c2:	6a3b      	ldr	r3, [r7, #32]
 80025c4:	f043 0304 	orr.w	r3, r3, #4
 80025c8:	623b      	str	r3, [r7, #32]

    status = HAL_ERROR;
 80025ca:	2301      	movs	r3, #1
 80025cc:	f887 3027 	strb.w	r3, [r7, #39]	; 0x27
  }

  /* Refresh Content of Status register */
  itflag = hi2c->Instance->ISR;
 80025d0:	68fb      	ldr	r3, [r7, #12]
 80025d2:	681b      	ldr	r3, [r3, #0]
 80025d4:	699b      	ldr	r3, [r3, #24]
 80025d6:	61bb      	str	r3, [r7, #24]

  /* Then verify if an additional errors occurs */
  /* Check if a Bus error occurred */
  if (HAL_IS_BIT_SET(itflag, I2C_FLAG_BERR))
 80025d8:	69bb      	ldr	r3, [r7, #24]
 80025da:	f403 7380 	and.w	r3, r3, #256	; 0x100
 80025de:	2b00      	cmp	r3, #0
 80025e0:	d00b      	beq.n	80025fa <I2C_IsErrorOccurred+0x142>
  {
    error_code |= HAL_I2C_ERROR_BERR;
 80025e2:	6a3b      	ldr	r3, [r7, #32]
 80025e4:	f043 0301 	orr.w	r3, r3, #1
 80025e8:	623b      	str	r3, [r7, #32]

    /* Clear BERR flag */
    __HAL_I2C_CLEAR_FLAG(hi2c, I2C_FLAG_BERR);
 80025ea:	68fb      	ldr	r3, [r7, #12]
 80025ec:	681b      	ldr	r3, [r3, #0]
 80025ee:	f44f 7280 	mov.w	r2, #256	; 0x100
 80025f2:	61da      	str	r2, [r3, #28]

    status = HAL_ERROR;
 80025f4:	2301      	movs	r3, #1
 80025f6:	f887 3027 	strb.w	r3, [r7, #39]	; 0x27
  }

  /* Check if an Over-Run/Under-Run error occurred */
  if (HAL_IS_BIT_SET(itflag, I2C_FLAG_OVR))
 80025fa:	69bb      	ldr	r3, [r7, #24]
 80025fc:	f403 6380 	and.w	r3, r3, #1024	; 0x400
 8002600:	2b00      	cmp	r3, #0
 8002602:	d00b      	beq.n	800261c <I2C_IsErrorOccurred+0x164>
  {
    error_code |= HAL_I2C_ERROR_OVR;
 8002604:	6a3b      	ldr	r3, [r7, #32]
 8002606:	f043 0308 	orr.w	r3, r3, #8
 800260a:	623b      	str	r3, [r7, #32]

    /* Clear OVR flag */
    __HAL_I2C_CLEAR_FLAG(hi2c, I2C_FLAG_OVR);
 800260c:	68fb      	ldr	r3, [r7, #12]
 800260e:	681b      	ldr	r3, [r3, #0]
 8002610:	f44f 6280 	mov.w	r2, #1024	; 0x400
 8002614:	61da      	str	r2, [r3, #28]

    status = HAL_ERROR;
 8002616:	2301      	movs	r3, #1
 8002618:	f887 3027 	strb.w	r3, [r7, #39]	; 0x27
  }

  /* Check if an Arbitration Loss error occurred */
  if (HAL_IS_BIT_SET(itflag, I2C_FLAG_ARLO))
 800261c:	69bb      	ldr	r3, [r7, #24]
 800261e:	f403 7300 	and.w	r3, r3, #512	; 0x200
 8002622:	2b00      	cmp	r3, #0
 8002624:	d00b      	beq.n	800263e <I2C_IsErrorOccurred+0x186>
  {
    error_code |= HAL_I2C_ERROR_ARLO;
 8002626:	6a3b      	ldr	r3, [r7, #32]
 8002628:	f043 0302 	orr.w	r3, r3, #2
 800262c:	623b      	str	r3, [r7, #32]

    /* Clear ARLO flag */
    __HAL_I2C_CLEAR_FLAG(hi2c, I2C_FLAG_ARLO);
 800262e:	68fb      	ldr	r3, [r7, #12]
 8002630:	681b      	ldr	r3, [r3, #0]
 8002632:	f44f 7200 	mov.w	r2, #512	; 0x200
 8002636:	61da      	str	r2, [r3, #28]

    status = HAL_ERROR;
 8002638:	2301      	movs	r3, #1
 800263a:	f887 3027 	strb.w	r3, [r7, #39]	; 0x27
  }

  if (status != HAL_OK)
 800263e:	f897 3027 	ldrb.w	r3, [r7, #39]	; 0x27
 8002642:	2b00      	cmp	r3, #0
 8002644:	d01c      	beq.n	8002680 <I2C_IsErrorOccurred+0x1c8>
  {
    /* Flush TX register */
    I2C_Flush_TXDR(hi2c);
 8002646:	68f8      	ldr	r0, [r7, #12]
 8002648:	f7ff fe56 	bl	80022f8 <I2C_Flush_TXDR>

    /* Clear Configuration Register 2 */
    I2C_RESET_CR2(hi2c);
 800264c:	68fb      	ldr	r3, [r7, #12]
 800264e:	681b      	ldr	r3, [r3, #0]
 8002650:	6859      	ldr	r1, [r3, #4]
 8002652:	68fb      	ldr	r3, [r7, #12]
 8002654:	681a      	ldr	r2, [r3, #0]
 8002656:	4b0d      	ldr	r3, [pc, #52]	; (800268c <I2C_IsErrorOccurred+0x1d4>)
 8002658:	400b      	ands	r3, r1
 800265a:	6053      	str	r3, [r2, #4]

    hi2c->ErrorCode |= error_code;
 800265c:	68fb      	ldr	r3, [r7, #12]
 800265e:	6c5a      	ldr	r2, [r3, #68]	; 0x44
 8002660:	6a3b      	ldr	r3, [r7, #32]
 8002662:	431a      	orrs	r2, r3
 8002664:	68fb      	ldr	r3, [r7, #12]
 8002666:	645a      	str	r2, [r3, #68]	; 0x44
    hi2c->State = HAL_I2C_STATE_READY;
 8002668:	68fb      	ldr	r3, [r7, #12]
 800266a:	2220      	movs	r2, #32
 800266c:	f883 2041 	strb.w	r2, [r3, #65]	; 0x41
    hi2c->Mode = HAL_I2C_MODE_NONE;
 8002670:	68fb      	ldr	r3, [r7, #12]
 8002672:	2200      	movs	r2, #0
 8002674:	f883 2042 	strb.w	r2, [r3, #66]	; 0x42

    /* Process Unlocked */
    __HAL_UNLOCK(hi2c);
 8002678:	68fb      	ldr	r3, [r7, #12]
 800267a:	2200      	movs	r2, #0
 800267c:	f883 2040 	strb.w	r2, [r3, #64]	; 0x40
  }

  return status;
 8002680:	f897 3027 	ldrb.w	r3, [r7, #39]	; 0x27
}
 8002684:	4618      	mov	r0, r3
 8002686:	3728      	adds	r7, #40	; 0x28
 8002688:	46bd      	mov	sp, r7
 800268a:	bd80      	pop	{r7, pc}
 800268c:	fe00e800 	.word	0xfe00e800

08002690 <I2C_TransferConfig>:
  *     @arg @ref I2C_GENERATE_START_WRITE Generate Restart for write request.
  * @retval None
  */
static void I2C_TransferConfig(I2C_HandleTypeDef *hi2c, uint16_t DevAddress, uint8_t Size, uint32_t Mode,
                               uint32_t Request)
{
 8002690:	b480      	push	{r7}
 8002692:	b087      	sub	sp, #28
 8002694:	af00      	add	r7, sp, #0
 8002696:	60f8      	str	r0, [r7, #12]
 8002698:	607b      	str	r3, [r7, #4]
 800269a:	460b      	mov	r3, r1
 800269c:	817b      	strh	r3, [r7, #10]
 800269e:	4613      	mov	r3, r2
 80026a0:	727b      	strb	r3, [r7, #9]
  assert_param(IS_I2C_ALL_INSTANCE(hi2c->Instance));
  assert_param(IS_TRANSFER_MODE(Mode));
  assert_param(IS_TRANSFER_REQUEST(Request));

  /* Declaration of tmp to prevent undefined behavior of volatile usage */
  uint32_t tmp = ((uint32_t)(((uint32_t)DevAddress & I2C_CR2_SADD) | \
 80026a2:	897b      	ldrh	r3, [r7, #10]
 80026a4:	f3c3 0209 	ubfx	r2, r3, #0, #10
                             (((uint32_t)Size << I2C_CR2_NBYTES_Pos) & I2C_CR2_NBYTES) | \
 80026a8:	7a7b      	ldrb	r3, [r7, #9]
 80026aa:	041b      	lsls	r3, r3, #16
 80026ac:	f403 037f 	and.w	r3, r3, #16711680	; 0xff0000
  uint32_t tmp = ((uint32_t)(((uint32_t)DevAddress & I2C_CR2_SADD) | \
 80026b0:	431a      	orrs	r2, r3
                             (((uint32_t)Size << I2C_CR2_NBYTES_Pos) & I2C_CR2_NBYTES) | \
 80026b2:	687b      	ldr	r3, [r7, #4]
 80026b4:	431a      	orrs	r2, r3
  uint32_t tmp = ((uint32_t)(((uint32_t)DevAddress & I2C_CR2_SADD) | \
 80026b6:	6a3b      	ldr	r3, [r7, #32]
 80026b8:	4313      	orrs	r3, r2
 80026ba:	f023 4300 	bic.w	r3, r3, #2147483648	; 0x80000000
 80026be:	617b      	str	r3, [r7, #20]
                             (uint32_t)Mode | (uint32_t)Request) & (~0x80000000U));

  /* update CR2 register */
  MODIFY_REG(hi2c->Instance->CR2, \
 80026c0:	68fb      	ldr	r3, [r7, #12]
 80026c2:	681b      	ldr	r3, [r3, #0]
 80026c4:	685a      	ldr	r2, [r3, #4]
 80026c6:	6a3b      	ldr	r3, [r7, #32]
 80026c8:	0d5b      	lsrs	r3, r3, #21
 80026ca:	f403 6180 	and.w	r1, r3, #1024	; 0x400
 80026ce:	4b08      	ldr	r3, [pc, #32]	; (80026f0 <I2C_TransferConfig+0x60>)
 80026d0:	430b      	orrs	r3, r1
 80026d2:	43db      	mvns	r3, r3
 80026d4:	ea02 0103 	and.w	r1, r2, r3
 80026d8:	68fb      	ldr	r3, [r7, #12]
 80026da:	681b      	ldr	r3, [r3, #0]
 80026dc:	697a      	ldr	r2, [r7, #20]
 80026de:	430a      	orrs	r2, r1
 80026e0:	605a      	str	r2, [r3, #4]
             ((I2C_CR2_SADD | I2C_CR2_NBYTES | I2C_CR2_RELOAD | I2C_CR2_AUTOEND | \
               (I2C_CR2_RD_WRN & (uint32_t)(Request >> (31U - I2C_CR2_RD_WRN_Pos))) | \
               I2C_CR2_START | I2C_CR2_STOP)), tmp);
}
 80026e2:	bf00      	nop
 80026e4:	371c      	adds	r7, #28
 80026e6:	46bd      	mov	sp, r7
 80026e8:	f85d 7b04 	ldr.w	r7, [sp], #4
 80026ec:	4770      	bx	lr
 80026ee:	bf00      	nop
 80026f0:	03ff63ff 	.word	0x03ff63ff

080026f4 <HAL_I2CEx_ConfigAnalogFilter>:
  *                the configuration information for the specified I2Cx peripheral.
  * @param  AnalogFilter New state of the Analog filter.
  * @retval HAL status
  */
HAL_StatusTypeDef HAL_I2CEx_ConfigAnalogFilter(I2C_HandleTypeDef *hi2c, uint32_t AnalogFilter)
{
 80026f4:	b480      	push	{r7}
 80026f6:	b083      	sub	sp, #12
 80026f8:	af00      	add	r7, sp, #0
 80026fa:	6078      	str	r0, [r7, #4]
 80026fc:	6039      	str	r1, [r7, #0]
  /* Check the parameters */
  assert_param(IS_I2C_ALL_INSTANCE(hi2c->Instance));
  assert_param(IS_I2C_ANALOG_FILTER(AnalogFilter));

  if (hi2c->State == HAL_I2C_STATE_READY)
 80026fe:	687b      	ldr	r3, [r7, #4]
 8002700:	f893 3041 	ldrb.w	r3, [r3, #65]	; 0x41
 8002704:	b2db      	uxtb	r3, r3
 8002706:	2b20      	cmp	r3, #32
 8002708:	d138      	bne.n	800277c <HAL_I2CEx_ConfigAnalogFilter+0x88>
  {
    /* Process Locked */
    __HAL_LOCK(hi2c);
 800270a:	687b      	ldr	r3, [r7, #4]
 800270c:	f893 3040 	ldrb.w	r3, [r3, #64]	; 0x40
 8002710:	2b01      	cmp	r3, #1
 8002712:	d101      	bne.n	8002718 <HAL_I2CEx_ConfigAnalogFilter+0x24>
 8002714:	2302      	movs	r3, #2
 8002716:	e032      	b.n	800277e <HAL_I2CEx_ConfigAnalogFilter+0x8a>
 8002718:	687b      	ldr	r3, [r7, #4]
 800271a:	2201      	movs	r2, #1
 800271c:	f883 2040 	strb.w	r2, [r3, #64]	; 0x40

    hi2c->State = HAL_I2C_STATE_BUSY;
 8002720:	687b      	ldr	r3, [r7, #4]
 8002722:	2224      	movs	r2, #36	; 0x24
 8002724:	f883 2041 	strb.w	r2, [r3, #65]	; 0x41

    /* Disable the selected I2C peripheral */
    __HAL_I2C_DISABLE(hi2c);
 8002728:	687b      	ldr	r3, [r7, #4]
 800272a:	681b      	ldr	r3, [r3, #0]
 800272c:	681a      	ldr	r2, [r3, #0]
 800272e:	687b      	ldr	r3, [r7, #4]
 8002730:	681b      	ldr	r3, [r3, #0]
 8002732:	f022 0201 	bic.w	r2, r2, #1
 8002736:	601a      	str	r2, [r3, #0]

    /* Reset I2Cx ANOFF bit */
    hi2c->Instance->CR1 &= ~(I2C_CR1_ANFOFF);
 8002738:	687b      	ldr	r3, [r7, #4]
 800273a:	681b      	ldr	r3, [r3, #0]
 800273c:	681a      	ldr	r2, [r3, #0]
 800273e:	687b      	ldr	r3, [r7, #4]
 8002740:	681b      	ldr	r3, [r3, #0]
 8002742:	f422 5280 	bic.w	r2, r2, #4096	; 0x1000
 8002746:	601a      	str	r2, [r3, #0]

    /* Set analog filter bit*/
    hi2c->Instance->CR1 |= AnalogFilter;
 8002748:	687b      	ldr	r3, [r7, #4]
 800274a:	681b      	ldr	r3, [r3, #0]
 800274c:	6819      	ldr	r1, [r3, #0]
 800274e:	687b      	ldr	r3, [r7, #4]
 8002750:	681b      	ldr	r3, [r3, #0]
 8002752:	683a      	ldr	r2, [r7, #0]
 8002754:	430a      	orrs	r2, r1
 8002756:	601a      	str	r2, [r3, #0]

    __HAL_I2C_ENABLE(hi2c);
 8002758:	687b      	ldr	r3, [r7, #4]
 800275a:	681b      	ldr	r3, [r3, #0]
 800275c:	681a      	ldr	r2, [r3, #0]
 800275e:	687b      	ldr	r3, [r7, #4]
 8002760:	681b      	ldr	r3, [r3, #0]
 8002762:	f042 0201 	orr.w	r2, r2, #1
 8002766:	601a      	str	r2, [r3, #0]

    hi2c->State = HAL_I2C_STATE_READY;
 8002768:	687b      	ldr	r3, [r7, #4]
 800276a:	2220      	movs	r2, #32
 800276c:	f883 2041 	strb.w	r2, [r3, #65]	; 0x41

    /* Process Unlocked */
    __HAL_UNLOCK(hi2c);
 8002770:	687b      	ldr	r3, [r7, #4]
 8002772:	2200      	movs	r2, #0
 8002774:	f883 2040 	strb.w	r2, [r3, #64]	; 0x40

    return HAL_OK;
 8002778:	2300      	movs	r3, #0
 800277a:	e000      	b.n	800277e <HAL_I2CEx_ConfigAnalogFilter+0x8a>
  }
  else
  {
    return HAL_BUSY;
 800277c:	2302      	movs	r3, #2
  }
}
 800277e:	4618      	mov	r0, r3
 8002780:	370c      	adds	r7, #12
 8002782:	46bd      	mov	sp, r7
 8002784:	f85d 7b04 	ldr.w	r7, [sp], #4
 8002788:	4770      	bx	lr

0800278a <HAL_I2CEx_ConfigDigitalFilter>:
  *                the configuration information for the specified I2Cx peripheral.
  * @param  DigitalFilter Coefficient of digital noise filter between Min_Data=0x00 and Max_Data=0x0F.
  * @retval HAL status
  */
HAL_StatusTypeDef HAL_I2CEx_ConfigDigitalFilter(I2C_HandleTypeDef *hi2c, uint32_t DigitalFilter)
{
 800278a:	b480      	push	{r7}
 800278c:	b085      	sub	sp, #20
 800278e:	af00      	add	r7, sp, #0
 8002790:	6078      	str	r0, [r7, #4]
 8002792:	6039      	str	r1, [r7, #0]

  /* Check the parameters */
  assert_param(IS_I2C_ALL_INSTANCE(hi2c->Instance));
  assert_param(IS_I2C_DIGITAL_FILTER(DigitalFilter));

  if (hi2c->State == HAL_I2C_STATE_READY)
 8002794:	687b      	ldr	r3, [r7, #4]
 8002796:	f893 3041 	ldrb.w	r3, [r3, #65]	; 0x41
 800279a:	b2db      	uxtb	r3, r3
 800279c:	2b20      	cmp	r3, #32
 800279e:	d139      	bne.n	8002814 <HAL_I2CEx_ConfigDigitalFilter+0x8a>
  {
    /* Process Locked */
    __HAL_LOCK(hi2c);
 80027a0:	687b      	ldr	r3, [r7, #4]
 80027a2:	f893 3040 	ldrb.w	r3, [r3, #64]	; 0x40
 80027a6:	2b01      	cmp	r3, #1
 80027a8:	d101      	bne.n	80027ae <HAL_I2CEx_ConfigDigitalFilter+0x24>
 80027aa:	2302      	movs	r3, #2
 80027ac:	e033      	b.n	8002816 <HAL_I2CEx_ConfigDigitalFilter+0x8c>
 80027ae:	687b      	ldr	r3, [r7, #4]
 80027b0:	2201      	movs	r2, #1
 80027b2:	f883 2040 	strb.w	r2, [r3, #64]	; 0x40

    hi2c->State = HAL_I2C_STATE_BUSY;
 80027b6:	687b      	ldr	r3, [r7, #4]
 80027b8:	2224      	movs	r2, #36	; 0x24
 80027ba:	f883 2041 	strb.w	r2, [r3, #65]	; 0x41

    /* Disable the selected I2C peripheral */
    __HAL_I2C_DISABLE(hi2c);
 80027be:	687b      	ldr	r3, [r7, #4]
 80027c0:	681b      	ldr	r3, [r3, #0]
 80027c2:	681a      	ldr	r2, [r3, #0]
 80027c4:	687b      	ldr	r3, [r7, #4]
 80027c6:	681b      	ldr	r3, [r3, #0]
 80027c8:	f022 0201 	bic.w	r2, r2, #1
 80027cc:	601a      	str	r2, [r3, #0]

    /* Get the old register value */
    tmpreg = hi2c->Instance->CR1;
 80027ce:	687b      	ldr	r3, [r7, #4]
 80027d0:	681b      	ldr	r3, [r3, #0]
 80027d2:	681b      	ldr	r3, [r3, #0]
 80027d4:	60fb      	str	r3, [r7, #12]

    /* Reset I2Cx DNF bits [11:8] */
    tmpreg &= ~(I2C_CR1_DNF);
 80027d6:	68fb      	ldr	r3, [r7, #12]
 80027d8:	f423 6370 	bic.w	r3, r3, #3840	; 0xf00
 80027dc:	60fb      	str	r3, [r7, #12]

    /* Set I2Cx DNF coefficient */
    tmpreg |= DigitalFilter << 8U;
 80027de:	683b      	ldr	r3, [r7, #0]
 80027e0:	021b      	lsls	r3, r3, #8
 80027e2:	68fa      	ldr	r2, [r7, #12]
 80027e4:	4313      	orrs	r3, r2
 80027e6:	60fb      	str	r3, [r7, #12]

    /* Store the new register value */
    hi2c->Instance->CR1 = tmpreg;
 80027e8:	687b      	ldr	r3, [r7, #4]
 80027ea:	681b      	ldr	r3, [r3, #0]
 80027ec:	68fa      	ldr	r2, [r7, #12]
 80027ee:	601a      	str	r2, [r3, #0]

    __HAL_I2C_ENABLE(hi2c);
 80027f0:	687b      	ldr	r3, [r7, #4]
 80027f2:	681b      	ldr	r3, [r3, #0]
 80027f4:	681a      	ldr	r2, [r3, #0]
 80027f6:	687b      	ldr	r3, [r7, #4]
 80027f8:	681b      	ldr	r3, [r3, #0]
 80027fa:	f042 0201 	orr.w	r2, r2, #1
 80027fe:	601a      	str	r2, [r3, #0]

    hi2c->State = HAL_I2C_STATE_READY;
 8002800:	687b      	ldr	r3, [r7, #4]
 8002802:	2220      	movs	r2, #32
 8002804:	f883 2041 	strb.w	r2, [r3, #65]	; 0x41

    /* Process Unlocked */
    __HAL_UNLOCK(hi2c);
 8002808:	687b      	ldr	r3, [r7, #4]
 800280a:	2200      	movs	r2, #0
 800280c:	f883 2040 	strb.w	r2, [r3, #64]	; 0x40

    return HAL_OK;
 8002810:	2300      	movs	r3, #0
 8002812:	e000      	b.n	8002816 <HAL_I2CEx_ConfigDigitalFilter+0x8c>
  }
  else
  {
    return HAL_BUSY;
 8002814:	2302      	movs	r3, #2
  }
}
 8002816:	4618      	mov	r0, r3
 8002818:	3714      	adds	r7, #20
 800281a:	46bd      	mov	sp, r7
 800281c:	f85d 7b04 	ldr.w	r7, [sp], #4
 8002820:	4770      	bx	lr
	...

08002824 <HAL_PWREx_GetVoltageRange>:
  * @brief Return Voltage Scaling Range.
  * @retval VOS bit field (PWR_REGULATOR_VOLTAGE_SCALE1 or PWR_REGULATOR_VOLTAGE_SCALE2
  *         or PWR_REGULATOR_VOLTAGE_SCALE1_BOOST when applicable)
  */
uint32_t HAL_PWREx_GetVoltageRange(void)
{
 8002824:	b480      	push	{r7}
 8002826:	af00      	add	r7, sp, #0
    else
    {
      return PWR_REGULATOR_VOLTAGE_SCALE1_BOOST;
    }
#else
  return  (PWR->CR1 & PWR_CR1_VOS);
 8002828:	4b04      	ldr	r3, [pc, #16]	; (800283c <HAL_PWREx_GetVoltageRange+0x18>)
 800282a:	681b      	ldr	r3, [r3, #0]
 800282c:	f403 63c0 	and.w	r3, r3, #1536	; 0x600
#endif
}
 8002830:	4618      	mov	r0, r3
 8002832:	46bd      	mov	sp, r7
 8002834:	f85d 7b04 	ldr.w	r7, [sp], #4
 8002838:	4770      	bx	lr
 800283a:	bf00      	nop
 800283c:	40007000 	.word	0x40007000

08002840 <HAL_PWREx_ControlVoltageScaling>:
  *        cleared before returning the status. If the flag is not cleared within
  *        50 microseconds, HAL_TIMEOUT status is reported.
  * @retval HAL Status
  */
HAL_StatusTypeDef HAL_PWREx_ControlVoltageScaling(uint32_t VoltageScaling)
{
 8002840:	b480      	push	{r7}
 8002842:	b085      	sub	sp, #20
 8002844:	af00      	add	r7, sp, #0
 8002846:	6078      	str	r0, [r7, #4]
  }

#else

  /* If Set Range 1 */
  if (VoltageScaling == PWR_REGULATOR_VOLTAGE_SCALE1)
 8002848:	687b      	ldr	r3, [r7, #4]
 800284a:	f5b3 7f00 	cmp.w	r3, #512	; 0x200
 800284e:	d130      	bne.n	80028b2 <HAL_PWREx_ControlVoltageScaling+0x72>
  {
    if (READ_BIT(PWR->CR1, PWR_CR1_VOS) != PWR_REGULATOR_VOLTAGE_SCALE1)
 8002850:	4b23      	ldr	r3, [pc, #140]	; (80028e0 <HAL_PWREx_ControlVoltageScaling+0xa0>)
 8002852:	681b      	ldr	r3, [r3, #0]
 8002854:	f403 63c0 	and.w	r3, r3, #1536	; 0x600
 8002858:	f5b3 7f00 	cmp.w	r3, #512	; 0x200
 800285c:	d038      	beq.n	80028d0 <HAL_PWREx_ControlVoltageScaling+0x90>
    {
      /* Set Range 1 */
      MODIFY_REG(PWR->CR1, PWR_CR1_VOS, PWR_REGULATOR_VOLTAGE_SCALE1);
 800285e:	4b20      	ldr	r3, [pc, #128]	; (80028e0 <HAL_PWREx_ControlVoltageScaling+0xa0>)
 8002860:	681b      	ldr	r3, [r3, #0]
 8002862:	f423 63c0 	bic.w	r3, r3, #1536	; 0x600
 8002866:	4a1e      	ldr	r2, [pc, #120]	; (80028e0 <HAL_PWREx_ControlVoltageScaling+0xa0>)
 8002868:	f443 7300 	orr.w	r3, r3, #512	; 0x200
 800286c:	6013      	str	r3, [r2, #0]

      /* Wait until VOSF is cleared */
      wait_loop_index = ((PWR_FLAG_SETTING_DELAY_US * SystemCoreClock) / 1000000U) + 1U;
 800286e:	4b1d      	ldr	r3, [pc, #116]	; (80028e4 <HAL_PWREx_ControlVoltageScaling+0xa4>)
 8002870:	681b      	ldr	r3, [r3, #0]
 8002872:	2232      	movs	r2, #50	; 0x32
 8002874:	fb02 f303 	mul.w	r3, r2, r3
 8002878:	4a1b      	ldr	r2, [pc, #108]	; (80028e8 <HAL_PWREx_ControlVoltageScaling+0xa8>)
 800287a:	fba2 2303 	umull	r2, r3, r2, r3
 800287e:	0c9b      	lsrs	r3, r3, #18
 8002880:	3301      	adds	r3, #1
 8002882:	60fb      	str	r3, [r7, #12]
      while ((HAL_IS_BIT_SET(PWR->SR2, PWR_SR2_VOSF)) && (wait_loop_index != 0U))
 8002884:	e002      	b.n	800288c <HAL_PWREx_ControlVoltageScaling+0x4c>
      {
        wait_loop_index--;
 8002886:	68fb      	ldr	r3, [r7, #12]
 8002888:	3b01      	subs	r3, #1
 800288a:	60fb      	str	r3, [r7, #12]
      while ((HAL_IS_BIT_SET(PWR->SR2, PWR_SR2_VOSF)) && (wait_loop_index != 0U))
 800288c:	4b14      	ldr	r3, [pc, #80]	; (80028e0 <HAL_PWREx_ControlVoltageScaling+0xa0>)
 800288e:	695b      	ldr	r3, [r3, #20]
 8002890:	f403 6380 	and.w	r3, r3, #1024	; 0x400
 8002894:	f5b3 6f80 	cmp.w	r3, #1024	; 0x400
 8002898:	d102      	bne.n	80028a0 <HAL_PWREx_ControlVoltageScaling+0x60>
 800289a:	68fb      	ldr	r3, [r7, #12]
 800289c:	2b00      	cmp	r3, #0
 800289e:	d1f2      	bne.n	8002886 <HAL_PWREx_ControlVoltageScaling+0x46>
      }
      if (HAL_IS_BIT_SET(PWR->SR2, PWR_SR2_VOSF))
 80028a0:	4b0f      	ldr	r3, [pc, #60]	; (80028e0 <HAL_PWREx_ControlVoltageScaling+0xa0>)
 80028a2:	695b      	ldr	r3, [r3, #20]
 80028a4:	f403 6380 	and.w	r3, r3, #1024	; 0x400
 80028a8:	f5b3 6f80 	cmp.w	r3, #1024	; 0x400
 80028ac:	d110      	bne.n	80028d0 <HAL_PWREx_ControlVoltageScaling+0x90>
      {
        return HAL_TIMEOUT;
 80028ae:	2303      	movs	r3, #3
 80028b0:	e00f      	b.n	80028d2 <HAL_PWREx_ControlVoltageScaling+0x92>
      }
    }
  }
  else
  {
    if (READ_BIT(PWR->CR1, PWR_CR1_VOS) != PWR_REGULATOR_VOLTAGE_SCALE2)
 80028b2:	4b0b      	ldr	r3, [pc, #44]	; (80028e0 <HAL_PWREx_ControlVoltageScaling+0xa0>)
 80028b4:	681b      	ldr	r3, [r3, #0]
 80028b6:	f403 63c0 	and.w	r3, r3, #1536	; 0x600
 80028ba:	f5b3 6f80 	cmp.w	r3, #1024	; 0x400
 80028be:	d007      	beq.n	80028d0 <HAL_PWREx_ControlVoltageScaling+0x90>
    {
      /* Set Range 2 */
      MODIFY_REG(PWR->CR1, PWR_CR1_VOS, PWR_REGULATOR_VOLTAGE_SCALE2);
 80028c0:	4b07      	ldr	r3, [pc, #28]	; (80028e0 <HAL_PWREx_ControlVoltageScaling+0xa0>)
 80028c2:	681b      	ldr	r3, [r3, #0]
 80028c4:	f423 63c0 	bic.w	r3, r3, #1536	; 0x600
 80028c8:	4a05      	ldr	r2, [pc, #20]	; (80028e0 <HAL_PWREx_ControlVoltageScaling+0xa0>)
 80028ca:	f443 6380 	orr.w	r3, r3, #1024	; 0x400
 80028ce:	6013      	str	r3, [r2, #0]
      /* No need to wait for VOSF to be cleared for this transition */
    }
  }
#endif

  return HAL_OK;
 80028d0:	2300      	movs	r3, #0
}
 80028d2:	4618      	mov	r0, r3
 80028d4:	3714      	adds	r7, #20
 80028d6:	46bd      	mov	sp, r7
 80028d8:	f85d 7b04 	ldr.w	r7, [sp], #4
 80028dc:	4770      	bx	lr
 80028de:	bf00      	nop
 80028e0:	40007000 	.word	0x40007000
 80028e4:	20000000 	.word	0x20000000
 80028e8:	431bde83 	.word	0x431bde83

080028ec <HAL_RCC_OscConfig>:
  *         supported by this macro. User should request a transition to HSE Off
  *         first and then HSE On or HSE Bypass.
  * @retval HAL status
  */
HAL_StatusTypeDef HAL_RCC_OscConfig(RCC_OscInitTypeDef  *RCC_OscInitStruct)
{
 80028ec:	b580      	push	{r7, lr}
 80028ee:	b088      	sub	sp, #32
 80028f0:	af00      	add	r7, sp, #0
 80028f2:	6078      	str	r0, [r7, #4]
  uint32_t tickstart;
  HAL_StatusTypeDef status;
  uint32_t sysclk_source, pll_config;

  /* Check Null pointer */
  if(RCC_OscInitStruct == NULL)
 80028f4:	687b      	ldr	r3, [r7, #4]
 80028f6:	2b00      	cmp	r3, #0
 80028f8:	d102      	bne.n	8002900 <HAL_RCC_OscConfig+0x14>
  {
    return HAL_ERROR;
 80028fa:	2301      	movs	r3, #1
 80028fc:	f000 bc02 	b.w	8003104 <HAL_RCC_OscConfig+0x818>
  }

  /* Check the parameters */
  assert_param(IS_RCC_OSCILLATORTYPE(RCC_OscInitStruct->OscillatorType));

  sysclk_source = __HAL_RCC_GET_SYSCLK_SOURCE();
 8002900:	4b96      	ldr	r3, [pc, #600]	; (8002b5c <HAL_RCC_OscConfig+0x270>)
 8002902:	689b      	ldr	r3, [r3, #8]
 8002904:	f003 030c 	and.w	r3, r3, #12
 8002908:	61bb      	str	r3, [r7, #24]
  pll_config = __HAL_RCC_GET_PLL_OSCSOURCE();
 800290a:	4b94      	ldr	r3, [pc, #592]	; (8002b5c <HAL_RCC_OscConfig+0x270>)
 800290c:	68db      	ldr	r3, [r3, #12]
 800290e:	f003 0303 	and.w	r3, r3, #3
 8002912:	617b      	str	r3, [r7, #20]

  /*----------------------------- MSI Configuration --------------------------*/
  if(((RCC_OscInitStruct->OscillatorType) & RCC_OSCILLATORTYPE_MSI) == RCC_OSCILLATORTYPE_MSI)
 8002914:	687b      	ldr	r3, [r7, #4]
 8002916:	681b      	ldr	r3, [r3, #0]
 8002918:	f003 0310 	and.w	r3, r3, #16
 800291c:	2b00      	cmp	r3, #0
 800291e:	f000 80e4 	beq.w	8002aea <HAL_RCC_OscConfig+0x1fe>
    assert_param(IS_RCC_MSI(RCC_OscInitStruct->MSIState));
    assert_param(IS_RCC_MSICALIBRATION_VALUE(RCC_OscInitStruct->MSICalibrationValue));
    assert_param(IS_RCC_MSI_CLOCK_RANGE(RCC_OscInitStruct->MSIClockRange));

    /* Check if MSI is used as system clock or as PLL source when PLL is selected as system clock */
    if((sysclk_source == RCC_CFGR_SWS_MSI) ||
 8002922:	69bb      	ldr	r3, [r7, #24]
 8002924:	2b00      	cmp	r3, #0
 8002926:	d007      	beq.n	8002938 <HAL_RCC_OscConfig+0x4c>
 8002928:	69bb      	ldr	r3, [r7, #24]
 800292a:	2b0c      	cmp	r3, #12
 800292c:	f040 808b 	bne.w	8002a46 <HAL_RCC_OscConfig+0x15a>
       ((sysclk_source == RCC_CFGR_SWS_PLL) && (pll_config == RCC_PLLSOURCE_MSI)))
 8002930:	697b      	ldr	r3, [r7, #20]
 8002932:	2b01      	cmp	r3, #1
 8002934:	f040 8087 	bne.w	8002a46 <HAL_RCC_OscConfig+0x15a>
    {
      if((READ_BIT(RCC->CR, RCC_CR_MSIRDY) != 0U) && (RCC_OscInitStruct->MSIState == RCC_MSI_OFF))
 8002938:	4b88      	ldr	r3, [pc, #544]	; (8002b5c <HAL_RCC_OscConfig+0x270>)
 800293a:	681b      	ldr	r3, [r3, #0]
 800293c:	f003 0302 	and.w	r3, r3, #2
 8002940:	2b00      	cmp	r3, #0
 8002942:	d005      	beq.n	8002950 <HAL_RCC_OscConfig+0x64>
 8002944:	687b      	ldr	r3, [r7, #4]
 8002946:	699b      	ldr	r3, [r3, #24]
 8002948:	2b00      	cmp	r3, #0
 800294a:	d101      	bne.n	8002950 <HAL_RCC_OscConfig+0x64>
      {
        return HAL_ERROR;
 800294c:	2301      	movs	r3, #1
 800294e:	e3d9      	b.n	8003104 <HAL_RCC_OscConfig+0x818>
      else
      {
        /* To correctly read data from FLASH memory, the number of wait states (LATENCY)
           must be correctly programmed according to the frequency of the CPU clock
           (HCLK) and the supply voltage of the device. */
        if(RCC_OscInitStruct->MSIClockRange > __HAL_RCC_GET_MSI_RANGE())
 8002950:	687b      	ldr	r3, [r7, #4]
 8002952:	6a1a      	ldr	r2, [r3, #32]
 8002954:	4b81      	ldr	r3, [pc, #516]	; (8002b5c <HAL_RCC_OscConfig+0x270>)
 8002956:	681b      	ldr	r3, [r3, #0]
 8002958:	f003 0308 	and.w	r3, r3, #8
 800295c:	2b00      	cmp	r3, #0
 800295e:	d004      	beq.n	800296a <HAL_RCC_OscConfig+0x7e>
 8002960:	4b7e      	ldr	r3, [pc, #504]	; (8002b5c <HAL_RCC_OscConfig+0x270>)
 8002962:	681b      	ldr	r3, [r3, #0]
 8002964:	f003 03f0 	and.w	r3, r3, #240	; 0xf0
 8002968:	e005      	b.n	8002976 <HAL_RCC_OscConfig+0x8a>
 800296a:	4b7c      	ldr	r3, [pc, #496]	; (8002b5c <HAL_RCC_OscConfig+0x270>)
 800296c:	f8d3 3094 	ldr.w	r3, [r3, #148]	; 0x94
 8002970:	091b      	lsrs	r3, r3, #4
 8002972:	f003 03f0 	and.w	r3, r3, #240	; 0xf0
 8002976:	4293      	cmp	r3, r2
 8002978:	d223      	bcs.n	80029c2 <HAL_RCC_OscConfig+0xd6>
        {
          /* First increase number of wait states update if necessary */
          if(RCC_SetFlashLatencyFromMSIRange(RCC_OscInitStruct->MSIClockRange) != HAL_OK)
 800297a:	687b      	ldr	r3, [r7, #4]
 800297c:	6a1b      	ldr	r3, [r3, #32]
 800297e:	4618      	mov	r0, r3
 8002980:	f000 fd54 	bl	800342c <RCC_SetFlashLatencyFromMSIRange>
 8002984:	4603      	mov	r3, r0
 8002986:	2b00      	cmp	r3, #0
 8002988:	d001      	beq.n	800298e <HAL_RCC_OscConfig+0xa2>
          {
            return HAL_ERROR;
 800298a:	2301      	movs	r3, #1
 800298c:	e3ba      	b.n	8003104 <HAL_RCC_OscConfig+0x818>
          }

          /* Selects the Multiple Speed oscillator (MSI) clock range .*/
          __HAL_RCC_MSI_RANGE_CONFIG(RCC_OscInitStruct->MSIClockRange);
 800298e:	4b73      	ldr	r3, [pc, #460]	; (8002b5c <HAL_RCC_OscConfig+0x270>)
 8002990:	681b      	ldr	r3, [r3, #0]
 8002992:	4a72      	ldr	r2, [pc, #456]	; (8002b5c <HAL_RCC_OscConfig+0x270>)
 8002994:	f043 0308 	orr.w	r3, r3, #8
 8002998:	6013      	str	r3, [r2, #0]
 800299a:	4b70      	ldr	r3, [pc, #448]	; (8002b5c <HAL_RCC_OscConfig+0x270>)
 800299c:	681b      	ldr	r3, [r3, #0]
 800299e:	f023 02f0 	bic.w	r2, r3, #240	; 0xf0
 80029a2:	687b      	ldr	r3, [r7, #4]
 80029a4:	6a1b      	ldr	r3, [r3, #32]
 80029a6:	496d      	ldr	r1, [pc, #436]	; (8002b5c <HAL_RCC_OscConfig+0x270>)
 80029a8:	4313      	orrs	r3, r2
 80029aa:	600b      	str	r3, [r1, #0]
          /* Adjusts the Multiple Speed oscillator (MSI) calibration value.*/
          __HAL_RCC_MSI_CALIBRATIONVALUE_ADJUST(RCC_OscInitStruct->MSICalibrationValue);
 80029ac:	4b6b      	ldr	r3, [pc, #428]	; (8002b5c <HAL_RCC_OscConfig+0x270>)
 80029ae:	685b      	ldr	r3, [r3, #4]
 80029b0:	f423 427f 	bic.w	r2, r3, #65280	; 0xff00
 80029b4:	687b      	ldr	r3, [r7, #4]
 80029b6:	69db      	ldr	r3, [r3, #28]
 80029b8:	021b      	lsls	r3, r3, #8
 80029ba:	4968      	ldr	r1, [pc, #416]	; (8002b5c <HAL_RCC_OscConfig+0x270>)
 80029bc:	4313      	orrs	r3, r2
 80029be:	604b      	str	r3, [r1, #4]
 80029c0:	e025      	b.n	8002a0e <HAL_RCC_OscConfig+0x122>
        }
        else
        {
          /* Else, keep current flash latency while decreasing applies */
          /* Selects the Multiple Speed oscillator (MSI) clock range .*/
          __HAL_RCC_MSI_RANGE_CONFIG(RCC_OscInitStruct->MSIClockRange);
 80029c2:	4b66      	ldr	r3, [pc, #408]	; (8002b5c <HAL_RCC_OscConfig+0x270>)
 80029c4:	681b      	ldr	r3, [r3, #0]
 80029c6:	4a65      	ldr	r2, [pc, #404]	; (8002b5c <HAL_RCC_OscConfig+0x270>)
 80029c8:	f043 0308 	orr.w	r3, r3, #8
 80029cc:	6013      	str	r3, [r2, #0]
 80029ce:	4b63      	ldr	r3, [pc, #396]	; (8002b5c <HAL_RCC_OscConfig+0x270>)
 80029d0:	681b      	ldr	r3, [r3, #0]
 80029d2:	f023 02f0 	bic.w	r2, r3, #240	; 0xf0
 80029d6:	687b      	ldr	r3, [r7, #4]
 80029d8:	6a1b      	ldr	r3, [r3, #32]
 80029da:	4960      	ldr	r1, [pc, #384]	; (8002b5c <HAL_RCC_OscConfig+0x270>)
 80029dc:	4313      	orrs	r3, r2
 80029de:	600b      	str	r3, [r1, #0]
          /* Adjusts the Multiple Speed oscillator (MSI) calibration value.*/
          __HAL_RCC_MSI_CALIBRATIONVALUE_ADJUST(RCC_OscInitStruct->MSICalibrationValue);
 80029e0:	4b5e      	ldr	r3, [pc, #376]	; (8002b5c <HAL_RCC_OscConfig+0x270>)
 80029e2:	685b      	ldr	r3, [r3, #4]
 80029e4:	f423 427f 	bic.w	r2, r3, #65280	; 0xff00
 80029e8:	687b      	ldr	r3, [r7, #4]
 80029ea:	69db      	ldr	r3, [r3, #28]
 80029ec:	021b      	lsls	r3, r3, #8
 80029ee:	495b      	ldr	r1, [pc, #364]	; (8002b5c <HAL_RCC_OscConfig+0x270>)
 80029f0:	4313      	orrs	r3, r2
 80029f2:	604b      	str	r3, [r1, #4]

          /* Decrease number of wait states update if necessary */
          /* Only possible when MSI is the System clock source  */
          if(sysclk_source == RCC_CFGR_SWS_MSI)
 80029f4:	69bb      	ldr	r3, [r7, #24]
 80029f6:	2b00      	cmp	r3, #0
 80029f8:	d109      	bne.n	8002a0e <HAL_RCC_OscConfig+0x122>
          {
            if(RCC_SetFlashLatencyFromMSIRange(RCC_OscInitStruct->MSIClockRange) != HAL_OK)
 80029fa:	687b      	ldr	r3, [r7, #4]
 80029fc:	6a1b      	ldr	r3, [r3, #32]
 80029fe:	4618      	mov	r0, r3
 8002a00:	f000 fd14 	bl	800342c <RCC_SetFlashLatencyFromMSIRange>
 8002a04:	4603      	mov	r3, r0
 8002a06:	2b00      	cmp	r3, #0
 8002a08:	d001      	beq.n	8002a0e <HAL_RCC_OscConfig+0x122>
            {
              return HAL_ERROR;
 8002a0a:	2301      	movs	r3, #1
 8002a0c:	e37a      	b.n	8003104 <HAL_RCC_OscConfig+0x818>
            }
          }
        }

        /* Update the SystemCoreClock global variable */
        SystemCoreClock = HAL_RCC_GetSysClockFreq() >> (AHBPrescTable[READ_BIT(RCC->CFGR, RCC_CFGR_HPRE) >> RCC_CFGR_HPRE_Pos] & 0x1FU);
 8002a0e:	f000 fc81 	bl	8003314 <HAL_RCC_GetSysClockFreq>
 8002a12:	4602      	mov	r2, r0
 8002a14:	4b51      	ldr	r3, [pc, #324]	; (8002b5c <HAL_RCC_OscConfig+0x270>)
 8002a16:	689b      	ldr	r3, [r3, #8]
 8002a18:	091b      	lsrs	r3, r3, #4
 8002a1a:	f003 030f 	and.w	r3, r3, #15
 8002a1e:	4950      	ldr	r1, [pc, #320]	; (8002b60 <HAL_RCC_OscConfig+0x274>)
 8002a20:	5ccb      	ldrb	r3, [r1, r3]
 8002a22:	f003 031f 	and.w	r3, r3, #31
 8002a26:	fa22 f303 	lsr.w	r3, r2, r3
 8002a2a:	4a4e      	ldr	r2, [pc, #312]	; (8002b64 <HAL_RCC_OscConfig+0x278>)
 8002a2c:	6013      	str	r3, [r2, #0]

        /* Configure the source of time base considering new system clocks settings*/
        status = HAL_InitTick(uwTickPrio);
 8002a2e:	4b4e      	ldr	r3, [pc, #312]	; (8002b68 <HAL_RCC_OscConfig+0x27c>)
 8002a30:	681b      	ldr	r3, [r3, #0]
 8002a32:	4618      	mov	r0, r3
 8002a34:	f7fe f800 	bl	8000a38 <HAL_InitTick>
 8002a38:	4603      	mov	r3, r0
 8002a3a:	73fb      	strb	r3, [r7, #15]
        if(status != HAL_OK)
 8002a3c:	7bfb      	ldrb	r3, [r7, #15]
 8002a3e:	2b00      	cmp	r3, #0
 8002a40:	d052      	beq.n	8002ae8 <HAL_RCC_OscConfig+0x1fc>
        {
          return status;
 8002a42:	7bfb      	ldrb	r3, [r7, #15]
 8002a44:	e35e      	b.n	8003104 <HAL_RCC_OscConfig+0x818>
      }
    }
    else
    {
      /* Check the MSI State */
      if(RCC_OscInitStruct->MSIState != RCC_MSI_OFF)
 8002a46:	687b      	ldr	r3, [r7, #4]
 8002a48:	699b      	ldr	r3, [r3, #24]
 8002a4a:	2b00      	cmp	r3, #0
 8002a4c:	d032      	beq.n	8002ab4 <HAL_RCC_OscConfig+0x1c8>
      {
        /* Enable the Internal High Speed oscillator (MSI). */
        __HAL_RCC_MSI_ENABLE();
 8002a4e:	4b43      	ldr	r3, [pc, #268]	; (8002b5c <HAL_RCC_OscConfig+0x270>)
 8002a50:	681b      	ldr	r3, [r3, #0]
 8002a52:	4a42      	ldr	r2, [pc, #264]	; (8002b5c <HAL_RCC_OscConfig+0x270>)
 8002a54:	f043 0301 	orr.w	r3, r3, #1
 8002a58:	6013      	str	r3, [r2, #0]

        /* Get timeout */
        tickstart = HAL_GetTick();
 8002a5a:	f7fe f83d 	bl	8000ad8 <HAL_GetTick>
 8002a5e:	6138      	str	r0, [r7, #16]

        /* Wait till MSI is ready */
        while(READ_BIT(RCC->CR, RCC_CR_MSIRDY) == 0U)
 8002a60:	e008      	b.n	8002a74 <HAL_RCC_OscConfig+0x188>
        {
          if((HAL_GetTick() - tickstart) > MSI_TIMEOUT_VALUE)
 8002a62:	f7fe f839 	bl	8000ad8 <HAL_GetTick>
 8002a66:	4602      	mov	r2, r0
 8002a68:	693b      	ldr	r3, [r7, #16]
 8002a6a:	1ad3      	subs	r3, r2, r3
 8002a6c:	2b02      	cmp	r3, #2
 8002a6e:	d901      	bls.n	8002a74 <HAL_RCC_OscConfig+0x188>
          {
            return HAL_TIMEOUT;
 8002a70:	2303      	movs	r3, #3
 8002a72:	e347      	b.n	8003104 <HAL_RCC_OscConfig+0x818>
        while(READ_BIT(RCC->CR, RCC_CR_MSIRDY) == 0U)
 8002a74:	4b39      	ldr	r3, [pc, #228]	; (8002b5c <HAL_RCC_OscConfig+0x270>)
 8002a76:	681b      	ldr	r3, [r3, #0]
 8002a78:	f003 0302 	and.w	r3, r3, #2
 8002a7c:	2b00      	cmp	r3, #0
 8002a7e:	d0f0      	beq.n	8002a62 <HAL_RCC_OscConfig+0x176>
          }
        }
         /* Selects the Multiple Speed oscillator (MSI) clock range .*/
        __HAL_RCC_MSI_RANGE_CONFIG(RCC_OscInitStruct->MSIClockRange);
 8002a80:	4b36      	ldr	r3, [pc, #216]	; (8002b5c <HAL_RCC_OscConfig+0x270>)
 8002a82:	681b      	ldr	r3, [r3, #0]
 8002a84:	4a35      	ldr	r2, [pc, #212]	; (8002b5c <HAL_RCC_OscConfig+0x270>)
 8002a86:	f043 0308 	orr.w	r3, r3, #8
 8002a8a:	6013      	str	r3, [r2, #0]
 8002a8c:	4b33      	ldr	r3, [pc, #204]	; (8002b5c <HAL_RCC_OscConfig+0x270>)
 8002a8e:	681b      	ldr	r3, [r3, #0]
 8002a90:	f023 02f0 	bic.w	r2, r3, #240	; 0xf0
 8002a94:	687b      	ldr	r3, [r7, #4]
 8002a96:	6a1b      	ldr	r3, [r3, #32]
 8002a98:	4930      	ldr	r1, [pc, #192]	; (8002b5c <HAL_RCC_OscConfig+0x270>)
 8002a9a:	4313      	orrs	r3, r2
 8002a9c:	600b      	str	r3, [r1, #0]
         /* Adjusts the Multiple Speed oscillator (MSI) calibration value.*/
        __HAL_RCC_MSI_CALIBRATIONVALUE_ADJUST(RCC_OscInitStruct->MSICalibrationValue);
 8002a9e:	4b2f      	ldr	r3, [pc, #188]	; (8002b5c <HAL_RCC_OscConfig+0x270>)
 8002aa0:	685b      	ldr	r3, [r3, #4]
 8002aa2:	f423 427f 	bic.w	r2, r3, #65280	; 0xff00
 8002aa6:	687b      	ldr	r3, [r7, #4]
 8002aa8:	69db      	ldr	r3, [r3, #28]
 8002aaa:	021b      	lsls	r3, r3, #8
 8002aac:	492b      	ldr	r1, [pc, #172]	; (8002b5c <HAL_RCC_OscConfig+0x270>)
 8002aae:	4313      	orrs	r3, r2
 8002ab0:	604b      	str	r3, [r1, #4]
 8002ab2:	e01a      	b.n	8002aea <HAL_RCC_OscConfig+0x1fe>

      }
      else
      {
        /* Disable the Internal High Speed oscillator (MSI). */
        __HAL_RCC_MSI_DISABLE();
 8002ab4:	4b29      	ldr	r3, [pc, #164]	; (8002b5c <HAL_RCC_OscConfig+0x270>)
 8002ab6:	681b      	ldr	r3, [r3, #0]
 8002ab8:	4a28      	ldr	r2, [pc, #160]	; (8002b5c <HAL_RCC_OscConfig+0x270>)
 8002aba:	f023 0301 	bic.w	r3, r3, #1
 8002abe:	6013      	str	r3, [r2, #0]

        /* Get timeout */
        tickstart = HAL_GetTick();
 8002ac0:	f7fe f80a 	bl	8000ad8 <HAL_GetTick>
 8002ac4:	6138      	str	r0, [r7, #16]

        /* Wait till MSI is ready */
        while(READ_BIT(RCC->CR, RCC_CR_MSIRDY) != 0U)
 8002ac6:	e008      	b.n	8002ada <HAL_RCC_OscConfig+0x1ee>
        {
          if((HAL_GetTick() - tickstart) > MSI_TIMEOUT_VALUE)
 8002ac8:	f7fe f806 	bl	8000ad8 <HAL_GetTick>
 8002acc:	4602      	mov	r2, r0
 8002ace:	693b      	ldr	r3, [r7, #16]
 8002ad0:	1ad3      	subs	r3, r2, r3
 8002ad2:	2b02      	cmp	r3, #2
 8002ad4:	d901      	bls.n	8002ada <HAL_RCC_OscConfig+0x1ee>
          {
            return HAL_TIMEOUT;
 8002ad6:	2303      	movs	r3, #3
 8002ad8:	e314      	b.n	8003104 <HAL_RCC_OscConfig+0x818>
        while(READ_BIT(RCC->CR, RCC_CR_MSIRDY) != 0U)
 8002ada:	4b20      	ldr	r3, [pc, #128]	; (8002b5c <HAL_RCC_OscConfig+0x270>)
 8002adc:	681b      	ldr	r3, [r3, #0]
 8002ade:	f003 0302 	and.w	r3, r3, #2
 8002ae2:	2b00      	cmp	r3, #0
 8002ae4:	d1f0      	bne.n	8002ac8 <HAL_RCC_OscConfig+0x1dc>
 8002ae6:	e000      	b.n	8002aea <HAL_RCC_OscConfig+0x1fe>
      if((READ_BIT(RCC->CR, RCC_CR_MSIRDY) != 0U) && (RCC_OscInitStruct->MSIState == RCC_MSI_OFF))
 8002ae8:	bf00      	nop
        }
      }
    }
  }
  /*------------------------------- HSE Configuration ------------------------*/
  if(((RCC_OscInitStruct->OscillatorType) & RCC_OSCILLATORTYPE_HSE) == RCC_OSCILLATORTYPE_HSE)
 8002aea:	687b      	ldr	r3, [r7, #4]
 8002aec:	681b      	ldr	r3, [r3, #0]
 8002aee:	f003 0301 	and.w	r3, r3, #1
 8002af2:	2b00      	cmp	r3, #0
 8002af4:	d073      	beq.n	8002bde <HAL_RCC_OscConfig+0x2f2>
  {
    /* Check the parameters */
    assert_param(IS_RCC_HSE(RCC_OscInitStruct->HSEState));

    /* When the HSE is used as system clock or clock source for PLL in these cases it is not allowed to be disabled */
    if((sysclk_source == RCC_CFGR_SWS_HSE) ||
 8002af6:	69bb      	ldr	r3, [r7, #24]
 8002af8:	2b08      	cmp	r3, #8
 8002afa:	d005      	beq.n	8002b08 <HAL_RCC_OscConfig+0x21c>
 8002afc:	69bb      	ldr	r3, [r7, #24]
 8002afe:	2b0c      	cmp	r3, #12
 8002b00:	d10e      	bne.n	8002b20 <HAL_RCC_OscConfig+0x234>
       ((sysclk_source == RCC_CFGR_SWS_PLL) && (pll_config == RCC_PLLSOURCE_HSE)))
 8002b02:	697b      	ldr	r3, [r7, #20]
 8002b04:	2b03      	cmp	r3, #3
 8002b06:	d10b      	bne.n	8002b20 <HAL_RCC_OscConfig+0x234>
    {
      if((READ_BIT(RCC->CR, RCC_CR_HSERDY) != 0U) && (RCC_OscInitStruct->HSEState == RCC_HSE_OFF))
 8002b08:	4b14      	ldr	r3, [pc, #80]	; (8002b5c <HAL_RCC_OscConfig+0x270>)
 8002b0a:	681b      	ldr	r3, [r3, #0]
 8002b0c:	f403 3300 	and.w	r3, r3, #131072	; 0x20000
 8002b10:	2b00      	cmp	r3, #0
 8002b12:	d063      	beq.n	8002bdc <HAL_RCC_OscConfig+0x2f0>
 8002b14:	687b      	ldr	r3, [r7, #4]
 8002b16:	685b      	ldr	r3, [r3, #4]
 8002b18:	2b00      	cmp	r3, #0
 8002b1a:	d15f      	bne.n	8002bdc <HAL_RCC_OscConfig+0x2f0>
      {
        return HAL_ERROR;
 8002b1c:	2301      	movs	r3, #1
 8002b1e:	e2f1      	b.n	8003104 <HAL_RCC_OscConfig+0x818>
      }
    }
    else
    {
      /* Set the new HSE configuration ---------------------------------------*/
      __HAL_RCC_HSE_CONFIG(RCC_OscInitStruct->HSEState);
 8002b20:	687b      	ldr	r3, [r7, #4]
 8002b22:	685b      	ldr	r3, [r3, #4]
 8002b24:	f5b3 3f80 	cmp.w	r3, #65536	; 0x10000
 8002b28:	d106      	bne.n	8002b38 <HAL_RCC_OscConfig+0x24c>
 8002b2a:	4b0c      	ldr	r3, [pc, #48]	; (8002b5c <HAL_RCC_OscConfig+0x270>)
 8002b2c:	681b      	ldr	r3, [r3, #0]
 8002b2e:	4a0b      	ldr	r2, [pc, #44]	; (8002b5c <HAL_RCC_OscConfig+0x270>)
 8002b30:	f443 3380 	orr.w	r3, r3, #65536	; 0x10000
 8002b34:	6013      	str	r3, [r2, #0]
 8002b36:	e025      	b.n	8002b84 <HAL_RCC_OscConfig+0x298>
 8002b38:	687b      	ldr	r3, [r7, #4]
 8002b3a:	685b      	ldr	r3, [r3, #4]
 8002b3c:	f5b3 2fa0 	cmp.w	r3, #327680	; 0x50000
 8002b40:	d114      	bne.n	8002b6c <HAL_RCC_OscConfig+0x280>
 8002b42:	4b06      	ldr	r3, [pc, #24]	; (8002b5c <HAL_RCC_OscConfig+0x270>)
 8002b44:	681b      	ldr	r3, [r3, #0]
 8002b46:	4a05      	ldr	r2, [pc, #20]	; (8002b5c <HAL_RCC_OscConfig+0x270>)
 8002b48:	f443 2380 	orr.w	r3, r3, #262144	; 0x40000
 8002b4c:	6013      	str	r3, [r2, #0]
 8002b4e:	4b03      	ldr	r3, [pc, #12]	; (8002b5c <HAL_RCC_OscConfig+0x270>)
 8002b50:	681b      	ldr	r3, [r3, #0]
 8002b52:	4a02      	ldr	r2, [pc, #8]	; (8002b5c <HAL_RCC_OscConfig+0x270>)
 8002b54:	f443 3380 	orr.w	r3, r3, #65536	; 0x10000
 8002b58:	6013      	str	r3, [r2, #0]
 8002b5a:	e013      	b.n	8002b84 <HAL_RCC_OscConfig+0x298>
 8002b5c:	40021000 	.word	0x40021000
 8002b60:	08003edc 	.word	0x08003edc
 8002b64:	20000000 	.word	0x20000000
 8002b68:	20000004 	.word	0x20000004
 8002b6c:	4ba0      	ldr	r3, [pc, #640]	; (8002df0 <HAL_RCC_OscConfig+0x504>)
 8002b6e:	681b      	ldr	r3, [r3, #0]
 8002b70:	4a9f      	ldr	r2, [pc, #636]	; (8002df0 <HAL_RCC_OscConfig+0x504>)
 8002b72:	f423 3380 	bic.w	r3, r3, #65536	; 0x10000
 8002b76:	6013      	str	r3, [r2, #0]
 8002b78:	4b9d      	ldr	r3, [pc, #628]	; (8002df0 <HAL_RCC_OscConfig+0x504>)
 8002b7a:	681b      	ldr	r3, [r3, #0]
 8002b7c:	4a9c      	ldr	r2, [pc, #624]	; (8002df0 <HAL_RCC_OscConfig+0x504>)
 8002b7e:	f423 2380 	bic.w	r3, r3, #262144	; 0x40000
 8002b82:	6013      	str	r3, [r2, #0]

      /* Check the HSE State */
      if(RCC_OscInitStruct->HSEState != RCC_HSE_OFF)
 8002b84:	687b      	ldr	r3, [r7, #4]
 8002b86:	685b      	ldr	r3, [r3, #4]
 8002b88:	2b00      	cmp	r3, #0
 8002b8a:	d013      	beq.n	8002bb4 <HAL_RCC_OscConfig+0x2c8>
      {
        /* Get Start Tick*/
        tickstart = HAL_GetTick();
 8002b8c:	f7fd ffa4 	bl	8000ad8 <HAL_GetTick>
 8002b90:	6138      	str	r0, [r7, #16]

        /* Wait till HSE is ready */
        while(READ_BIT(RCC->CR, RCC_CR_HSERDY) == 0U)
 8002b92:	e008      	b.n	8002ba6 <HAL_RCC_OscConfig+0x2ba>
        {
          if((HAL_GetTick() - tickstart) > HSE_TIMEOUT_VALUE)
 8002b94:	f7fd ffa0 	bl	8000ad8 <HAL_GetTick>
 8002b98:	4602      	mov	r2, r0
 8002b9a:	693b      	ldr	r3, [r7, #16]
 8002b9c:	1ad3      	subs	r3, r2, r3
 8002b9e:	2b64      	cmp	r3, #100	; 0x64
 8002ba0:	d901      	bls.n	8002ba6 <HAL_RCC_OscConfig+0x2ba>
          {
            return HAL_TIMEOUT;
 8002ba2:	2303      	movs	r3, #3
 8002ba4:	e2ae      	b.n	8003104 <HAL_RCC_OscConfig+0x818>
        while(READ_BIT(RCC->CR, RCC_CR_HSERDY) == 0U)
 8002ba6:	4b92      	ldr	r3, [pc, #584]	; (8002df0 <HAL_RCC_OscConfig+0x504>)
 8002ba8:	681b      	ldr	r3, [r3, #0]
 8002baa:	f403 3300 	and.w	r3, r3, #131072	; 0x20000
 8002bae:	2b00      	cmp	r3, #0
 8002bb0:	d0f0      	beq.n	8002b94 <HAL_RCC_OscConfig+0x2a8>
 8002bb2:	e014      	b.n	8002bde <HAL_RCC_OscConfig+0x2f2>
        }
      }
      else
      {
        /* Get Start Tick*/
        tickstart = HAL_GetTick();
 8002bb4:	f7fd ff90 	bl	8000ad8 <HAL_GetTick>
 8002bb8:	6138      	str	r0, [r7, #16]

        /* Wait till HSE is disabled */
        while(READ_BIT(RCC->CR, RCC_CR_HSERDY) != 0U)
 8002bba:	e008      	b.n	8002bce <HAL_RCC_OscConfig+0x2e2>
        {
          if((HAL_GetTick() - tickstart) > HSE_TIMEOUT_VALUE)
 8002bbc:	f7fd ff8c 	bl	8000ad8 <HAL_GetTick>
 8002bc0:	4602      	mov	r2, r0
 8002bc2:	693b      	ldr	r3, [r7, #16]
 8002bc4:	1ad3      	subs	r3, r2, r3
 8002bc6:	2b64      	cmp	r3, #100	; 0x64
 8002bc8:	d901      	bls.n	8002bce <HAL_RCC_OscConfig+0x2e2>
          {
            return HAL_TIMEOUT;
 8002bca:	2303      	movs	r3, #3
 8002bcc:	e29a      	b.n	8003104 <HAL_RCC_OscConfig+0x818>
        while(READ_BIT(RCC->CR, RCC_CR_HSERDY) != 0U)
 8002bce:	4b88      	ldr	r3, [pc, #544]	; (8002df0 <HAL_RCC_OscConfig+0x504>)
 8002bd0:	681b      	ldr	r3, [r3, #0]
 8002bd2:	f403 3300 	and.w	r3, r3, #131072	; 0x20000
 8002bd6:	2b00      	cmp	r3, #0
 8002bd8:	d1f0      	bne.n	8002bbc <HAL_RCC_OscConfig+0x2d0>
 8002bda:	e000      	b.n	8002bde <HAL_RCC_OscConfig+0x2f2>
      if((READ_BIT(RCC->CR, RCC_CR_HSERDY) != 0U) && (RCC_OscInitStruct->HSEState == RCC_HSE_OFF))
 8002bdc:	bf00      	nop
        }
      }
    }
  }
  /*----------------------------- HSI Configuration --------------------------*/
  if(((RCC_OscInitStruct->OscillatorType) & RCC_OSCILLATORTYPE_HSI) == RCC_OSCILLATORTYPE_HSI)
 8002bde:	687b      	ldr	r3, [r7, #4]
 8002be0:	681b      	ldr	r3, [r3, #0]
 8002be2:	f003 0302 	and.w	r3, r3, #2
 8002be6:	2b00      	cmp	r3, #0
 8002be8:	d060      	beq.n	8002cac <HAL_RCC_OscConfig+0x3c0>
    /* Check the parameters */
    assert_param(IS_RCC_HSI(RCC_OscInitStruct->HSIState));
    assert_param(IS_RCC_HSI_CALIBRATION_VALUE(RCC_OscInitStruct->HSICalibrationValue));

    /* Check if HSI is used as system clock or as PLL source when PLL is selected as system clock */
    if((sysclk_source == RCC_CFGR_SWS_HSI) ||
 8002bea:	69bb      	ldr	r3, [r7, #24]
 8002bec:	2b04      	cmp	r3, #4
 8002bee:	d005      	beq.n	8002bfc <HAL_RCC_OscConfig+0x310>
 8002bf0:	69bb      	ldr	r3, [r7, #24]
 8002bf2:	2b0c      	cmp	r3, #12
 8002bf4:	d119      	bne.n	8002c2a <HAL_RCC_OscConfig+0x33e>
       ((sysclk_source == RCC_CFGR_SWS_PLL) && (pll_config == RCC_PLLSOURCE_HSI)))
 8002bf6:	697b      	ldr	r3, [r7, #20]
 8002bf8:	2b02      	cmp	r3, #2
 8002bfa:	d116      	bne.n	8002c2a <HAL_RCC_OscConfig+0x33e>
    {
      /* When HSI is used as system clock it will not be disabled */
      if((READ_BIT(RCC->CR, RCC_CR_HSIRDY) != 0U) && (RCC_OscInitStruct->HSIState == RCC_HSI_OFF))
 8002bfc:	4b7c      	ldr	r3, [pc, #496]	; (8002df0 <HAL_RCC_OscConfig+0x504>)
 8002bfe:	681b      	ldr	r3, [r3, #0]
 8002c00:	f403 6380 	and.w	r3, r3, #1024	; 0x400
 8002c04:	2b00      	cmp	r3, #0
 8002c06:	d005      	beq.n	8002c14 <HAL_RCC_OscConfig+0x328>
 8002c08:	687b      	ldr	r3, [r7, #4]
 8002c0a:	68db      	ldr	r3, [r3, #12]
 8002c0c:	2b00      	cmp	r3, #0
 8002c0e:	d101      	bne.n	8002c14 <HAL_RCC_OscConfig+0x328>
      {
        return HAL_ERROR;
 8002c10:	2301      	movs	r3, #1
 8002c12:	e277      	b.n	8003104 <HAL_RCC_OscConfig+0x818>
      }
      /* Otherwise, just the calibration is allowed */
      else
      {
        /* Adjusts the Internal High Speed oscillator (HSI) calibration value.*/
        __HAL_RCC_HSI_CALIBRATIONVALUE_ADJUST(RCC_OscInitStruct->HSICalibrationValue);
 8002c14:	4b76      	ldr	r3, [pc, #472]	; (8002df0 <HAL_RCC_OscConfig+0x504>)
 8002c16:	685b      	ldr	r3, [r3, #4]
 8002c18:	f023 42fe 	bic.w	r2, r3, #2130706432	; 0x7f000000
 8002c1c:	687b      	ldr	r3, [r7, #4]
 8002c1e:	691b      	ldr	r3, [r3, #16]
 8002c20:	061b      	lsls	r3, r3, #24
 8002c22:	4973      	ldr	r1, [pc, #460]	; (8002df0 <HAL_RCC_OscConfig+0x504>)
 8002c24:	4313      	orrs	r3, r2
 8002c26:	604b      	str	r3, [r1, #4]
      if((READ_BIT(RCC->CR, RCC_CR_HSIRDY) != 0U) && (RCC_OscInitStruct->HSIState == RCC_HSI_OFF))
 8002c28:	e040      	b.n	8002cac <HAL_RCC_OscConfig+0x3c0>
      }
    }
    else
    {
      /* Check the HSI State */
      if(RCC_OscInitStruct->HSIState != RCC_HSI_OFF)
 8002c2a:	687b      	ldr	r3, [r7, #4]
 8002c2c:	68db      	ldr	r3, [r3, #12]
 8002c2e:	2b00      	cmp	r3, #0
 8002c30:	d023      	beq.n	8002c7a <HAL_RCC_OscConfig+0x38e>
      {
        /* Enable the Internal High Speed oscillator (HSI). */
        __HAL_RCC_HSI_ENABLE();
 8002c32:	4b6f      	ldr	r3, [pc, #444]	; (8002df0 <HAL_RCC_OscConfig+0x504>)
 8002c34:	681b      	ldr	r3, [r3, #0]
 8002c36:	4a6e      	ldr	r2, [pc, #440]	; (8002df0 <HAL_RCC_OscConfig+0x504>)
 8002c38:	f443 7380 	orr.w	r3, r3, #256	; 0x100
 8002c3c:	6013      	str	r3, [r2, #0]

        /* Get Start Tick*/
        tickstart = HAL_GetTick();
 8002c3e:	f7fd ff4b 	bl	8000ad8 <HAL_GetTick>
 8002c42:	6138      	str	r0, [r7, #16]

        /* Wait till HSI is ready */
        while(READ_BIT(RCC->CR, RCC_CR_HSIRDY) == 0U)
 8002c44:	e008      	b.n	8002c58 <HAL_RCC_OscConfig+0x36c>
        {
          if((HAL_GetTick() - tickstart) > HSI_TIMEOUT_VALUE)
 8002c46:	f7fd ff47 	bl	8000ad8 <HAL_GetTick>
 8002c4a:	4602      	mov	r2, r0
 8002c4c:	693b      	ldr	r3, [r7, #16]
 8002c4e:	1ad3      	subs	r3, r2, r3
 8002c50:	2b02      	cmp	r3, #2
 8002c52:	d901      	bls.n	8002c58 <HAL_RCC_OscConfig+0x36c>
          {
            return HAL_TIMEOUT;
 8002c54:	2303      	movs	r3, #3
 8002c56:	e255      	b.n	8003104 <HAL_RCC_OscConfig+0x818>
        while(READ_BIT(RCC->CR, RCC_CR_HSIRDY) == 0U)
 8002c58:	4b65      	ldr	r3, [pc, #404]	; (8002df0 <HAL_RCC_OscConfig+0x504>)
 8002c5a:	681b      	ldr	r3, [r3, #0]
 8002c5c:	f403 6380 	and.w	r3, r3, #1024	; 0x400
 8002c60:	2b00      	cmp	r3, #0
 8002c62:	d0f0      	beq.n	8002c46 <HAL_RCC_OscConfig+0x35a>
          }
        }

        /* Adjusts the Internal High Speed oscillator (HSI) calibration value.*/
        __HAL_RCC_HSI_CALIBRATIONVALUE_ADJUST(RCC_OscInitStruct->HSICalibrationValue);
 8002c64:	4b62      	ldr	r3, [pc, #392]	; (8002df0 <HAL_RCC_OscConfig+0x504>)
 8002c66:	685b      	ldr	r3, [r3, #4]
 8002c68:	f023 42fe 	bic.w	r2, r3, #2130706432	; 0x7f000000
 8002c6c:	687b      	ldr	r3, [r7, #4]
 8002c6e:	691b      	ldr	r3, [r3, #16]
 8002c70:	061b      	lsls	r3, r3, #24
 8002c72:	495f      	ldr	r1, [pc, #380]	; (8002df0 <HAL_RCC_OscConfig+0x504>)
 8002c74:	4313      	orrs	r3, r2
 8002c76:	604b      	str	r3, [r1, #4]
 8002c78:	e018      	b.n	8002cac <HAL_RCC_OscConfig+0x3c0>
      }
      else
      {
        /* Disable the Internal High Speed oscillator (HSI). */
        __HAL_RCC_HSI_DISABLE();
 8002c7a:	4b5d      	ldr	r3, [pc, #372]	; (8002df0 <HAL_RCC_OscConfig+0x504>)
 8002c7c:	681b      	ldr	r3, [r3, #0]
 8002c7e:	4a5c      	ldr	r2, [pc, #368]	; (8002df0 <HAL_RCC_OscConfig+0x504>)
 8002c80:	f423 7380 	bic.w	r3, r3, #256	; 0x100
 8002c84:	6013      	str	r3, [r2, #0]

        /* Get Start Tick*/
        tickstart = HAL_GetTick();
 8002c86:	f7fd ff27 	bl	8000ad8 <HAL_GetTick>
 8002c8a:	6138      	str	r0, [r7, #16]

        /* Wait till HSI is disabled */
        while(READ_BIT(RCC->CR, RCC_CR_HSIRDY) != 0U)
 8002c8c:	e008      	b.n	8002ca0 <HAL_RCC_OscConfig+0x3b4>
        {
          if((HAL_GetTick() - tickstart) > HSI_TIMEOUT_VALUE)
 8002c8e:	f7fd ff23 	bl	8000ad8 <HAL_GetTick>
 8002c92:	4602      	mov	r2, r0
 8002c94:	693b      	ldr	r3, [r7, #16]
 8002c96:	1ad3      	subs	r3, r2, r3
 8002c98:	2b02      	cmp	r3, #2
 8002c9a:	d901      	bls.n	8002ca0 <HAL_RCC_OscConfig+0x3b4>
          {
            return HAL_TIMEOUT;
 8002c9c:	2303      	movs	r3, #3
 8002c9e:	e231      	b.n	8003104 <HAL_RCC_OscConfig+0x818>
        while(READ_BIT(RCC->CR, RCC_CR_HSIRDY) != 0U)
 8002ca0:	4b53      	ldr	r3, [pc, #332]	; (8002df0 <HAL_RCC_OscConfig+0x504>)
 8002ca2:	681b      	ldr	r3, [r3, #0]
 8002ca4:	f403 6380 	and.w	r3, r3, #1024	; 0x400
 8002ca8:	2b00      	cmp	r3, #0
 8002caa:	d1f0      	bne.n	8002c8e <HAL_RCC_OscConfig+0x3a2>
        }
      }
    }
  }
  /*------------------------------ LSI Configuration -------------------------*/
  if(((RCC_OscInitStruct->OscillatorType) & RCC_OSCILLATORTYPE_LSI) == RCC_OSCILLATORTYPE_LSI)
 8002cac:	687b      	ldr	r3, [r7, #4]
 8002cae:	681b      	ldr	r3, [r3, #0]
 8002cb0:	f003 0308 	and.w	r3, r3, #8
 8002cb4:	2b00      	cmp	r3, #0
 8002cb6:	d03c      	beq.n	8002d32 <HAL_RCC_OscConfig+0x446>
  {
    /* Check the parameters */
    assert_param(IS_RCC_LSI(RCC_OscInitStruct->LSIState));

    /* Check the LSI State */
    if(RCC_OscInitStruct->LSIState != RCC_LSI_OFF)
 8002cb8:	687b      	ldr	r3, [r7, #4]
 8002cba:	695b      	ldr	r3, [r3, #20]
 8002cbc:	2b00      	cmp	r3, #0
 8002cbe:	d01c      	beq.n	8002cfa <HAL_RCC_OscConfig+0x40e>
        MODIFY_REG(RCC->CSR, RCC_CSR_LSIPREDIV, RCC_OscInitStruct->LSIDiv);
      }
#endif /* RCC_CSR_LSIPREDIV */

      /* Enable the Internal Low Speed oscillator (LSI). */
      __HAL_RCC_LSI_ENABLE();
 8002cc0:	4b4b      	ldr	r3, [pc, #300]	; (8002df0 <HAL_RCC_OscConfig+0x504>)
 8002cc2:	f8d3 3094 	ldr.w	r3, [r3, #148]	; 0x94
 8002cc6:	4a4a      	ldr	r2, [pc, #296]	; (8002df0 <HAL_RCC_OscConfig+0x504>)
 8002cc8:	f043 0301 	orr.w	r3, r3, #1
 8002ccc:	f8c2 3094 	str.w	r3, [r2, #148]	; 0x94

      /* Get Start Tick*/
      tickstart = HAL_GetTick();
 8002cd0:	f7fd ff02 	bl	8000ad8 <HAL_GetTick>
 8002cd4:	6138      	str	r0, [r7, #16]

      /* Wait till LSI is ready */
      while(READ_BIT(RCC->CSR, RCC_CSR_LSIRDY) == 0U)
 8002cd6:	e008      	b.n	8002cea <HAL_RCC_OscConfig+0x3fe>
      {
        if((HAL_GetTick() - tickstart) > LSI_TIMEOUT_VALUE)
 8002cd8:	f7fd fefe 	bl	8000ad8 <HAL_GetTick>
 8002cdc:	4602      	mov	r2, r0
 8002cde:	693b      	ldr	r3, [r7, #16]
 8002ce0:	1ad3      	subs	r3, r2, r3
 8002ce2:	2b02      	cmp	r3, #2
 8002ce4:	d901      	bls.n	8002cea <HAL_RCC_OscConfig+0x3fe>
        {
          return HAL_TIMEOUT;
 8002ce6:	2303      	movs	r3, #3
 8002ce8:	e20c      	b.n	8003104 <HAL_RCC_OscConfig+0x818>
      while(READ_BIT(RCC->CSR, RCC_CSR_LSIRDY) == 0U)
 8002cea:	4b41      	ldr	r3, [pc, #260]	; (8002df0 <HAL_RCC_OscConfig+0x504>)
 8002cec:	f8d3 3094 	ldr.w	r3, [r3, #148]	; 0x94
 8002cf0:	f003 0302 	and.w	r3, r3, #2
 8002cf4:	2b00      	cmp	r3, #0
 8002cf6:	d0ef      	beq.n	8002cd8 <HAL_RCC_OscConfig+0x3ec>
 8002cf8:	e01b      	b.n	8002d32 <HAL_RCC_OscConfig+0x446>
      }
    }
    else
    {
      /* Disable the Internal Low Speed oscillator (LSI). */
      __HAL_RCC_LSI_DISABLE();
 8002cfa:	4b3d      	ldr	r3, [pc, #244]	; (8002df0 <HAL_RCC_OscConfig+0x504>)
 8002cfc:	f8d3 3094 	ldr.w	r3, [r3, #148]	; 0x94
 8002d00:	4a3b      	ldr	r2, [pc, #236]	; (8002df0 <HAL_RCC_OscConfig+0x504>)
 8002d02:	f023 0301 	bic.w	r3, r3, #1
 8002d06:	f8c2 3094 	str.w	r3, [r2, #148]	; 0x94

      /* Get Start Tick*/
      tickstart = HAL_GetTick();
 8002d0a:	f7fd fee5 	bl	8000ad8 <HAL_GetTick>
 8002d0e:	6138      	str	r0, [r7, #16]

      /* Wait till LSI is disabled */
      while(READ_BIT(RCC->CSR, RCC_CSR_LSIRDY) != 0U)
 8002d10:	e008      	b.n	8002d24 <HAL_RCC_OscConfig+0x438>
      {
        if((HAL_GetTick() - tickstart) > LSI_TIMEOUT_VALUE)
 8002d12:	f7fd fee1 	bl	8000ad8 <HAL_GetTick>
 8002d16:	4602      	mov	r2, r0
 8002d18:	693b      	ldr	r3, [r7, #16]
 8002d1a:	1ad3      	subs	r3, r2, r3
 8002d1c:	2b02      	cmp	r3, #2
 8002d1e:	d901      	bls.n	8002d24 <HAL_RCC_OscConfig+0x438>
        {
          return HAL_TIMEOUT;
 8002d20:	2303      	movs	r3, #3
 8002d22:	e1ef      	b.n	8003104 <HAL_RCC_OscConfig+0x818>
      while(READ_BIT(RCC->CSR, RCC_CSR_LSIRDY) != 0U)
 8002d24:	4b32      	ldr	r3, [pc, #200]	; (8002df0 <HAL_RCC_OscConfig+0x504>)
 8002d26:	f8d3 3094 	ldr.w	r3, [r3, #148]	; 0x94
 8002d2a:	f003 0302 	and.w	r3, r3, #2
 8002d2e:	2b00      	cmp	r3, #0
 8002d30:	d1ef      	bne.n	8002d12 <HAL_RCC_OscConfig+0x426>
        }
      }
    }
  }
  /*------------------------------ LSE Configuration -------------------------*/
  if(((RCC_OscInitStruct->OscillatorType) & RCC_OSCILLATORTYPE_LSE) == RCC_OSCILLATORTYPE_LSE)
 8002d32:	687b      	ldr	r3, [r7, #4]
 8002d34:	681b      	ldr	r3, [r3, #0]
 8002d36:	f003 0304 	and.w	r3, r3, #4
 8002d3a:	2b00      	cmp	r3, #0
 8002d3c:	f000 80a6 	beq.w	8002e8c <HAL_RCC_OscConfig+0x5a0>
  {
    FlagStatus       pwrclkchanged = RESET;
 8002d40:	2300      	movs	r3, #0
 8002d42:	77fb      	strb	r3, [r7, #31]
    /* Check the parameters */
    assert_param(IS_RCC_LSE(RCC_OscInitStruct->LSEState));

    /* Update LSE configuration in Backup Domain control register    */
    /* Requires to enable write access to Backup Domain of necessary */
    if(HAL_IS_BIT_CLR(RCC->APB1ENR1, RCC_APB1ENR1_PWREN))
 8002d44:	4b2a      	ldr	r3, [pc, #168]	; (8002df0 <HAL_RCC_OscConfig+0x504>)
 8002d46:	6d9b      	ldr	r3, [r3, #88]	; 0x58
 8002d48:	f003 5380 	and.w	r3, r3, #268435456	; 0x10000000
 8002d4c:	2b00      	cmp	r3, #0
 8002d4e:	d10d      	bne.n	8002d6c <HAL_RCC_OscConfig+0x480>
    {
      __HAL_RCC_PWR_CLK_ENABLE();
 8002d50:	4b27      	ldr	r3, [pc, #156]	; (8002df0 <HAL_RCC_OscConfig+0x504>)
 8002d52:	6d9b      	ldr	r3, [r3, #88]	; 0x58
 8002d54:	4a26      	ldr	r2, [pc, #152]	; (8002df0 <HAL_RCC_OscConfig+0x504>)
 8002d56:	f043 5380 	orr.w	r3, r3, #268435456	; 0x10000000
 8002d5a:	6593      	str	r3, [r2, #88]	; 0x58
 8002d5c:	4b24      	ldr	r3, [pc, #144]	; (8002df0 <HAL_RCC_OscConfig+0x504>)
 8002d5e:	6d9b      	ldr	r3, [r3, #88]	; 0x58
 8002d60:	f003 5380 	and.w	r3, r3, #268435456	; 0x10000000
 8002d64:	60bb      	str	r3, [r7, #8]
 8002d66:	68bb      	ldr	r3, [r7, #8]
      pwrclkchanged = SET;
 8002d68:	2301      	movs	r3, #1
 8002d6a:	77fb      	strb	r3, [r7, #31]
    }

    if(HAL_IS_BIT_CLR(PWR->CR1, PWR_CR1_DBP))
 8002d6c:	4b21      	ldr	r3, [pc, #132]	; (8002df4 <HAL_RCC_OscConfig+0x508>)
 8002d6e:	681b      	ldr	r3, [r3, #0]
 8002d70:	f403 7380 	and.w	r3, r3, #256	; 0x100
 8002d74:	2b00      	cmp	r3, #0
 8002d76:	d118      	bne.n	8002daa <HAL_RCC_OscConfig+0x4be>
    {
      /* Enable write access to Backup domain */
      SET_BIT(PWR->CR1, PWR_CR1_DBP);
 8002d78:	4b1e      	ldr	r3, [pc, #120]	; (8002df4 <HAL_RCC_OscConfig+0x508>)
 8002d7a:	681b      	ldr	r3, [r3, #0]
 8002d7c:	4a1d      	ldr	r2, [pc, #116]	; (8002df4 <HAL_RCC_OscConfig+0x508>)
 8002d7e:	f443 7380 	orr.w	r3, r3, #256	; 0x100
 8002d82:	6013      	str	r3, [r2, #0]

      /* Wait for Backup domain Write protection disable */
      tickstart = HAL_GetTick();
 8002d84:	f7fd fea8 	bl	8000ad8 <HAL_GetTick>
 8002d88:	6138      	str	r0, [r7, #16]

      while(HAL_IS_BIT_CLR(PWR->CR1, PWR_CR1_DBP))
 8002d8a:	e008      	b.n	8002d9e <HAL_RCC_OscConfig+0x4b2>
      {
        if((HAL_GetTick() - tickstart) > RCC_DBP_TIMEOUT_VALUE)
 8002d8c:	f7fd fea4 	bl	8000ad8 <HAL_GetTick>
 8002d90:	4602      	mov	r2, r0
 8002d92:	693b      	ldr	r3, [r7, #16]
 8002d94:	1ad3      	subs	r3, r2, r3
 8002d96:	2b02      	cmp	r3, #2
 8002d98:	d901      	bls.n	8002d9e <HAL_RCC_OscConfig+0x4b2>
        {
          return HAL_TIMEOUT;
 8002d9a:	2303      	movs	r3, #3
 8002d9c:	e1b2      	b.n	8003104 <HAL_RCC_OscConfig+0x818>
      while(HAL_IS_BIT_CLR(PWR->CR1, PWR_CR1_DBP))
 8002d9e:	4b15      	ldr	r3, [pc, #84]	; (8002df4 <HAL_RCC_OscConfig+0x508>)
 8002da0:	681b      	ldr	r3, [r3, #0]
 8002da2:	f403 7380 	and.w	r3, r3, #256	; 0x100
 8002da6:	2b00      	cmp	r3, #0
 8002da8:	d0f0      	beq.n	8002d8c <HAL_RCC_OscConfig+0x4a0>
    {
      CLEAR_BIT(RCC->BDCR, RCC_BDCR_LSEON);
      CLEAR_BIT(RCC->BDCR, RCC_BDCR_LSEBYP);
    }
#else
    __HAL_RCC_LSE_CONFIG(RCC_OscInitStruct->LSEState);
 8002daa:	687b      	ldr	r3, [r7, #4]
 8002dac:	689b      	ldr	r3, [r3, #8]
 8002dae:	2b01      	cmp	r3, #1
 8002db0:	d108      	bne.n	8002dc4 <HAL_RCC_OscConfig+0x4d8>
 8002db2:	4b0f      	ldr	r3, [pc, #60]	; (8002df0 <HAL_RCC_OscConfig+0x504>)
 8002db4:	f8d3 3090 	ldr.w	r3, [r3, #144]	; 0x90
 8002db8:	4a0d      	ldr	r2, [pc, #52]	; (8002df0 <HAL_RCC_OscConfig+0x504>)
 8002dba:	f043 0301 	orr.w	r3, r3, #1
 8002dbe:	f8c2 3090 	str.w	r3, [r2, #144]	; 0x90
 8002dc2:	e029      	b.n	8002e18 <HAL_RCC_OscConfig+0x52c>
 8002dc4:	687b      	ldr	r3, [r7, #4]
 8002dc6:	689b      	ldr	r3, [r3, #8]
 8002dc8:	2b05      	cmp	r3, #5
 8002dca:	d115      	bne.n	8002df8 <HAL_RCC_OscConfig+0x50c>
 8002dcc:	4b08      	ldr	r3, [pc, #32]	; (8002df0 <HAL_RCC_OscConfig+0x504>)
 8002dce:	f8d3 3090 	ldr.w	r3, [r3, #144]	; 0x90
 8002dd2:	4a07      	ldr	r2, [pc, #28]	; (8002df0 <HAL_RCC_OscConfig+0x504>)
 8002dd4:	f043 0304 	orr.w	r3, r3, #4
 8002dd8:	f8c2 3090 	str.w	r3, [r2, #144]	; 0x90
 8002ddc:	4b04      	ldr	r3, [pc, #16]	; (8002df0 <HAL_RCC_OscConfig+0x504>)
 8002dde:	f8d3 3090 	ldr.w	r3, [r3, #144]	; 0x90
 8002de2:	4a03      	ldr	r2, [pc, #12]	; (8002df0 <HAL_RCC_OscConfig+0x504>)
 8002de4:	f043 0301 	orr.w	r3, r3, #1
 8002de8:	f8c2 3090 	str.w	r3, [r2, #144]	; 0x90
 8002dec:	e014      	b.n	8002e18 <HAL_RCC_OscConfig+0x52c>
 8002dee:	bf00      	nop
 8002df0:	40021000 	.word	0x40021000
 8002df4:	40007000 	.word	0x40007000
 8002df8:	4b9a      	ldr	r3, [pc, #616]	; (8003064 <HAL_RCC_OscConfig+0x778>)
 8002dfa:	f8d3 3090 	ldr.w	r3, [r3, #144]	; 0x90
 8002dfe:	4a99      	ldr	r2, [pc, #612]	; (8003064 <HAL_RCC_OscConfig+0x778>)
 8002e00:	f023 0301 	bic.w	r3, r3, #1
 8002e04:	f8c2 3090 	str.w	r3, [r2, #144]	; 0x90
 8002e08:	4b96      	ldr	r3, [pc, #600]	; (8003064 <HAL_RCC_OscConfig+0x778>)
 8002e0a:	f8d3 3090 	ldr.w	r3, [r3, #144]	; 0x90
 8002e0e:	4a95      	ldr	r2, [pc, #596]	; (8003064 <HAL_RCC_OscConfig+0x778>)
 8002e10:	f023 0304 	bic.w	r3, r3, #4
 8002e14:	f8c2 3090 	str.w	r3, [r2, #144]	; 0x90
#endif /* RCC_BDCR_LSESYSDIS */

    /* Check the LSE State */
    if(RCC_OscInitStruct->LSEState != RCC_LSE_OFF)
 8002e18:	687b      	ldr	r3, [r7, #4]
 8002e1a:	689b      	ldr	r3, [r3, #8]
 8002e1c:	2b00      	cmp	r3, #0
 8002e1e:	d016      	beq.n	8002e4e <HAL_RCC_OscConfig+0x562>
    {
      /* Get Start Tick*/
      tickstart = HAL_GetTick();
 8002e20:	f7fd fe5a 	bl	8000ad8 <HAL_GetTick>
 8002e24:	6138      	str	r0, [r7, #16]

      /* Wait till LSE is ready */
      while(READ_BIT(RCC->BDCR, RCC_BDCR_LSERDY) == 0U)
 8002e26:	e00a      	b.n	8002e3e <HAL_RCC_OscConfig+0x552>
      {
        if((HAL_GetTick() - tickstart) > RCC_LSE_TIMEOUT_VALUE)
 8002e28:	f7fd fe56 	bl	8000ad8 <HAL_GetTick>
 8002e2c:	4602      	mov	r2, r0
 8002e2e:	693b      	ldr	r3, [r7, #16]
 8002e30:	1ad3      	subs	r3, r2, r3
 8002e32:	f241 3288 	movw	r2, #5000	; 0x1388
 8002e36:	4293      	cmp	r3, r2
 8002e38:	d901      	bls.n	8002e3e <HAL_RCC_OscConfig+0x552>
        {
          return HAL_TIMEOUT;
 8002e3a:	2303      	movs	r3, #3
 8002e3c:	e162      	b.n	8003104 <HAL_RCC_OscConfig+0x818>
      while(READ_BIT(RCC->BDCR, RCC_BDCR_LSERDY) == 0U)
 8002e3e:	4b89      	ldr	r3, [pc, #548]	; (8003064 <HAL_RCC_OscConfig+0x778>)
 8002e40:	f8d3 3090 	ldr.w	r3, [r3, #144]	; 0x90
 8002e44:	f003 0302 	and.w	r3, r3, #2
 8002e48:	2b00      	cmp	r3, #0
 8002e4a:	d0ed      	beq.n	8002e28 <HAL_RCC_OscConfig+0x53c>
 8002e4c:	e015      	b.n	8002e7a <HAL_RCC_OscConfig+0x58e>
      }
    }
    else
    {
      /* Get Start Tick*/
      tickstart = HAL_GetTick();
 8002e4e:	f7fd fe43 	bl	8000ad8 <HAL_GetTick>
 8002e52:	6138      	str	r0, [r7, #16]

      /* Wait till LSE is disabled */
      while(READ_BIT(RCC->BDCR, RCC_BDCR_LSERDY) != 0U)
 8002e54:	e00a      	b.n	8002e6c <HAL_RCC_OscConfig+0x580>
      {
        if((HAL_GetTick() - tickstart) > RCC_LSE_TIMEOUT_VALUE)
 8002e56:	f7fd fe3f 	bl	8000ad8 <HAL_GetTick>
 8002e5a:	4602      	mov	r2, r0
 8002e5c:	693b      	ldr	r3, [r7, #16]
 8002e5e:	1ad3      	subs	r3, r2, r3
 8002e60:	f241 3288 	movw	r2, #5000	; 0x1388
 8002e64:	4293      	cmp	r3, r2
 8002e66:	d901      	bls.n	8002e6c <HAL_RCC_OscConfig+0x580>
        {
          return HAL_TIMEOUT;
 8002e68:	2303      	movs	r3, #3
 8002e6a:	e14b      	b.n	8003104 <HAL_RCC_OscConfig+0x818>
      while(READ_BIT(RCC->BDCR, RCC_BDCR_LSERDY) != 0U)
 8002e6c:	4b7d      	ldr	r3, [pc, #500]	; (8003064 <HAL_RCC_OscConfig+0x778>)
 8002e6e:	f8d3 3090 	ldr.w	r3, [r3, #144]	; 0x90
 8002e72:	f003 0302 	and.w	r3, r3, #2
 8002e76:	2b00      	cmp	r3, #0
 8002e78:	d1ed      	bne.n	8002e56 <HAL_RCC_OscConfig+0x56a>
      CLEAR_BIT(RCC->BDCR, RCC_BDCR_LSESYSDIS);
#endif /* RCC_BDCR_LSESYSDIS */
    }

    /* Restore clock configuration if changed */
    if(pwrclkchanged == SET)
 8002e7a:	7ffb      	ldrb	r3, [r7, #31]
 8002e7c:	2b01      	cmp	r3, #1
 8002e7e:	d105      	bne.n	8002e8c <HAL_RCC_OscConfig+0x5a0>
    {
      __HAL_RCC_PWR_CLK_DISABLE();
 8002e80:	4b78      	ldr	r3, [pc, #480]	; (8003064 <HAL_RCC_OscConfig+0x778>)
 8002e82:	6d9b      	ldr	r3, [r3, #88]	; 0x58
 8002e84:	4a77      	ldr	r2, [pc, #476]	; (8003064 <HAL_RCC_OscConfig+0x778>)
 8002e86:	f023 5380 	bic.w	r3, r3, #268435456	; 0x10000000
 8002e8a:	6593      	str	r3, [r2, #88]	; 0x58
    }
  }
#if defined(RCC_HSI48_SUPPORT)
  /*------------------------------ HSI48 Configuration -----------------------*/
  if(((RCC_OscInitStruct->OscillatorType) & RCC_OSCILLATORTYPE_HSI48) == RCC_OSCILLATORTYPE_HSI48)
 8002e8c:	687b      	ldr	r3, [r7, #4]
 8002e8e:	681b      	ldr	r3, [r3, #0]
 8002e90:	f003 0320 	and.w	r3, r3, #32
 8002e94:	2b00      	cmp	r3, #0
 8002e96:	d03c      	beq.n	8002f12 <HAL_RCC_OscConfig+0x626>
  {
    /* Check the parameters */
    assert_param(IS_RCC_HSI48(RCC_OscInitStruct->HSI48State));

    /* Check the LSI State */
    if(RCC_OscInitStruct->HSI48State != RCC_HSI48_OFF)
 8002e98:	687b      	ldr	r3, [r7, #4]
 8002e9a:	6a5b      	ldr	r3, [r3, #36]	; 0x24
 8002e9c:	2b00      	cmp	r3, #0
 8002e9e:	d01c      	beq.n	8002eda <HAL_RCC_OscConfig+0x5ee>
    {
      /* Enable the Internal Low Speed oscillator (HSI48). */
      __HAL_RCC_HSI48_ENABLE();
 8002ea0:	4b70      	ldr	r3, [pc, #448]	; (8003064 <HAL_RCC_OscConfig+0x778>)
 8002ea2:	f8d3 3098 	ldr.w	r3, [r3, #152]	; 0x98
 8002ea6:	4a6f      	ldr	r2, [pc, #444]	; (8003064 <HAL_RCC_OscConfig+0x778>)
 8002ea8:	f043 0301 	orr.w	r3, r3, #1
 8002eac:	f8c2 3098 	str.w	r3, [r2, #152]	; 0x98

      /* Get Start Tick*/
      tickstart = HAL_GetTick();
 8002eb0:	f7fd fe12 	bl	8000ad8 <HAL_GetTick>
 8002eb4:	6138      	str	r0, [r7, #16]

      /* Wait till HSI48 is ready */
      while(READ_BIT(RCC->CRRCR, RCC_CRRCR_HSI48RDY) == 0U)
 8002eb6:	e008      	b.n	8002eca <HAL_RCC_OscConfig+0x5de>
      {
        if((HAL_GetTick() - tickstart) > HSI48_TIMEOUT_VALUE)
 8002eb8:	f7fd fe0e 	bl	8000ad8 <HAL_GetTick>
 8002ebc:	4602      	mov	r2, r0
 8002ebe:	693b      	ldr	r3, [r7, #16]
 8002ec0:	1ad3      	subs	r3, r2, r3
 8002ec2:	2b02      	cmp	r3, #2
 8002ec4:	d901      	bls.n	8002eca <HAL_RCC_OscConfig+0x5de>
        {
          return HAL_TIMEOUT;
 8002ec6:	2303      	movs	r3, #3
 8002ec8:	e11c      	b.n	8003104 <HAL_RCC_OscConfig+0x818>
      while(READ_BIT(RCC->CRRCR, RCC_CRRCR_HSI48RDY) == 0U)
 8002eca:	4b66      	ldr	r3, [pc, #408]	; (8003064 <HAL_RCC_OscConfig+0x778>)
 8002ecc:	f8d3 3098 	ldr.w	r3, [r3, #152]	; 0x98
 8002ed0:	f003 0302 	and.w	r3, r3, #2
 8002ed4:	2b00      	cmp	r3, #0
 8002ed6:	d0ef      	beq.n	8002eb8 <HAL_RCC_OscConfig+0x5cc>
 8002ed8:	e01b      	b.n	8002f12 <HAL_RCC_OscConfig+0x626>
      }
    }
    else
    {
      /* Disable the Internal Low Speed oscillator (HSI48). */
      __HAL_RCC_HSI48_DISABLE();
 8002eda:	4b62      	ldr	r3, [pc, #392]	; (8003064 <HAL_RCC_OscConfig+0x778>)
 8002edc:	f8d3 3098 	ldr.w	r3, [r3, #152]	; 0x98
 8002ee0:	4a60      	ldr	r2, [pc, #384]	; (8003064 <HAL_RCC_OscConfig+0x778>)
 8002ee2:	f023 0301 	bic.w	r3, r3, #1
 8002ee6:	f8c2 3098 	str.w	r3, [r2, #152]	; 0x98

      /* Get Start Tick*/
      tickstart = HAL_GetTick();
 8002eea:	f7fd fdf5 	bl	8000ad8 <HAL_GetTick>
 8002eee:	6138      	str	r0, [r7, #16]

      /* Wait till HSI48 is disabled */
      while(READ_BIT(RCC->CRRCR, RCC_CRRCR_HSI48RDY) != 0U)
 8002ef0:	e008      	b.n	8002f04 <HAL_RCC_OscConfig+0x618>
      {
        if((HAL_GetTick() - tickstart) > HSI48_TIMEOUT_VALUE)
 8002ef2:	f7fd fdf1 	bl	8000ad8 <HAL_GetTick>
 8002ef6:	4602      	mov	r2, r0
 8002ef8:	693b      	ldr	r3, [r7, #16]
 8002efa:	1ad3      	subs	r3, r2, r3
 8002efc:	2b02      	cmp	r3, #2
 8002efe:	d901      	bls.n	8002f04 <HAL_RCC_OscConfig+0x618>
        {
          return HAL_TIMEOUT;
 8002f00:	2303      	movs	r3, #3
 8002f02:	e0ff      	b.n	8003104 <HAL_RCC_OscConfig+0x818>
      while(READ_BIT(RCC->CRRCR, RCC_CRRCR_HSI48RDY) != 0U)
 8002f04:	4b57      	ldr	r3, [pc, #348]	; (8003064 <HAL_RCC_OscConfig+0x778>)
 8002f06:	f8d3 3098 	ldr.w	r3, [r3, #152]	; 0x98
 8002f0a:	f003 0302 	and.w	r3, r3, #2
 8002f0e:	2b00      	cmp	r3, #0
 8002f10:	d1ef      	bne.n	8002ef2 <HAL_RCC_OscConfig+0x606>
#endif /* RCC_HSI48_SUPPORT */
  /*-------------------------------- PLL Configuration -----------------------*/
  /* Check the parameters */
  assert_param(IS_RCC_PLL(RCC_OscInitStruct->PLL.PLLState));

  if(RCC_OscInitStruct->PLL.PLLState != RCC_PLL_NONE)
 8002f12:	687b      	ldr	r3, [r7, #4]
 8002f14:	6a9b      	ldr	r3, [r3, #40]	; 0x28
 8002f16:	2b00      	cmp	r3, #0
 8002f18:	f000 80f3 	beq.w	8003102 <HAL_RCC_OscConfig+0x816>
  {
    /* PLL On ? */
    if(RCC_OscInitStruct->PLL.PLLState == RCC_PLL_ON)
 8002f1c:	687b      	ldr	r3, [r7, #4]
 8002f1e:	6a9b      	ldr	r3, [r3, #40]	; 0x28
 8002f20:	2b02      	cmp	r3, #2
 8002f22:	f040 80c9 	bne.w	80030b8 <HAL_RCC_OscConfig+0x7cc>
#endif /* RCC_PLLP_SUPPORT */
      assert_param(IS_RCC_PLLQ_VALUE(RCC_OscInitStruct->PLL.PLLQ));
      assert_param(IS_RCC_PLLR_VALUE(RCC_OscInitStruct->PLL.PLLR));

      /* Do nothing if PLL configuration is the unchanged */
      pll_config = RCC->PLLCFGR;
 8002f26:	4b4f      	ldr	r3, [pc, #316]	; (8003064 <HAL_RCC_OscConfig+0x778>)
 8002f28:	68db      	ldr	r3, [r3, #12]
 8002f2a:	617b      	str	r3, [r7, #20]
      if((READ_BIT(pll_config, RCC_PLLCFGR_PLLSRC)  != RCC_OscInitStruct->PLL.PLLSource) ||
 8002f2c:	697b      	ldr	r3, [r7, #20]
 8002f2e:	f003 0203 	and.w	r2, r3, #3
 8002f32:	687b      	ldr	r3, [r7, #4]
 8002f34:	6adb      	ldr	r3, [r3, #44]	; 0x2c
 8002f36:	429a      	cmp	r2, r3
 8002f38:	d12c      	bne.n	8002f94 <HAL_RCC_OscConfig+0x6a8>
         (READ_BIT(pll_config, RCC_PLLCFGR_PLLM)    != ((RCC_OscInitStruct->PLL.PLLM - 1U) << RCC_PLLCFGR_PLLM_Pos)) ||
 8002f3a:	697b      	ldr	r3, [r7, #20]
 8002f3c:	f003 0270 	and.w	r2, r3, #112	; 0x70
 8002f40:	687b      	ldr	r3, [r7, #4]
 8002f42:	6b1b      	ldr	r3, [r3, #48]	; 0x30
 8002f44:	3b01      	subs	r3, #1
 8002f46:	011b      	lsls	r3, r3, #4
      if((READ_BIT(pll_config, RCC_PLLCFGR_PLLSRC)  != RCC_OscInitStruct->PLL.PLLSource) ||
 8002f48:	429a      	cmp	r2, r3
 8002f4a:	d123      	bne.n	8002f94 <HAL_RCC_OscConfig+0x6a8>
         (READ_BIT(pll_config, RCC_PLLCFGR_PLLN)    != (RCC_OscInitStruct->PLL.PLLN << RCC_PLLCFGR_PLLN_Pos)) ||
 8002f4c:	697b      	ldr	r3, [r7, #20]
 8002f4e:	f403 42fe 	and.w	r2, r3, #32512	; 0x7f00
 8002f52:	687b      	ldr	r3, [r7, #4]
 8002f54:	6b5b      	ldr	r3, [r3, #52]	; 0x34
 8002f56:	021b      	lsls	r3, r3, #8
         (READ_BIT(pll_config, RCC_PLLCFGR_PLLM)    != ((RCC_OscInitStruct->PLL.PLLM - 1U) << RCC_PLLCFGR_PLLM_Pos)) ||
 8002f58:	429a      	cmp	r2, r3
 8002f5a:	d11b      	bne.n	8002f94 <HAL_RCC_OscConfig+0x6a8>
#if defined(RCC_PLLP_SUPPORT)
#if defined(RCC_PLLP_DIV_2_31_SUPPORT)
         (READ_BIT(pll_config, RCC_PLLCFGR_PLLPDIV) != (RCC_OscInitStruct->PLL.PLLP << RCC_PLLCFGR_PLLPDIV_Pos)) ||
 8002f5c:	697b      	ldr	r3, [r7, #20]
 8002f5e:	f003 4278 	and.w	r2, r3, #4160749568	; 0xf8000000
 8002f62:	687b      	ldr	r3, [r7, #4]
 8002f64:	6b9b      	ldr	r3, [r3, #56]	; 0x38
 8002f66:	06db      	lsls	r3, r3, #27
         (READ_BIT(pll_config, RCC_PLLCFGR_PLLN)    != (RCC_OscInitStruct->PLL.PLLN << RCC_PLLCFGR_PLLN_Pos)) ||
 8002f68:	429a      	cmp	r2, r3
 8002f6a:	d113      	bne.n	8002f94 <HAL_RCC_OscConfig+0x6a8>
#else
         (READ_BIT(pll_config, RCC_PLLCFGR_PLLP)    != ((RCC_OscInitStruct->PLL.PLLP == RCC_PLLP_DIV7) ? 0U : 1U)) ||
#endif
#endif
         (READ_BIT(pll_config, RCC_PLLCFGR_PLLQ)    != ((((RCC_OscInitStruct->PLL.PLLQ) >> 1U) - 1U) << RCC_PLLCFGR_PLLQ_Pos)) ||
 8002f6c:	697b      	ldr	r3, [r7, #20]
 8002f6e:	f403 02c0 	and.w	r2, r3, #6291456	; 0x600000
 8002f72:	687b      	ldr	r3, [r7, #4]
 8002f74:	6bdb      	ldr	r3, [r3, #60]	; 0x3c
 8002f76:	085b      	lsrs	r3, r3, #1
 8002f78:	3b01      	subs	r3, #1
 8002f7a:	055b      	lsls	r3, r3, #21
         (READ_BIT(pll_config, RCC_PLLCFGR_PLLPDIV) != (RCC_OscInitStruct->PLL.PLLP << RCC_PLLCFGR_PLLPDIV_Pos)) ||
 8002f7c:	429a      	cmp	r2, r3
 8002f7e:	d109      	bne.n	8002f94 <HAL_RCC_OscConfig+0x6a8>
         (READ_BIT(pll_config, RCC_PLLCFGR_PLLR)    != ((((RCC_OscInitStruct->PLL.PLLR) >> 1U) - 1U) << RCC_PLLCFGR_PLLR_Pos)))
 8002f80:	697b      	ldr	r3, [r7, #20]
 8002f82:	f003 62c0 	and.w	r2, r3, #100663296	; 0x6000000
 8002f86:	687b      	ldr	r3, [r7, #4]
 8002f88:	6c1b      	ldr	r3, [r3, #64]	; 0x40
 8002f8a:	085b      	lsrs	r3, r3, #1
 8002f8c:	3b01      	subs	r3, #1
 8002f8e:	065b      	lsls	r3, r3, #25
         (READ_BIT(pll_config, RCC_PLLCFGR_PLLQ)    != ((((RCC_OscInitStruct->PLL.PLLQ) >> 1U) - 1U) << RCC_PLLCFGR_PLLQ_Pos)) ||
 8002f90:	429a      	cmp	r2, r3
 8002f92:	d06b      	beq.n	800306c <HAL_RCC_OscConfig+0x780>
      {
        /* Check if the PLL is used as system clock or not */
        if(sysclk_source != RCC_CFGR_SWS_PLL)
 8002f94:	69bb      	ldr	r3, [r7, #24]
 8002f96:	2b0c      	cmp	r3, #12
 8002f98:	d062      	beq.n	8003060 <HAL_RCC_OscConfig+0x774>
        {
#if defined(RCC_PLLSAI1_SUPPORT) || defined(RCC_PLLSAI2_SUPPORT)
          /* Check if main PLL can be updated */
          /* Not possible if the source is shared by other enabled PLLSAIx */
          if((READ_BIT(RCC->CR, RCC_CR_PLLSAI1ON) != 0U)
 8002f9a:	4b32      	ldr	r3, [pc, #200]	; (8003064 <HAL_RCC_OscConfig+0x778>)
 8002f9c:	681b      	ldr	r3, [r3, #0]
 8002f9e:	f003 6380 	and.w	r3, r3, #67108864	; 0x4000000
 8002fa2:	2b00      	cmp	r3, #0
 8002fa4:	d001      	beq.n	8002faa <HAL_RCC_OscConfig+0x6be>
#if defined(RCC_PLLSAI2_SUPPORT)
             || (READ_BIT(RCC->CR, RCC_CR_PLLSAI2ON) != 0U)
#endif
            )
          {
            return HAL_ERROR;
 8002fa6:	2301      	movs	r3, #1
 8002fa8:	e0ac      	b.n	8003104 <HAL_RCC_OscConfig+0x818>
          }
          else
#endif /* RCC_PLLSAI1_SUPPORT || RCC_PLLSAI2_SUPPORT */
          {
            /* Disable the main PLL. */
            __HAL_RCC_PLL_DISABLE();
 8002faa:	4b2e      	ldr	r3, [pc, #184]	; (8003064 <HAL_RCC_OscConfig+0x778>)
 8002fac:	681b      	ldr	r3, [r3, #0]
 8002fae:	4a2d      	ldr	r2, [pc, #180]	; (8003064 <HAL_RCC_OscConfig+0x778>)
 8002fb0:	f023 7380 	bic.w	r3, r3, #16777216	; 0x1000000
 8002fb4:	6013      	str	r3, [r2, #0]

            /* Get Start Tick*/
            tickstart = HAL_GetTick();
 8002fb6:	f7fd fd8f 	bl	8000ad8 <HAL_GetTick>
 8002fba:	6138      	str	r0, [r7, #16]

            /* Wait till PLL is ready */
            while(READ_BIT(RCC->CR, RCC_CR_PLLRDY) != 0U)
 8002fbc:	e008      	b.n	8002fd0 <HAL_RCC_OscConfig+0x6e4>
            {
              if((HAL_GetTick() - tickstart) > PLL_TIMEOUT_VALUE)
 8002fbe:	f7fd fd8b 	bl	8000ad8 <HAL_GetTick>
 8002fc2:	4602      	mov	r2, r0
 8002fc4:	693b      	ldr	r3, [r7, #16]
 8002fc6:	1ad3      	subs	r3, r2, r3
 8002fc8:	2b02      	cmp	r3, #2
 8002fca:	d901      	bls.n	8002fd0 <HAL_RCC_OscConfig+0x6e4>
              {
                return HAL_TIMEOUT;
 8002fcc:	2303      	movs	r3, #3
 8002fce:	e099      	b.n	8003104 <HAL_RCC_OscConfig+0x818>
            while(READ_BIT(RCC->CR, RCC_CR_PLLRDY) != 0U)
 8002fd0:	4b24      	ldr	r3, [pc, #144]	; (8003064 <HAL_RCC_OscConfig+0x778>)
 8002fd2:	681b      	ldr	r3, [r3, #0]
 8002fd4:	f003 7300 	and.w	r3, r3, #33554432	; 0x2000000
 8002fd8:	2b00      	cmp	r3, #0
 8002fda:	d1f0      	bne.n	8002fbe <HAL_RCC_OscConfig+0x6d2>
              }
            }

            /* Configure the main PLL clock source, multiplication and division factors. */
#if defined(RCC_PLLP_SUPPORT)
            __HAL_RCC_PLL_CONFIG(RCC_OscInitStruct->PLL.PLLSource,
 8002fdc:	4b21      	ldr	r3, [pc, #132]	; (8003064 <HAL_RCC_OscConfig+0x778>)
 8002fde:	68da      	ldr	r2, [r3, #12]
 8002fe0:	4b21      	ldr	r3, [pc, #132]	; (8003068 <HAL_RCC_OscConfig+0x77c>)
 8002fe2:	4013      	ands	r3, r2
 8002fe4:	687a      	ldr	r2, [r7, #4]
 8002fe6:	6ad1      	ldr	r1, [r2, #44]	; 0x2c
 8002fe8:	687a      	ldr	r2, [r7, #4]
 8002fea:	6b12      	ldr	r2, [r2, #48]	; 0x30
 8002fec:	3a01      	subs	r2, #1
 8002fee:	0112      	lsls	r2, r2, #4
 8002ff0:	4311      	orrs	r1, r2
 8002ff2:	687a      	ldr	r2, [r7, #4]
 8002ff4:	6b52      	ldr	r2, [r2, #52]	; 0x34
 8002ff6:	0212      	lsls	r2, r2, #8
 8002ff8:	4311      	orrs	r1, r2
 8002ffa:	687a      	ldr	r2, [r7, #4]
 8002ffc:	6bd2      	ldr	r2, [r2, #60]	; 0x3c
 8002ffe:	0852      	lsrs	r2, r2, #1
 8003000:	3a01      	subs	r2, #1
 8003002:	0552      	lsls	r2, r2, #21
 8003004:	4311      	orrs	r1, r2
 8003006:	687a      	ldr	r2, [r7, #4]
 8003008:	6c12      	ldr	r2, [r2, #64]	; 0x40
 800300a:	0852      	lsrs	r2, r2, #1
 800300c:	3a01      	subs	r2, #1
 800300e:	0652      	lsls	r2, r2, #25
 8003010:	4311      	orrs	r1, r2
 8003012:	687a      	ldr	r2, [r7, #4]
 8003014:	6b92      	ldr	r2, [r2, #56]	; 0x38
 8003016:	06d2      	lsls	r2, r2, #27
 8003018:	430a      	orrs	r2, r1
 800301a:	4912      	ldr	r1, [pc, #72]	; (8003064 <HAL_RCC_OscConfig+0x778>)
 800301c:	4313      	orrs	r3, r2
 800301e:	60cb      	str	r3, [r1, #12]
                                 RCC_OscInitStruct->PLL.PLLQ,
                                 RCC_OscInitStruct->PLL.PLLR);
#endif

            /* Enable the main PLL. */
            __HAL_RCC_PLL_ENABLE();
 8003020:	4b10      	ldr	r3, [pc, #64]	; (8003064 <HAL_RCC_OscConfig+0x778>)
 8003022:	681b      	ldr	r3, [r3, #0]
 8003024:	4a0f      	ldr	r2, [pc, #60]	; (8003064 <HAL_RCC_OscConfig+0x778>)
 8003026:	f043 7380 	orr.w	r3, r3, #16777216	; 0x1000000
 800302a:	6013      	str	r3, [r2, #0]

            /* Enable PLL System Clock output. */
            __HAL_RCC_PLLCLKOUT_ENABLE(RCC_PLL_SYSCLK);
 800302c:	4b0d      	ldr	r3, [pc, #52]	; (8003064 <HAL_RCC_OscConfig+0x778>)
 800302e:	68db      	ldr	r3, [r3, #12]
 8003030:	4a0c      	ldr	r2, [pc, #48]	; (8003064 <HAL_RCC_OscConfig+0x778>)
 8003032:	f043 7380 	orr.w	r3, r3, #16777216	; 0x1000000
 8003036:	60d3      	str	r3, [r2, #12]

            /* Get Start Tick*/
            tickstart = HAL_GetTick();
 8003038:	f7fd fd4e 	bl	8000ad8 <HAL_GetTick>
 800303c:	6138      	str	r0, [r7, #16]

            /* Wait till PLL is ready */
            while(READ_BIT(RCC->CR, RCC_CR_PLLRDY) == 0U)
 800303e:	e008      	b.n	8003052 <HAL_RCC_OscConfig+0x766>
            {
              if((HAL_GetTick() - tickstart) > PLL_TIMEOUT_VALUE)
 8003040:	f7fd fd4a 	bl	8000ad8 <HAL_GetTick>
 8003044:	4602      	mov	r2, r0
 8003046:	693b      	ldr	r3, [r7, #16]
 8003048:	1ad3      	subs	r3, r2, r3
 800304a:	2b02      	cmp	r3, #2
 800304c:	d901      	bls.n	8003052 <HAL_RCC_OscConfig+0x766>
              {
                return HAL_TIMEOUT;
 800304e:	2303      	movs	r3, #3
 8003050:	e058      	b.n	8003104 <HAL_RCC_OscConfig+0x818>
            while(READ_BIT(RCC->CR, RCC_CR_PLLRDY) == 0U)
 8003052:	4b04      	ldr	r3, [pc, #16]	; (8003064 <HAL_RCC_OscConfig+0x778>)
 8003054:	681b      	ldr	r3, [r3, #0]
 8003056:	f003 7300 	and.w	r3, r3, #33554432	; 0x2000000
 800305a:	2b00      	cmp	r3, #0
 800305c:	d0f0      	beq.n	8003040 <HAL_RCC_OscConfig+0x754>
        if(sysclk_source != RCC_CFGR_SWS_PLL)
 800305e:	e050      	b.n	8003102 <HAL_RCC_OscConfig+0x816>
          }
        }
        else
        {
          /* PLL is already used as System core clock */
          return HAL_ERROR;
 8003060:	2301      	movs	r3, #1
 8003062:	e04f      	b.n	8003104 <HAL_RCC_OscConfig+0x818>
 8003064:	40021000 	.word	0x40021000
 8003068:	019d808c 	.word	0x019d808c
      }
      else
      {
        /* PLL configuration is unchanged */
        /* Re-enable PLL if it was disabled (ie. low power mode) */
        if(READ_BIT(RCC->CR, RCC_CR_PLLRDY) == 0U)
 800306c:	4b27      	ldr	r3, [pc, #156]	; (800310c <HAL_RCC_OscConfig+0x820>)
 800306e:	681b      	ldr	r3, [r3, #0]
 8003070:	f003 7300 	and.w	r3, r3, #33554432	; 0x2000000
 8003074:	2b00      	cmp	r3, #0
 8003076:	d144      	bne.n	8003102 <HAL_RCC_OscConfig+0x816>
        {
          /* Enable the main PLL. */
          __HAL_RCC_PLL_ENABLE();
 8003078:	4b24      	ldr	r3, [pc, #144]	; (800310c <HAL_RCC_OscConfig+0x820>)
 800307a:	681b      	ldr	r3, [r3, #0]
 800307c:	4a23      	ldr	r2, [pc, #140]	; (800310c <HAL_RCC_OscConfig+0x820>)
 800307e:	f043 7380 	orr.w	r3, r3, #16777216	; 0x1000000
 8003082:	6013      	str	r3, [r2, #0]

          /* Enable PLL System Clock output. */
          __HAL_RCC_PLLCLKOUT_ENABLE(RCC_PLL_SYSCLK);
 8003084:	4b21      	ldr	r3, [pc, #132]	; (800310c <HAL_RCC_OscConfig+0x820>)
 8003086:	68db      	ldr	r3, [r3, #12]
 8003088:	4a20      	ldr	r2, [pc, #128]	; (800310c <HAL_RCC_OscConfig+0x820>)
 800308a:	f043 7380 	orr.w	r3, r3, #16777216	; 0x1000000
 800308e:	60d3      	str	r3, [r2, #12]

          /* Get Start Tick*/
          tickstart = HAL_GetTick();
 8003090:	f7fd fd22 	bl	8000ad8 <HAL_GetTick>
 8003094:	6138      	str	r0, [r7, #16]

          /* Wait till PLL is ready */
          while(READ_BIT(RCC->CR, RCC_CR_PLLRDY) == 0U)
 8003096:	e008      	b.n	80030aa <HAL_RCC_OscConfig+0x7be>
          {
            if((HAL_GetTick() - tickstart) > PLL_TIMEOUT_VALUE)
 8003098:	f7fd fd1e 	bl	8000ad8 <HAL_GetTick>
 800309c:	4602      	mov	r2, r0
 800309e:	693b      	ldr	r3, [r7, #16]
 80030a0:	1ad3      	subs	r3, r2, r3
 80030a2:	2b02      	cmp	r3, #2
 80030a4:	d901      	bls.n	80030aa <HAL_RCC_OscConfig+0x7be>
            {
              return HAL_TIMEOUT;
 80030a6:	2303      	movs	r3, #3
 80030a8:	e02c      	b.n	8003104 <HAL_RCC_OscConfig+0x818>
          while(READ_BIT(RCC->CR, RCC_CR_PLLRDY) == 0U)
 80030aa:	4b18      	ldr	r3, [pc, #96]	; (800310c <HAL_RCC_OscConfig+0x820>)
 80030ac:	681b      	ldr	r3, [r3, #0]
 80030ae:	f003 7300 	and.w	r3, r3, #33554432	; 0x2000000
 80030b2:	2b00      	cmp	r3, #0
 80030b4:	d0f0      	beq.n	8003098 <HAL_RCC_OscConfig+0x7ac>
 80030b6:	e024      	b.n	8003102 <HAL_RCC_OscConfig+0x816>
      }
    }
    else
    {
      /* Check that PLL is not used as system clock or not */
      if(sysclk_source != RCC_CFGR_SWS_PLL)
 80030b8:	69bb      	ldr	r3, [r7, #24]
 80030ba:	2b0c      	cmp	r3, #12
 80030bc:	d01f      	beq.n	80030fe <HAL_RCC_OscConfig+0x812>
      {
        /* Disable the main PLL. */
        __HAL_RCC_PLL_DISABLE();
 80030be:	4b13      	ldr	r3, [pc, #76]	; (800310c <HAL_RCC_OscConfig+0x820>)
 80030c0:	681b      	ldr	r3, [r3, #0]
 80030c2:	4a12      	ldr	r2, [pc, #72]	; (800310c <HAL_RCC_OscConfig+0x820>)
 80030c4:	f023 7380 	bic.w	r3, r3, #16777216	; 0x1000000
 80030c8:	6013      	str	r3, [r2, #0]

        /* Get Start Tick*/
        tickstart = HAL_GetTick();
 80030ca:	f7fd fd05 	bl	8000ad8 <HAL_GetTick>
 80030ce:	6138      	str	r0, [r7, #16]

        /* Wait till PLL is disabled */
        while(READ_BIT(RCC->CR, RCC_CR_PLLRDY) != 0U)
 80030d0:	e008      	b.n	80030e4 <HAL_RCC_OscConfig+0x7f8>
        {
          if((HAL_GetTick() - tickstart) > PLL_TIMEOUT_VALUE)
 80030d2:	f7fd fd01 	bl	8000ad8 <HAL_GetTick>
 80030d6:	4602      	mov	r2, r0
 80030d8:	693b      	ldr	r3, [r7, #16]
 80030da:	1ad3      	subs	r3, r2, r3
 80030dc:	2b02      	cmp	r3, #2
 80030de:	d901      	bls.n	80030e4 <HAL_RCC_OscConfig+0x7f8>
          {
            return HAL_TIMEOUT;
 80030e0:	2303      	movs	r3, #3
 80030e2:	e00f      	b.n	8003104 <HAL_RCC_OscConfig+0x818>
        while(READ_BIT(RCC->CR, RCC_CR_PLLRDY) != 0U)
 80030e4:	4b09      	ldr	r3, [pc, #36]	; (800310c <HAL_RCC_OscConfig+0x820>)
 80030e6:	681b      	ldr	r3, [r3, #0]
 80030e8:	f003 7300 	and.w	r3, r3, #33554432	; 0x2000000
 80030ec:	2b00      	cmp	r3, #0
 80030ee:	d1f0      	bne.n	80030d2 <HAL_RCC_OscConfig+0x7e6>
        }
        /* Unselect main PLL clock source and disable main PLL outputs to save power */
#if defined(RCC_PLLSAI2_SUPPORT)
        RCC->PLLCFGR &= ~(RCC_PLLCFGR_PLLSRC | RCC_PLL_SYSCLK | RCC_PLL_48M1CLK | RCC_PLL_SAI3CLK);
#elif defined(RCC_PLLSAI1_SUPPORT)
        RCC->PLLCFGR &= ~(RCC_PLLCFGR_PLLSRC | RCC_PLL_SYSCLK | RCC_PLL_48M1CLK | RCC_PLL_SAI2CLK);
 80030f0:	4b06      	ldr	r3, [pc, #24]	; (800310c <HAL_RCC_OscConfig+0x820>)
 80030f2:	68da      	ldr	r2, [r3, #12]
 80030f4:	4905      	ldr	r1, [pc, #20]	; (800310c <HAL_RCC_OscConfig+0x820>)
 80030f6:	4b06      	ldr	r3, [pc, #24]	; (8003110 <HAL_RCC_OscConfig+0x824>)
 80030f8:	4013      	ands	r3, r2
 80030fa:	60cb      	str	r3, [r1, #12]
 80030fc:	e001      	b.n	8003102 <HAL_RCC_OscConfig+0x816>
#endif /* RCC_PLLSAI2_SUPPORT */
      }
      else
      {
        /* PLL is already used as System core clock */
        return HAL_ERROR;
 80030fe:	2301      	movs	r3, #1
 8003100:	e000      	b.n	8003104 <HAL_RCC_OscConfig+0x818>
      }
    }
  }
  return HAL_OK;
 8003102:	2300      	movs	r3, #0
}
 8003104:	4618      	mov	r0, r3
 8003106:	3720      	adds	r7, #32
 8003108:	46bd      	mov	sp, r7
 800310a:	bd80      	pop	{r7, pc}
 800310c:	40021000 	.word	0x40021000
 8003110:	feeefffc 	.word	0xfeeefffc

08003114 <HAL_RCC_ClockConfig>:
  *         HPRE[3:0] bits to ensure that HCLK not exceed the maximum allowed frequency
  *         (for more details refer to section above "Initialization/de-initialization functions")
  * @retval None
  */
HAL_StatusTypeDef HAL_RCC_ClockConfig(RCC_ClkInitTypeDef  *RCC_ClkInitStruct, uint32_t FLatency)
{
 8003114:	b580      	push	{r7, lr}
 8003116:	b084      	sub	sp, #16
 8003118:	af00      	add	r7, sp, #0
 800311a:	6078      	str	r0, [r7, #4]
 800311c:	6039      	str	r1, [r7, #0]
  uint32_t hpre = RCC_SYSCLK_DIV1;
#endif
  HAL_StatusTypeDef status;

  /* Check Null pointer */
  if(RCC_ClkInitStruct == NULL)
 800311e:	687b      	ldr	r3, [r7, #4]
 8003120:	2b00      	cmp	r3, #0
 8003122:	d101      	bne.n	8003128 <HAL_RCC_ClockConfig+0x14>
  {
    return HAL_ERROR;
 8003124:	2301      	movs	r3, #1
 8003126:	e0e7      	b.n	80032f8 <HAL_RCC_ClockConfig+0x1e4>
  /* To correctly read data from FLASH memory, the number of wait states (LATENCY)
    must be correctly programmed according to the frequency of the CPU clock
    (HCLK) and the supply voltage of the device. */

  /* Increasing the number of wait states because of higher CPU frequency */
  if(FLatency > __HAL_FLASH_GET_LATENCY())
 8003128:	4b75      	ldr	r3, [pc, #468]	; (8003300 <HAL_RCC_ClockConfig+0x1ec>)
 800312a:	681b      	ldr	r3, [r3, #0]
 800312c:	f003 0307 	and.w	r3, r3, #7
 8003130:	683a      	ldr	r2, [r7, #0]
 8003132:	429a      	cmp	r2, r3
 8003134:	d910      	bls.n	8003158 <HAL_RCC_ClockConfig+0x44>
  {
    /* Program the new number of wait states to the LATENCY bits in the FLASH_ACR register */
    __HAL_FLASH_SET_LATENCY(FLatency);
 8003136:	4b72      	ldr	r3, [pc, #456]	; (8003300 <HAL_RCC_ClockConfig+0x1ec>)
 8003138:	681b      	ldr	r3, [r3, #0]
 800313a:	f023 0207 	bic.w	r2, r3, #7
 800313e:	4970      	ldr	r1, [pc, #448]	; (8003300 <HAL_RCC_ClockConfig+0x1ec>)
 8003140:	683b      	ldr	r3, [r7, #0]
 8003142:	4313      	orrs	r3, r2
 8003144:	600b      	str	r3, [r1, #0]

    /* Check that the new number of wait states is taken into account to access the Flash
    memory by reading the FLASH_ACR register */
    if(__HAL_FLASH_GET_LATENCY() != FLatency)
 8003146:	4b6e      	ldr	r3, [pc, #440]	; (8003300 <HAL_RCC_ClockConfig+0x1ec>)
 8003148:	681b      	ldr	r3, [r3, #0]
 800314a:	f003 0307 	and.w	r3, r3, #7
 800314e:	683a      	ldr	r2, [r7, #0]
 8003150:	429a      	cmp	r2, r3
 8003152:	d001      	beq.n	8003158 <HAL_RCC_ClockConfig+0x44>
    {
      return HAL_ERROR;
 8003154:	2301      	movs	r3, #1
 8003156:	e0cf      	b.n	80032f8 <HAL_RCC_ClockConfig+0x1e4>
    }
  }

  /*----------------- HCLK Configuration prior to SYSCLK----------------------*/
  /* Apply higher HCLK prescaler request here to ensure CPU clock is not of of spec when SYSCLK is increased */
  if(((RCC_ClkInitStruct->ClockType) & RCC_CLOCKTYPE_HCLK) == RCC_CLOCKTYPE_HCLK)
 8003158:	687b      	ldr	r3, [r7, #4]
 800315a:	681b      	ldr	r3, [r3, #0]
 800315c:	f003 0302 	and.w	r3, r3, #2
 8003160:	2b00      	cmp	r3, #0
 8003162:	d010      	beq.n	8003186 <HAL_RCC_ClockConfig+0x72>
  {
    assert_param(IS_RCC_HCLK(RCC_ClkInitStruct->AHBCLKDivider));

    if(RCC_ClkInitStruct->AHBCLKDivider > READ_BIT(RCC->CFGR, RCC_CFGR_HPRE))
 8003164:	687b      	ldr	r3, [r7, #4]
 8003166:	689a      	ldr	r2, [r3, #8]
 8003168:	4b66      	ldr	r3, [pc, #408]	; (8003304 <HAL_RCC_ClockConfig+0x1f0>)
 800316a:	689b      	ldr	r3, [r3, #8]
 800316c:	f003 03f0 	and.w	r3, r3, #240	; 0xf0
 8003170:	429a      	cmp	r2, r3
 8003172:	d908      	bls.n	8003186 <HAL_RCC_ClockConfig+0x72>
    {
      MODIFY_REG(RCC->CFGR, RCC_CFGR_HPRE, RCC_ClkInitStruct->AHBCLKDivider);
 8003174:	4b63      	ldr	r3, [pc, #396]	; (8003304 <HAL_RCC_ClockConfig+0x1f0>)
 8003176:	689b      	ldr	r3, [r3, #8]
 8003178:	f023 02f0 	bic.w	r2, r3, #240	; 0xf0
 800317c:	687b      	ldr	r3, [r7, #4]
 800317e:	689b      	ldr	r3, [r3, #8]
 8003180:	4960      	ldr	r1, [pc, #384]	; (8003304 <HAL_RCC_ClockConfig+0x1f0>)
 8003182:	4313      	orrs	r3, r2
 8003184:	608b      	str	r3, [r1, #8]
    }
  }

  /*------------------------- SYSCLK Configuration ---------------------------*/
  if(((RCC_ClkInitStruct->ClockType) & RCC_CLOCKTYPE_SYSCLK) == RCC_CLOCKTYPE_SYSCLK)
 8003186:	687b      	ldr	r3, [r7, #4]
 8003188:	681b      	ldr	r3, [r3, #0]
 800318a:	f003 0301 	and.w	r3, r3, #1
 800318e:	2b00      	cmp	r3, #0
 8003190:	d04c      	beq.n	800322c <HAL_RCC_ClockConfig+0x118>
  {
    assert_param(IS_RCC_SYSCLKSOURCE(RCC_ClkInitStruct->SYSCLKSource));

    /* PLL is selected as System Clock Source */
    if(RCC_ClkInitStruct->SYSCLKSource == RCC_SYSCLKSOURCE_PLLCLK)
 8003192:	687b      	ldr	r3, [r7, #4]
 8003194:	685b      	ldr	r3, [r3, #4]
 8003196:	2b03      	cmp	r3, #3
 8003198:	d107      	bne.n	80031aa <HAL_RCC_ClockConfig+0x96>
    {
      /* Check the PLL ready flag */
      if(READ_BIT(RCC->CR, RCC_CR_PLLRDY) == 0U)
 800319a:	4b5a      	ldr	r3, [pc, #360]	; (8003304 <HAL_RCC_ClockConfig+0x1f0>)
 800319c:	681b      	ldr	r3, [r3, #0]
 800319e:	f003 7300 	and.w	r3, r3, #33554432	; 0x2000000
 80031a2:	2b00      	cmp	r3, #0
 80031a4:	d121      	bne.n	80031ea <HAL_RCC_ClockConfig+0xd6>
      {
        return HAL_ERROR;
 80031a6:	2301      	movs	r3, #1
 80031a8:	e0a6      	b.n	80032f8 <HAL_RCC_ClockConfig+0x1e4>
#endif
    }
    else
    {
      /* HSE is selected as System Clock Source */
      if(RCC_ClkInitStruct->SYSCLKSource == RCC_SYSCLKSOURCE_HSE)
 80031aa:	687b      	ldr	r3, [r7, #4]
 80031ac:	685b      	ldr	r3, [r3, #4]
 80031ae:	2b02      	cmp	r3, #2
 80031b0:	d107      	bne.n	80031c2 <HAL_RCC_ClockConfig+0xae>
      {
        /* Check the HSE ready flag */
        if(READ_BIT(RCC->CR, RCC_CR_HSERDY) == 0U)
 80031b2:	4b54      	ldr	r3, [pc, #336]	; (8003304 <HAL_RCC_ClockConfig+0x1f0>)
 80031b4:	681b      	ldr	r3, [r3, #0]
 80031b6:	f403 3300 	and.w	r3, r3, #131072	; 0x20000
 80031ba:	2b00      	cmp	r3, #0
 80031bc:	d115      	bne.n	80031ea <HAL_RCC_ClockConfig+0xd6>
        {
          return HAL_ERROR;
 80031be:	2301      	movs	r3, #1
 80031c0:	e09a      	b.n	80032f8 <HAL_RCC_ClockConfig+0x1e4>
        }
      }
      /* MSI is selected as System Clock Source */
      else if(RCC_ClkInitStruct->SYSCLKSource == RCC_SYSCLKSOURCE_MSI)
 80031c2:	687b      	ldr	r3, [r7, #4]
 80031c4:	685b      	ldr	r3, [r3, #4]
 80031c6:	2b00      	cmp	r3, #0
 80031c8:	d107      	bne.n	80031da <HAL_RCC_ClockConfig+0xc6>
      {
        /* Check the MSI ready flag */
        if(READ_BIT(RCC->CR, RCC_CR_MSIRDY) == 0U)
 80031ca:	4b4e      	ldr	r3, [pc, #312]	; (8003304 <HAL_RCC_ClockConfig+0x1f0>)
 80031cc:	681b      	ldr	r3, [r3, #0]
 80031ce:	f003 0302 	and.w	r3, r3, #2
 80031d2:	2b00      	cmp	r3, #0
 80031d4:	d109      	bne.n	80031ea <HAL_RCC_ClockConfig+0xd6>
        {
          return HAL_ERROR;
 80031d6:	2301      	movs	r3, #1
 80031d8:	e08e      	b.n	80032f8 <HAL_RCC_ClockConfig+0x1e4>
      }
      /* HSI is selected as System Clock Source */
      else
      {
        /* Check the HSI ready flag */
        if(READ_BIT(RCC->CR, RCC_CR_HSIRDY) == 0U)
 80031da:	4b4a      	ldr	r3, [pc, #296]	; (8003304 <HAL_RCC_ClockConfig+0x1f0>)
 80031dc:	681b      	ldr	r3, [r3, #0]
 80031de:	f403 6380 	and.w	r3, r3, #1024	; 0x400
 80031e2:	2b00      	cmp	r3, #0
 80031e4:	d101      	bne.n	80031ea <HAL_RCC_ClockConfig+0xd6>
        {
          return HAL_ERROR;
 80031e6:	2301      	movs	r3, #1
 80031e8:	e086      	b.n	80032f8 <HAL_RCC_ClockConfig+0x1e4>
      }
#endif

    }

    MODIFY_REG(RCC->CFGR, RCC_CFGR_SW, RCC_ClkInitStruct->SYSCLKSource);
 80031ea:	4b46      	ldr	r3, [pc, #280]	; (8003304 <HAL_RCC_ClockConfig+0x1f0>)
 80031ec:	689b      	ldr	r3, [r3, #8]
 80031ee:	f023 0203 	bic.w	r2, r3, #3
 80031f2:	687b      	ldr	r3, [r7, #4]
 80031f4:	685b      	ldr	r3, [r3, #4]
 80031f6:	4943      	ldr	r1, [pc, #268]	; (8003304 <HAL_RCC_ClockConfig+0x1f0>)
 80031f8:	4313      	orrs	r3, r2
 80031fa:	608b      	str	r3, [r1, #8]

    /* Get Start Tick*/
    tickstart = HAL_GetTick();
 80031fc:	f7fd fc6c 	bl	8000ad8 <HAL_GetTick>
 8003200:	60f8      	str	r0, [r7, #12]

    while(__HAL_RCC_GET_SYSCLK_SOURCE() != (RCC_ClkInitStruct->SYSCLKSource << RCC_CFGR_SWS_Pos))
 8003202:	e00a      	b.n	800321a <HAL_RCC_ClockConfig+0x106>
    {
      if((HAL_GetTick() - tickstart) > CLOCKSWITCH_TIMEOUT_VALUE)
 8003204:	f7fd fc68 	bl	8000ad8 <HAL_GetTick>
 8003208:	4602      	mov	r2, r0
 800320a:	68fb      	ldr	r3, [r7, #12]
 800320c:	1ad3      	subs	r3, r2, r3
 800320e:	f241 3288 	movw	r2, #5000	; 0x1388
 8003212:	4293      	cmp	r3, r2
 8003214:	d901      	bls.n	800321a <HAL_RCC_ClockConfig+0x106>
      {
        return HAL_TIMEOUT;
 8003216:	2303      	movs	r3, #3
 8003218:	e06e      	b.n	80032f8 <HAL_RCC_ClockConfig+0x1e4>
    while(__HAL_RCC_GET_SYSCLK_SOURCE() != (RCC_ClkInitStruct->SYSCLKSource << RCC_CFGR_SWS_Pos))
 800321a:	4b3a      	ldr	r3, [pc, #232]	; (8003304 <HAL_RCC_ClockConfig+0x1f0>)
 800321c:	689b      	ldr	r3, [r3, #8]
 800321e:	f003 020c 	and.w	r2, r3, #12
 8003222:	687b      	ldr	r3, [r7, #4]
 8003224:	685b      	ldr	r3, [r3, #4]
 8003226:	009b      	lsls	r3, r3, #2
 8003228:	429a      	cmp	r2, r3
 800322a:	d1eb      	bne.n	8003204 <HAL_RCC_ClockConfig+0xf0>
  }
#endif

  /*----------------- HCLK Configuration after SYSCLK-------------------------*/
  /* Apply lower HCLK prescaler request here to ensure CPU clock is not of of spec when SYSCLK is set */
  if(((RCC_ClkInitStruct->ClockType) & RCC_CLOCKTYPE_HCLK) == RCC_CLOCKTYPE_HCLK)
 800322c:	687b      	ldr	r3, [r7, #4]
 800322e:	681b      	ldr	r3, [r3, #0]
 8003230:	f003 0302 	and.w	r3, r3, #2
 8003234:	2b00      	cmp	r3, #0
 8003236:	d010      	beq.n	800325a <HAL_RCC_ClockConfig+0x146>
  {
    if(RCC_ClkInitStruct->AHBCLKDivider < READ_BIT(RCC->CFGR, RCC_CFGR_HPRE))
 8003238:	687b      	ldr	r3, [r7, #4]
 800323a:	689a      	ldr	r2, [r3, #8]
 800323c:	4b31      	ldr	r3, [pc, #196]	; (8003304 <HAL_RCC_ClockConfig+0x1f0>)
 800323e:	689b      	ldr	r3, [r3, #8]
 8003240:	f003 03f0 	and.w	r3, r3, #240	; 0xf0
 8003244:	429a      	cmp	r2, r3
 8003246:	d208      	bcs.n	800325a <HAL_RCC_ClockConfig+0x146>
    {
      MODIFY_REG(RCC->CFGR, RCC_CFGR_HPRE, RCC_ClkInitStruct->AHBCLKDivider);
 8003248:	4b2e      	ldr	r3, [pc, #184]	; (8003304 <HAL_RCC_ClockConfig+0x1f0>)
 800324a:	689b      	ldr	r3, [r3, #8]
 800324c:	f023 02f0 	bic.w	r2, r3, #240	; 0xf0
 8003250:	687b      	ldr	r3, [r7, #4]
 8003252:	689b      	ldr	r3, [r3, #8]
 8003254:	492b      	ldr	r1, [pc, #172]	; (8003304 <HAL_RCC_ClockConfig+0x1f0>)
 8003256:	4313      	orrs	r3, r2
 8003258:	608b      	str	r3, [r1, #8]
    }
  }

  /* Allow decreasing of the number of wait states (because of lower CPU frequency expected) */
  if(FLatency < __HAL_FLASH_GET_LATENCY())
 800325a:	4b29      	ldr	r3, [pc, #164]	; (8003300 <HAL_RCC_ClockConfig+0x1ec>)
 800325c:	681b      	ldr	r3, [r3, #0]
 800325e:	f003 0307 	and.w	r3, r3, #7
 8003262:	683a      	ldr	r2, [r7, #0]
 8003264:	429a      	cmp	r2, r3
 8003266:	d210      	bcs.n	800328a <HAL_RCC_ClockConfig+0x176>
  {
    /* Program the new number of wait states to the LATENCY bits in the FLASH_ACR register */
    __HAL_FLASH_SET_LATENCY(FLatency);
 8003268:	4b25      	ldr	r3, [pc, #148]	; (8003300 <HAL_RCC_ClockConfig+0x1ec>)
 800326a:	681b      	ldr	r3, [r3, #0]
 800326c:	f023 0207 	bic.w	r2, r3, #7
 8003270:	4923      	ldr	r1, [pc, #140]	; (8003300 <HAL_RCC_ClockConfig+0x1ec>)
 8003272:	683b      	ldr	r3, [r7, #0]
 8003274:	4313      	orrs	r3, r2
 8003276:	600b      	str	r3, [r1, #0]

    /* Check that the new number of wait states is taken into account to access the Flash
    memory by reading the FLASH_ACR register */
    if(__HAL_FLASH_GET_LATENCY() != FLatency)
 8003278:	4b21      	ldr	r3, [pc, #132]	; (8003300 <HAL_RCC_ClockConfig+0x1ec>)
 800327a:	681b      	ldr	r3, [r3, #0]
 800327c:	f003 0307 	and.w	r3, r3, #7
 8003280:	683a      	ldr	r2, [r7, #0]
 8003282:	429a      	cmp	r2, r3
 8003284:	d001      	beq.n	800328a <HAL_RCC_ClockConfig+0x176>
    {
      return HAL_ERROR;
 8003286:	2301      	movs	r3, #1
 8003288:	e036      	b.n	80032f8 <HAL_RCC_ClockConfig+0x1e4>
    }
  }

  /*-------------------------- PCLK1 Configuration ---------------------------*/
  if(((RCC_ClkInitStruct->ClockType) & RCC_CLOCKTYPE_PCLK1) == RCC_CLOCKTYPE_PCLK1)
 800328a:	687b      	ldr	r3, [r7, #4]
 800328c:	681b      	ldr	r3, [r3, #0]
 800328e:	f003 0304 	and.w	r3, r3, #4
 8003292:	2b00      	cmp	r3, #0
 8003294:	d008      	beq.n	80032a8 <HAL_RCC_ClockConfig+0x194>
  {
    assert_param(IS_RCC_PCLK(RCC_ClkInitStruct->APB1CLKDivider));
    MODIFY_REG(RCC->CFGR, RCC_CFGR_PPRE1, RCC_ClkInitStruct->APB1CLKDivider);
 8003296:	4b1b      	ldr	r3, [pc, #108]	; (8003304 <HAL_RCC_ClockConfig+0x1f0>)
 8003298:	689b      	ldr	r3, [r3, #8]
 800329a:	f423 62e0 	bic.w	r2, r3, #1792	; 0x700
 800329e:	687b      	ldr	r3, [r7, #4]
 80032a0:	68db      	ldr	r3, [r3, #12]
 80032a2:	4918      	ldr	r1, [pc, #96]	; (8003304 <HAL_RCC_ClockConfig+0x1f0>)
 80032a4:	4313      	orrs	r3, r2
 80032a6:	608b      	str	r3, [r1, #8]
  }

  /*-------------------------- PCLK2 Configuration ---------------------------*/
  if(((RCC_ClkInitStruct->ClockType) & RCC_CLOCKTYPE_PCLK2) == RCC_CLOCKTYPE_PCLK2)
 80032a8:	687b      	ldr	r3, [r7, #4]
 80032aa:	681b      	ldr	r3, [r3, #0]
 80032ac:	f003 0308 	and.w	r3, r3, #8
 80032b0:	2b00      	cmp	r3, #0
 80032b2:	d009      	beq.n	80032c8 <HAL_RCC_ClockConfig+0x1b4>
  {
    assert_param(IS_RCC_PCLK(RCC_ClkInitStruct->APB2CLKDivider));
    MODIFY_REG(RCC->CFGR, RCC_CFGR_PPRE2, ((RCC_ClkInitStruct->APB2CLKDivider) << 3U));
 80032b4:	4b13      	ldr	r3, [pc, #76]	; (8003304 <HAL_RCC_ClockConfig+0x1f0>)
 80032b6:	689b      	ldr	r3, [r3, #8]
 80032b8:	f423 5260 	bic.w	r2, r3, #14336	; 0x3800
 80032bc:	687b      	ldr	r3, [r7, #4]
 80032be:	691b      	ldr	r3, [r3, #16]
 80032c0:	00db      	lsls	r3, r3, #3
 80032c2:	4910      	ldr	r1, [pc, #64]	; (8003304 <HAL_RCC_ClockConfig+0x1f0>)
 80032c4:	4313      	orrs	r3, r2
 80032c6:	608b      	str	r3, [r1, #8]
  }

  /* Update the SystemCoreClock global variable */
  SystemCoreClock = HAL_RCC_GetSysClockFreq() >> (AHBPrescTable[READ_BIT(RCC->CFGR, RCC_CFGR_HPRE) >> RCC_CFGR_HPRE_Pos] & 0x1FU);
 80032c8:	f000 f824 	bl	8003314 <HAL_RCC_GetSysClockFreq>
 80032cc:	4602      	mov	r2, r0
 80032ce:	4b0d      	ldr	r3, [pc, #52]	; (8003304 <HAL_RCC_ClockConfig+0x1f0>)
 80032d0:	689b      	ldr	r3, [r3, #8]
 80032d2:	091b      	lsrs	r3, r3, #4
 80032d4:	f003 030f 	and.w	r3, r3, #15
 80032d8:	490b      	ldr	r1, [pc, #44]	; (8003308 <HAL_RCC_ClockConfig+0x1f4>)
 80032da:	5ccb      	ldrb	r3, [r1, r3]
 80032dc:	f003 031f 	and.w	r3, r3, #31
 80032e0:	fa22 f303 	lsr.w	r3, r2, r3
 80032e4:	4a09      	ldr	r2, [pc, #36]	; (800330c <HAL_RCC_ClockConfig+0x1f8>)
 80032e6:	6013      	str	r3, [r2, #0]

  /* Configure the source of time base considering new system clocks settings*/
  status = HAL_InitTick(uwTickPrio);
 80032e8:	4b09      	ldr	r3, [pc, #36]	; (8003310 <HAL_RCC_ClockConfig+0x1fc>)
 80032ea:	681b      	ldr	r3, [r3, #0]
 80032ec:	4618      	mov	r0, r3
 80032ee:	f7fd fba3 	bl	8000a38 <HAL_InitTick>
 80032f2:	4603      	mov	r3, r0
 80032f4:	72fb      	strb	r3, [r7, #11]

  return status;
 80032f6:	7afb      	ldrb	r3, [r7, #11]
}
 80032f8:	4618      	mov	r0, r3
 80032fa:	3710      	adds	r7, #16
 80032fc:	46bd      	mov	sp, r7
 80032fe:	bd80      	pop	{r7, pc}
 8003300:	40022000 	.word	0x40022000
 8003304:	40021000 	.word	0x40021000
 8003308:	08003edc 	.word	0x08003edc
 800330c:	20000000 	.word	0x20000000
 8003310:	20000004 	.word	0x20000004

08003314 <HAL_RCC_GetSysClockFreq>:
  *
  *
  * @retval SYSCLK frequency
  */
uint32_t HAL_RCC_GetSysClockFreq(void)
{
 8003314:	b480      	push	{r7}
 8003316:	b089      	sub	sp, #36	; 0x24
 8003318:	af00      	add	r7, sp, #0
  uint32_t msirange = 0U, sysclockfreq = 0U;
 800331a:	2300      	movs	r3, #0
 800331c:	61fb      	str	r3, [r7, #28]
 800331e:	2300      	movs	r3, #0
 8003320:	61bb      	str	r3, [r7, #24]
  uint32_t pllvco, pllsource, pllr, pllm;    /* no init needed */
  uint32_t sysclk_source, pll_oscsource;

  sysclk_source = __HAL_RCC_GET_SYSCLK_SOURCE();
 8003322:	4b3e      	ldr	r3, [pc, #248]	; (800341c <HAL_RCC_GetSysClockFreq+0x108>)
 8003324:	689b      	ldr	r3, [r3, #8]
 8003326:	f003 030c 	and.w	r3, r3, #12
 800332a:	613b      	str	r3, [r7, #16]
  pll_oscsource = __HAL_RCC_GET_PLL_OSCSOURCE();
 800332c:	4b3b      	ldr	r3, [pc, #236]	; (800341c <HAL_RCC_GetSysClockFreq+0x108>)
 800332e:	68db      	ldr	r3, [r3, #12]
 8003330:	f003 0303 	and.w	r3, r3, #3
 8003334:	60fb      	str	r3, [r7, #12]

  if((sysclk_source == RCC_CFGR_SWS_MSI) ||
 8003336:	693b      	ldr	r3, [r7, #16]
 8003338:	2b00      	cmp	r3, #0
 800333a:	d005      	beq.n	8003348 <HAL_RCC_GetSysClockFreq+0x34>
 800333c:	693b      	ldr	r3, [r7, #16]
 800333e:	2b0c      	cmp	r3, #12
 8003340:	d121      	bne.n	8003386 <HAL_RCC_GetSysClockFreq+0x72>
     ((sysclk_source == RCC_CFGR_SWS_PLL) && (pll_oscsource == RCC_PLLSOURCE_MSI)))
 8003342:	68fb      	ldr	r3, [r7, #12]
 8003344:	2b01      	cmp	r3, #1
 8003346:	d11e      	bne.n	8003386 <HAL_RCC_GetSysClockFreq+0x72>
  {
    /* MSI or PLL with MSI source used as system clock source */

    /* Get SYSCLK source */
    if(READ_BIT(RCC->CR, RCC_CR_MSIRGSEL) == 0U)
 8003348:	4b34      	ldr	r3, [pc, #208]	; (800341c <HAL_RCC_GetSysClockFreq+0x108>)
 800334a:	681b      	ldr	r3, [r3, #0]
 800334c:	f003 0308 	and.w	r3, r3, #8
 8003350:	2b00      	cmp	r3, #0
 8003352:	d107      	bne.n	8003364 <HAL_RCC_GetSysClockFreq+0x50>
    { /* MSISRANGE from RCC_CSR applies */
      msirange = READ_BIT(RCC->CSR, RCC_CSR_MSISRANGE) >> RCC_CSR_MSISRANGE_Pos;
 8003354:	4b31      	ldr	r3, [pc, #196]	; (800341c <HAL_RCC_GetSysClockFreq+0x108>)
 8003356:	f8d3 3094 	ldr.w	r3, [r3, #148]	; 0x94
 800335a:	0a1b      	lsrs	r3, r3, #8
 800335c:	f003 030f 	and.w	r3, r3, #15
 8003360:	61fb      	str	r3, [r7, #28]
 8003362:	e005      	b.n	8003370 <HAL_RCC_GetSysClockFreq+0x5c>
    }
    else
    { /* MSIRANGE from RCC_CR applies */
      msirange = READ_BIT(RCC->CR, RCC_CR_MSIRANGE) >> RCC_CR_MSIRANGE_Pos;
 8003364:	4b2d      	ldr	r3, [pc, #180]	; (800341c <HAL_RCC_GetSysClockFreq+0x108>)
 8003366:	681b      	ldr	r3, [r3, #0]
 8003368:	091b      	lsrs	r3, r3, #4
 800336a:	f003 030f 	and.w	r3, r3, #15
 800336e:	61fb      	str	r3, [r7, #28]
    }
    /*MSI frequency range in HZ*/
    msirange = MSIRangeTable[msirange];
 8003370:	4a2b      	ldr	r2, [pc, #172]	; (8003420 <HAL_RCC_GetSysClockFreq+0x10c>)
 8003372:	69fb      	ldr	r3, [r7, #28]
 8003374:	f852 3023 	ldr.w	r3, [r2, r3, lsl #2]
 8003378:	61fb      	str	r3, [r7, #28]

    if(sysclk_source == RCC_CFGR_SWS_MSI)
 800337a:	693b      	ldr	r3, [r7, #16]
 800337c:	2b00      	cmp	r3, #0
 800337e:	d10d      	bne.n	800339c <HAL_RCC_GetSysClockFreq+0x88>
    {
      /* MSI used as system clock source */
      sysclockfreq = msirange;
 8003380:	69fb      	ldr	r3, [r7, #28]
 8003382:	61bb      	str	r3, [r7, #24]
    if(sysclk_source == RCC_CFGR_SWS_MSI)
 8003384:	e00a      	b.n	800339c <HAL_RCC_GetSysClockFreq+0x88>
    }
  }
  else if(sysclk_source == RCC_CFGR_SWS_HSI)
 8003386:	693b      	ldr	r3, [r7, #16]
 8003388:	2b04      	cmp	r3, #4
 800338a:	d102      	bne.n	8003392 <HAL_RCC_GetSysClockFreq+0x7e>
  {
    /* HSI used as system clock source */
    sysclockfreq = HSI_VALUE;
 800338c:	4b25      	ldr	r3, [pc, #148]	; (8003424 <HAL_RCC_GetSysClockFreq+0x110>)
 800338e:	61bb      	str	r3, [r7, #24]
 8003390:	e004      	b.n	800339c <HAL_RCC_GetSysClockFreq+0x88>
  }
  else if(sysclk_source == RCC_CFGR_SWS_HSE)
 8003392:	693b      	ldr	r3, [r7, #16]
 8003394:	2b08      	cmp	r3, #8
 8003396:	d101      	bne.n	800339c <HAL_RCC_GetSysClockFreq+0x88>
  {
    /* HSE used as system clock source */
    sysclockfreq = HSE_VALUE;
 8003398:	4b23      	ldr	r3, [pc, #140]	; (8003428 <HAL_RCC_GetSysClockFreq+0x114>)
 800339a:	61bb      	str	r3, [r7, #24]
  else
  {
    /* unexpected case: sysclockfreq at 0 */
  }

  if(sysclk_source == RCC_CFGR_SWS_PLL)
 800339c:	693b      	ldr	r3, [r7, #16]
 800339e:	2b0c      	cmp	r3, #12
 80033a0:	d134      	bne.n	800340c <HAL_RCC_GetSysClockFreq+0xf8>
    /* PLL used as system clock  source */

    /* PLL_VCO = (HSE_VALUE or HSI_VALUE or MSI_VALUE) * PLLN / PLLM
    SYSCLK = PLL_VCO / PLLR
    */
    pllsource = READ_BIT(RCC->PLLCFGR, RCC_PLLCFGR_PLLSRC);
 80033a2:	4b1e      	ldr	r3, [pc, #120]	; (800341c <HAL_RCC_GetSysClockFreq+0x108>)
 80033a4:	68db      	ldr	r3, [r3, #12]
 80033a6:	f003 0303 	and.w	r3, r3, #3
 80033aa:	60bb      	str	r3, [r7, #8]

    switch (pllsource)
 80033ac:	68bb      	ldr	r3, [r7, #8]
 80033ae:	2b02      	cmp	r3, #2
 80033b0:	d003      	beq.n	80033ba <HAL_RCC_GetSysClockFreq+0xa6>
 80033b2:	68bb      	ldr	r3, [r7, #8]
 80033b4:	2b03      	cmp	r3, #3
 80033b6:	d003      	beq.n	80033c0 <HAL_RCC_GetSysClockFreq+0xac>
 80033b8:	e005      	b.n	80033c6 <HAL_RCC_GetSysClockFreq+0xb2>
    {
    case RCC_PLLSOURCE_HSI:  /* HSI used as PLL clock source */
      pllvco = HSI_VALUE;
 80033ba:	4b1a      	ldr	r3, [pc, #104]	; (8003424 <HAL_RCC_GetSysClockFreq+0x110>)
 80033bc:	617b      	str	r3, [r7, #20]
      break;
 80033be:	e005      	b.n	80033cc <HAL_RCC_GetSysClockFreq+0xb8>

    case RCC_PLLSOURCE_HSE:  /* HSE used as PLL clock source */
      pllvco = HSE_VALUE;
 80033c0:	4b19      	ldr	r3, [pc, #100]	; (8003428 <HAL_RCC_GetSysClockFreq+0x114>)
 80033c2:	617b      	str	r3, [r7, #20]
      break;
 80033c4:	e002      	b.n	80033cc <HAL_RCC_GetSysClockFreq+0xb8>

    case RCC_PLLSOURCE_MSI:  /* MSI used as PLL clock source */
    default:
      pllvco = msirange;
 80033c6:	69fb      	ldr	r3, [r7, #28]
 80033c8:	617b      	str	r3, [r7, #20]
      break;
 80033ca:	bf00      	nop
    }
    pllm = (READ_BIT(RCC->PLLCFGR, RCC_PLLCFGR_PLLM) >> RCC_PLLCFGR_PLLM_Pos) + 1U ;
 80033cc:	4b13      	ldr	r3, [pc, #76]	; (800341c <HAL_RCC_GetSysClockFreq+0x108>)
 80033ce:	68db      	ldr	r3, [r3, #12]
 80033d0:	091b      	lsrs	r3, r3, #4
 80033d2:	f003 0307 	and.w	r3, r3, #7
 80033d6:	3301      	adds	r3, #1
 80033d8:	607b      	str	r3, [r7, #4]
    pllvco = (pllvco * (READ_BIT(RCC->PLLCFGR, RCC_PLLCFGR_PLLN) >> RCC_PLLCFGR_PLLN_Pos)) / pllm;
 80033da:	4b10      	ldr	r3, [pc, #64]	; (800341c <HAL_RCC_GetSysClockFreq+0x108>)
 80033dc:	68db      	ldr	r3, [r3, #12]
 80033de:	0a1b      	lsrs	r3, r3, #8
 80033e0:	f003 037f 	and.w	r3, r3, #127	; 0x7f
 80033e4:	697a      	ldr	r2, [r7, #20]
 80033e6:	fb03 f202 	mul.w	r2, r3, r2
 80033ea:	687b      	ldr	r3, [r7, #4]
 80033ec:	fbb2 f3f3 	udiv	r3, r2, r3
 80033f0:	617b      	str	r3, [r7, #20]
    pllr = ((READ_BIT(RCC->PLLCFGR, RCC_PLLCFGR_PLLR) >> RCC_PLLCFGR_PLLR_Pos) + 1U ) * 2U;
 80033f2:	4b0a      	ldr	r3, [pc, #40]	; (800341c <HAL_RCC_GetSysClockFreq+0x108>)
 80033f4:	68db      	ldr	r3, [r3, #12]
 80033f6:	0e5b      	lsrs	r3, r3, #25
 80033f8:	f003 0303 	and.w	r3, r3, #3
 80033fc:	3301      	adds	r3, #1
 80033fe:	005b      	lsls	r3, r3, #1
 8003400:	603b      	str	r3, [r7, #0]
    sysclockfreq = pllvco / pllr;
 8003402:	697a      	ldr	r2, [r7, #20]
 8003404:	683b      	ldr	r3, [r7, #0]
 8003406:	fbb2 f3f3 	udiv	r3, r2, r3
 800340a:	61bb      	str	r3, [r7, #24]
  }

  return sysclockfreq;
 800340c:	69bb      	ldr	r3, [r7, #24]
}
 800340e:	4618      	mov	r0, r3
 8003410:	3724      	adds	r7, #36	; 0x24
 8003412:	46bd      	mov	sp, r7
 8003414:	f85d 7b04 	ldr.w	r7, [sp], #4
 8003418:	4770      	bx	lr
 800341a:	bf00      	nop
 800341c:	40021000 	.word	0x40021000
 8003420:	08003eec 	.word	0x08003eec
 8003424:	00f42400 	.word	0x00f42400
 8003428:	007a1200 	.word	0x007a1200

0800342c <RCC_SetFlashLatencyFromMSIRange>:
            voltage range.
  * @param  msirange  MSI range value from RCC_MSIRANGE_0 to RCC_MSIRANGE_11
  * @retval HAL status
  */
static HAL_StatusTypeDef RCC_SetFlashLatencyFromMSIRange(uint32_t msirange)
{
 800342c:	b580      	push	{r7, lr}
 800342e:	b086      	sub	sp, #24
 8003430:	af00      	add	r7, sp, #0
 8003432:	6078      	str	r0, [r7, #4]
  uint32_t vos;
  uint32_t latency = FLASH_LATENCY_0;  /* default value 0WS */
 8003434:	2300      	movs	r3, #0
 8003436:	613b      	str	r3, [r7, #16]

  if(__HAL_RCC_PWR_IS_CLK_ENABLED())
 8003438:	4b2a      	ldr	r3, [pc, #168]	; (80034e4 <RCC_SetFlashLatencyFromMSIRange+0xb8>)
 800343a:	6d9b      	ldr	r3, [r3, #88]	; 0x58
 800343c:	f003 5380 	and.w	r3, r3, #268435456	; 0x10000000
 8003440:	2b00      	cmp	r3, #0
 8003442:	d003      	beq.n	800344c <RCC_SetFlashLatencyFromMSIRange+0x20>
  {
    vos = HAL_PWREx_GetVoltageRange();
 8003444:	f7ff f9ee 	bl	8002824 <HAL_PWREx_GetVoltageRange>
 8003448:	6178      	str	r0, [r7, #20]
 800344a:	e014      	b.n	8003476 <RCC_SetFlashLatencyFromMSIRange+0x4a>
  }
  else
  {
    __HAL_RCC_PWR_CLK_ENABLE();
 800344c:	4b25      	ldr	r3, [pc, #148]	; (80034e4 <RCC_SetFlashLatencyFromMSIRange+0xb8>)
 800344e:	6d9b      	ldr	r3, [r3, #88]	; 0x58
 8003450:	4a24      	ldr	r2, [pc, #144]	; (80034e4 <RCC_SetFlashLatencyFromMSIRange+0xb8>)
 8003452:	f043 5380 	orr.w	r3, r3, #268435456	; 0x10000000
 8003456:	6593      	str	r3, [r2, #88]	; 0x58
 8003458:	4b22      	ldr	r3, [pc, #136]	; (80034e4 <RCC_SetFlashLatencyFromMSIRange+0xb8>)
 800345a:	6d9b      	ldr	r3, [r3, #88]	; 0x58
 800345c:	f003 5380 	and.w	r3, r3, #268435456	; 0x10000000
 8003460:	60fb      	str	r3, [r7, #12]
 8003462:	68fb      	ldr	r3, [r7, #12]
    vos = HAL_PWREx_GetVoltageRange();
 8003464:	f7ff f9de 	bl	8002824 <HAL_PWREx_GetVoltageRange>
 8003468:	6178      	str	r0, [r7, #20]
    __HAL_RCC_PWR_CLK_DISABLE();
 800346a:	4b1e      	ldr	r3, [pc, #120]	; (80034e4 <RCC_SetFlashLatencyFromMSIRange+0xb8>)
 800346c:	6d9b      	ldr	r3, [r3, #88]	; 0x58
 800346e:	4a1d      	ldr	r2, [pc, #116]	; (80034e4 <RCC_SetFlashLatencyFromMSIRange+0xb8>)
 8003470:	f023 5380 	bic.w	r3, r3, #268435456	; 0x10000000
 8003474:	6593      	str	r3, [r2, #88]	; 0x58
  }

  if(vos == PWR_REGULATOR_VOLTAGE_SCALE1)
 8003476:	697b      	ldr	r3, [r7, #20]
 8003478:	f5b3 7f00 	cmp.w	r3, #512	; 0x200
 800347c:	d10b      	bne.n	8003496 <RCC_SetFlashLatencyFromMSIRange+0x6a>
  {
    if(msirange > RCC_MSIRANGE_8)
 800347e:	687b      	ldr	r3, [r7, #4]
 8003480:	2b80      	cmp	r3, #128	; 0x80
 8003482:	d919      	bls.n	80034b8 <RCC_SetFlashLatencyFromMSIRange+0x8c>
    {
      /* MSI > 16Mhz */
      if(msirange > RCC_MSIRANGE_10)
 8003484:	687b      	ldr	r3, [r7, #4]
 8003486:	2ba0      	cmp	r3, #160	; 0xa0
 8003488:	d902      	bls.n	8003490 <RCC_SetFlashLatencyFromMSIRange+0x64>
      {
        /* MSI 48Mhz */
        latency = FLASH_LATENCY_2; /* 2WS */
 800348a:	2302      	movs	r3, #2
 800348c:	613b      	str	r3, [r7, #16]
 800348e:	e013      	b.n	80034b8 <RCC_SetFlashLatencyFromMSIRange+0x8c>
      }
      else
      {
        /* MSI 24Mhz or 32Mhz */
        latency = FLASH_LATENCY_1; /* 1WS */
 8003490:	2301      	movs	r3, #1
 8003492:	613b      	str	r3, [r7, #16]
 8003494:	e010      	b.n	80034b8 <RCC_SetFlashLatencyFromMSIRange+0x8c>
        latency = FLASH_LATENCY_1; /* 1WS */
      }
      /* else MSI < 8Mhz default FLASH_LATENCY_0 0WS */
    }
#else
    if(msirange > RCC_MSIRANGE_8)
 8003496:	687b      	ldr	r3, [r7, #4]
 8003498:	2b80      	cmp	r3, #128	; 0x80
 800349a:	d902      	bls.n	80034a2 <RCC_SetFlashLatencyFromMSIRange+0x76>
    {
      /* MSI > 16Mhz */
      latency = FLASH_LATENCY_3; /* 3WS */
 800349c:	2303      	movs	r3, #3
 800349e:	613b      	str	r3, [r7, #16]
 80034a0:	e00a      	b.n	80034b8 <RCC_SetFlashLatencyFromMSIRange+0x8c>
    }
    else
    {
      if(msirange == RCC_MSIRANGE_8)
 80034a2:	687b      	ldr	r3, [r7, #4]
 80034a4:	2b80      	cmp	r3, #128	; 0x80
 80034a6:	d102      	bne.n	80034ae <RCC_SetFlashLatencyFromMSIRange+0x82>
      {
        /* MSI 16Mhz */
        latency = FLASH_LATENCY_2; /* 2WS */
 80034a8:	2302      	movs	r3, #2
 80034aa:	613b      	str	r3, [r7, #16]
 80034ac:	e004      	b.n	80034b8 <RCC_SetFlashLatencyFromMSIRange+0x8c>
      }
      else if(msirange == RCC_MSIRANGE_7)
 80034ae:	687b      	ldr	r3, [r7, #4]
 80034b0:	2b70      	cmp	r3, #112	; 0x70
 80034b2:	d101      	bne.n	80034b8 <RCC_SetFlashLatencyFromMSIRange+0x8c>
      {
        /* MSI 8Mhz */
        latency = FLASH_LATENCY_1; /* 1WS */
 80034b4:	2301      	movs	r3, #1
 80034b6:	613b      	str	r3, [r7, #16]
      /* else MSI < 8Mhz default FLASH_LATENCY_0 0WS */
    }
#endif
  }

  __HAL_FLASH_SET_LATENCY(latency);
 80034b8:	4b0b      	ldr	r3, [pc, #44]	; (80034e8 <RCC_SetFlashLatencyFromMSIRange+0xbc>)
 80034ba:	681b      	ldr	r3, [r3, #0]
 80034bc:	f023 0207 	bic.w	r2, r3, #7
 80034c0:	4909      	ldr	r1, [pc, #36]	; (80034e8 <RCC_SetFlashLatencyFromMSIRange+0xbc>)
 80034c2:	693b      	ldr	r3, [r7, #16]
 80034c4:	4313      	orrs	r3, r2
 80034c6:	600b      	str	r3, [r1, #0]

  /* Check that the new number of wait states is taken into account to access the Flash
     memory by reading the FLASH_ACR register */
  if(__HAL_FLASH_GET_LATENCY() != latency)
 80034c8:	4b07      	ldr	r3, [pc, #28]	; (80034e8 <RCC_SetFlashLatencyFromMSIRange+0xbc>)
 80034ca:	681b      	ldr	r3, [r3, #0]
 80034cc:	f003 0307 	and.w	r3, r3, #7
 80034d0:	693a      	ldr	r2, [r7, #16]
 80034d2:	429a      	cmp	r2, r3
 80034d4:	d001      	beq.n	80034da <RCC_SetFlashLatencyFromMSIRange+0xae>
  {
    return HAL_ERROR;
 80034d6:	2301      	movs	r3, #1
 80034d8:	e000      	b.n	80034dc <RCC_SetFlashLatencyFromMSIRange+0xb0>
  }

  return HAL_OK;
 80034da:	2300      	movs	r3, #0
}
 80034dc:	4618      	mov	r0, r3
 80034de:	3718      	adds	r7, #24
 80034e0:	46bd      	mov	sp, r7
 80034e2:	bd80      	pop	{r7, pc}
 80034e4:	40021000 	.word	0x40021000
 80034e8:	40022000 	.word	0x40022000

080034ec <HAL_RCCEx_PeriphCLKConfig>:
  *         the RTC clock source: in this case the access to Backup domain is enabled.
  *
  * @retval HAL status
  */
HAL_StatusTypeDef HAL_RCCEx_PeriphCLKConfig(RCC_PeriphCLKInitTypeDef  *PeriphClkInit)
{
 80034ec:	b580      	push	{r7, lr}
 80034ee:	b086      	sub	sp, #24
 80034f0:	af00      	add	r7, sp, #0
 80034f2:	6078      	str	r0, [r7, #4]
  uint32_t tmpregister, tickstart;     /* no init needed */
  HAL_StatusTypeDef ret = HAL_OK;      /* Intermediate status */
 80034f4:	2300      	movs	r3, #0
 80034f6:	74fb      	strb	r3, [r7, #19]
  HAL_StatusTypeDef status = HAL_OK;   /* Final status */
 80034f8:	2300      	movs	r3, #0
 80034fa:	74bb      	strb	r3, [r7, #18]
  assert_param(IS_RCC_PERIPHCLOCK(PeriphClkInit->PeriphClockSelection));

#if defined(SAI1)

  /*-------------------------- SAI1 clock source configuration ---------------------*/
  if((((PeriphClkInit->PeriphClockSelection) & RCC_PERIPHCLK_SAI1) == RCC_PERIPHCLK_SAI1))
 80034fc:	687b      	ldr	r3, [r7, #4]
 80034fe:	681b      	ldr	r3, [r3, #0]
 8003500:	f403 6300 	and.w	r3, r3, #2048	; 0x800
 8003504:	2b00      	cmp	r3, #0
 8003506:	d031      	beq.n	800356c <HAL_RCCEx_PeriphCLKConfig+0x80>
  {
    /* Check the parameters */
    assert_param(IS_RCC_SAI1CLK(PeriphClkInit->Sai1ClockSelection));

    switch(PeriphClkInit->Sai1ClockSelection)
 8003508:	687b      	ldr	r3, [r7, #4]
 800350a:	6cdb      	ldr	r3, [r3, #76]	; 0x4c
 800350c:	f5b3 0f40 	cmp.w	r3, #12582912	; 0xc00000
 8003510:	d01a      	beq.n	8003548 <HAL_RCCEx_PeriphCLKConfig+0x5c>
 8003512:	f5b3 0f40 	cmp.w	r3, #12582912	; 0xc00000
 8003516:	d814      	bhi.n	8003542 <HAL_RCCEx_PeriphCLKConfig+0x56>
 8003518:	2b00      	cmp	r3, #0
 800351a:	d009      	beq.n	8003530 <HAL_RCCEx_PeriphCLKConfig+0x44>
 800351c:	f5b3 0f00 	cmp.w	r3, #8388608	; 0x800000
 8003520:	d10f      	bne.n	8003542 <HAL_RCCEx_PeriphCLKConfig+0x56>
    case RCC_SAI1CLKSOURCE_PLL:      /* PLL is used as clock source for SAI1*/
      /* Enable SAI Clock output generated from System PLL . */
#if defined(RCC_PLLSAI2_SUPPORT)
      __HAL_RCC_PLLCLKOUT_ENABLE(RCC_PLL_SAI3CLK);
#else
      __HAL_RCC_PLLCLKOUT_ENABLE(RCC_PLL_SAI2CLK);
 8003522:	4b5d      	ldr	r3, [pc, #372]	; (8003698 <HAL_RCCEx_PeriphCLKConfig+0x1ac>)
 8003524:	68db      	ldr	r3, [r3, #12]
 8003526:	4a5c      	ldr	r2, [pc, #368]	; (8003698 <HAL_RCCEx_PeriphCLKConfig+0x1ac>)
 8003528:	f443 3380 	orr.w	r3, r3, #65536	; 0x10000
 800352c:	60d3      	str	r3, [r2, #12]
#endif /* RCC_PLLSAI2_SUPPORT */
      /* SAI1 clock source config set later after clock selection check */
      break;
 800352e:	e00c      	b.n	800354a <HAL_RCCEx_PeriphCLKConfig+0x5e>

    case RCC_SAI1CLKSOURCE_PLLSAI1:  /* PLLSAI1 is used as clock source for SAI1*/
      /* PLLSAI1 input clock, parameters M, N & P configuration and clock output (PLLSAI1ClockOut) */
      ret = RCCEx_PLLSAI1_Config(&(PeriphClkInit->PLLSAI1), DIVIDER_P_UPDATE);
 8003530:	687b      	ldr	r3, [r7, #4]
 8003532:	3304      	adds	r3, #4
 8003534:	2100      	movs	r1, #0
 8003536:	4618      	mov	r0, r3
 8003538:	f000 fa44 	bl	80039c4 <RCCEx_PLLSAI1_Config>
 800353c:	4603      	mov	r3, r0
 800353e:	74fb      	strb	r3, [r7, #19]
      /* SAI1 clock source config set later after clock selection check */
      break;
 8003540:	e003      	b.n	800354a <HAL_RCCEx_PeriphCLKConfig+0x5e>
#endif /* STM32L4P5xx || STM32L4Q5xx || STM32L4R5xx || STM32L4R7xx || STM32L4R9xx || STM32L4S5xx || STM32L4S7xx || STM32L4S9xx */
      /* SAI1 clock source config set later after clock selection check */
      break;

    default:
      ret = HAL_ERROR;
 8003542:	2301      	movs	r3, #1
 8003544:	74fb      	strb	r3, [r7, #19]
      break;
 8003546:	e000      	b.n	800354a <HAL_RCCEx_PeriphCLKConfig+0x5e>
      break;
 8003548:	bf00      	nop
    }

    if(ret == HAL_OK)
 800354a:	7cfb      	ldrb	r3, [r7, #19]
 800354c:	2b00      	cmp	r3, #0
 800354e:	d10b      	bne.n	8003568 <HAL_RCCEx_PeriphCLKConfig+0x7c>
    {
      /* Set the source of SAI1 clock*/
      __HAL_RCC_SAI1_CONFIG(PeriphClkInit->Sai1ClockSelection);
 8003550:	4b51      	ldr	r3, [pc, #324]	; (8003698 <HAL_RCCEx_PeriphCLKConfig+0x1ac>)
 8003552:	f8d3 3088 	ldr.w	r3, [r3, #136]	; 0x88
 8003556:	f423 0240 	bic.w	r2, r3, #12582912	; 0xc00000
 800355a:	687b      	ldr	r3, [r7, #4]
 800355c:	6cdb      	ldr	r3, [r3, #76]	; 0x4c
 800355e:	494e      	ldr	r1, [pc, #312]	; (8003698 <HAL_RCCEx_PeriphCLKConfig+0x1ac>)
 8003560:	4313      	orrs	r3, r2
 8003562:	f8c1 3088 	str.w	r3, [r1, #136]	; 0x88
 8003566:	e001      	b.n	800356c <HAL_RCCEx_PeriphCLKConfig+0x80>
    }
    else
    {
      /* set overall return value */
      status = ret;
 8003568:	7cfb      	ldrb	r3, [r7, #19]
 800356a:	74bb      	strb	r3, [r7, #18]
    }
  }
#endif /* SAI2 */

  /*-------------------------- RTC clock source configuration ----------------------*/
  if((PeriphClkInit->PeriphClockSelection & RCC_PERIPHCLK_RTC) == RCC_PERIPHCLK_RTC)
 800356c:	687b      	ldr	r3, [r7, #4]
 800356e:	681b      	ldr	r3, [r3, #0]
 8003570:	f403 3300 	and.w	r3, r3, #131072	; 0x20000
 8003574:	2b00      	cmp	r3, #0
 8003576:	f000 809e 	beq.w	80036b6 <HAL_RCCEx_PeriphCLKConfig+0x1ca>
  {
    FlagStatus       pwrclkchanged = RESET;
 800357a:	2300      	movs	r3, #0
 800357c:	747b      	strb	r3, [r7, #17]

    /* Check for RTC Parameters used to output RTCCLK */
    assert_param(IS_RCC_RTCCLKSOURCE(PeriphClkInit->RTCClockSelection));

    /* Enable Power Clock */
    if(__HAL_RCC_PWR_IS_CLK_DISABLED() != 0U)
 800357e:	4b46      	ldr	r3, [pc, #280]	; (8003698 <HAL_RCCEx_PeriphCLKConfig+0x1ac>)
 8003580:	6d9b      	ldr	r3, [r3, #88]	; 0x58
 8003582:	f003 5380 	and.w	r3, r3, #268435456	; 0x10000000
 8003586:	2b00      	cmp	r3, #0
 8003588:	d101      	bne.n	800358e <HAL_RCCEx_PeriphCLKConfig+0xa2>
 800358a:	2301      	movs	r3, #1
 800358c:	e000      	b.n	8003590 <HAL_RCCEx_PeriphCLKConfig+0xa4>
 800358e:	2300      	movs	r3, #0
 8003590:	2b00      	cmp	r3, #0
 8003592:	d00d      	beq.n	80035b0 <HAL_RCCEx_PeriphCLKConfig+0xc4>
    {
      __HAL_RCC_PWR_CLK_ENABLE();
 8003594:	4b40      	ldr	r3, [pc, #256]	; (8003698 <HAL_RCCEx_PeriphCLKConfig+0x1ac>)
 8003596:	6d9b      	ldr	r3, [r3, #88]	; 0x58
 8003598:	4a3f      	ldr	r2, [pc, #252]	; (8003698 <HAL_RCCEx_PeriphCLKConfig+0x1ac>)
 800359a:	f043 5380 	orr.w	r3, r3, #268435456	; 0x10000000
 800359e:	6593      	str	r3, [r2, #88]	; 0x58
 80035a0:	4b3d      	ldr	r3, [pc, #244]	; (8003698 <HAL_RCCEx_PeriphCLKConfig+0x1ac>)
 80035a2:	6d9b      	ldr	r3, [r3, #88]	; 0x58
 80035a4:	f003 5380 	and.w	r3, r3, #268435456	; 0x10000000
 80035a8:	60bb      	str	r3, [r7, #8]
 80035aa:	68bb      	ldr	r3, [r7, #8]
      pwrclkchanged = SET;
 80035ac:	2301      	movs	r3, #1
 80035ae:	747b      	strb	r3, [r7, #17]
    }

    /* Enable write access to Backup domain */
    SET_BIT(PWR->CR1, PWR_CR1_DBP);
 80035b0:	4b3a      	ldr	r3, [pc, #232]	; (800369c <HAL_RCCEx_PeriphCLKConfig+0x1b0>)
 80035b2:	681b      	ldr	r3, [r3, #0]
 80035b4:	4a39      	ldr	r2, [pc, #228]	; (800369c <HAL_RCCEx_PeriphCLKConfig+0x1b0>)
 80035b6:	f443 7380 	orr.w	r3, r3, #256	; 0x100
 80035ba:	6013      	str	r3, [r2, #0]

    /* Wait for Backup domain Write protection disable */
    tickstart = HAL_GetTick();
 80035bc:	f7fd fa8c 	bl	8000ad8 <HAL_GetTick>
 80035c0:	60f8      	str	r0, [r7, #12]

    while(READ_BIT(PWR->CR1, PWR_CR1_DBP) == 0U)
 80035c2:	e009      	b.n	80035d8 <HAL_RCCEx_PeriphCLKConfig+0xec>
    {
      if((HAL_GetTick() - tickstart) > RCC_DBP_TIMEOUT_VALUE)
 80035c4:	f7fd fa88 	bl	8000ad8 <HAL_GetTick>
 80035c8:	4602      	mov	r2, r0
 80035ca:	68fb      	ldr	r3, [r7, #12]
 80035cc:	1ad3      	subs	r3, r2, r3
 80035ce:	2b02      	cmp	r3, #2
 80035d0:	d902      	bls.n	80035d8 <HAL_RCCEx_PeriphCLKConfig+0xec>
      {
        ret = HAL_TIMEOUT;
 80035d2:	2303      	movs	r3, #3
 80035d4:	74fb      	strb	r3, [r7, #19]
        break;
 80035d6:	e005      	b.n	80035e4 <HAL_RCCEx_PeriphCLKConfig+0xf8>
    while(READ_BIT(PWR->CR1, PWR_CR1_DBP) == 0U)
 80035d8:	4b30      	ldr	r3, [pc, #192]	; (800369c <HAL_RCCEx_PeriphCLKConfig+0x1b0>)
 80035da:	681b      	ldr	r3, [r3, #0]
 80035dc:	f403 7380 	and.w	r3, r3, #256	; 0x100
 80035e0:	2b00      	cmp	r3, #0
 80035e2:	d0ef      	beq.n	80035c4 <HAL_RCCEx_PeriphCLKConfig+0xd8>
      }
    }

    if(ret == HAL_OK)
 80035e4:	7cfb      	ldrb	r3, [r7, #19]
 80035e6:	2b00      	cmp	r3, #0
 80035e8:	d15a      	bne.n	80036a0 <HAL_RCCEx_PeriphCLKConfig+0x1b4>
    {
      /* Reset the Backup domain only if the RTC Clock source selection is modified from default */
      tmpregister = READ_BIT(RCC->BDCR, RCC_BDCR_RTCSEL);
 80035ea:	4b2b      	ldr	r3, [pc, #172]	; (8003698 <HAL_RCCEx_PeriphCLKConfig+0x1ac>)
 80035ec:	f8d3 3090 	ldr.w	r3, [r3, #144]	; 0x90
 80035f0:	f403 7340 	and.w	r3, r3, #768	; 0x300
 80035f4:	617b      	str	r3, [r7, #20]

      if((tmpregister != RCC_RTCCLKSOURCE_NONE) && (tmpregister != PeriphClkInit->RTCClockSelection))
 80035f6:	697b      	ldr	r3, [r7, #20]
 80035f8:	2b00      	cmp	r3, #0
 80035fa:	d01e      	beq.n	800363a <HAL_RCCEx_PeriphCLKConfig+0x14e>
 80035fc:	687b      	ldr	r3, [r7, #4]
 80035fe:	6e5b      	ldr	r3, [r3, #100]	; 0x64
 8003600:	697a      	ldr	r2, [r7, #20]
 8003602:	429a      	cmp	r2, r3
 8003604:	d019      	beq.n	800363a <HAL_RCCEx_PeriphCLKConfig+0x14e>
      {
        /* Store the content of BDCR register before the reset of Backup Domain */
        tmpregister = READ_BIT(RCC->BDCR, ~(RCC_BDCR_RTCSEL));
 8003606:	4b24      	ldr	r3, [pc, #144]	; (8003698 <HAL_RCCEx_PeriphCLKConfig+0x1ac>)
 8003608:	f8d3 3090 	ldr.w	r3, [r3, #144]	; 0x90
 800360c:	f423 7340 	bic.w	r3, r3, #768	; 0x300
 8003610:	617b      	str	r3, [r7, #20]
        /* RTC Clock selection can be changed only if the Backup Domain is reset */
        __HAL_RCC_BACKUPRESET_FORCE();
 8003612:	4b21      	ldr	r3, [pc, #132]	; (8003698 <HAL_RCCEx_PeriphCLKConfig+0x1ac>)
 8003614:	f8d3 3090 	ldr.w	r3, [r3, #144]	; 0x90
 8003618:	4a1f      	ldr	r2, [pc, #124]	; (8003698 <HAL_RCCEx_PeriphCLKConfig+0x1ac>)
 800361a:	f443 3380 	orr.w	r3, r3, #65536	; 0x10000
 800361e:	f8c2 3090 	str.w	r3, [r2, #144]	; 0x90
        __HAL_RCC_BACKUPRESET_RELEASE();
 8003622:	4b1d      	ldr	r3, [pc, #116]	; (8003698 <HAL_RCCEx_PeriphCLKConfig+0x1ac>)
 8003624:	f8d3 3090 	ldr.w	r3, [r3, #144]	; 0x90
 8003628:	4a1b      	ldr	r2, [pc, #108]	; (8003698 <HAL_RCCEx_PeriphCLKConfig+0x1ac>)
 800362a:	f423 3380 	bic.w	r3, r3, #65536	; 0x10000
 800362e:	f8c2 3090 	str.w	r3, [r2, #144]	; 0x90
        /* Restore the Content of BDCR register */
        RCC->BDCR = tmpregister;
 8003632:	4a19      	ldr	r2, [pc, #100]	; (8003698 <HAL_RCCEx_PeriphCLKConfig+0x1ac>)
 8003634:	697b      	ldr	r3, [r7, #20]
 8003636:	f8c2 3090 	str.w	r3, [r2, #144]	; 0x90
      }

      /* Wait for LSE reactivation if LSE was enable prior to Backup Domain reset */
      if (HAL_IS_BIT_SET(tmpregister, RCC_BDCR_LSEON))
 800363a:	697b      	ldr	r3, [r7, #20]
 800363c:	f003 0301 	and.w	r3, r3, #1
 8003640:	2b00      	cmp	r3, #0
 8003642:	d016      	beq.n	8003672 <HAL_RCCEx_PeriphCLKConfig+0x186>
      {
        /* Get Start Tick*/
        tickstart = HAL_GetTick();
 8003644:	f7fd fa48 	bl	8000ad8 <HAL_GetTick>
 8003648:	60f8      	str	r0, [r7, #12]

        /* Wait till LSE is ready */
        while(READ_BIT(RCC->BDCR, RCC_BDCR_LSERDY) == 0U)
 800364a:	e00b      	b.n	8003664 <HAL_RCCEx_PeriphCLKConfig+0x178>
        {
          if((HAL_GetTick() - tickstart) > RCC_LSE_TIMEOUT_VALUE)
 800364c:	f7fd fa44 	bl	8000ad8 <HAL_GetTick>
 8003650:	4602      	mov	r2, r0
 8003652:	68fb      	ldr	r3, [r7, #12]
 8003654:	1ad3      	subs	r3, r2, r3
 8003656:	f241 3288 	movw	r2, #5000	; 0x1388
 800365a:	4293      	cmp	r3, r2
 800365c:	d902      	bls.n	8003664 <HAL_RCCEx_PeriphCLKConfig+0x178>
          {
            ret = HAL_TIMEOUT;
 800365e:	2303      	movs	r3, #3
 8003660:	74fb      	strb	r3, [r7, #19]
            break;
 8003662:	e006      	b.n	8003672 <HAL_RCCEx_PeriphCLKConfig+0x186>
        while(READ_BIT(RCC->BDCR, RCC_BDCR_LSERDY) == 0U)
 8003664:	4b0c      	ldr	r3, [pc, #48]	; (8003698 <HAL_RCCEx_PeriphCLKConfig+0x1ac>)
 8003666:	f8d3 3090 	ldr.w	r3, [r3, #144]	; 0x90
 800366a:	f003 0302 	and.w	r3, r3, #2
 800366e:	2b00      	cmp	r3, #0
 8003670:	d0ec      	beq.n	800364c <HAL_RCCEx_PeriphCLKConfig+0x160>
          }
        }
      }

      if(ret == HAL_OK)
 8003672:	7cfb      	ldrb	r3, [r7, #19]
 8003674:	2b00      	cmp	r3, #0
 8003676:	d10b      	bne.n	8003690 <HAL_RCCEx_PeriphCLKConfig+0x1a4>
      {
        /* Apply new RTC clock source selection */
        __HAL_RCC_RTC_CONFIG(PeriphClkInit->RTCClockSelection);
 8003678:	4b07      	ldr	r3, [pc, #28]	; (8003698 <HAL_RCCEx_PeriphCLKConfig+0x1ac>)
 800367a:	f8d3 3090 	ldr.w	r3, [r3, #144]	; 0x90
 800367e:	f423 7240 	bic.w	r2, r3, #768	; 0x300
 8003682:	687b      	ldr	r3, [r7, #4]
 8003684:	6e5b      	ldr	r3, [r3, #100]	; 0x64
 8003686:	4904      	ldr	r1, [pc, #16]	; (8003698 <HAL_RCCEx_PeriphCLKConfig+0x1ac>)
 8003688:	4313      	orrs	r3, r2
 800368a:	f8c1 3090 	str.w	r3, [r1, #144]	; 0x90
 800368e:	e009      	b.n	80036a4 <HAL_RCCEx_PeriphCLKConfig+0x1b8>
      }
      else
      {
        /* set overall return value */
        status = ret;
 8003690:	7cfb      	ldrb	r3, [r7, #19]
 8003692:	74bb      	strb	r3, [r7, #18]
 8003694:	e006      	b.n	80036a4 <HAL_RCCEx_PeriphCLKConfig+0x1b8>
 8003696:	bf00      	nop
 8003698:	40021000 	.word	0x40021000
 800369c:	40007000 	.word	0x40007000
      }
    }
    else
    {
      /* set overall return value */
      status = ret;
 80036a0:	7cfb      	ldrb	r3, [r7, #19]
 80036a2:	74bb      	strb	r3, [r7, #18]
    }

    /* Restore clock configuration if changed */
    if(pwrclkchanged == SET)
 80036a4:	7c7b      	ldrb	r3, [r7, #17]
 80036a6:	2b01      	cmp	r3, #1
 80036a8:	d105      	bne.n	80036b6 <HAL_RCCEx_PeriphCLKConfig+0x1ca>
    {
      __HAL_RCC_PWR_CLK_DISABLE();
 80036aa:	4b9e      	ldr	r3, [pc, #632]	; (8003924 <HAL_RCCEx_PeriphCLKConfig+0x438>)
 80036ac:	6d9b      	ldr	r3, [r3, #88]	; 0x58
 80036ae:	4a9d      	ldr	r2, [pc, #628]	; (8003924 <HAL_RCCEx_PeriphCLKConfig+0x438>)
 80036b0:	f023 5380 	bic.w	r3, r3, #268435456	; 0x10000000
 80036b4:	6593      	str	r3, [r2, #88]	; 0x58
    }
  }

  /*-------------------------- USART1 clock source configuration -------------------*/
  if(((PeriphClkInit->PeriphClockSelection) & RCC_PERIPHCLK_USART1) == RCC_PERIPHCLK_USART1)
 80036b6:	687b      	ldr	r3, [r7, #4]
 80036b8:	681b      	ldr	r3, [r3, #0]
 80036ba:	f003 0301 	and.w	r3, r3, #1
 80036be:	2b00      	cmp	r3, #0
 80036c0:	d00a      	beq.n	80036d8 <HAL_RCCEx_PeriphCLKConfig+0x1ec>
  {
    /* Check the parameters */
    assert_param(IS_RCC_USART1CLKSOURCE(PeriphClkInit->Usart1ClockSelection));

    /* Configure the USART1 clock source */
    __HAL_RCC_USART1_CONFIG(PeriphClkInit->Usart1ClockSelection);
 80036c2:	4b98      	ldr	r3, [pc, #608]	; (8003924 <HAL_RCCEx_PeriphCLKConfig+0x438>)
 80036c4:	f8d3 3088 	ldr.w	r3, [r3, #136]	; 0x88
 80036c8:	f023 0203 	bic.w	r2, r3, #3
 80036cc:	687b      	ldr	r3, [r7, #4]
 80036ce:	6a1b      	ldr	r3, [r3, #32]
 80036d0:	4994      	ldr	r1, [pc, #592]	; (8003924 <HAL_RCCEx_PeriphCLKConfig+0x438>)
 80036d2:	4313      	orrs	r3, r2
 80036d4:	f8c1 3088 	str.w	r3, [r1, #136]	; 0x88
  }

  /*-------------------------- USART2 clock source configuration -------------------*/
  if(((PeriphClkInit->PeriphClockSelection) & RCC_PERIPHCLK_USART2) == RCC_PERIPHCLK_USART2)
 80036d8:	687b      	ldr	r3, [r7, #4]
 80036da:	681b      	ldr	r3, [r3, #0]
 80036dc:	f003 0302 	and.w	r3, r3, #2
 80036e0:	2b00      	cmp	r3, #0
 80036e2:	d00a      	beq.n	80036fa <HAL_RCCEx_PeriphCLKConfig+0x20e>
  {
    /* Check the parameters */
    assert_param(IS_RCC_USART2CLKSOURCE(PeriphClkInit->Usart2ClockSelection));

    /* Configure the USART2 clock source */
    __HAL_RCC_USART2_CONFIG(PeriphClkInit->Usart2ClockSelection);
 80036e4:	4b8f      	ldr	r3, [pc, #572]	; (8003924 <HAL_RCCEx_PeriphCLKConfig+0x438>)
 80036e6:	f8d3 3088 	ldr.w	r3, [r3, #136]	; 0x88
 80036ea:	f023 020c 	bic.w	r2, r3, #12
 80036ee:	687b      	ldr	r3, [r7, #4]
 80036f0:	6a5b      	ldr	r3, [r3, #36]	; 0x24
 80036f2:	498c      	ldr	r1, [pc, #560]	; (8003924 <HAL_RCCEx_PeriphCLKConfig+0x438>)
 80036f4:	4313      	orrs	r3, r2
 80036f6:	f8c1 3088 	str.w	r3, [r1, #136]	; 0x88
  }

#if defined(USART3)

  /*-------------------------- USART3 clock source configuration -------------------*/
  if(((PeriphClkInit->PeriphClockSelection) & RCC_PERIPHCLK_USART3) == RCC_PERIPHCLK_USART3)
 80036fa:	687b      	ldr	r3, [r7, #4]
 80036fc:	681b      	ldr	r3, [r3, #0]
 80036fe:	f003 0304 	and.w	r3, r3, #4
 8003702:	2b00      	cmp	r3, #0
 8003704:	d00a      	beq.n	800371c <HAL_RCCEx_PeriphCLKConfig+0x230>
  {
    /* Check the parameters */
    assert_param(IS_RCC_USART3CLKSOURCE(PeriphClkInit->Usart3ClockSelection));

    /* Configure the USART3 clock source */
    __HAL_RCC_USART3_CONFIG(PeriphClkInit->Usart3ClockSelection);
 8003706:	4b87      	ldr	r3, [pc, #540]	; (8003924 <HAL_RCCEx_PeriphCLKConfig+0x438>)
 8003708:	f8d3 3088 	ldr.w	r3, [r3, #136]	; 0x88
 800370c:	f023 0230 	bic.w	r2, r3, #48	; 0x30
 8003710:	687b      	ldr	r3, [r7, #4]
 8003712:	6a9b      	ldr	r3, [r3, #40]	; 0x28
 8003714:	4983      	ldr	r1, [pc, #524]	; (8003924 <HAL_RCCEx_PeriphCLKConfig+0x438>)
 8003716:	4313      	orrs	r3, r2
 8003718:	f8c1 3088 	str.w	r3, [r1, #136]	; 0x88
#endif /* USART3 */

#if defined(UART4)

  /*-------------------------- UART4 clock source configuration --------------------*/
  if(((PeriphClkInit->PeriphClockSelection) & RCC_PERIPHCLK_UART4) == RCC_PERIPHCLK_UART4)
 800371c:	687b      	ldr	r3, [r7, #4]
 800371e:	681b      	ldr	r3, [r3, #0]
 8003720:	f003 0308 	and.w	r3, r3, #8
 8003724:	2b00      	cmp	r3, #0
 8003726:	d00a      	beq.n	800373e <HAL_RCCEx_PeriphCLKConfig+0x252>
  {
    /* Check the parameters */
    assert_param(IS_RCC_UART4CLKSOURCE(PeriphClkInit->Uart4ClockSelection));

    /* Configure the UART4 clock source */
    __HAL_RCC_UART4_CONFIG(PeriphClkInit->Uart4ClockSelection);
 8003728:	4b7e      	ldr	r3, [pc, #504]	; (8003924 <HAL_RCCEx_PeriphCLKConfig+0x438>)
 800372a:	f8d3 3088 	ldr.w	r3, [r3, #136]	; 0x88
 800372e:	f023 02c0 	bic.w	r2, r3, #192	; 0xc0
 8003732:	687b      	ldr	r3, [r7, #4]
 8003734:	6adb      	ldr	r3, [r3, #44]	; 0x2c
 8003736:	497b      	ldr	r1, [pc, #492]	; (8003924 <HAL_RCCEx_PeriphCLKConfig+0x438>)
 8003738:	4313      	orrs	r3, r2
 800373a:	f8c1 3088 	str.w	r3, [r1, #136]	; 0x88
  }

#endif /* UART5 */

  /*-------------------------- LPUART1 clock source configuration ------------------*/
  if(((PeriphClkInit->PeriphClockSelection) & RCC_PERIPHCLK_LPUART1) == RCC_PERIPHCLK_LPUART1)
 800373e:	687b      	ldr	r3, [r7, #4]
 8003740:	681b      	ldr	r3, [r3, #0]
 8003742:	f003 0320 	and.w	r3, r3, #32
 8003746:	2b00      	cmp	r3, #0
 8003748:	d00a      	beq.n	8003760 <HAL_RCCEx_PeriphCLKConfig+0x274>
  {
    /* Check the parameters */
    assert_param(IS_RCC_LPUART1CLKSOURCE(PeriphClkInit->Lpuart1ClockSelection));

    /* Configure the LPUART1 clock source */
    __HAL_RCC_LPUART1_CONFIG(PeriphClkInit->Lpuart1ClockSelection);
 800374a:	4b76      	ldr	r3, [pc, #472]	; (8003924 <HAL_RCCEx_PeriphCLKConfig+0x438>)
 800374c:	f8d3 3088 	ldr.w	r3, [r3, #136]	; 0x88
 8003750:	f423 6240 	bic.w	r2, r3, #3072	; 0xc00
 8003754:	687b      	ldr	r3, [r7, #4]
 8003756:	6b1b      	ldr	r3, [r3, #48]	; 0x30
 8003758:	4972      	ldr	r1, [pc, #456]	; (8003924 <HAL_RCCEx_PeriphCLKConfig+0x438>)
 800375a:	4313      	orrs	r3, r2
 800375c:	f8c1 3088 	str.w	r3, [r1, #136]	; 0x88
  }

  /*-------------------------- LPTIM1 clock source configuration -------------------*/
  if(((PeriphClkInit->PeriphClockSelection) & RCC_PERIPHCLK_LPTIM1) == (RCC_PERIPHCLK_LPTIM1))
 8003760:	687b      	ldr	r3, [r7, #4]
 8003762:	681b      	ldr	r3, [r3, #0]
 8003764:	f403 7300 	and.w	r3, r3, #512	; 0x200
 8003768:	2b00      	cmp	r3, #0
 800376a:	d00a      	beq.n	8003782 <HAL_RCCEx_PeriphCLKConfig+0x296>
  {
    assert_param(IS_RCC_LPTIM1CLK(PeriphClkInit->Lptim1ClockSelection));
    __HAL_RCC_LPTIM1_CONFIG(PeriphClkInit->Lptim1ClockSelection);
 800376c:	4b6d      	ldr	r3, [pc, #436]	; (8003924 <HAL_RCCEx_PeriphCLKConfig+0x438>)
 800376e:	f8d3 3088 	ldr.w	r3, [r3, #136]	; 0x88
 8003772:	f423 2240 	bic.w	r2, r3, #786432	; 0xc0000
 8003776:	687b      	ldr	r3, [r7, #4]
 8003778:	6c5b      	ldr	r3, [r3, #68]	; 0x44
 800377a:	496a      	ldr	r1, [pc, #424]	; (8003924 <HAL_RCCEx_PeriphCLKConfig+0x438>)
 800377c:	4313      	orrs	r3, r2
 800377e:	f8c1 3088 	str.w	r3, [r1, #136]	; 0x88
  }

  /*-------------------------- LPTIM2 clock source configuration -------------------*/
  if(((PeriphClkInit->PeriphClockSelection) & RCC_PERIPHCLK_LPTIM2) == (RCC_PERIPHCLK_LPTIM2))
 8003782:	687b      	ldr	r3, [r7, #4]
 8003784:	681b      	ldr	r3, [r3, #0]
 8003786:	f403 6380 	and.w	r3, r3, #1024	; 0x400
 800378a:	2b00      	cmp	r3, #0
 800378c:	d00a      	beq.n	80037a4 <HAL_RCCEx_PeriphCLKConfig+0x2b8>
  {
    assert_param(IS_RCC_LPTIM2CLK(PeriphClkInit->Lptim2ClockSelection));
    __HAL_RCC_LPTIM2_CONFIG(PeriphClkInit->Lptim2ClockSelection);
 800378e:	4b65      	ldr	r3, [pc, #404]	; (8003924 <HAL_RCCEx_PeriphCLKConfig+0x438>)
 8003790:	f8d3 3088 	ldr.w	r3, [r3, #136]	; 0x88
 8003794:	f423 1240 	bic.w	r2, r3, #3145728	; 0x300000
 8003798:	687b      	ldr	r3, [r7, #4]
 800379a:	6c9b      	ldr	r3, [r3, #72]	; 0x48
 800379c:	4961      	ldr	r1, [pc, #388]	; (8003924 <HAL_RCCEx_PeriphCLKConfig+0x438>)
 800379e:	4313      	orrs	r3, r2
 80037a0:	f8c1 3088 	str.w	r3, [r1, #136]	; 0x88
  }

  /*-------------------------- I2C1 clock source configuration ---------------------*/
  if(((PeriphClkInit->PeriphClockSelection) & RCC_PERIPHCLK_I2C1) == RCC_PERIPHCLK_I2C1)
 80037a4:	687b      	ldr	r3, [r7, #4]
 80037a6:	681b      	ldr	r3, [r3, #0]
 80037a8:	f003 0340 	and.w	r3, r3, #64	; 0x40
 80037ac:	2b00      	cmp	r3, #0
 80037ae:	d00a      	beq.n	80037c6 <HAL_RCCEx_PeriphCLKConfig+0x2da>
  {
    /* Check the parameters */
    assert_param(IS_RCC_I2C1CLKSOURCE(PeriphClkInit->I2c1ClockSelection));

    /* Configure the I2C1 clock source */
    __HAL_RCC_I2C1_CONFIG(PeriphClkInit->I2c1ClockSelection);
 80037b0:	4b5c      	ldr	r3, [pc, #368]	; (8003924 <HAL_RCCEx_PeriphCLKConfig+0x438>)
 80037b2:	f8d3 3088 	ldr.w	r3, [r3, #136]	; 0x88
 80037b6:	f423 5240 	bic.w	r2, r3, #12288	; 0x3000
 80037ba:	687b      	ldr	r3, [r7, #4]
 80037bc:	6b5b      	ldr	r3, [r3, #52]	; 0x34
 80037be:	4959      	ldr	r1, [pc, #356]	; (8003924 <HAL_RCCEx_PeriphCLKConfig+0x438>)
 80037c0:	4313      	orrs	r3, r2
 80037c2:	f8c1 3088 	str.w	r3, [r1, #136]	; 0x88
  }

#if defined(I2C2)

  /*-------------------------- I2C2 clock source configuration ---------------------*/
  if(((PeriphClkInit->PeriphClockSelection) & RCC_PERIPHCLK_I2C2) == RCC_PERIPHCLK_I2C2)
 80037c6:	687b      	ldr	r3, [r7, #4]
 80037c8:	681b      	ldr	r3, [r3, #0]
 80037ca:	f003 0380 	and.w	r3, r3, #128	; 0x80
 80037ce:	2b00      	cmp	r3, #0
 80037d0:	d00a      	beq.n	80037e8 <HAL_RCCEx_PeriphCLKConfig+0x2fc>
  {
    /* Check the parameters */
    assert_param(IS_RCC_I2C2CLKSOURCE(PeriphClkInit->I2c2ClockSelection));

    /* Configure the I2C2 clock source */
    __HAL_RCC_I2C2_CONFIG(PeriphClkInit->I2c2ClockSelection);
 80037d2:	4b54      	ldr	r3, [pc, #336]	; (8003924 <HAL_RCCEx_PeriphCLKConfig+0x438>)
 80037d4:	f8d3 3088 	ldr.w	r3, [r3, #136]	; 0x88
 80037d8:	f423 4240 	bic.w	r2, r3, #49152	; 0xc000
 80037dc:	687b      	ldr	r3, [r7, #4]
 80037de:	6b9b      	ldr	r3, [r3, #56]	; 0x38
 80037e0:	4950      	ldr	r1, [pc, #320]	; (8003924 <HAL_RCCEx_PeriphCLKConfig+0x438>)
 80037e2:	4313      	orrs	r3, r2
 80037e4:	f8c1 3088 	str.w	r3, [r1, #136]	; 0x88
  }

#endif /* I2C2 */

  /*-------------------------- I2C3 clock source configuration ---------------------*/
  if(((PeriphClkInit->PeriphClockSelection) & RCC_PERIPHCLK_I2C3) == RCC_PERIPHCLK_I2C3)
 80037e8:	687b      	ldr	r3, [r7, #4]
 80037ea:	681b      	ldr	r3, [r3, #0]
 80037ec:	f403 7380 	and.w	r3, r3, #256	; 0x100
 80037f0:	2b00      	cmp	r3, #0
 80037f2:	d00a      	beq.n	800380a <HAL_RCCEx_PeriphCLKConfig+0x31e>
  {
    /* Check the parameters */
    assert_param(IS_RCC_I2C3CLKSOURCE(PeriphClkInit->I2c3ClockSelection));

    /* Configure the I2C3 clock source */
    __HAL_RCC_I2C3_CONFIG(PeriphClkInit->I2c3ClockSelection);
 80037f4:	4b4b      	ldr	r3, [pc, #300]	; (8003924 <HAL_RCCEx_PeriphCLKConfig+0x438>)
 80037f6:	f8d3 3088 	ldr.w	r3, [r3, #136]	; 0x88
 80037fa:	f423 3240 	bic.w	r2, r3, #196608	; 0x30000
 80037fe:	687b      	ldr	r3, [r7, #4]
 8003800:	6bdb      	ldr	r3, [r3, #60]	; 0x3c
 8003802:	4948      	ldr	r1, [pc, #288]	; (8003924 <HAL_RCCEx_PeriphCLKConfig+0x438>)
 8003804:	4313      	orrs	r3, r2
 8003806:	f8c1 3088 	str.w	r3, [r1, #136]	; 0x88
  }

#if defined(I2C4)

  /*-------------------------- I2C4 clock source configuration ---------------------*/
  if(((PeriphClkInit->PeriphClockSelection) & RCC_PERIPHCLK_I2C4) == RCC_PERIPHCLK_I2C4)
 800380a:	687b      	ldr	r3, [r7, #4]
 800380c:	681b      	ldr	r3, [r3, #0]
 800380e:	f403 1380 	and.w	r3, r3, #1048576	; 0x100000
 8003812:	2b00      	cmp	r3, #0
 8003814:	d00a      	beq.n	800382c <HAL_RCCEx_PeriphCLKConfig+0x340>
  {
    /* Check the parameters */
    assert_param(IS_RCC_I2C4CLKSOURCE(PeriphClkInit->I2c4ClockSelection));

    /* Configure the I2C4 clock source */
    __HAL_RCC_I2C4_CONFIG(PeriphClkInit->I2c4ClockSelection);
 8003816:	4b43      	ldr	r3, [pc, #268]	; (8003924 <HAL_RCCEx_PeriphCLKConfig+0x438>)
 8003818:	f8d3 309c 	ldr.w	r3, [r3, #156]	; 0x9c
 800381c:	f023 0203 	bic.w	r2, r3, #3
 8003820:	687b      	ldr	r3, [r7, #4]
 8003822:	6c1b      	ldr	r3, [r3, #64]	; 0x40
 8003824:	493f      	ldr	r1, [pc, #252]	; (8003924 <HAL_RCCEx_PeriphCLKConfig+0x438>)
 8003826:	4313      	orrs	r3, r2
 8003828:	f8c1 309c 	str.w	r3, [r1, #156]	; 0x9c
#endif /* I2C4 */

#if defined(USB_OTG_FS) || defined(USB)

  /*-------------------------- USB clock source configuration ----------------------*/
  if(((PeriphClkInit->PeriphClockSelection) & RCC_PERIPHCLK_USB) == (RCC_PERIPHCLK_USB))
 800382c:	687b      	ldr	r3, [r7, #4]
 800382e:	681b      	ldr	r3, [r3, #0]
 8003830:	f403 5300 	and.w	r3, r3, #8192	; 0x2000
 8003834:	2b00      	cmp	r3, #0
 8003836:	d028      	beq.n	800388a <HAL_RCCEx_PeriphCLKConfig+0x39e>
  {
    assert_param(IS_RCC_USBCLKSOURCE(PeriphClkInit->UsbClockSelection));
    __HAL_RCC_USB_CONFIG(PeriphClkInit->UsbClockSelection);
 8003838:	4b3a      	ldr	r3, [pc, #232]	; (8003924 <HAL_RCCEx_PeriphCLKConfig+0x438>)
 800383a:	f8d3 3088 	ldr.w	r3, [r3, #136]	; 0x88
 800383e:	f023 6240 	bic.w	r2, r3, #201326592	; 0xc000000
 8003842:	687b      	ldr	r3, [r7, #4]
 8003844:	6d1b      	ldr	r3, [r3, #80]	; 0x50
 8003846:	4937      	ldr	r1, [pc, #220]	; (8003924 <HAL_RCCEx_PeriphCLKConfig+0x438>)
 8003848:	4313      	orrs	r3, r2
 800384a:	f8c1 3088 	str.w	r3, [r1, #136]	; 0x88

    if(PeriphClkInit->UsbClockSelection == RCC_USBCLKSOURCE_PLL)
 800384e:	687b      	ldr	r3, [r7, #4]
 8003850:	6d1b      	ldr	r3, [r3, #80]	; 0x50
 8003852:	f1b3 6f00 	cmp.w	r3, #134217728	; 0x8000000
 8003856:	d106      	bne.n	8003866 <HAL_RCCEx_PeriphCLKConfig+0x37a>
    {
      /* Enable PLL48M1CLK output clock */
      __HAL_RCC_PLLCLKOUT_ENABLE(RCC_PLL_48M1CLK);
 8003858:	4b32      	ldr	r3, [pc, #200]	; (8003924 <HAL_RCCEx_PeriphCLKConfig+0x438>)
 800385a:	68db      	ldr	r3, [r3, #12]
 800385c:	4a31      	ldr	r2, [pc, #196]	; (8003924 <HAL_RCCEx_PeriphCLKConfig+0x438>)
 800385e:	f443 1380 	orr.w	r3, r3, #1048576	; 0x100000
 8003862:	60d3      	str	r3, [r2, #12]
 8003864:	e011      	b.n	800388a <HAL_RCCEx_PeriphCLKConfig+0x39e>
    }
    else
    {
#if defined(RCC_PLLSAI1_SUPPORT)
      if(PeriphClkInit->UsbClockSelection == RCC_USBCLKSOURCE_PLLSAI1)
 8003866:	687b      	ldr	r3, [r7, #4]
 8003868:	6d1b      	ldr	r3, [r3, #80]	; 0x50
 800386a:	f1b3 6f80 	cmp.w	r3, #67108864	; 0x4000000
 800386e:	d10c      	bne.n	800388a <HAL_RCCEx_PeriphCLKConfig+0x39e>
      {
        /* PLLSAI1 input clock, parameters M, N & Q configuration and clock output (PLLSAI1ClockOut) */
        ret = RCCEx_PLLSAI1_Config(&(PeriphClkInit->PLLSAI1), DIVIDER_Q_UPDATE);
 8003870:	687b      	ldr	r3, [r7, #4]
 8003872:	3304      	adds	r3, #4
 8003874:	2101      	movs	r1, #1
 8003876:	4618      	mov	r0, r3
 8003878:	f000 f8a4 	bl	80039c4 <RCCEx_PLLSAI1_Config>
 800387c:	4603      	mov	r3, r0
 800387e:	74fb      	strb	r3, [r7, #19]

        if(ret != HAL_OK)
 8003880:	7cfb      	ldrb	r3, [r7, #19]
 8003882:	2b00      	cmp	r3, #0
 8003884:	d001      	beq.n	800388a <HAL_RCCEx_PeriphCLKConfig+0x39e>
        {
          /* set overall return value */
          status = ret;
 8003886:	7cfb      	ldrb	r3, [r7, #19]
 8003888:	74bb      	strb	r3, [r7, #18]
#endif /* USB_OTG_FS || USB */

#if defined(SDMMC1)

  /*-------------------------- SDMMC1 clock source configuration -------------------*/
  if(((PeriphClkInit->PeriphClockSelection) & RCC_PERIPHCLK_SDMMC1) == (RCC_PERIPHCLK_SDMMC1))
 800388a:	687b      	ldr	r3, [r7, #4]
 800388c:	681b      	ldr	r3, [r3, #0]
 800388e:	f403 2300 	and.w	r3, r3, #524288	; 0x80000
 8003892:	2b00      	cmp	r3, #0
 8003894:	d028      	beq.n	80038e8 <HAL_RCCEx_PeriphCLKConfig+0x3fc>
  {
    assert_param(IS_RCC_SDMMC1CLKSOURCE(PeriphClkInit->Sdmmc1ClockSelection));
    __HAL_RCC_SDMMC1_CONFIG(PeriphClkInit->Sdmmc1ClockSelection);
 8003896:	4b23      	ldr	r3, [pc, #140]	; (8003924 <HAL_RCCEx_PeriphCLKConfig+0x438>)
 8003898:	f8d3 3088 	ldr.w	r3, [r3, #136]	; 0x88
 800389c:	f023 6240 	bic.w	r2, r3, #201326592	; 0xc000000
 80038a0:	687b      	ldr	r3, [r7, #4]
 80038a2:	6d5b      	ldr	r3, [r3, #84]	; 0x54
 80038a4:	491f      	ldr	r1, [pc, #124]	; (8003924 <HAL_RCCEx_PeriphCLKConfig+0x438>)
 80038a6:	4313      	orrs	r3, r2
 80038a8:	f8c1 3088 	str.w	r3, [r1, #136]	; 0x88

    if(PeriphClkInit->Sdmmc1ClockSelection == RCC_SDMMC1CLKSOURCE_PLL)   /* PLL "Q" ? */
 80038ac:	687b      	ldr	r3, [r7, #4]
 80038ae:	6d5b      	ldr	r3, [r3, #84]	; 0x54
 80038b0:	f1b3 6f00 	cmp.w	r3, #134217728	; 0x8000000
 80038b4:	d106      	bne.n	80038c4 <HAL_RCCEx_PeriphCLKConfig+0x3d8>
    {
      /* Enable PLL48M1CLK output clock */
      __HAL_RCC_PLLCLKOUT_ENABLE(RCC_PLL_48M1CLK);
 80038b6:	4b1b      	ldr	r3, [pc, #108]	; (8003924 <HAL_RCCEx_PeriphCLKConfig+0x438>)
 80038b8:	68db      	ldr	r3, [r3, #12]
 80038ba:	4a1a      	ldr	r2, [pc, #104]	; (8003924 <HAL_RCCEx_PeriphCLKConfig+0x438>)
 80038bc:	f443 1380 	orr.w	r3, r3, #1048576	; 0x100000
 80038c0:	60d3      	str	r3, [r2, #12]
 80038c2:	e011      	b.n	80038e8 <HAL_RCCEx_PeriphCLKConfig+0x3fc>
    {
      /* Enable PLLSAI3CLK output */
      __HAL_RCC_PLLCLKOUT_ENABLE(RCC_PLL_SAI3CLK);
    }
#endif
    else if(PeriphClkInit->Sdmmc1ClockSelection == RCC_SDMMC1CLKSOURCE_PLLSAI1)
 80038c4:	687b      	ldr	r3, [r7, #4]
 80038c6:	6d5b      	ldr	r3, [r3, #84]	; 0x54
 80038c8:	f1b3 6f80 	cmp.w	r3, #67108864	; 0x4000000
 80038cc:	d10c      	bne.n	80038e8 <HAL_RCCEx_PeriphCLKConfig+0x3fc>
    {
      /* PLLSAI1 input clock, parameters M, N & Q configuration and clock output (PLLSAI1ClockOut) */
      ret = RCCEx_PLLSAI1_Config(&(PeriphClkInit->PLLSAI1), DIVIDER_Q_UPDATE);
 80038ce:	687b      	ldr	r3, [r7, #4]
 80038d0:	3304      	adds	r3, #4
 80038d2:	2101      	movs	r1, #1
 80038d4:	4618      	mov	r0, r3
 80038d6:	f000 f875 	bl	80039c4 <RCCEx_PLLSAI1_Config>
 80038da:	4603      	mov	r3, r0
 80038dc:	74fb      	strb	r3, [r7, #19]

      if(ret != HAL_OK)
 80038de:	7cfb      	ldrb	r3, [r7, #19]
 80038e0:	2b00      	cmp	r3, #0
 80038e2:	d001      	beq.n	80038e8 <HAL_RCCEx_PeriphCLKConfig+0x3fc>
      {
        /* set overall return value */
        status = ret;
 80038e4:	7cfb      	ldrb	r3, [r7, #19]
 80038e6:	74bb      	strb	r3, [r7, #18]
  }

#endif /* SDMMC1 */

  /*-------------------------- RNG clock source configuration ----------------------*/
  if(((PeriphClkInit->PeriphClockSelection) & RCC_PERIPHCLK_RNG) == (RCC_PERIPHCLK_RNG))
 80038e8:	687b      	ldr	r3, [r7, #4]
 80038ea:	681b      	ldr	r3, [r3, #0]
 80038ec:	f403 2380 	and.w	r3, r3, #262144	; 0x40000
 80038f0:	2b00      	cmp	r3, #0
 80038f2:	d02b      	beq.n	800394c <HAL_RCCEx_PeriphCLKConfig+0x460>
  {
    assert_param(IS_RCC_RNGCLKSOURCE(PeriphClkInit->RngClockSelection));
    __HAL_RCC_RNG_CONFIG(PeriphClkInit->RngClockSelection);
 80038f4:	4b0b      	ldr	r3, [pc, #44]	; (8003924 <HAL_RCCEx_PeriphCLKConfig+0x438>)
 80038f6:	f8d3 3088 	ldr.w	r3, [r3, #136]	; 0x88
 80038fa:	f023 6240 	bic.w	r2, r3, #201326592	; 0xc000000
 80038fe:	687b      	ldr	r3, [r7, #4]
 8003900:	6d9b      	ldr	r3, [r3, #88]	; 0x58
 8003902:	4908      	ldr	r1, [pc, #32]	; (8003924 <HAL_RCCEx_PeriphCLKConfig+0x438>)
 8003904:	4313      	orrs	r3, r2
 8003906:	f8c1 3088 	str.w	r3, [r1, #136]	; 0x88

    if(PeriphClkInit->RngClockSelection == RCC_RNGCLKSOURCE_PLL)
 800390a:	687b      	ldr	r3, [r7, #4]
 800390c:	6d9b      	ldr	r3, [r3, #88]	; 0x58
 800390e:	f1b3 6f00 	cmp.w	r3, #134217728	; 0x8000000
 8003912:	d109      	bne.n	8003928 <HAL_RCCEx_PeriphCLKConfig+0x43c>
    {
      /* Enable PLL48M1CLK output clock */
      __HAL_RCC_PLLCLKOUT_ENABLE(RCC_PLL_48M1CLK);
 8003914:	4b03      	ldr	r3, [pc, #12]	; (8003924 <HAL_RCCEx_PeriphCLKConfig+0x438>)
 8003916:	68db      	ldr	r3, [r3, #12]
 8003918:	4a02      	ldr	r2, [pc, #8]	; (8003924 <HAL_RCCEx_PeriphCLKConfig+0x438>)
 800391a:	f443 1380 	orr.w	r3, r3, #1048576	; 0x100000
 800391e:	60d3      	str	r3, [r2, #12]
 8003920:	e014      	b.n	800394c <HAL_RCCEx_PeriphCLKConfig+0x460>
 8003922:	bf00      	nop
 8003924:	40021000 	.word	0x40021000
    }
#if defined(RCC_PLLSAI1_SUPPORT)
    else if(PeriphClkInit->RngClockSelection == RCC_RNGCLKSOURCE_PLLSAI1)
 8003928:	687b      	ldr	r3, [r7, #4]
 800392a:	6d9b      	ldr	r3, [r3, #88]	; 0x58
 800392c:	f1b3 6f80 	cmp.w	r3, #67108864	; 0x4000000
 8003930:	d10c      	bne.n	800394c <HAL_RCCEx_PeriphCLKConfig+0x460>
    {
      /* PLLSAI1 input clock, parameters M, N & Q configuration and clock output (PLLSAI1ClockOut) */
      ret = RCCEx_PLLSAI1_Config(&(PeriphClkInit->PLLSAI1), DIVIDER_Q_UPDATE);
 8003932:	687b      	ldr	r3, [r7, #4]
 8003934:	3304      	adds	r3, #4
 8003936:	2101      	movs	r1, #1
 8003938:	4618      	mov	r0, r3
 800393a:	f000 f843 	bl	80039c4 <RCCEx_PLLSAI1_Config>
 800393e:	4603      	mov	r3, r0
 8003940:	74fb      	strb	r3, [r7, #19]

      if(ret != HAL_OK)
 8003942:	7cfb      	ldrb	r3, [r7, #19]
 8003944:	2b00      	cmp	r3, #0
 8003946:	d001      	beq.n	800394c <HAL_RCCEx_PeriphCLKConfig+0x460>
      {
        /* set overall return value */
        status = ret;
 8003948:	7cfb      	ldrb	r3, [r7, #19]
 800394a:	74bb      	strb	r3, [r7, #18]
    }
  }

  /*-------------------------- ADC clock source configuration ----------------------*/
#if !defined(STM32L412xx) && !defined(STM32L422xx)
  if(((PeriphClkInit->PeriphClockSelection) & RCC_PERIPHCLK_ADC) == RCC_PERIPHCLK_ADC)
 800394c:	687b      	ldr	r3, [r7, #4]
 800394e:	681b      	ldr	r3, [r3, #0]
 8003950:	f403 4380 	and.w	r3, r3, #16384	; 0x4000
 8003954:	2b00      	cmp	r3, #0
 8003956:	d01c      	beq.n	8003992 <HAL_RCCEx_PeriphCLKConfig+0x4a6>
  {
    /* Check the parameters */
    assert_param(IS_RCC_ADCCLKSOURCE(PeriphClkInit->AdcClockSelection));

    /* Configure the ADC interface clock source */
    __HAL_RCC_ADC_CONFIG(PeriphClkInit->AdcClockSelection);
 8003958:	4b19      	ldr	r3, [pc, #100]	; (80039c0 <HAL_RCCEx_PeriphCLKConfig+0x4d4>)
 800395a:	f8d3 3088 	ldr.w	r3, [r3, #136]	; 0x88
 800395e:	f023 5240 	bic.w	r2, r3, #805306368	; 0x30000000
 8003962:	687b      	ldr	r3, [r7, #4]
 8003964:	6ddb      	ldr	r3, [r3, #92]	; 0x5c
 8003966:	4916      	ldr	r1, [pc, #88]	; (80039c0 <HAL_RCCEx_PeriphCLKConfig+0x4d4>)
 8003968:	4313      	orrs	r3, r2
 800396a:	f8c1 3088 	str.w	r3, [r1, #136]	; 0x88

#if defined(RCC_PLLSAI1_SUPPORT)
    if(PeriphClkInit->AdcClockSelection == RCC_ADCCLKSOURCE_PLLSAI1)
 800396e:	687b      	ldr	r3, [r7, #4]
 8003970:	6ddb      	ldr	r3, [r3, #92]	; 0x5c
 8003972:	f1b3 5f80 	cmp.w	r3, #268435456	; 0x10000000
 8003976:	d10c      	bne.n	8003992 <HAL_RCCEx_PeriphCLKConfig+0x4a6>
    {
      /* PLLSAI1 input clock, parameters M, N & R configuration and clock output (PLLSAI1ClockOut) */
      ret = RCCEx_PLLSAI1_Config(&(PeriphClkInit->PLLSAI1), DIVIDER_R_UPDATE);
 8003978:	687b      	ldr	r3, [r7, #4]
 800397a:	3304      	adds	r3, #4
 800397c:	2102      	movs	r1, #2
 800397e:	4618      	mov	r0, r3
 8003980:	f000 f820 	bl	80039c4 <RCCEx_PLLSAI1_Config>
 8003984:	4603      	mov	r3, r0
 8003986:	74fb      	strb	r3, [r7, #19]

      if(ret != HAL_OK)
 8003988:	7cfb      	ldrb	r3, [r7, #19]
 800398a:	2b00      	cmp	r3, #0
 800398c:	d001      	beq.n	8003992 <HAL_RCCEx_PeriphCLKConfig+0x4a6>
      {
        /* set overall return value */
        status = ret;
 800398e:	7cfb      	ldrb	r3, [r7, #19]
 8003990:	74bb      	strb	r3, [r7, #18]
#endif /* SWPMI1 */

#if defined(DFSDM1_Filter0)

  /*-------------------------- DFSDM1 clock source configuration -------------------*/
  if(((PeriphClkInit->PeriphClockSelection) & RCC_PERIPHCLK_DFSDM1) == RCC_PERIPHCLK_DFSDM1)
 8003992:	687b      	ldr	r3, [r7, #4]
 8003994:	681b      	ldr	r3, [r3, #0]
 8003996:	f403 3380 	and.w	r3, r3, #65536	; 0x10000
 800399a:	2b00      	cmp	r3, #0
 800399c:	d00a      	beq.n	80039b4 <HAL_RCCEx_PeriphCLKConfig+0x4c8>
  {
    /* Check the parameters */
    assert_param(IS_RCC_DFSDM1CLKSOURCE(PeriphClkInit->Dfsdm1ClockSelection));

    /* Configure the DFSDM1 interface clock source */
    __HAL_RCC_DFSDM1_CONFIG(PeriphClkInit->Dfsdm1ClockSelection);
 800399e:	4b08      	ldr	r3, [pc, #32]	; (80039c0 <HAL_RCCEx_PeriphCLKConfig+0x4d4>)
 80039a0:	f8d3 3088 	ldr.w	r3, [r3, #136]	; 0x88
 80039a4:	f023 4200 	bic.w	r2, r3, #2147483648	; 0x80000000
 80039a8:	687b      	ldr	r3, [r7, #4]
 80039aa:	6e1b      	ldr	r3, [r3, #96]	; 0x60
 80039ac:	4904      	ldr	r1, [pc, #16]	; (80039c0 <HAL_RCCEx_PeriphCLKConfig+0x4d4>)
 80039ae:	4313      	orrs	r3, r2
 80039b0:	f8c1 3088 	str.w	r3, [r1, #136]	; 0x88
    }
  }

#endif /* OCTOSPI1 || OCTOSPI2 */

  return status;
 80039b4:	7cbb      	ldrb	r3, [r7, #18]
}
 80039b6:	4618      	mov	r0, r3
 80039b8:	3718      	adds	r7, #24
 80039ba:	46bd      	mov	sp, r7
 80039bc:	bd80      	pop	{r7, pc}
 80039be:	bf00      	nop
 80039c0:	40021000 	.word	0x40021000

080039c4 <RCCEx_PLLSAI1_Config>:
  * @note   PLLSAI1 is temporary disable to apply new parameters
  *
  * @retval HAL status
  */
static HAL_StatusTypeDef RCCEx_PLLSAI1_Config(RCC_PLLSAI1InitTypeDef *PllSai1, uint32_t Divider)
{
 80039c4:	b580      	push	{r7, lr}
 80039c6:	b084      	sub	sp, #16
 80039c8:	af00      	add	r7, sp, #0
 80039ca:	6078      	str	r0, [r7, #4]
 80039cc:	6039      	str	r1, [r7, #0]
  uint32_t tickstart;
  HAL_StatusTypeDef status = HAL_OK;
 80039ce:	2300      	movs	r3, #0
 80039d0:	73fb      	strb	r3, [r7, #15]
  assert_param(IS_RCC_PLLSAI1M_VALUE(PllSai1->PLLSAI1M));
  assert_param(IS_RCC_PLLSAI1N_VALUE(PllSai1->PLLSAI1N));
  assert_param(IS_RCC_PLLSAI1CLOCKOUT_VALUE(PllSai1->PLLSAI1ClockOut));

  /* Check that PLLSAI1 clock source and divider M can be applied */
  if(__HAL_RCC_GET_PLL_OSCSOURCE() != RCC_PLLSOURCE_NONE)
 80039d2:	4b74      	ldr	r3, [pc, #464]	; (8003ba4 <RCCEx_PLLSAI1_Config+0x1e0>)
 80039d4:	68db      	ldr	r3, [r3, #12]
 80039d6:	f003 0303 	and.w	r3, r3, #3
 80039da:	2b00      	cmp	r3, #0
 80039dc:	d018      	beq.n	8003a10 <RCCEx_PLLSAI1_Config+0x4c>
  {
    /* PLL clock source and divider M already set, check that no request for change  */
    if((__HAL_RCC_GET_PLL_OSCSOURCE() != PllSai1->PLLSAI1Source)
 80039de:	4b71      	ldr	r3, [pc, #452]	; (8003ba4 <RCCEx_PLLSAI1_Config+0x1e0>)
 80039e0:	68db      	ldr	r3, [r3, #12]
 80039e2:	f003 0203 	and.w	r2, r3, #3
 80039e6:	687b      	ldr	r3, [r7, #4]
 80039e8:	681b      	ldr	r3, [r3, #0]
 80039ea:	429a      	cmp	r2, r3
 80039ec:	d10d      	bne.n	8003a0a <RCCEx_PLLSAI1_Config+0x46>
       ||
       (PllSai1->PLLSAI1Source == RCC_PLLSOURCE_NONE)
 80039ee:	687b      	ldr	r3, [r7, #4]
 80039f0:	681b      	ldr	r3, [r3, #0]
       ||
 80039f2:	2b00      	cmp	r3, #0
 80039f4:	d009      	beq.n	8003a0a <RCCEx_PLLSAI1_Config+0x46>
#if !defined(RCC_PLLSAI1M_DIV_1_16_SUPPORT)
       ||
       (((READ_BIT(RCC->PLLCFGR, RCC_PLLCFGR_PLLM) >> RCC_PLLCFGR_PLLM_Pos) + 1U) != PllSai1->PLLSAI1M)
 80039f6:	4b6b      	ldr	r3, [pc, #428]	; (8003ba4 <RCCEx_PLLSAI1_Config+0x1e0>)
 80039f8:	68db      	ldr	r3, [r3, #12]
 80039fa:	091b      	lsrs	r3, r3, #4
 80039fc:	f003 0307 	and.w	r3, r3, #7
 8003a00:	1c5a      	adds	r2, r3, #1
 8003a02:	687b      	ldr	r3, [r7, #4]
 8003a04:	685b      	ldr	r3, [r3, #4]
       ||
 8003a06:	429a      	cmp	r2, r3
 8003a08:	d047      	beq.n	8003a9a <RCCEx_PLLSAI1_Config+0xd6>
#endif
      )
    {
      status = HAL_ERROR;
 8003a0a:	2301      	movs	r3, #1
 8003a0c:	73fb      	strb	r3, [r7, #15]
 8003a0e:	e044      	b.n	8003a9a <RCCEx_PLLSAI1_Config+0xd6>
    }
  }
  else
  {
    /* Check PLLSAI1 clock source availability */
    switch(PllSai1->PLLSAI1Source)
 8003a10:	687b      	ldr	r3, [r7, #4]
 8003a12:	681b      	ldr	r3, [r3, #0]
 8003a14:	2b03      	cmp	r3, #3
 8003a16:	d018      	beq.n	8003a4a <RCCEx_PLLSAI1_Config+0x86>
 8003a18:	2b03      	cmp	r3, #3
 8003a1a:	d825      	bhi.n	8003a68 <RCCEx_PLLSAI1_Config+0xa4>
 8003a1c:	2b01      	cmp	r3, #1
 8003a1e:	d002      	beq.n	8003a26 <RCCEx_PLLSAI1_Config+0x62>
 8003a20:	2b02      	cmp	r3, #2
 8003a22:	d009      	beq.n	8003a38 <RCCEx_PLLSAI1_Config+0x74>
 8003a24:	e020      	b.n	8003a68 <RCCEx_PLLSAI1_Config+0xa4>
    {
    case RCC_PLLSOURCE_MSI:
      if(HAL_IS_BIT_CLR(RCC->CR, RCC_CR_MSIRDY))
 8003a26:	4b5f      	ldr	r3, [pc, #380]	; (8003ba4 <RCCEx_PLLSAI1_Config+0x1e0>)
 8003a28:	681b      	ldr	r3, [r3, #0]
 8003a2a:	f003 0302 	and.w	r3, r3, #2
 8003a2e:	2b00      	cmp	r3, #0
 8003a30:	d11d      	bne.n	8003a6e <RCCEx_PLLSAI1_Config+0xaa>
      {
        status = HAL_ERROR;
 8003a32:	2301      	movs	r3, #1
 8003a34:	73fb      	strb	r3, [r7, #15]
      }
      break;
 8003a36:	e01a      	b.n	8003a6e <RCCEx_PLLSAI1_Config+0xaa>
    case RCC_PLLSOURCE_HSI:
      if(HAL_IS_BIT_CLR(RCC->CR, RCC_CR_HSIRDY))
 8003a38:	4b5a      	ldr	r3, [pc, #360]	; (8003ba4 <RCCEx_PLLSAI1_Config+0x1e0>)
 8003a3a:	681b      	ldr	r3, [r3, #0]
 8003a3c:	f403 6380 	and.w	r3, r3, #1024	; 0x400
 8003a40:	2b00      	cmp	r3, #0
 8003a42:	d116      	bne.n	8003a72 <RCCEx_PLLSAI1_Config+0xae>
      {
        status = HAL_ERROR;
 8003a44:	2301      	movs	r3, #1
 8003a46:	73fb      	strb	r3, [r7, #15]
      }
      break;
 8003a48:	e013      	b.n	8003a72 <RCCEx_PLLSAI1_Config+0xae>
    case RCC_PLLSOURCE_HSE:
      if(HAL_IS_BIT_CLR(RCC->CR, RCC_CR_HSERDY))
 8003a4a:	4b56      	ldr	r3, [pc, #344]	; (8003ba4 <RCCEx_PLLSAI1_Config+0x1e0>)
 8003a4c:	681b      	ldr	r3, [r3, #0]
 8003a4e:	f403 3300 	and.w	r3, r3, #131072	; 0x20000
 8003a52:	2b00      	cmp	r3, #0
 8003a54:	d10f      	bne.n	8003a76 <RCCEx_PLLSAI1_Config+0xb2>
      {
        if(HAL_IS_BIT_CLR(RCC->CR, RCC_CR_HSEBYP))
 8003a56:	4b53      	ldr	r3, [pc, #332]	; (8003ba4 <RCCEx_PLLSAI1_Config+0x1e0>)
 8003a58:	681b      	ldr	r3, [r3, #0]
 8003a5a:	f403 2380 	and.w	r3, r3, #262144	; 0x40000
 8003a5e:	2b00      	cmp	r3, #0
 8003a60:	d109      	bne.n	8003a76 <RCCEx_PLLSAI1_Config+0xb2>
        {
          status = HAL_ERROR;
 8003a62:	2301      	movs	r3, #1
 8003a64:	73fb      	strb	r3, [r7, #15]
        }
      }
      break;
 8003a66:	e006      	b.n	8003a76 <RCCEx_PLLSAI1_Config+0xb2>
    default:
      status = HAL_ERROR;
 8003a68:	2301      	movs	r3, #1
 8003a6a:	73fb      	strb	r3, [r7, #15]
      break;
 8003a6c:	e004      	b.n	8003a78 <RCCEx_PLLSAI1_Config+0xb4>
      break;
 8003a6e:	bf00      	nop
 8003a70:	e002      	b.n	8003a78 <RCCEx_PLLSAI1_Config+0xb4>
      break;
 8003a72:	bf00      	nop
 8003a74:	e000      	b.n	8003a78 <RCCEx_PLLSAI1_Config+0xb4>
      break;
 8003a76:	bf00      	nop
    }

    if(status == HAL_OK)
 8003a78:	7bfb      	ldrb	r3, [r7, #15]
 8003a7a:	2b00      	cmp	r3, #0
 8003a7c:	d10d      	bne.n	8003a9a <RCCEx_PLLSAI1_Config+0xd6>
#if defined(RCC_PLLSAI1M_DIV_1_16_SUPPORT)
      /* Set PLLSAI1 clock source */
      MODIFY_REG(RCC->PLLCFGR, RCC_PLLCFGR_PLLSRC, PllSai1->PLLSAI1Source);
#else
      /* Set PLLSAI1 clock source and divider M */
      MODIFY_REG(RCC->PLLCFGR, RCC_PLLCFGR_PLLSRC | RCC_PLLCFGR_PLLM, PllSai1->PLLSAI1Source | (PllSai1->PLLSAI1M - 1U) << RCC_PLLCFGR_PLLM_Pos);
 8003a7e:	4b49      	ldr	r3, [pc, #292]	; (8003ba4 <RCCEx_PLLSAI1_Config+0x1e0>)
 8003a80:	68db      	ldr	r3, [r3, #12]
 8003a82:	f023 0273 	bic.w	r2, r3, #115	; 0x73
 8003a86:	687b      	ldr	r3, [r7, #4]
 8003a88:	6819      	ldr	r1, [r3, #0]
 8003a8a:	687b      	ldr	r3, [r7, #4]
 8003a8c:	685b      	ldr	r3, [r3, #4]
 8003a8e:	3b01      	subs	r3, #1
 8003a90:	011b      	lsls	r3, r3, #4
 8003a92:	430b      	orrs	r3, r1
 8003a94:	4943      	ldr	r1, [pc, #268]	; (8003ba4 <RCCEx_PLLSAI1_Config+0x1e0>)
 8003a96:	4313      	orrs	r3, r2
 8003a98:	60cb      	str	r3, [r1, #12]
#endif
    }
  }

  if(status == HAL_OK)
 8003a9a:	7bfb      	ldrb	r3, [r7, #15]
 8003a9c:	2b00      	cmp	r3, #0
 8003a9e:	d17c      	bne.n	8003b9a <RCCEx_PLLSAI1_Config+0x1d6>
  {
    /* Disable the PLLSAI1 */
    __HAL_RCC_PLLSAI1_DISABLE();
 8003aa0:	4b40      	ldr	r3, [pc, #256]	; (8003ba4 <RCCEx_PLLSAI1_Config+0x1e0>)
 8003aa2:	681b      	ldr	r3, [r3, #0]
 8003aa4:	4a3f      	ldr	r2, [pc, #252]	; (8003ba4 <RCCEx_PLLSAI1_Config+0x1e0>)
 8003aa6:	f023 6380 	bic.w	r3, r3, #67108864	; 0x4000000
 8003aaa:	6013      	str	r3, [r2, #0]

    /* Get Start Tick*/
    tickstart = HAL_GetTick();
 8003aac:	f7fd f814 	bl	8000ad8 <HAL_GetTick>
 8003ab0:	60b8      	str	r0, [r7, #8]

    /* Wait till PLLSAI1 is ready to be updated */
    while(READ_BIT(RCC->CR, RCC_CR_PLLSAI1RDY) != 0U)
 8003ab2:	e009      	b.n	8003ac8 <RCCEx_PLLSAI1_Config+0x104>
    {
      if((HAL_GetTick() - tickstart) > PLLSAI1_TIMEOUT_VALUE)
 8003ab4:	f7fd f810 	bl	8000ad8 <HAL_GetTick>
 8003ab8:	4602      	mov	r2, r0
 8003aba:	68bb      	ldr	r3, [r7, #8]
 8003abc:	1ad3      	subs	r3, r2, r3
 8003abe:	2b02      	cmp	r3, #2
 8003ac0:	d902      	bls.n	8003ac8 <RCCEx_PLLSAI1_Config+0x104>
      {
        status = HAL_TIMEOUT;
 8003ac2:	2303      	movs	r3, #3
 8003ac4:	73fb      	strb	r3, [r7, #15]
        break;
 8003ac6:	e005      	b.n	8003ad4 <RCCEx_PLLSAI1_Config+0x110>
    while(READ_BIT(RCC->CR, RCC_CR_PLLSAI1RDY) != 0U)
 8003ac8:	4b36      	ldr	r3, [pc, #216]	; (8003ba4 <RCCEx_PLLSAI1_Config+0x1e0>)
 8003aca:	681b      	ldr	r3, [r3, #0]
 8003acc:	f003 6300 	and.w	r3, r3, #134217728	; 0x8000000
 8003ad0:	2b00      	cmp	r3, #0
 8003ad2:	d1ef      	bne.n	8003ab4 <RCCEx_PLLSAI1_Config+0xf0>
      }
    }

    if(status == HAL_OK)
 8003ad4:	7bfb      	ldrb	r3, [r7, #15]
 8003ad6:	2b00      	cmp	r3, #0
 8003ad8:	d15f      	bne.n	8003b9a <RCCEx_PLLSAI1_Config+0x1d6>
    {
      if(Divider == DIVIDER_P_UPDATE)
 8003ada:	683b      	ldr	r3, [r7, #0]
 8003adc:	2b00      	cmp	r3, #0
 8003ade:	d110      	bne.n	8003b02 <RCCEx_PLLSAI1_Config+0x13e>
#endif /* RCC_PLLSAI1P_DIV_2_31_SUPPORT */

#else
        /* Configure the PLLSAI1 Division factor P and Multiplication factor N*/
#if defined(RCC_PLLSAI1P_DIV_2_31_SUPPORT)
        MODIFY_REG(RCC->PLLSAI1CFGR,
 8003ae0:	4b30      	ldr	r3, [pc, #192]	; (8003ba4 <RCCEx_PLLSAI1_Config+0x1e0>)
 8003ae2:	691b      	ldr	r3, [r3, #16]
 8003ae4:	f023 4378 	bic.w	r3, r3, #4160749568	; 0xf8000000
 8003ae8:	f423 43fe 	bic.w	r3, r3, #32512	; 0x7f00
 8003aec:	687a      	ldr	r2, [r7, #4]
 8003aee:	6892      	ldr	r2, [r2, #8]
 8003af0:	0211      	lsls	r1, r2, #8
 8003af2:	687a      	ldr	r2, [r7, #4]
 8003af4:	68d2      	ldr	r2, [r2, #12]
 8003af6:	06d2      	lsls	r2, r2, #27
 8003af8:	430a      	orrs	r2, r1
 8003afa:	492a      	ldr	r1, [pc, #168]	; (8003ba4 <RCCEx_PLLSAI1_Config+0x1e0>)
 8003afc:	4313      	orrs	r3, r2
 8003afe:	610b      	str	r3, [r1, #16]
 8003b00:	e027      	b.n	8003b52 <RCCEx_PLLSAI1_Config+0x18e>
                   ((PllSai1->PLLSAI1P >> 4U) << RCC_PLLSAI1CFGR_PLLSAI1P_Pos));
#endif /* RCC_PLLSAI1P_DIV_2_31_SUPPORT */

#endif /* RCC_PLLSAI1M_DIV_1_16_SUPPORT */
      }
      else if(Divider == DIVIDER_Q_UPDATE)
 8003b02:	683b      	ldr	r3, [r7, #0]
 8003b04:	2b01      	cmp	r3, #1
 8003b06:	d112      	bne.n	8003b2e <RCCEx_PLLSAI1_Config+0x16a>
                   (PllSai1->PLLSAI1N << RCC_PLLSAI1CFGR_PLLSAI1N_Pos) |
                   (((PllSai1->PLLSAI1Q >> 1U) - 1U) << RCC_PLLSAI1CFGR_PLLSAI1Q_Pos) |
                   ((PllSai1->PLLSAI1M - 1U) << RCC_PLLSAI1CFGR_PLLSAI1M_Pos));
#else
        /* Configure the PLLSAI1 Division factor Q and Multiplication factor N*/
        MODIFY_REG(RCC->PLLSAI1CFGR,
 8003b08:	4b26      	ldr	r3, [pc, #152]	; (8003ba4 <RCCEx_PLLSAI1_Config+0x1e0>)
 8003b0a:	691b      	ldr	r3, [r3, #16]
 8003b0c:	f423 03c0 	bic.w	r3, r3, #6291456	; 0x600000
 8003b10:	f423 43fe 	bic.w	r3, r3, #32512	; 0x7f00
 8003b14:	687a      	ldr	r2, [r7, #4]
 8003b16:	6892      	ldr	r2, [r2, #8]
 8003b18:	0211      	lsls	r1, r2, #8
 8003b1a:	687a      	ldr	r2, [r7, #4]
 8003b1c:	6912      	ldr	r2, [r2, #16]
 8003b1e:	0852      	lsrs	r2, r2, #1
 8003b20:	3a01      	subs	r2, #1
 8003b22:	0552      	lsls	r2, r2, #21
 8003b24:	430a      	orrs	r2, r1
 8003b26:	491f      	ldr	r1, [pc, #124]	; (8003ba4 <RCCEx_PLLSAI1_Config+0x1e0>)
 8003b28:	4313      	orrs	r3, r2
 8003b2a:	610b      	str	r3, [r1, #16]
 8003b2c:	e011      	b.n	8003b52 <RCCEx_PLLSAI1_Config+0x18e>
                   (PllSai1->PLLSAI1N << RCC_PLLSAI1CFGR_PLLSAI1N_Pos) |
                   (((PllSai1->PLLSAI1R >> 1U) - 1U) << RCC_PLLSAI1CFGR_PLLSAI1R_Pos) |
                   ((PllSai1->PLLSAI1M - 1U) << RCC_PLLSAI1CFGR_PLLSAI1M_Pos));
#else
        /* Configure the PLLSAI1 Division factor R and Multiplication factor N*/
        MODIFY_REG(RCC->PLLSAI1CFGR,
 8003b2e:	4b1d      	ldr	r3, [pc, #116]	; (8003ba4 <RCCEx_PLLSAI1_Config+0x1e0>)
 8003b30:	691b      	ldr	r3, [r3, #16]
 8003b32:	f023 63c0 	bic.w	r3, r3, #100663296	; 0x6000000
 8003b36:	f423 43fe 	bic.w	r3, r3, #32512	; 0x7f00
 8003b3a:	687a      	ldr	r2, [r7, #4]
 8003b3c:	6892      	ldr	r2, [r2, #8]
 8003b3e:	0211      	lsls	r1, r2, #8
 8003b40:	687a      	ldr	r2, [r7, #4]
 8003b42:	6952      	ldr	r2, [r2, #20]
 8003b44:	0852      	lsrs	r2, r2, #1
 8003b46:	3a01      	subs	r2, #1
 8003b48:	0652      	lsls	r2, r2, #25
 8003b4a:	430a      	orrs	r2, r1
 8003b4c:	4915      	ldr	r1, [pc, #84]	; (8003ba4 <RCCEx_PLLSAI1_Config+0x1e0>)
 8003b4e:	4313      	orrs	r3, r2
 8003b50:	610b      	str	r3, [r1, #16]
                   (((PllSai1->PLLSAI1R >> 1U) - 1U) << RCC_PLLSAI1CFGR_PLLSAI1R_Pos));
#endif /* RCC_PLLSAI1M_DIV_1_16_SUPPORT */
      }

      /* Enable the PLLSAI1 again by setting PLLSAI1ON to 1*/
      __HAL_RCC_PLLSAI1_ENABLE();
 8003b52:	4b14      	ldr	r3, [pc, #80]	; (8003ba4 <RCCEx_PLLSAI1_Config+0x1e0>)
 8003b54:	681b      	ldr	r3, [r3, #0]
 8003b56:	4a13      	ldr	r2, [pc, #76]	; (8003ba4 <RCCEx_PLLSAI1_Config+0x1e0>)
 8003b58:	f043 6380 	orr.w	r3, r3, #67108864	; 0x4000000
 8003b5c:	6013      	str	r3, [r2, #0]

      /* Get Start Tick*/
      tickstart = HAL_GetTick();
 8003b5e:	f7fc ffbb 	bl	8000ad8 <HAL_GetTick>
 8003b62:	60b8      	str	r0, [r7, #8]

      /* Wait till PLLSAI1 is ready */
      while(READ_BIT(RCC->CR, RCC_CR_PLLSAI1RDY) == 0U)
 8003b64:	e009      	b.n	8003b7a <RCCEx_PLLSAI1_Config+0x1b6>
      {
        if((HAL_GetTick() - tickstart) > PLLSAI1_TIMEOUT_VALUE)
 8003b66:	f7fc ffb7 	bl	8000ad8 <HAL_GetTick>
 8003b6a:	4602      	mov	r2, r0
 8003b6c:	68bb      	ldr	r3, [r7, #8]
 8003b6e:	1ad3      	subs	r3, r2, r3
 8003b70:	2b02      	cmp	r3, #2
 8003b72:	d902      	bls.n	8003b7a <RCCEx_PLLSAI1_Config+0x1b6>
        {
          status = HAL_TIMEOUT;
 8003b74:	2303      	movs	r3, #3
 8003b76:	73fb      	strb	r3, [r7, #15]
          break;
 8003b78:	e005      	b.n	8003b86 <RCCEx_PLLSAI1_Config+0x1c2>
      while(READ_BIT(RCC->CR, RCC_CR_PLLSAI1RDY) == 0U)
 8003b7a:	4b0a      	ldr	r3, [pc, #40]	; (8003ba4 <RCCEx_PLLSAI1_Config+0x1e0>)
 8003b7c:	681b      	ldr	r3, [r3, #0]
 8003b7e:	f003 6300 	and.w	r3, r3, #134217728	; 0x8000000
 8003b82:	2b00      	cmp	r3, #0
 8003b84:	d0ef      	beq.n	8003b66 <RCCEx_PLLSAI1_Config+0x1a2>
        }
      }

      if(status == HAL_OK)
 8003b86:	7bfb      	ldrb	r3, [r7, #15]
 8003b88:	2b00      	cmp	r3, #0
 8003b8a:	d106      	bne.n	8003b9a <RCCEx_PLLSAI1_Config+0x1d6>
      {
        /* Configure the PLLSAI1 Clock output(s) */
        __HAL_RCC_PLLSAI1CLKOUT_ENABLE(PllSai1->PLLSAI1ClockOut);
 8003b8c:	4b05      	ldr	r3, [pc, #20]	; (8003ba4 <RCCEx_PLLSAI1_Config+0x1e0>)
 8003b8e:	691a      	ldr	r2, [r3, #16]
 8003b90:	687b      	ldr	r3, [r7, #4]
 8003b92:	699b      	ldr	r3, [r3, #24]
 8003b94:	4903      	ldr	r1, [pc, #12]	; (8003ba4 <RCCEx_PLLSAI1_Config+0x1e0>)
 8003b96:	4313      	orrs	r3, r2
 8003b98:	610b      	str	r3, [r1, #16]
      }
    }
  }

  return status;
 8003b9a:	7bfb      	ldrb	r3, [r7, #15]
}
 8003b9c:	4618      	mov	r0, r3
 8003b9e:	3710      	adds	r7, #16
 8003ba0:	46bd      	mov	sp, r7
 8003ba2:	bd80      	pop	{r7, pc}
 8003ba4:	40021000 	.word	0x40021000

08003ba8 <HAL_SPI_Init>:
  * @param  hspi pointer to a SPI_HandleTypeDef structure that contains
  *               the configuration information for SPI module.
  * @retval HAL status
  */
HAL_StatusTypeDef HAL_SPI_Init(SPI_HandleTypeDef *hspi)
{
 8003ba8:	b580      	push	{r7, lr}
 8003baa:	b084      	sub	sp, #16
 8003bac:	af00      	add	r7, sp, #0
 8003bae:	6078      	str	r0, [r7, #4]
  uint32_t frxth;

  /* Check the SPI handle allocation */
  if (hspi == NULL)
 8003bb0:	687b      	ldr	r3, [r7, #4]
 8003bb2:	2b00      	cmp	r3, #0
 8003bb4:	d101      	bne.n	8003bba <HAL_SPI_Init+0x12>
  {
    return HAL_ERROR;
 8003bb6:	2301      	movs	r3, #1
 8003bb8:	e095      	b.n	8003ce6 <HAL_SPI_Init+0x13e>
  assert_param(IS_SPI_NSS(hspi->Init.NSS));
  assert_param(IS_SPI_NSSP(hspi->Init.NSSPMode));
  assert_param(IS_SPI_BAUDRATE_PRESCALER(hspi->Init.BaudRatePrescaler));
  assert_param(IS_SPI_FIRST_BIT(hspi->Init.FirstBit));
  assert_param(IS_SPI_TIMODE(hspi->Init.TIMode));
  if (hspi->Init.TIMode == SPI_TIMODE_DISABLE)
 8003bba:	687b      	ldr	r3, [r7, #4]
 8003bbc:	6a5b      	ldr	r3, [r3, #36]	; 0x24
 8003bbe:	2b00      	cmp	r3, #0
 8003bc0:	d108      	bne.n	8003bd4 <HAL_SPI_Init+0x2c>
  {
    assert_param(IS_SPI_CPOL(hspi->Init.CLKPolarity));
    assert_param(IS_SPI_CPHA(hspi->Init.CLKPhase));

    if (hspi->Init.Mode == SPI_MODE_MASTER)
 8003bc2:	687b      	ldr	r3, [r7, #4]
 8003bc4:	685b      	ldr	r3, [r3, #4]
 8003bc6:	f5b3 7f82 	cmp.w	r3, #260	; 0x104
 8003bca:	d009      	beq.n	8003be0 <HAL_SPI_Init+0x38>
      assert_param(IS_SPI_BAUDRATE_PRESCALER(hspi->Init.BaudRatePrescaler));
    }
    else
    {
      /* Baudrate prescaler not use in Motoraola Slave mode. force to default value */
      hspi->Init.BaudRatePrescaler = SPI_BAUDRATEPRESCALER_2;
 8003bcc:	687b      	ldr	r3, [r7, #4]
 8003bce:	2200      	movs	r2, #0
 8003bd0:	61da      	str	r2, [r3, #28]
 8003bd2:	e005      	b.n	8003be0 <HAL_SPI_Init+0x38>
  else
  {
    assert_param(IS_SPI_BAUDRATE_PRESCALER(hspi->Init.BaudRatePrescaler));

    /* Force polarity and phase to TI protocaol requirements */
    hspi->Init.CLKPolarity = SPI_POLARITY_LOW;
 8003bd4:	687b      	ldr	r3, [r7, #4]
 8003bd6:	2200      	movs	r2, #0
 8003bd8:	611a      	str	r2, [r3, #16]
    hspi->Init.CLKPhase    = SPI_PHASE_1EDGE;
 8003bda:	687b      	ldr	r3, [r7, #4]
 8003bdc:	2200      	movs	r2, #0
 8003bde:	615a      	str	r2, [r3, #20]
  {
    assert_param(IS_SPI_CRC_POLYNOMIAL(hspi->Init.CRCPolynomial));
    assert_param(IS_SPI_CRC_LENGTH(hspi->Init.CRCLength));
  }
#else
  hspi->Init.CRCCalculation = SPI_CRCCALCULATION_DISABLE;
 8003be0:	687b      	ldr	r3, [r7, #4]
 8003be2:	2200      	movs	r2, #0
 8003be4:	629a      	str	r2, [r3, #40]	; 0x28
#endif /* USE_SPI_CRC */

  if (hspi->State == HAL_SPI_STATE_RESET)
 8003be6:	687b      	ldr	r3, [r7, #4]
 8003be8:	f893 305d 	ldrb.w	r3, [r3, #93]	; 0x5d
 8003bec:	b2db      	uxtb	r3, r3
 8003bee:	2b00      	cmp	r3, #0
 8003bf0:	d106      	bne.n	8003c00 <HAL_SPI_Init+0x58>
  {
    /* Allocate lock resource and initialize it */
    hspi->Lock = HAL_UNLOCKED;
 8003bf2:	687b      	ldr	r3, [r7, #4]
 8003bf4:	2200      	movs	r2, #0
 8003bf6:	f883 205c 	strb.w	r2, [r3, #92]	; 0x5c

    /* Init the low level hardware : GPIO, CLOCK, NVIC... */
    hspi->MspInitCallback(hspi);
#else
    /* Init the low level hardware : GPIO, CLOCK, NVIC... */
    HAL_SPI_MspInit(hspi);
 8003bfa:	6878      	ldr	r0, [r7, #4]
 8003bfc:	f7fc fe36 	bl	800086c <HAL_SPI_MspInit>
#endif /* USE_HAL_SPI_REGISTER_CALLBACKS */
  }

  hspi->State = HAL_SPI_STATE_BUSY;
 8003c00:	687b      	ldr	r3, [r7, #4]
 8003c02:	2202      	movs	r2, #2
 8003c04:	f883 205d 	strb.w	r2, [r3, #93]	; 0x5d

  /* Disable the selected SPI peripheral */
  __HAL_SPI_DISABLE(hspi);
 8003c08:	687b      	ldr	r3, [r7, #4]
 8003c0a:	681b      	ldr	r3, [r3, #0]
 8003c0c:	681a      	ldr	r2, [r3, #0]
 8003c0e:	687b      	ldr	r3, [r7, #4]
 8003c10:	681b      	ldr	r3, [r3, #0]
 8003c12:	f022 0240 	bic.w	r2, r2, #64	; 0x40
 8003c16:	601a      	str	r2, [r3, #0]

  /* Align by default the rs fifo threshold on the data size */
  if (hspi->Init.DataSize > SPI_DATASIZE_8BIT)
 8003c18:	687b      	ldr	r3, [r7, #4]
 8003c1a:	68db      	ldr	r3, [r3, #12]
 8003c1c:	f5b3 6fe0 	cmp.w	r3, #1792	; 0x700
 8003c20:	d902      	bls.n	8003c28 <HAL_SPI_Init+0x80>
  {
    frxth = SPI_RXFIFO_THRESHOLD_HF;
 8003c22:	2300      	movs	r3, #0
 8003c24:	60fb      	str	r3, [r7, #12]
 8003c26:	e002      	b.n	8003c2e <HAL_SPI_Init+0x86>
  }
  else
  {
    frxth = SPI_RXFIFO_THRESHOLD_QF;
 8003c28:	f44f 5380 	mov.w	r3, #4096	; 0x1000
 8003c2c:	60fb      	str	r3, [r7, #12]
  }

  /* CRC calculation is valid only for 16Bit and 8 Bit */
  if ((hspi->Init.DataSize != SPI_DATASIZE_16BIT) && (hspi->Init.DataSize != SPI_DATASIZE_8BIT))
 8003c2e:	687b      	ldr	r3, [r7, #4]
 8003c30:	68db      	ldr	r3, [r3, #12]
 8003c32:	f5b3 6f70 	cmp.w	r3, #3840	; 0xf00
 8003c36:	d007      	beq.n	8003c48 <HAL_SPI_Init+0xa0>
 8003c38:	687b      	ldr	r3, [r7, #4]
 8003c3a:	68db      	ldr	r3, [r3, #12]
 8003c3c:	f5b3 6fe0 	cmp.w	r3, #1792	; 0x700
 8003c40:	d002      	beq.n	8003c48 <HAL_SPI_Init+0xa0>
  {
    /* CRC must be disabled */
    hspi->Init.CRCCalculation = SPI_CRCCALCULATION_DISABLE;
 8003c42:	687b      	ldr	r3, [r7, #4]
 8003c44:	2200      	movs	r2, #0
 8003c46:	629a      	str	r2, [r3, #40]	; 0x28
  }

  /*----------------------- SPIx CR1 & CR2 Configuration ---------------------*/
  /* Configure : SPI Mode, Communication Mode, Clock polarity and phase, NSS management,
  Communication speed, First bit and CRC calculation state */
  WRITE_REG(hspi->Instance->CR1, ((hspi->Init.Mode & (SPI_CR1_MSTR | SPI_CR1_SSI)) |
 8003c48:	687b      	ldr	r3, [r7, #4]
 8003c4a:	685b      	ldr	r3, [r3, #4]
 8003c4c:	f403 7282 	and.w	r2, r3, #260	; 0x104
 8003c50:	687b      	ldr	r3, [r7, #4]
 8003c52:	689b      	ldr	r3, [r3, #8]
 8003c54:	f403 4304 	and.w	r3, r3, #33792	; 0x8400
 8003c58:	431a      	orrs	r2, r3
 8003c5a:	687b      	ldr	r3, [r7, #4]
 8003c5c:	691b      	ldr	r3, [r3, #16]
 8003c5e:	f003 0302 	and.w	r3, r3, #2
 8003c62:	431a      	orrs	r2, r3
 8003c64:	687b      	ldr	r3, [r7, #4]
 8003c66:	695b      	ldr	r3, [r3, #20]
 8003c68:	f003 0301 	and.w	r3, r3, #1
 8003c6c:	431a      	orrs	r2, r3
 8003c6e:	687b      	ldr	r3, [r7, #4]
 8003c70:	699b      	ldr	r3, [r3, #24]
 8003c72:	f403 7300 	and.w	r3, r3, #512	; 0x200
 8003c76:	431a      	orrs	r2, r3
 8003c78:	687b      	ldr	r3, [r7, #4]
 8003c7a:	69db      	ldr	r3, [r3, #28]
 8003c7c:	f003 0338 	and.w	r3, r3, #56	; 0x38
 8003c80:	431a      	orrs	r2, r3
 8003c82:	687b      	ldr	r3, [r7, #4]
 8003c84:	6a1b      	ldr	r3, [r3, #32]
 8003c86:	f003 0380 	and.w	r3, r3, #128	; 0x80
 8003c8a:	ea42 0103 	orr.w	r1, r2, r3
 8003c8e:	687b      	ldr	r3, [r7, #4]
 8003c90:	6a9b      	ldr	r3, [r3, #40]	; 0x28
 8003c92:	f403 5200 	and.w	r2, r3, #8192	; 0x2000
 8003c96:	687b      	ldr	r3, [r7, #4]
 8003c98:	681b      	ldr	r3, [r3, #0]
 8003c9a:	430a      	orrs	r2, r1
 8003c9c:	601a      	str	r2, [r3, #0]
    }
  }
#endif /* USE_SPI_CRC */

  /* Configure : NSS management, TI Mode, NSS Pulse, Data size and Rx Fifo threshold */
  WRITE_REG(hspi->Instance->CR2, (((hspi->Init.NSS >> 16U) & SPI_CR2_SSOE) |
 8003c9e:	687b      	ldr	r3, [r7, #4]
 8003ca0:	699b      	ldr	r3, [r3, #24]
 8003ca2:	0c1b      	lsrs	r3, r3, #16
 8003ca4:	f003 0204 	and.w	r2, r3, #4
 8003ca8:	687b      	ldr	r3, [r7, #4]
 8003caa:	6a5b      	ldr	r3, [r3, #36]	; 0x24
 8003cac:	f003 0310 	and.w	r3, r3, #16
 8003cb0:	431a      	orrs	r2, r3
 8003cb2:	687b      	ldr	r3, [r7, #4]
 8003cb4:	6b5b      	ldr	r3, [r3, #52]	; 0x34
 8003cb6:	f003 0308 	and.w	r3, r3, #8
 8003cba:	431a      	orrs	r2, r3
 8003cbc:	687b      	ldr	r3, [r7, #4]
 8003cbe:	68db      	ldr	r3, [r3, #12]
 8003cc0:	f403 6370 	and.w	r3, r3, #3840	; 0xf00
 8003cc4:	ea42 0103 	orr.w	r1, r2, r3
 8003cc8:	68fb      	ldr	r3, [r7, #12]
 8003cca:	f403 5280 	and.w	r2, r3, #4096	; 0x1000
 8003cce:	687b      	ldr	r3, [r7, #4]
 8003cd0:	681b      	ldr	r3, [r3, #0]
 8003cd2:	430a      	orrs	r2, r1
 8003cd4:	605a      	str	r2, [r3, #4]
#if defined(SPI_I2SCFGR_I2SMOD)
  /* Activate the SPI mode (Make sure that I2SMOD bit in I2SCFGR register is reset) */
  CLEAR_BIT(hspi->Instance->I2SCFGR, SPI_I2SCFGR_I2SMOD);
#endif /* SPI_I2SCFGR_I2SMOD */

  hspi->ErrorCode = HAL_SPI_ERROR_NONE;
 8003cd6:	687b      	ldr	r3, [r7, #4]
 8003cd8:	2200      	movs	r2, #0
 8003cda:	661a      	str	r2, [r3, #96]	; 0x60
  hspi->State     = HAL_SPI_STATE_READY;
 8003cdc:	687b      	ldr	r3, [r7, #4]
 8003cde:	2201      	movs	r2, #1
 8003ce0:	f883 205d 	strb.w	r2, [r3, #93]	; 0x5d

  return HAL_OK;
 8003ce4:	2300      	movs	r3, #0
}
 8003ce6:	4618      	mov	r0, r3
 8003ce8:	3710      	adds	r7, #16
 8003cea:	46bd      	mov	sp, r7
 8003cec:	bd80      	pop	{r7, pc}
	...

08003cf0 <MAX7300_Init>:
uint8_t PORTREGISTERS[32]; // array of dataport addresses. Only 12-31 will be populated

uint8_t payloadBuffer[128]; // array of bytes to use as payload buffer

// Initialize the device with all required settings
void MAX7300_Init(void) {
 8003cf0:	b580      	push	{r7, lr}
 8003cf2:	b086      	sub	sp, #24
 8003cf4:	af02      	add	r7, sp, #8

	// initialize the PORTREGISTERS array (addresses as per datasheet)
	int portAddress = 0x2C; // port 12 is 2C, we increment by one
 8003cf6:	232c      	movs	r3, #44	; 0x2c
 8003cf8:	60fb      	str	r3, [r7, #12]
	for (int i = 12; i < 32; i++) {
 8003cfa:	230c      	movs	r3, #12
 8003cfc:	60bb      	str	r3, [r7, #8]
 8003cfe:	e00c      	b.n	8003d1a <MAX7300_Init+0x2a>
		PORTREGISTERS[i] = portAddress;
 8003d00:	68fb      	ldr	r3, [r7, #12]
 8003d02:	b2d9      	uxtb	r1, r3
 8003d04:	4a35      	ldr	r2, [pc, #212]	; (8003ddc <MAX7300_Init+0xec>)
 8003d06:	68bb      	ldr	r3, [r7, #8]
 8003d08:	4413      	add	r3, r2
 8003d0a:	460a      	mov	r2, r1
 8003d0c:	701a      	strb	r2, [r3, #0]
		portAddress++;
 8003d0e:	68fb      	ldr	r3, [r7, #12]
 8003d10:	3301      	adds	r3, #1
 8003d12:	60fb      	str	r3, [r7, #12]
	for (int i = 12; i < 32; i++) {
 8003d14:	68bb      	ldr	r3, [r7, #8]
 8003d16:	3301      	adds	r3, #1
 8003d18:	60bb      	str	r3, [r7, #8]
 8003d1a:	68bb      	ldr	r3, [r7, #8]
 8003d1c:	2b1f      	cmp	r3, #31
 8003d1e:	ddef      	ble.n	8003d00 <MAX7300_Init+0x10>
	}

	// sending on peripheral I2C1, at the above address, from payloadBuffer, 2 bytes, max timeout time
	payloadBuffer[0] = MAX7300_REG_CONFIG; // define command address as the configuration register
 8003d20:	4b2f      	ldr	r3, [pc, #188]	; (8003de0 <MAX7300_Init+0xf0>)
 8003d22:	2204      	movs	r2, #4
 8003d24:	701a      	strb	r2, [r3, #0]
	payloadBuffer[1] = 0b00000001; // MSB is 0 for no transition detection, LSB is 1 for normal operation
 8003d26:	4b2e      	ldr	r3, [pc, #184]	; (8003de0 <MAX7300_Init+0xf0>)
 8003d28:	2201      	movs	r2, #1
 8003d2a:	705a      	strb	r2, [r3, #1]
	HAL_I2C_Master_Transmit(&hi2c1, MAX7300_ADDRESS, payloadBuffer, 2, 10);
 8003d2c:	230a      	movs	r3, #10
 8003d2e:	9300      	str	r3, [sp, #0]
 8003d30:	2302      	movs	r3, #2
 8003d32:	4a2b      	ldr	r2, [pc, #172]	; (8003de0 <MAX7300_Init+0xf0>)
 8003d34:	2180      	movs	r1, #128	; 0x80
 8003d36:	482b      	ldr	r0, [pc, #172]	; (8003de4 <MAX7300_Init+0xf4>)
 8003d38:	f7fe f9ea 	bl	8002110 <HAL_I2C_Master_Transmit>
	// now to configure the ports. See tables 1 and 2 in the datasheet

	// part 1: we first have to set the register bits (LSB contained in PORTREGISTERS) to 1 to indicate active high output
	// writing more than 1 byte will automatically increment the command address. So we can just keep writing bytes and it will continue
	// to increment. We write all ports from 12 to 31 this way very quickly (see autoincrementing in datasheet)
	payloadBuffer[0] = PORTREGISTERS[12];
 8003d3c:	4b27      	ldr	r3, [pc, #156]	; (8003ddc <MAX7300_Init+0xec>)
 8003d3e:	7b1a      	ldrb	r2, [r3, #12]
 8003d40:	4b27      	ldr	r3, [pc, #156]	; (8003de0 <MAX7300_Init+0xf0>)
 8003d42:	701a      	strb	r2, [r3, #0]
	for (int i = 12; i < 32; i++) {
 8003d44:	230c      	movs	r3, #12
 8003d46:	607b      	str	r3, [r7, #4]
 8003d48:	e007      	b.n	8003d5a <MAX7300_Init+0x6a>
		payloadBuffer[i] = 1;
 8003d4a:	4a25      	ldr	r2, [pc, #148]	; (8003de0 <MAX7300_Init+0xf0>)
 8003d4c:	687b      	ldr	r3, [r7, #4]
 8003d4e:	4413      	add	r3, r2
 8003d50:	2201      	movs	r2, #1
 8003d52:	701a      	strb	r2, [r3, #0]
	for (int i = 12; i < 32; i++) {
 8003d54:	687b      	ldr	r3, [r7, #4]
 8003d56:	3301      	adds	r3, #1
 8003d58:	607b      	str	r3, [r7, #4]
 8003d5a:	687b      	ldr	r3, [r7, #4]
 8003d5c:	2b1f      	cmp	r3, #31
 8003d5e:	ddf4      	ble.n	8003d4a <MAX7300_Init+0x5a>
	}

	HAL_I2C_Master_Transmit(&hi2c1, MAX7300_ADDRESS, payloadBuffer, 21, 10);
 8003d60:	230a      	movs	r3, #10
 8003d62:	9300      	str	r3, [sp, #0]
 8003d64:	2315      	movs	r3, #21
 8003d66:	4a1e      	ldr	r2, [pc, #120]	; (8003de0 <MAX7300_Init+0xf0>)
 8003d68:	2180      	movs	r1, #128	; 0x80
 8003d6a:	481e      	ldr	r0, [pc, #120]	; (8003de4 <MAX7300_Init+0xf4>)
 8003d6c:	f7fe f9d0 	bl	8002110 <HAL_I2C_Master_Transmit>

	// part 2: we write the 'output' bit pair to each port's configuration bits (see datasheet table 2)
	payloadBuffer[0] = MAX7300_REG_CONFIG_P15_P12;
 8003d70:	4b1b      	ldr	r3, [pc, #108]	; (8003de0 <MAX7300_Init+0xf0>)
 8003d72:	220b      	movs	r2, #11
 8003d74:	701a      	strb	r2, [r3, #0]
	payloadBuffer[1] = 0b01010101;
 8003d76:	4b1a      	ldr	r3, [pc, #104]	; (8003de0 <MAX7300_Init+0xf0>)
 8003d78:	2255      	movs	r2, #85	; 0x55
 8003d7a:	705a      	strb	r2, [r3, #1]
	payloadBuffer[2] = 0b01010101;
 8003d7c:	4b18      	ldr	r3, [pc, #96]	; (8003de0 <MAX7300_Init+0xf0>)
 8003d7e:	2255      	movs	r2, #85	; 0x55
 8003d80:	709a      	strb	r2, [r3, #2]
	payloadBuffer[3] = 0b01010101;
 8003d82:	4b17      	ldr	r3, [pc, #92]	; (8003de0 <MAX7300_Init+0xf0>)
 8003d84:	2255      	movs	r2, #85	; 0x55
 8003d86:	70da      	strb	r2, [r3, #3]
	payloadBuffer[4] = 0b01010101;
 8003d88:	4b15      	ldr	r3, [pc, #84]	; (8003de0 <MAX7300_Init+0xf0>)
 8003d8a:	2255      	movs	r2, #85	; 0x55
 8003d8c:	711a      	strb	r2, [r3, #4]
	HAL_I2C_Master_Transmit(&hi2c1, MAX7300_ADDRESS, payloadBuffer, 5, 10);
 8003d8e:	230a      	movs	r3, #10
 8003d90:	9300      	str	r3, [sp, #0]
 8003d92:	2305      	movs	r3, #5
 8003d94:	4a12      	ldr	r2, [pc, #72]	; (8003de0 <MAX7300_Init+0xf0>)
 8003d96:	2180      	movs	r1, #128	; 0x80
 8003d98:	4812      	ldr	r0, [pc, #72]	; (8003de4 <MAX7300_Init+0xf4>)
 8003d9a:	f7fe f9b9 	bl	8002110 <HAL_I2C_Master_Transmit>

	// MAX7300 is now configured for all pins 12-31 to be outputs

	// we will now set all of the LOW just in case
	for (int i = 12; i < 32; i++) {
 8003d9e:	230c      	movs	r3, #12
 8003da0:	603b      	str	r3, [r7, #0]
 8003da2:	e013      	b.n	8003dcc <MAX7300_Init+0xdc>
		payloadBuffer[0] = PORTREGISTERS[i]; // set the address to the relevant port's setting address
 8003da4:	4a0d      	ldr	r2, [pc, #52]	; (8003ddc <MAX7300_Init+0xec>)
 8003da6:	683b      	ldr	r3, [r7, #0]
 8003da8:	4413      	add	r3, r2
 8003daa:	781a      	ldrb	r2, [r3, #0]
 8003dac:	4b0c      	ldr	r3, [pc, #48]	; (8003de0 <MAX7300_Init+0xf0>)
 8003dae:	701a      	strb	r2, [r3, #0]
		payloadBuffer[1] = 0; // set the data to be written to 0
 8003db0:	4b0b      	ldr	r3, [pc, #44]	; (8003de0 <MAX7300_Init+0xf0>)
 8003db2:	2200      	movs	r2, #0
 8003db4:	705a      	strb	r2, [r3, #1]
		HAL_I2C_Master_Transmit(&hi2c1, MAX7300_ADDRESS, payloadBuffer, 2, 10);
 8003db6:	230a      	movs	r3, #10
 8003db8:	9300      	str	r3, [sp, #0]
 8003dba:	2302      	movs	r3, #2
 8003dbc:	4a08      	ldr	r2, [pc, #32]	; (8003de0 <MAX7300_Init+0xf0>)
 8003dbe:	2180      	movs	r1, #128	; 0x80
 8003dc0:	4808      	ldr	r0, [pc, #32]	; (8003de4 <MAX7300_Init+0xf4>)
 8003dc2:	f7fe f9a5 	bl	8002110 <HAL_I2C_Master_Transmit>
	for (int i = 12; i < 32; i++) {
 8003dc6:	683b      	ldr	r3, [r7, #0]
 8003dc8:	3301      	adds	r3, #1
 8003dca:	603b      	str	r3, [r7, #0]
 8003dcc:	683b      	ldr	r3, [r7, #0]
 8003dce:	2b1f      	cmp	r3, #31
 8003dd0:	dde8      	ble.n	8003da4 <MAX7300_Init+0xb4>
	}

	// now all outputs are off

}
 8003dd2:	bf00      	nop
 8003dd4:	bf00      	nop
 8003dd6:	3710      	adds	r7, #16
 8003dd8:	46bd      	mov	sp, r7
 8003dda:	bd80      	pop	{r7, pc}
 8003ddc:	20000174 	.word	0x20000174
 8003de0:	20000194 	.word	0x20000194
 8003de4:	200000b8 	.word	0x200000b8

08003de8 <MAX7300_setPin>:

// set pin "pinNumber" to the value in "pinValue"
void MAX7300_setPin(int pinNumber, int pinValue) {
 8003de8:	b580      	push	{r7, lr}
 8003dea:	b084      	sub	sp, #16
 8003dec:	af02      	add	r7, sp, #8
 8003dee:	6078      	str	r0, [r7, #4]
 8003df0:	6039      	str	r1, [r7, #0]
	if ((pinNumber >= 12) & (pinNumber <= 31) & ((pinValue == 1) | (pinValue == 0))) {
 8003df2:	687b      	ldr	r3, [r7, #4]
 8003df4:	2b0b      	cmp	r3, #11
 8003df6:	bfcc      	ite	gt
 8003df8:	2301      	movgt	r3, #1
 8003dfa:	2300      	movle	r3, #0
 8003dfc:	b2da      	uxtb	r2, r3
 8003dfe:	687b      	ldr	r3, [r7, #4]
 8003e00:	2b1f      	cmp	r3, #31
 8003e02:	bfd4      	ite	le
 8003e04:	2301      	movle	r3, #1
 8003e06:	2300      	movgt	r3, #0
 8003e08:	b2db      	uxtb	r3, r3
 8003e0a:	4013      	ands	r3, r2
 8003e0c:	b2db      	uxtb	r3, r3
 8003e0e:	4619      	mov	r1, r3
 8003e10:	683b      	ldr	r3, [r7, #0]
 8003e12:	2b01      	cmp	r3, #1
 8003e14:	bf0c      	ite	eq
 8003e16:	2301      	moveq	r3, #1
 8003e18:	2300      	movne	r3, #0
 8003e1a:	b2da      	uxtb	r2, r3
 8003e1c:	683b      	ldr	r3, [r7, #0]
 8003e1e:	2b00      	cmp	r3, #0
 8003e20:	bf0c      	ite	eq
 8003e22:	2301      	moveq	r3, #1
 8003e24:	2300      	movne	r3, #0
 8003e26:	b2db      	uxtb	r3, r3
 8003e28:	4313      	orrs	r3, r2
 8003e2a:	b2db      	uxtb	r3, r3
 8003e2c:	400b      	ands	r3, r1
 8003e2e:	2b00      	cmp	r3, #0
 8003e30:	d011      	beq.n	8003e56 <MAX7300_setPin+0x6e>
		payloadBuffer[0] = PORTREGISTERS[pinNumber];
 8003e32:	4a0b      	ldr	r2, [pc, #44]	; (8003e60 <MAX7300_setPin+0x78>)
 8003e34:	687b      	ldr	r3, [r7, #4]
 8003e36:	4413      	add	r3, r2
 8003e38:	781a      	ldrb	r2, [r3, #0]
 8003e3a:	4b0a      	ldr	r3, [pc, #40]	; (8003e64 <MAX7300_setPin+0x7c>)
 8003e3c:	701a      	strb	r2, [r3, #0]
		payloadBuffer[1] = pinValue;
 8003e3e:	683b      	ldr	r3, [r7, #0]
 8003e40:	b2da      	uxtb	r2, r3
 8003e42:	4b08      	ldr	r3, [pc, #32]	; (8003e64 <MAX7300_setPin+0x7c>)
 8003e44:	705a      	strb	r2, [r3, #1]
		HAL_I2C_Master_Transmit(&hi2c1, MAX7300_ADDRESS, payloadBuffer, 2, 10);
 8003e46:	230a      	movs	r3, #10
 8003e48:	9300      	str	r3, [sp, #0]
 8003e4a:	2302      	movs	r3, #2
 8003e4c:	4a05      	ldr	r2, [pc, #20]	; (8003e64 <MAX7300_setPin+0x7c>)
 8003e4e:	2180      	movs	r1, #128	; 0x80
 8003e50:	4805      	ldr	r0, [pc, #20]	; (8003e68 <MAX7300_setPin+0x80>)
 8003e52:	f7fe f95d 	bl	8002110 <HAL_I2C_Master_Transmit>
	}
}
 8003e56:	bf00      	nop
 8003e58:	3708      	adds	r7, #8
 8003e5a:	46bd      	mov	sp, r7
 8003e5c:	bd80      	pop	{r7, pc}
 8003e5e:	bf00      	nop
 8003e60:	20000174 	.word	0x20000174
 8003e64:	20000194 	.word	0x20000194
 8003e68:	200000b8 	.word	0x200000b8

08003e6c <__libc_init_array>:
 8003e6c:	b570      	push	{r4, r5, r6, lr}
 8003e6e:	4d0d      	ldr	r5, [pc, #52]	; (8003ea4 <__libc_init_array+0x38>)
 8003e70:	4c0d      	ldr	r4, [pc, #52]	; (8003ea8 <__libc_init_array+0x3c>)
 8003e72:	1b64      	subs	r4, r4, r5
 8003e74:	10a4      	asrs	r4, r4, #2
 8003e76:	2600      	movs	r6, #0
 8003e78:	42a6      	cmp	r6, r4
 8003e7a:	d109      	bne.n	8003e90 <__libc_init_array+0x24>
 8003e7c:	4d0b      	ldr	r5, [pc, #44]	; (8003eac <__libc_init_array+0x40>)
 8003e7e:	4c0c      	ldr	r4, [pc, #48]	; (8003eb0 <__libc_init_array+0x44>)
 8003e80:	f000 f820 	bl	8003ec4 <_init>
 8003e84:	1b64      	subs	r4, r4, r5
 8003e86:	10a4      	asrs	r4, r4, #2
 8003e88:	2600      	movs	r6, #0
 8003e8a:	42a6      	cmp	r6, r4
 8003e8c:	d105      	bne.n	8003e9a <__libc_init_array+0x2e>
 8003e8e:	bd70      	pop	{r4, r5, r6, pc}
 8003e90:	f855 3b04 	ldr.w	r3, [r5], #4
 8003e94:	4798      	blx	r3
 8003e96:	3601      	adds	r6, #1
 8003e98:	e7ee      	b.n	8003e78 <__libc_init_array+0xc>
 8003e9a:	f855 3b04 	ldr.w	r3, [r5], #4
 8003e9e:	4798      	blx	r3
 8003ea0:	3601      	adds	r6, #1
 8003ea2:	e7f2      	b.n	8003e8a <__libc_init_array+0x1e>
 8003ea4:	08003f1c 	.word	0x08003f1c
 8003ea8:	08003f1c 	.word	0x08003f1c
 8003eac:	08003f1c 	.word	0x08003f1c
 8003eb0:	08003f20 	.word	0x08003f20

08003eb4 <memset>:
 8003eb4:	4402      	add	r2, r0
 8003eb6:	4603      	mov	r3, r0
 8003eb8:	4293      	cmp	r3, r2
 8003eba:	d100      	bne.n	8003ebe <memset+0xa>
 8003ebc:	4770      	bx	lr
 8003ebe:	f803 1b01 	strb.w	r1, [r3], #1
 8003ec2:	e7f9      	b.n	8003eb8 <memset+0x4>

08003ec4 <_init>:
 8003ec4:	b5f8      	push	{r3, r4, r5, r6, r7, lr}
 8003ec6:	bf00      	nop
 8003ec8:	bcf8      	pop	{r3, r4, r5, r6, r7}
 8003eca:	bc08      	pop	{r3}
 8003ecc:	469e      	mov	lr, r3
 8003ece:	4770      	bx	lr

08003ed0 <_fini>:
 8003ed0:	b5f8      	push	{r3, r4, r5, r6, r7, lr}
 8003ed2:	bf00      	nop
 8003ed4:	bcf8      	pop	{r3, r4, r5, r6, r7}
 8003ed6:	bc08      	pop	{r3}
 8003ed8:	469e      	mov	lr, r3
 8003eda:	4770      	bx	lr
